
./build/mymain.elf:     file format elf32-littlearm


Disassembly of section .text:

20000000 <__boot_start__>:
20000000:	480e      	ldr	r0, [pc, #56]	; (2000003c <_boot_start_loop+0x12>)
20000002:	490f      	ldr	r1, [pc, #60]	; (20000040 <_boot_start_loop+0x16>)
20000004:	6001      	str	r1, [r0, #0]
20000006:	480f      	ldr	r0, [pc, #60]	; (20000044 <_boot_start_loop+0x1a>)
20000008:	490f      	ldr	r1, [pc, #60]	; (20000048 <_boot_start_loop+0x1e>)
2000000a:	6001      	str	r1, [r0, #0]
2000000c:	480f      	ldr	r0, [pc, #60]	; (2000004c <_boot_start_loop+0x22>)
2000000e:	4910      	ldr	r1, [pc, #64]	; (20000050 <_boot_start_loop+0x26>)
20000010:	6001      	str	r1, [r0, #0]
20000012:	4810      	ldr	r0, [pc, #64]	; (20000054 <_boot_start_loop+0x2a>)
20000014:	4910      	ldr	r1, [pc, #64]	; (20000058 <_boot_start_loop+0x2e>)
20000016:	6001      	str	r1, [r0, #0]
20000018:	4810      	ldr	r0, [pc, #64]	; (2000005c <_boot_start_loop+0x32>)
2000001a:	4809      	ldr	r0, [pc, #36]	; (20000040 <_boot_start_loop+0x16>)
2000001c:	6001      	str	r1, [r0, #0]
2000001e:	4807      	ldr	r0, [pc, #28]	; (2000003c <_boot_start_loop+0x12>)
20000020:	490f      	ldr	r1, [pc, #60]	; (20000060 <_boot_start_loop+0x36>)
20000022:	6001      	str	r1, [r0, #0]
20000024:	480f      	ldr	r0, [pc, #60]	; (20000064 <_boot_start_loop+0x3a>)
20000026:	4910      	ldr	r1, [pc, #64]	; (20000068 <_boot_start_loop+0x3e>)
20000028:	4a10      	ldr	r2, [pc, #64]	; (2000006c <_boot_start_loop+0x42>)

2000002a <_boot_start_loop>:
2000002a:	6803      	ldr	r3, [r0, #0]
2000002c:	600b      	str	r3, [r1, #0]
2000002e:	3004      	adds	r0, #4
20000030:	3104      	adds	r1, #4
20000032:	4291      	cmp	r1, r2
20000034:	d1f9      	bne.n	2000002a <_boot_start_loop>
20000036:	480e      	ldr	r0, [pc, #56]	; (20000070 <_boot_start_loop+0x46>)
20000038:	4700      	bx	r0
2000003a:	00080000 	andeq	r0, r8, r0
2000003e:	00001800 	andeq	r1, r0, r0, lsl #16
20000042:	00140000 	andseq	r0, r4, r0
20000046:	00081800 	andeq	r1, r8, r0, lsl #16
2000004a:	00000000 	andeq	r0, r0, r0
2000004e:	03001800 	movweq	r1, #2048	; 0x800
20000052:	00f4001f 	rscseq	r0, r4, pc, lsl r0
20000056:	02181800 	andseq	r1, r8, #0, 16
2000005a:	00040300 	andeq	r0, r4, r0, lsl #6
2000005e:	00011800 	andeq	r1, r1, r0, lsl #16
20000062:	00000000 	andeq	r0, r0, r0
20000066:	00001000 	andeq	r1, r0, r0
2000006a:	f0002000 			; <UNDEFINED> instruction: 0xf0002000
2000006e:	01012000 	mrseq	r2, (UNDEF: 1)
20000072:	00002000 	andeq	r2, r0, r0
	...

20000100 <_start>:
20000100:	4805      	ldr	r0, [pc, #20]	; (20000118 <DELAY+0x6>)
20000102:	4685      	mov	sp, r0
20000104:	f001 f9b6 	bl	20001474 <cstart>
20000108:	e7fe      	b.n	20000108 <_start+0x8>

2000010a <PUT32>:
2000010a:	6001      	str	r1, [r0, #0]
2000010c:	4770      	bx	lr

2000010e <GET32>:
2000010e:	6800      	ldr	r0, [r0, #0]
20000110:	4770      	bx	lr

20000112 <DELAY>:
20000112:	3801      	subs	r0, #1
20000114:	d1fd      	bne.n	20000112 <DELAY>
20000116:	4770      	bx	lr
20000118:	20010000 	andcs	r0, r1, r0

2000011c <mymain>:
2000011c:	b580      	push	{r7, lr}
2000011e:	b082      	sub	sp, #8
20000120:	af00      	add	r7, sp, #0
20000122:	200f      	movs	r0, #15
20000124:	f000 f8a0 	bl	20000268 <gpio_set_output>
20000128:	2300      	movs	r3, #0
2000012a:	607b      	str	r3, [r7, #4]
2000012c:	200f      	movs	r0, #15
2000012e:	f000 f8d9 	bl	200002e4 <gpio_set_on>
20000132:	4b08      	ldr	r3, [pc, #32]	; (20000154 <mymain+0x38>)
20000134:	0018      	movs	r0, r3
20000136:	f000 f961 	bl	200003fc <delay_us>
2000013a:	4b07      	ldr	r3, [pc, #28]	; (20000158 <mymain+0x3c>)
2000013c:	0018      	movs	r0, r3
2000013e:	f000 ffbc 	bl	200010ba <printf_>
20000142:	200f      	movs	r0, #15
20000144:	f000 f8e6 	bl	20000314 <gpio_set_off>
20000148:	4b02      	ldr	r3, [pc, #8]	; (20000154 <mymain+0x38>)
2000014a:	0018      	movs	r0, r3
2000014c:	f000 f956 	bl	200003fc <delay_us>
20000150:	e7ec      	b.n	2000012c <mymain+0x10>
20000152:	46c0      	nop			; (mov r8, r8)
20000154:	000f4240 	andeq	r4, pc, r0, asr #4
20000158:	100019e0 	andne	r1, r0, r0, ror #19

2000015c <reset_periph>:
2000015c:	b580      	push	{r7, lr}
2000015e:	b082      	sub	sp, #8
20000160:	af00      	add	r7, sp, #0
20000162:	6078      	str	r0, [r7, #4]
20000164:	2201      	movs	r2, #1
20000166:	687b      	ldr	r3, [r7, #4]
20000168:	409a      	lsls	r2, r3
2000016a:	0013      	movs	r3, r2
2000016c:	001a      	movs	r2, r3
2000016e:	4b0b      	ldr	r3, [pc, #44]	; (2000019c <reset_periph+0x40>)
20000170:	0011      	movs	r1, r2
20000172:	0018      	movs	r0, r3
20000174:	f7ff ffc9 	bl	2000010a <PUT32>
20000178:	46c0      	nop			; (mov r8, r8)
2000017a:	4b09      	ldr	r3, [pc, #36]	; (200001a0 <reset_periph+0x44>)
2000017c:	0018      	movs	r0, r3
2000017e:	f7ff ffc6 	bl	2000010e <GET32>
20000182:	0002      	movs	r2, r0
20000184:	687b      	ldr	r3, [r7, #4]
20000186:	40da      	lsrs	r2, r3
20000188:	0013      	movs	r3, r2
2000018a:	2201      	movs	r2, #1
2000018c:	4013      	ands	r3, r2
2000018e:	d0f4      	beq.n	2000017a <reset_periph+0x1e>
20000190:	46c0      	nop			; (mov r8, r8)
20000192:	46c0      	nop			; (mov r8, r8)
20000194:	46bd      	mov	sp, r7
20000196:	b002      	add	sp, #8
20000198:	bd80      	pop	{r7, pc}
2000019a:	46c0      	nop			; (mov r8, r8)
2000019c:	4000f000 	andmi	pc, r0, r0
200001a0:	4000c008 	andmi	ip, r0, r8

200001a4 <gpio_reset>:
200001a4:	b580      	push	{r7, lr}
200001a6:	af00      	add	r7, sp, #0
200001a8:	2005      	movs	r0, #5
200001aa:	f7ff ffd7 	bl	2000015c <reset_periph>
200001ae:	46c0      	nop			; (mov r8, r8)
200001b0:	46bd      	mov	sp, r7
200001b2:	bd80      	pop	{r7, pc}

200001b4 <gpio_set_function>:
200001b4:	b580      	push	{r7, lr}
200001b6:	b084      	sub	sp, #16
200001b8:	af00      	add	r7, sp, #0
200001ba:	6078      	str	r0, [r7, #4]
200001bc:	6039      	str	r1, [r7, #0]
200001be:	687b      	ldr	r3, [r7, #4]
200001c0:	2b1d      	cmp	r3, #29
200001c2:	d80f      	bhi.n	200001e4 <gpio_set_function+0x30>
200001c4:	683b      	ldr	r3, [r7, #0]
200001c6:	2b07      	cmp	r3, #7
200001c8:	d80e      	bhi.n	200001e8 <gpio_set_function+0x34>
200001ca:	687b      	ldr	r3, [r7, #4]
200001cc:	00db      	lsls	r3, r3, #3
200001ce:	60fb      	str	r3, [r7, #12]
200001d0:	68fb      	ldr	r3, [r7, #12]
200001d2:	4a07      	ldr	r2, [pc, #28]	; (200001f0 <gpio_set_function+0x3c>)
200001d4:	4694      	mov	ip, r2
200001d6:	4463      	add	r3, ip
200001d8:	683a      	ldr	r2, [r7, #0]
200001da:	0011      	movs	r1, r2
200001dc:	0018      	movs	r0, r3
200001de:	f7ff ff94 	bl	2000010a <PUT32>
200001e2:	e002      	b.n	200001ea <gpio_set_function+0x36>
200001e4:	46c0      	nop			; (mov r8, r8)
200001e6:	e000      	b.n	200001ea <gpio_set_function+0x36>
200001e8:	46c0      	nop			; (mov r8, r8)
200001ea:	46bd      	mov	sp, r7
200001ec:	b004      	add	sp, #16
200001ee:	bd80      	pop	{r7, pc}
200001f0:	40014004 	andmi	r4, r1, r4

200001f4 <gpio_set_input>:
200001f4:	b580      	push	{r7, lr}
200001f6:	b084      	sub	sp, #16
200001f8:	af00      	add	r7, sp, #0
200001fa:	6078      	str	r0, [r7, #4]
200001fc:	687b      	ldr	r3, [r7, #4]
200001fe:	2b1d      	cmp	r3, #29
20000200:	d810      	bhi.n	20000224 <gpio_set_input+0x30>
20000202:	687b      	ldr	r3, [r7, #4]
20000204:	00db      	lsls	r3, r3, #3
20000206:	60fb      	str	r3, [r7, #12]
20000208:	68fb      	ldr	r3, [r7, #12]
2000020a:	4a08      	ldr	r2, [pc, #32]	; (2000022c <gpio_set_input+0x38>)
2000020c:	4694      	mov	ip, r2
2000020e:	4463      	add	r3, ip
20000210:	2105      	movs	r1, #5
20000212:	0018      	movs	r0, r3
20000214:	f7ff ff79 	bl	2000010a <PUT32>
20000218:	4b05      	ldr	r3, [pc, #20]	; (20000230 <gpio_set_input+0x3c>)
2000021a:	2100      	movs	r1, #0
2000021c:	0018      	movs	r0, r3
2000021e:	f7ff ff74 	bl	2000010a <PUT32>
20000222:	e000      	b.n	20000226 <gpio_set_input+0x32>
20000224:	46c0      	nop			; (mov r8, r8)
20000226:	46bd      	mov	sp, r7
20000228:	b004      	add	sp, #16
2000022a:	bd80      	pop	{r7, pc}
2000022c:	40014004 	andmi	r4, r1, r4
20000230:	d0002020 	andle	r2, r0, r0, lsr #32

20000234 <gpio_read>:
20000234:	b580      	push	{r7, lr}
20000236:	b082      	sub	sp, #8
20000238:	af00      	add	r7, sp, #0
2000023a:	6078      	str	r0, [r7, #4]
2000023c:	687b      	ldr	r3, [r7, #4]
2000023e:	2b1d      	cmp	r3, #29
20000240:	d901      	bls.n	20000246 <gpio_read+0x12>
20000242:	2300      	movs	r3, #0
20000244:	e009      	b.n	2000025a <gpio_read+0x26>
20000246:	4b07      	ldr	r3, [pc, #28]	; (20000264 <gpio_read+0x30>)
20000248:	0018      	movs	r0, r3
2000024a:	f7ff ff60 	bl	2000010e <GET32>
2000024e:	0002      	movs	r2, r0
20000250:	687b      	ldr	r3, [r7, #4]
20000252:	40da      	lsrs	r2, r3
20000254:	0013      	movs	r3, r2
20000256:	2201      	movs	r2, #1
20000258:	4013      	ands	r3, r2
2000025a:	0018      	movs	r0, r3
2000025c:	46bd      	mov	sp, r7
2000025e:	b002      	add	sp, #8
20000260:	bd80      	pop	{r7, pc}
20000262:	46c0      	nop			; (mov r8, r8)
20000264:	d0000004 	andle	r0, r0, r4

20000268 <gpio_set_output>:
20000268:	b580      	push	{r7, lr}
2000026a:	b084      	sub	sp, #16
2000026c:	af00      	add	r7, sp, #0
2000026e:	6078      	str	r0, [r7, #4]
20000270:	687b      	ldr	r3, [r7, #4]
20000272:	2b1d      	cmp	r3, #29
20000274:	d829      	bhi.n	200002ca <gpio_set_output+0x62>
20000276:	687b      	ldr	r3, [r7, #4]
20000278:	00db      	lsls	r3, r3, #3
2000027a:	60fb      	str	r3, [r7, #12]
2000027c:	2201      	movs	r2, #1
2000027e:	687b      	ldr	r3, [r7, #4]
20000280:	409a      	lsls	r2, r3
20000282:	0013      	movs	r3, r2
20000284:	001a      	movs	r2, r3
20000286:	4b13      	ldr	r3, [pc, #76]	; (200002d4 <gpio_set_output+0x6c>)
20000288:	0011      	movs	r1, r2
2000028a:	0018      	movs	r0, r3
2000028c:	f7ff ff3d 	bl	2000010a <PUT32>
20000290:	2201      	movs	r2, #1
20000292:	687b      	ldr	r3, [r7, #4]
20000294:	409a      	lsls	r2, r3
20000296:	0013      	movs	r3, r2
20000298:	001a      	movs	r2, r3
2000029a:	4b0f      	ldr	r3, [pc, #60]	; (200002d8 <gpio_set_output+0x70>)
2000029c:	0011      	movs	r1, r2
2000029e:	0018      	movs	r0, r3
200002a0:	f7ff ff33 	bl	2000010a <PUT32>
200002a4:	68fb      	ldr	r3, [r7, #12]
200002a6:	4a0d      	ldr	r2, [pc, #52]	; (200002dc <gpio_set_output+0x74>)
200002a8:	4694      	mov	ip, r2
200002aa:	4463      	add	r3, ip
200002ac:	2105      	movs	r1, #5
200002ae:	0018      	movs	r0, r3
200002b0:	f7ff ff2b 	bl	2000010a <PUT32>
200002b4:	2201      	movs	r2, #1
200002b6:	687b      	ldr	r3, [r7, #4]
200002b8:	409a      	lsls	r2, r3
200002ba:	0013      	movs	r3, r2
200002bc:	001a      	movs	r2, r3
200002be:	4b08      	ldr	r3, [pc, #32]	; (200002e0 <gpio_set_output+0x78>)
200002c0:	0011      	movs	r1, r2
200002c2:	0018      	movs	r0, r3
200002c4:	f7ff ff21 	bl	2000010a <PUT32>
200002c8:	e000      	b.n	200002cc <gpio_set_output+0x64>
200002ca:	46c0      	nop			; (mov r8, r8)
200002cc:	46bd      	mov	sp, r7
200002ce:	b004      	add	sp, #16
200002d0:	bd80      	pop	{r7, pc}
200002d2:	46c0      	nop			; (mov r8, r8)
200002d4:	d0000028 	andle	r0, r0, r8, lsr #32
200002d8:	d0000018 	andle	r0, r0, r8, lsl r0
200002dc:	40014004 	andmi	r4, r1, r4
200002e0:	d0000024 	andle	r0, r0, r4, lsr #32

200002e4 <gpio_set_on>:
200002e4:	b580      	push	{r7, lr}
200002e6:	b082      	sub	sp, #8
200002e8:	af00      	add	r7, sp, #0
200002ea:	6078      	str	r0, [r7, #4]
200002ec:	687b      	ldr	r3, [r7, #4]
200002ee:	2b1d      	cmp	r3, #29
200002f0:	d80a      	bhi.n	20000308 <gpio_set_on+0x24>
200002f2:	2201      	movs	r2, #1
200002f4:	687b      	ldr	r3, [r7, #4]
200002f6:	409a      	lsls	r2, r3
200002f8:	0013      	movs	r3, r2
200002fa:	001a      	movs	r2, r3
200002fc:	4b04      	ldr	r3, [pc, #16]	; (20000310 <gpio_set_on+0x2c>)
200002fe:	0011      	movs	r1, r2
20000300:	0018      	movs	r0, r3
20000302:	f7ff ff02 	bl	2000010a <PUT32>
20000306:	e000      	b.n	2000030a <gpio_set_on+0x26>
20000308:	46c0      	nop			; (mov r8, r8)
2000030a:	46bd      	mov	sp, r7
2000030c:	b002      	add	sp, #8
2000030e:	bd80      	pop	{r7, pc}
20000310:	d0000014 	andle	r0, r0, r4, lsl r0

20000314 <gpio_set_off>:
20000314:	b580      	push	{r7, lr}
20000316:	b082      	sub	sp, #8
20000318:	af00      	add	r7, sp, #0
2000031a:	6078      	str	r0, [r7, #4]
2000031c:	687b      	ldr	r3, [r7, #4]
2000031e:	2b1d      	cmp	r3, #29
20000320:	d80a      	bhi.n	20000338 <gpio_set_off+0x24>
20000322:	2201      	movs	r2, #1
20000324:	687b      	ldr	r3, [r7, #4]
20000326:	409a      	lsls	r2, r3
20000328:	0013      	movs	r3, r2
2000032a:	001a      	movs	r2, r3
2000032c:	4b04      	ldr	r3, [pc, #16]	; (20000340 <gpio_set_off+0x2c>)
2000032e:	0011      	movs	r1, r2
20000330:	0018      	movs	r0, r3
20000332:	f7ff feea 	bl	2000010a <PUT32>
20000336:	e000      	b.n	2000033a <gpio_set_off+0x26>
20000338:	46c0      	nop			; (mov r8, r8)
2000033a:	46bd      	mov	sp, r7
2000033c:	b002      	add	sp, #8
2000033e:	bd80      	pop	{r7, pc}
20000340:	d0000018 	andle	r0, r0, r8, lsl r0

20000344 <seconds_start>:
20000344:	b580      	push	{r7, lr}
20000346:	af00      	add	r7, sp, #0
20000348:	4b11      	ldr	r3, [pc, #68]	; (20000390 <seconds_start+0x4c>)
2000034a:	2104      	movs	r1, #4
2000034c:	0018      	movs	r0, r3
2000034e:	f7ff fedc 	bl	2000010a <PUT32>
20000352:	4a10      	ldr	r2, [pc, #64]	; (20000394 <seconds_start+0x50>)
20000354:	4b10      	ldr	r3, [pc, #64]	; (20000398 <seconds_start+0x54>)
20000356:	0011      	movs	r1, r2
20000358:	0018      	movs	r0, r3
2000035a:	f7ff fed6 	bl	2000010a <PUT32>
2000035e:	4b0f      	ldr	r3, [pc, #60]	; (2000039c <seconds_start+0x58>)
20000360:	2100      	movs	r1, #0
20000362:	0018      	movs	r0, r3
20000364:	f7ff fed1 	bl	2000010a <PUT32>
20000368:	4b09      	ldr	r3, [pc, #36]	; (20000390 <seconds_start+0x4c>)
2000036a:	2105      	movs	r1, #5
2000036c:	0018      	movs	r0, r3
2000036e:	f7ff fecc 	bl	2000010a <PUT32>
20000372:	46c0      	nop			; (mov r8, r8)
20000374:	4b06      	ldr	r3, [pc, #24]	; (20000390 <seconds_start+0x4c>)
20000376:	0018      	movs	r0, r3
20000378:	f7ff fec9 	bl	2000010e <GET32>
2000037c:	0003      	movs	r3, r0
2000037e:	0c1b      	lsrs	r3, r3, #16
20000380:	2201      	movs	r2, #1
20000382:	4013      	ands	r3, r2
20000384:	d0f6      	beq.n	20000374 <seconds_start+0x30>
20000386:	46c0      	nop			; (mov r8, r8)
20000388:	46c0      	nop			; (mov r8, r8)
2000038a:	46bd      	mov	sp, r7
2000038c:	bd80      	pop	{r7, pc}
2000038e:	46c0      	nop			; (mov r8, r8)
20000390:	e000e010 	and	lr, r0, r0, lsl r0
20000394:	00b71aff 	ldrshteq	r1, [r7], pc
20000398:	e000e014 	and	lr, r0, r4, lsl r0
2000039c:	e000e018 	and	lr, r0, r8, lsl r0

200003a0 <enable_clock>:
200003a0:	b580      	push	{r7, lr}
200003a2:	b082      	sub	sp, #8
200003a4:	af00      	add	r7, sp, #0
200003a6:	232f      	movs	r3, #47	; 0x2f
200003a8:	607b      	str	r3, [r7, #4]
200003aa:	23aa      	movs	r3, #170	; 0xaa
200003ac:	011b      	lsls	r3, r3, #4
200003ae:	4a0e      	ldr	r2, [pc, #56]	; (200003e8 <enable_clock+0x48>)
200003b0:	0019      	movs	r1, r3
200003b2:	0010      	movs	r0, r2
200003b4:	f7ff fea9 	bl	2000010a <PUT32>
200003b8:	687b      	ldr	r3, [r7, #4]
200003ba:	4a0c      	ldr	r2, [pc, #48]	; (200003ec <enable_clock+0x4c>)
200003bc:	0019      	movs	r1, r3
200003be:	0010      	movs	r0, r2
200003c0:	f7ff fea3 	bl	2000010a <PUT32>
200003c4:	4a0a      	ldr	r2, [pc, #40]	; (200003f0 <enable_clock+0x50>)
200003c6:	4b0b      	ldr	r3, [pc, #44]	; (200003f4 <enable_clock+0x54>)
200003c8:	0011      	movs	r1, r2
200003ca:	0018      	movs	r0, r3
200003cc:	f7ff fe9d 	bl	2000010a <PUT32>
200003d0:	46c0      	nop			; (mov r8, r8)
200003d2:	4b09      	ldr	r3, [pc, #36]	; (200003f8 <enable_clock+0x58>)
200003d4:	0018      	movs	r0, r3
200003d6:	f7ff fe9a 	bl	2000010e <GET32>
200003da:	1e03      	subs	r3, r0, #0
200003dc:	daf9      	bge.n	200003d2 <enable_clock+0x32>
200003de:	46c0      	nop			; (mov r8, r8)
200003e0:	46c0      	nop			; (mov r8, r8)
200003e2:	46bd      	mov	sp, r7
200003e4:	b002      	add	sp, #8
200003e6:	bd80      	pop	{r7, pc}
200003e8:	40024000 	andmi	r4, r2, r0
200003ec:	4002400c 	andmi	r4, r2, ip
200003f0:	00fab000 	rscseq	fp, sl, r0
200003f4:	40026000 	andmi	r6, r2, r0
200003f8:	40024004 	andmi	r4, r2, r4

200003fc <delay_us>:
200003fc:	b580      	push	{r7, lr}
200003fe:	b084      	sub	sp, #16
20000400:	af00      	add	r7, sp, #0
20000402:	6078      	str	r0, [r7, #4]
20000404:	687a      	ldr	r2, [r7, #4]
20000406:	0013      	movs	r3, r2
20000408:	005b      	lsls	r3, r3, #1
2000040a:	189b      	adds	r3, r3, r2
2000040c:	009b      	lsls	r3, r3, #2
2000040e:	0a1b      	lsrs	r3, r3, #8
20000410:	60bb      	str	r3, [r7, #8]
20000412:	2300      	movs	r3, #0
20000414:	60fb      	str	r3, [r7, #12]
20000416:	e010      	b.n	2000043a <delay_us+0x3e>
20000418:	4b0c      	ldr	r3, [pc, #48]	; (2000044c <delay_us+0x50>)
2000041a:	21a9      	movs	r1, #169	; 0xa9
2000041c:	0018      	movs	r0, r3
2000041e:	f7ff fe74 	bl	2000010a <PUT32>
20000422:	46c0      	nop			; (mov r8, r8)
20000424:	4b0a      	ldr	r3, [pc, #40]	; (20000450 <delay_us+0x54>)
20000426:	0018      	movs	r0, r3
20000428:	f7ff fe71 	bl	2000010e <GET32>
2000042c:	0003      	movs	r3, r0
2000042e:	22ff      	movs	r2, #255	; 0xff
20000430:	4013      	ands	r3, r2
20000432:	d1f7      	bne.n	20000424 <delay_us+0x28>
20000434:	68fb      	ldr	r3, [r7, #12]
20000436:	3301      	adds	r3, #1
20000438:	60fb      	str	r3, [r7, #12]
2000043a:	68fb      	ldr	r3, [r7, #12]
2000043c:	68ba      	ldr	r2, [r7, #8]
2000043e:	429a      	cmp	r2, r3
20000440:	d8ea      	bhi.n	20000418 <delay_us+0x1c>
20000442:	46c0      	nop			; (mov r8, r8)
20000444:	46c0      	nop			; (mov r8, r8)
20000446:	46bd      	mov	sp, r7
20000448:	b004      	add	sp, #16
2000044a:	bd80      	pop	{r7, pc}
2000044c:	4002601c 	andmi	r6, r2, ip, lsl r0
20000450:	4002401c 	andmi	r4, r2, ip, lsl r0

20000454 <micro_seconds_start>:
20000454:	b580      	push	{r7, lr}
20000456:	b082      	sub	sp, #8
20000458:	af00      	add	r7, sp, #0
2000045a:	6078      	str	r0, [r7, #4]
2000045c:	4b0c      	ldr	r3, [pc, #48]	; (20000490 <micro_seconds_start+0x3c>)
2000045e:	2100      	movs	r1, #0
20000460:	0018      	movs	r0, r3
20000462:	f7ff fe52 	bl	2000010a <PUT32>
20000466:	687b      	ldr	r3, [r7, #4]
20000468:	4a0a      	ldr	r2, [pc, #40]	; (20000494 <micro_seconds_start+0x40>)
2000046a:	0019      	movs	r1, r3
2000046c:	0010      	movs	r0, r2
2000046e:	f7ff fe4c 	bl	2000010a <PUT32>
20000472:	4b09      	ldr	r3, [pc, #36]	; (20000498 <micro_seconds_start+0x44>)
20000474:	2100      	movs	r1, #0
20000476:	0018      	movs	r0, r3
20000478:	f7ff fe47 	bl	2000010a <PUT32>
2000047c:	4b04      	ldr	r3, [pc, #16]	; (20000490 <micro_seconds_start+0x3c>)
2000047e:	2101      	movs	r1, #1
20000480:	0018      	movs	r0, r3
20000482:	f7ff fe42 	bl	2000010a <PUT32>
20000486:	46c0      	nop			; (mov r8, r8)
20000488:	46bd      	mov	sp, r7
2000048a:	b002      	add	sp, #8
2000048c:	bd80      	pop	{r7, pc}
2000048e:	46c0      	nop			; (mov r8, r8)
20000490:	e000e010 	and	lr, r0, r0, lsl r0
20000494:	e000e014 	and	lr, r0, r4, lsl r0
20000498:	e000e018 	and	lr, r0, r8, lsl r0

2000049c <enable_clk_peri>:
2000049c:	b580      	push	{r7, lr}
2000049e:	b082      	sub	sp, #8
200004a0:	af00      	add	r7, sp, #0
200004a2:	6078      	str	r0, [r7, #4]
200004a4:	687b      	ldr	r3, [r7, #4]
200004a6:	2b06      	cmp	r3, #6
200004a8:	d80e      	bhi.n	200004c8 <enable_clk_peri+0x2c>
200004aa:	2380      	movs	r3, #128	; 0x80
200004ac:	011b      	lsls	r3, r3, #4
200004ae:	4a08      	ldr	r2, [pc, #32]	; (200004d0 <enable_clk_peri+0x34>)
200004b0:	0019      	movs	r1, r3
200004b2:	0010      	movs	r0, r2
200004b4:	f7ff fe29 	bl	2000010a <PUT32>
200004b8:	687b      	ldr	r3, [r7, #4]
200004ba:	015b      	lsls	r3, r3, #5
200004bc:	4a04      	ldr	r2, [pc, #16]	; (200004d0 <enable_clk_peri+0x34>)
200004be:	0019      	movs	r1, r3
200004c0:	0010      	movs	r0, r2
200004c2:	f7ff fe22 	bl	2000010a <PUT32>
200004c6:	e000      	b.n	200004ca <enable_clk_peri+0x2e>
200004c8:	46c0      	nop			; (mov r8, r8)
200004ca:	46bd      	mov	sp, r7
200004cc:	b002      	add	sp, #8
200004ce:	bd80      	pop	{r7, pc}
200004d0:	4000a048 	andmi	sl, r0, r8, asr #32

200004d4 <iabs>:
200004d4:	b580      	push	{r7, lr}
200004d6:	b082      	sub	sp, #8
200004d8:	af00      	add	r7, sp, #0
200004da:	6078      	str	r0, [r7, #4]
200004dc:	687b      	ldr	r3, [r7, #4]
200004de:	17da      	asrs	r2, r3, #31
200004e0:	189b      	adds	r3, r3, r2
200004e2:	4053      	eors	r3, r2
200004e4:	0018      	movs	r0, r3
200004e6:	46bd      	mov	sp, r7
200004e8:	b002      	add	sp, #8
200004ea:	bd80      	pop	{r7, pc}

200004ec <divlu>:
200004ec:	b5b0      	push	{r4, r5, r7, lr}
200004ee:	b08a      	sub	sp, #40	; 0x28
200004f0:	af00      	add	r7, sp, #0
200004f2:	60b8      	str	r0, [r7, #8]
200004f4:	60f9      	str	r1, [r7, #12]
200004f6:	607a      	str	r2, [r7, #4]
200004f8:	68fb      	ldr	r3, [r7, #12]
200004fa:	001c      	movs	r4, r3
200004fc:	2300      	movs	r3, #0
200004fe:	001d      	movs	r5, r3
20000500:	0023      	movs	r3, r4
20000502:	623b      	str	r3, [r7, #32]
20000504:	68bb      	ldr	r3, [r7, #8]
20000506:	61fb      	str	r3, [r7, #28]
20000508:	687b      	ldr	r3, [r7, #4]
2000050a:	61bb      	str	r3, [r7, #24]
2000050c:	2301      	movs	r3, #1
2000050e:	627b      	str	r3, [r7, #36]	; 0x24
20000510:	e01b      	b.n	2000054a <divlu+0x5e>
20000512:	6a3b      	ldr	r3, [r7, #32]
20000514:	17db      	asrs	r3, r3, #31
20000516:	617b      	str	r3, [r7, #20]
20000518:	6a3b      	ldr	r3, [r7, #32]
2000051a:	005a      	lsls	r2, r3, #1
2000051c:	69fb      	ldr	r3, [r7, #28]
2000051e:	0fdb      	lsrs	r3, r3, #31
20000520:	4313      	orrs	r3, r2
20000522:	623b      	str	r3, [r7, #32]
20000524:	69fb      	ldr	r3, [r7, #28]
20000526:	005b      	lsls	r3, r3, #1
20000528:	61fb      	str	r3, [r7, #28]
2000052a:	6a3a      	ldr	r2, [r7, #32]
2000052c:	697b      	ldr	r3, [r7, #20]
2000052e:	4313      	orrs	r3, r2
20000530:	69ba      	ldr	r2, [r7, #24]
20000532:	429a      	cmp	r2, r3
20000534:	d806      	bhi.n	20000544 <divlu+0x58>
20000536:	6a3a      	ldr	r2, [r7, #32]
20000538:	69bb      	ldr	r3, [r7, #24]
2000053a:	1ad3      	subs	r3, r2, r3
2000053c:	623b      	str	r3, [r7, #32]
2000053e:	69fb      	ldr	r3, [r7, #28]
20000540:	3301      	adds	r3, #1
20000542:	61fb      	str	r3, [r7, #28]
20000544:	6a7b      	ldr	r3, [r7, #36]	; 0x24
20000546:	3301      	adds	r3, #1
20000548:	627b      	str	r3, [r7, #36]	; 0x24
2000054a:	6a7b      	ldr	r3, [r7, #36]	; 0x24
2000054c:	2b20      	cmp	r3, #32
2000054e:	dde0      	ble.n	20000512 <divlu+0x26>
20000550:	69fb      	ldr	r3, [r7, #28]
20000552:	0018      	movs	r0, r3
20000554:	46bd      	mov	sp, r7
20000556:	b00a      	add	sp, #40	; 0x28
20000558:	bdb0      	pop	{r4, r5, r7, pc}

2000055a <udiv>:
2000055a:	b5b0      	push	{r4, r5, r7, lr}
2000055c:	b082      	sub	sp, #8
2000055e:	af00      	add	r7, sp, #0
20000560:	6078      	str	r0, [r7, #4]
20000562:	6039      	str	r1, [r7, #0]
20000564:	687b      	ldr	r3, [r7, #4]
20000566:	001c      	movs	r4, r3
20000568:	2300      	movs	r3, #0
2000056a:	001d      	movs	r5, r3
2000056c:	683b      	ldr	r3, [r7, #0]
2000056e:	001a      	movs	r2, r3
20000570:	0020      	movs	r0, r4
20000572:	0029      	movs	r1, r5
20000574:	f7ff ffba 	bl	200004ec <divlu>
20000578:	0003      	movs	r3, r0
2000057a:	0018      	movs	r0, r3
2000057c:	46bd      	mov	sp, r7
2000057e:	b002      	add	sp, #8
20000580:	bdb0      	pop	{r4, r5, r7, pc}

20000582 <idiv>:
20000582:	b590      	push	{r4, r7, lr}
20000584:	b085      	sub	sp, #20
20000586:	af00      	add	r7, sp, #0
20000588:	6078      	str	r0, [r7, #4]
2000058a:	6039      	str	r1, [r7, #0]
2000058c:	687b      	ldr	r3, [r7, #4]
2000058e:	2b00      	cmp	r3, #0
20000590:	d101      	bne.n	20000596 <idiv+0x14>
20000592:	2300      	movs	r3, #0
20000594:	e01f      	b.n	200005d6 <idiv+0x54>
20000596:	687b      	ldr	r3, [r7, #4]
20000598:	0018      	movs	r0, r3
2000059a:	f7ff ff9b 	bl	200004d4 <iabs>
2000059e:	0004      	movs	r4, r0
200005a0:	683b      	ldr	r3, [r7, #0]
200005a2:	0018      	movs	r0, r3
200005a4:	f7ff ff96 	bl	200004d4 <iabs>
200005a8:	0003      	movs	r3, r0
200005aa:	0019      	movs	r1, r3
200005ac:	0020      	movs	r0, r4
200005ae:	f7ff ffd4 	bl	2000055a <udiv>
200005b2:	0003      	movs	r3, r0
200005b4:	60fb      	str	r3, [r7, #12]
200005b6:	687b      	ldr	r3, [r7, #4]
200005b8:	2b00      	cmp	r3, #0
200005ba:	da02      	bge.n	200005c2 <idiv+0x40>
200005bc:	683b      	ldr	r3, [r7, #0]
200005be:	2b00      	cmp	r3, #0
200005c0:	db05      	blt.n	200005ce <idiv+0x4c>
200005c2:	687b      	ldr	r3, [r7, #4]
200005c4:	2b00      	cmp	r3, #0
200005c6:	dd04      	ble.n	200005d2 <idiv+0x50>
200005c8:	683b      	ldr	r3, [r7, #0]
200005ca:	2b00      	cmp	r3, #0
200005cc:	dd01      	ble.n	200005d2 <idiv+0x50>
200005ce:	68fb      	ldr	r3, [r7, #12]
200005d0:	e001      	b.n	200005d6 <idiv+0x54>
200005d2:	68fb      	ldr	r3, [r7, #12]
200005d4:	425b      	negs	r3, r3
200005d6:	0018      	movs	r0, r3
200005d8:	46bd      	mov	sp, r7
200005da:	b005      	add	sp, #20
200005dc:	bd90      	pop	{r4, r7, pc}

200005de <imod>:
200005de:	b580      	push	{r7, lr}
200005e0:	b084      	sub	sp, #16
200005e2:	af00      	add	r7, sp, #0
200005e4:	6078      	str	r0, [r7, #4]
200005e6:	6039      	str	r1, [r7, #0]
200005e8:	683b      	ldr	r3, [r7, #0]
200005ea:	2b00      	cmp	r3, #0
200005ec:	d101      	bne.n	200005f2 <imod+0x14>
200005ee:	687b      	ldr	r3, [r7, #4]
200005f0:	e00c      	b.n	2000060c <imod+0x2e>
200005f2:	683a      	ldr	r2, [r7, #0]
200005f4:	687b      	ldr	r3, [r7, #4]
200005f6:	0011      	movs	r1, r2
200005f8:	0018      	movs	r0, r3
200005fa:	f7ff ffc2 	bl	20000582 <idiv>
200005fe:	0003      	movs	r3, r0
20000600:	60fb      	str	r3, [r7, #12]
20000602:	683b      	ldr	r3, [r7, #0]
20000604:	68fa      	ldr	r2, [r7, #12]
20000606:	4353      	muls	r3, r2
20000608:	687a      	ldr	r2, [r7, #4]
2000060a:	1ad3      	subs	r3, r2, r3
2000060c:	0018      	movs	r0, r3
2000060e:	46bd      	mov	sp, r7
20000610:	b004      	add	sp, #16
20000612:	bd80      	pop	{r7, pc}

20000614 <_putchar>:
20000614:	b580      	push	{r7, lr}
20000616:	b082      	sub	sp, #8
20000618:	af00      	add	r7, sp, #0
2000061a:	0002      	movs	r2, r0
2000061c:	1dfb      	adds	r3, r7, #7
2000061e:	701a      	strb	r2, [r3, #0]
20000620:	1dfb      	adds	r3, r7, #7
20000622:	781b      	ldrb	r3, [r3, #0]
20000624:	0018      	movs	r0, r3
20000626:	f000 fef3 	bl	20001410 <uart_putc>
2000062a:	46c0      	nop			; (mov r8, r8)
2000062c:	46bd      	mov	sp, r7
2000062e:	b002      	add	sp, #8
20000630:	bd80      	pop	{r7, pc}

20000632 <_out_buffer>:
20000632:	b580      	push	{r7, lr}
20000634:	b084      	sub	sp, #16
20000636:	af00      	add	r7, sp, #0
20000638:	60b9      	str	r1, [r7, #8]
2000063a:	607a      	str	r2, [r7, #4]
2000063c:	603b      	str	r3, [r7, #0]
2000063e:	210f      	movs	r1, #15
20000640:	187b      	adds	r3, r7, r1
20000642:	1c02      	adds	r2, r0, #0
20000644:	701a      	strb	r2, [r3, #0]
20000646:	687a      	ldr	r2, [r7, #4]
20000648:	683b      	ldr	r3, [r7, #0]
2000064a:	429a      	cmp	r2, r3
2000064c:	d205      	bcs.n	2000065a <_out_buffer+0x28>
2000064e:	68ba      	ldr	r2, [r7, #8]
20000650:	687b      	ldr	r3, [r7, #4]
20000652:	18d3      	adds	r3, r2, r3
20000654:	187a      	adds	r2, r7, r1
20000656:	7812      	ldrb	r2, [r2, #0]
20000658:	701a      	strb	r2, [r3, #0]
2000065a:	46c0      	nop			; (mov r8, r8)
2000065c:	46bd      	mov	sp, r7
2000065e:	b004      	add	sp, #16
20000660:	bd80      	pop	{r7, pc}

20000662 <_out_null>:
20000662:	b580      	push	{r7, lr}
20000664:	b084      	sub	sp, #16
20000666:	af00      	add	r7, sp, #0
20000668:	60b9      	str	r1, [r7, #8]
2000066a:	607a      	str	r2, [r7, #4]
2000066c:	603b      	str	r3, [r7, #0]
2000066e:	230f      	movs	r3, #15
20000670:	18fb      	adds	r3, r7, r3
20000672:	1c02      	adds	r2, r0, #0
20000674:	701a      	strb	r2, [r3, #0]
20000676:	46c0      	nop			; (mov r8, r8)
20000678:	46bd      	mov	sp, r7
2000067a:	b004      	add	sp, #16
2000067c:	bd80      	pop	{r7, pc}

2000067e <_out_char>:
2000067e:	b580      	push	{r7, lr}
20000680:	b084      	sub	sp, #16
20000682:	af00      	add	r7, sp, #0
20000684:	60b9      	str	r1, [r7, #8]
20000686:	607a      	str	r2, [r7, #4]
20000688:	603b      	str	r3, [r7, #0]
2000068a:	210f      	movs	r1, #15
2000068c:	187b      	adds	r3, r7, r1
2000068e:	1c02      	adds	r2, r0, #0
20000690:	701a      	strb	r2, [r3, #0]
20000692:	000a      	movs	r2, r1
20000694:	18bb      	adds	r3, r7, r2
20000696:	781b      	ldrb	r3, [r3, #0]
20000698:	2b00      	cmp	r3, #0
2000069a:	d004      	beq.n	200006a6 <_out_char+0x28>
2000069c:	18bb      	adds	r3, r7, r2
2000069e:	781b      	ldrb	r3, [r3, #0]
200006a0:	0018      	movs	r0, r3
200006a2:	f7ff ffb7 	bl	20000614 <_putchar>
200006a6:	46c0      	nop			; (mov r8, r8)
200006a8:	46bd      	mov	sp, r7
200006aa:	b004      	add	sp, #16
200006ac:	bd80      	pop	{r7, pc}

200006ae <_out_fct>:
200006ae:	b580      	push	{r7, lr}
200006b0:	b084      	sub	sp, #16
200006b2:	af00      	add	r7, sp, #0
200006b4:	60b9      	str	r1, [r7, #8]
200006b6:	607a      	str	r2, [r7, #4]
200006b8:	603b      	str	r3, [r7, #0]
200006ba:	210f      	movs	r1, #15
200006bc:	187b      	adds	r3, r7, r1
200006be:	1c02      	adds	r2, r0, #0
200006c0:	701a      	strb	r2, [r3, #0]
200006c2:	0008      	movs	r0, r1
200006c4:	187b      	adds	r3, r7, r1
200006c6:	781b      	ldrb	r3, [r3, #0]
200006c8:	2b00      	cmp	r3, #0
200006ca:	d007      	beq.n	200006dc <_out_fct+0x2e>
200006cc:	68bb      	ldr	r3, [r7, #8]
200006ce:	681a      	ldr	r2, [r3, #0]
200006d0:	68bb      	ldr	r3, [r7, #8]
200006d2:	6859      	ldr	r1, [r3, #4]
200006d4:	183b      	adds	r3, r7, r0
200006d6:	781b      	ldrb	r3, [r3, #0]
200006d8:	0018      	movs	r0, r3
200006da:	4790      	blx	r2
200006dc:	46c0      	nop			; (mov r8, r8)
200006de:	46bd      	mov	sp, r7
200006e0:	b004      	add	sp, #16
200006e2:	bd80      	pop	{r7, pc}

200006e4 <_strnlen_s>:
200006e4:	b580      	push	{r7, lr}
200006e6:	b084      	sub	sp, #16
200006e8:	af00      	add	r7, sp, #0
200006ea:	6078      	str	r0, [r7, #4]
200006ec:	6039      	str	r1, [r7, #0]
200006ee:	687b      	ldr	r3, [r7, #4]
200006f0:	60fb      	str	r3, [r7, #12]
200006f2:	e002      	b.n	200006fa <_strnlen_s+0x16>
200006f4:	68fb      	ldr	r3, [r7, #12]
200006f6:	3301      	adds	r3, #1
200006f8:	60fb      	str	r3, [r7, #12]
200006fa:	68fb      	ldr	r3, [r7, #12]
200006fc:	781b      	ldrb	r3, [r3, #0]
200006fe:	2b00      	cmp	r3, #0
20000700:	d004      	beq.n	2000070c <_strnlen_s+0x28>
20000702:	683b      	ldr	r3, [r7, #0]
20000704:	1e5a      	subs	r2, r3, #1
20000706:	603a      	str	r2, [r7, #0]
20000708:	2b00      	cmp	r3, #0
2000070a:	d1f3      	bne.n	200006f4 <_strnlen_s+0x10>
2000070c:	68fa      	ldr	r2, [r7, #12]
2000070e:	687b      	ldr	r3, [r7, #4]
20000710:	1ad3      	subs	r3, r2, r3
20000712:	0018      	movs	r0, r3
20000714:	46bd      	mov	sp, r7
20000716:	b004      	add	sp, #16
20000718:	bd80      	pop	{r7, pc}

2000071a <_is_digit>:
2000071a:	b580      	push	{r7, lr}
2000071c:	b082      	sub	sp, #8
2000071e:	af00      	add	r7, sp, #0
20000720:	0002      	movs	r2, r0
20000722:	1dfb      	adds	r3, r7, #7
20000724:	701a      	strb	r2, [r3, #0]
20000726:	1dfb      	adds	r3, r7, #7
20000728:	781b      	ldrb	r3, [r3, #0]
2000072a:	2b2f      	cmp	r3, #47	; 0x2f
2000072c:	d905      	bls.n	2000073a <_is_digit+0x20>
2000072e:	1dfb      	adds	r3, r7, #7
20000730:	781b      	ldrb	r3, [r3, #0]
20000732:	2b39      	cmp	r3, #57	; 0x39
20000734:	d801      	bhi.n	2000073a <_is_digit+0x20>
20000736:	2301      	movs	r3, #1
20000738:	e000      	b.n	2000073c <_is_digit+0x22>
2000073a:	2300      	movs	r3, #0
2000073c:	1c1a      	adds	r2, r3, #0
2000073e:	2301      	movs	r3, #1
20000740:	4013      	ands	r3, r2
20000742:	b2db      	uxtb	r3, r3
20000744:	0018      	movs	r0, r3
20000746:	46bd      	mov	sp, r7
20000748:	b002      	add	sp, #8
2000074a:	bd80      	pop	{r7, pc}

2000074c <_atoi>:
2000074c:	b580      	push	{r7, lr}
2000074e:	b084      	sub	sp, #16
20000750:	af00      	add	r7, sp, #0
20000752:	6078      	str	r0, [r7, #4]
20000754:	2300      	movs	r3, #0
20000756:	60fb      	str	r3, [r7, #12]
20000758:	e00e      	b.n	20000778 <_atoi+0x2c>
2000075a:	68fa      	ldr	r2, [r7, #12]
2000075c:	0013      	movs	r3, r2
2000075e:	009b      	lsls	r3, r3, #2
20000760:	189b      	adds	r3, r3, r2
20000762:	005b      	lsls	r3, r3, #1
20000764:	0018      	movs	r0, r3
20000766:	687b      	ldr	r3, [r7, #4]
20000768:	681b      	ldr	r3, [r3, #0]
2000076a:	1c59      	adds	r1, r3, #1
2000076c:	687a      	ldr	r2, [r7, #4]
2000076e:	6011      	str	r1, [r2, #0]
20000770:	781b      	ldrb	r3, [r3, #0]
20000772:	18c3      	adds	r3, r0, r3
20000774:	3b30      	subs	r3, #48	; 0x30
20000776:	60fb      	str	r3, [r7, #12]
20000778:	687b      	ldr	r3, [r7, #4]
2000077a:	681b      	ldr	r3, [r3, #0]
2000077c:	781b      	ldrb	r3, [r3, #0]
2000077e:	0018      	movs	r0, r3
20000780:	f7ff ffcb 	bl	2000071a <_is_digit>
20000784:	1e03      	subs	r3, r0, #0
20000786:	d1e8      	bne.n	2000075a <_atoi+0xe>
20000788:	68fb      	ldr	r3, [r7, #12]
2000078a:	0018      	movs	r0, r3
2000078c:	46bd      	mov	sp, r7
2000078e:	b004      	add	sp, #16
20000790:	bd80      	pop	{r7, pc}

20000792 <_out_rev>:
20000792:	b590      	push	{r4, r7, lr}
20000794:	b087      	sub	sp, #28
20000796:	af00      	add	r7, sp, #0
20000798:	60f8      	str	r0, [r7, #12]
2000079a:	60b9      	str	r1, [r7, #8]
2000079c:	607a      	str	r2, [r7, #4]
2000079e:	603b      	str	r3, [r7, #0]
200007a0:	687b      	ldr	r3, [r7, #4]
200007a2:	613b      	str	r3, [r7, #16]
200007a4:	6b7b      	ldr	r3, [r7, #52]	; 0x34
200007a6:	2202      	movs	r2, #2
200007a8:	4013      	ands	r3, r2
200007aa:	d124      	bne.n	200007f6 <_out_rev+0x64>
200007ac:	6b7b      	ldr	r3, [r7, #52]	; 0x34
200007ae:	2201      	movs	r2, #1
200007b0:	4013      	ands	r3, r2
200007b2:	d120      	bne.n	200007f6 <_out_rev+0x64>
200007b4:	6afb      	ldr	r3, [r7, #44]	; 0x2c
200007b6:	617b      	str	r3, [r7, #20]
200007b8:	e00a      	b.n	200007d0 <_out_rev+0x3e>
200007ba:	687a      	ldr	r2, [r7, #4]
200007bc:	1c53      	adds	r3, r2, #1
200007be:	607b      	str	r3, [r7, #4]
200007c0:	683b      	ldr	r3, [r7, #0]
200007c2:	68b9      	ldr	r1, [r7, #8]
200007c4:	68fc      	ldr	r4, [r7, #12]
200007c6:	2020      	movs	r0, #32
200007c8:	47a0      	blx	r4
200007ca:	697b      	ldr	r3, [r7, #20]
200007cc:	3301      	adds	r3, #1
200007ce:	617b      	str	r3, [r7, #20]
200007d0:	697a      	ldr	r2, [r7, #20]
200007d2:	6b3b      	ldr	r3, [r7, #48]	; 0x30
200007d4:	429a      	cmp	r2, r3
200007d6:	d3f0      	bcc.n	200007ba <_out_rev+0x28>
200007d8:	e00d      	b.n	200007f6 <_out_rev+0x64>
200007da:	6afb      	ldr	r3, [r7, #44]	; 0x2c
200007dc:	3b01      	subs	r3, #1
200007de:	62fb      	str	r3, [r7, #44]	; 0x2c
200007e0:	6aba      	ldr	r2, [r7, #40]	; 0x28
200007e2:	6afb      	ldr	r3, [r7, #44]	; 0x2c
200007e4:	18d3      	adds	r3, r2, r3
200007e6:	7818      	ldrb	r0, [r3, #0]
200007e8:	687a      	ldr	r2, [r7, #4]
200007ea:	1c53      	adds	r3, r2, #1
200007ec:	607b      	str	r3, [r7, #4]
200007ee:	683b      	ldr	r3, [r7, #0]
200007f0:	68b9      	ldr	r1, [r7, #8]
200007f2:	68fc      	ldr	r4, [r7, #12]
200007f4:	47a0      	blx	r4
200007f6:	6afb      	ldr	r3, [r7, #44]	; 0x2c
200007f8:	2b00      	cmp	r3, #0
200007fa:	d1ee      	bne.n	200007da <_out_rev+0x48>
200007fc:	6b7b      	ldr	r3, [r7, #52]	; 0x34
200007fe:	2202      	movs	r2, #2
20000800:	4013      	ands	r3, r2
20000802:	d00e      	beq.n	20000822 <_out_rev+0x90>
20000804:	e007      	b.n	20000816 <_out_rev+0x84>
20000806:	687a      	ldr	r2, [r7, #4]
20000808:	1c53      	adds	r3, r2, #1
2000080a:	607b      	str	r3, [r7, #4]
2000080c:	683b      	ldr	r3, [r7, #0]
2000080e:	68b9      	ldr	r1, [r7, #8]
20000810:	68fc      	ldr	r4, [r7, #12]
20000812:	2020      	movs	r0, #32
20000814:	47a0      	blx	r4
20000816:	687a      	ldr	r2, [r7, #4]
20000818:	693b      	ldr	r3, [r7, #16]
2000081a:	1ad3      	subs	r3, r2, r3
2000081c:	6b3a      	ldr	r2, [r7, #48]	; 0x30
2000081e:	429a      	cmp	r2, r3
20000820:	d8f1      	bhi.n	20000806 <_out_rev+0x74>
20000822:	687b      	ldr	r3, [r7, #4]
20000824:	0018      	movs	r0, r3
20000826:	46bd      	mov	sp, r7
20000828:	b007      	add	sp, #28
2000082a:	bd90      	pop	{r4, r7, pc}

2000082c <_ntoa_format>:
2000082c:	b590      	push	{r4, r7, lr}
2000082e:	b089      	sub	sp, #36	; 0x24
20000830:	af04      	add	r7, sp, #16
20000832:	60f8      	str	r0, [r7, #12]
20000834:	60b9      	str	r1, [r7, #8]
20000836:	607a      	str	r2, [r7, #4]
20000838:	603b      	str	r3, [r7, #0]
2000083a:	6bbb      	ldr	r3, [r7, #56]	; 0x38
2000083c:	2202      	movs	r2, #2
2000083e:	4013      	ands	r3, r2
20000840:	d134      	bne.n	200008ac <_ntoa_format+0x80>
20000842:	6b7b      	ldr	r3, [r7, #52]	; 0x34
20000844:	2b00      	cmp	r3, #0
20000846:	d017      	beq.n	20000878 <_ntoa_format+0x4c>
20000848:	6bbb      	ldr	r3, [r7, #56]	; 0x38
2000084a:	2201      	movs	r2, #1
2000084c:	4013      	ands	r3, r2
2000084e:	d013      	beq.n	20000878 <_ntoa_format+0x4c>
20000850:	2328      	movs	r3, #40	; 0x28
20000852:	18fb      	adds	r3, r7, r3
20000854:	781b      	ldrb	r3, [r3, #0]
20000856:	2b00      	cmp	r3, #0
20000858:	d103      	bne.n	20000862 <_ntoa_format+0x36>
2000085a:	6bbb      	ldr	r3, [r7, #56]	; 0x38
2000085c:	220c      	movs	r2, #12
2000085e:	4013      	ands	r3, r2
20000860:	d00a      	beq.n	20000878 <_ntoa_format+0x4c>
20000862:	6b7b      	ldr	r3, [r7, #52]	; 0x34
20000864:	3b01      	subs	r3, #1
20000866:	637b      	str	r3, [r7, #52]	; 0x34
20000868:	e006      	b.n	20000878 <_ntoa_format+0x4c>
2000086a:	6a7b      	ldr	r3, [r7, #36]	; 0x24
2000086c:	1c5a      	adds	r2, r3, #1
2000086e:	627a      	str	r2, [r7, #36]	; 0x24
20000870:	6a3a      	ldr	r2, [r7, #32]
20000872:	18d3      	adds	r3, r2, r3
20000874:	2230      	movs	r2, #48	; 0x30
20000876:	701a      	strb	r2, [r3, #0]
20000878:	6a7a      	ldr	r2, [r7, #36]	; 0x24
2000087a:	6b3b      	ldr	r3, [r7, #48]	; 0x30
2000087c:	429a      	cmp	r2, r3
2000087e:	d20a      	bcs.n	20000896 <_ntoa_format+0x6a>
20000880:	6a7b      	ldr	r3, [r7, #36]	; 0x24
20000882:	2b1f      	cmp	r3, #31
20000884:	d9f1      	bls.n	2000086a <_ntoa_format+0x3e>
20000886:	e006      	b.n	20000896 <_ntoa_format+0x6a>
20000888:	6a7b      	ldr	r3, [r7, #36]	; 0x24
2000088a:	1c5a      	adds	r2, r3, #1
2000088c:	627a      	str	r2, [r7, #36]	; 0x24
2000088e:	6a3a      	ldr	r2, [r7, #32]
20000890:	18d3      	adds	r3, r2, r3
20000892:	2230      	movs	r2, #48	; 0x30
20000894:	701a      	strb	r2, [r3, #0]
20000896:	6bbb      	ldr	r3, [r7, #56]	; 0x38
20000898:	2201      	movs	r2, #1
2000089a:	4013      	ands	r3, r2
2000089c:	d006      	beq.n	200008ac <_ntoa_format+0x80>
2000089e:	6a7a      	ldr	r2, [r7, #36]	; 0x24
200008a0:	6b7b      	ldr	r3, [r7, #52]	; 0x34
200008a2:	429a      	cmp	r2, r3
200008a4:	d202      	bcs.n	200008ac <_ntoa_format+0x80>
200008a6:	6a7b      	ldr	r3, [r7, #36]	; 0x24
200008a8:	2b1f      	cmp	r3, #31
200008aa:	d9ed      	bls.n	20000888 <_ntoa_format+0x5c>
200008ac:	6bbb      	ldr	r3, [r7, #56]	; 0x38
200008ae:	2210      	movs	r2, #16
200008b0:	4013      	ands	r3, r2
200008b2:	d056      	beq.n	20000962 <_ntoa_format+0x136>
200008b4:	6bba      	ldr	r2, [r7, #56]	; 0x38
200008b6:	2380      	movs	r3, #128	; 0x80
200008b8:	00db      	lsls	r3, r3, #3
200008ba:	4013      	ands	r3, r2
200008bc:	d116      	bne.n	200008ec <_ntoa_format+0xc0>
200008be:	6a7b      	ldr	r3, [r7, #36]	; 0x24
200008c0:	2b00      	cmp	r3, #0
200008c2:	d013      	beq.n	200008ec <_ntoa_format+0xc0>
200008c4:	6a7a      	ldr	r2, [r7, #36]	; 0x24
200008c6:	6b3b      	ldr	r3, [r7, #48]	; 0x30
200008c8:	429a      	cmp	r2, r3
200008ca:	d003      	beq.n	200008d4 <_ntoa_format+0xa8>
200008cc:	6a7a      	ldr	r2, [r7, #36]	; 0x24
200008ce:	6b7b      	ldr	r3, [r7, #52]	; 0x34
200008d0:	429a      	cmp	r2, r3
200008d2:	d10b      	bne.n	200008ec <_ntoa_format+0xc0>
200008d4:	6a7b      	ldr	r3, [r7, #36]	; 0x24
200008d6:	3b01      	subs	r3, #1
200008d8:	627b      	str	r3, [r7, #36]	; 0x24
200008da:	6a7b      	ldr	r3, [r7, #36]	; 0x24
200008dc:	2b00      	cmp	r3, #0
200008de:	d005      	beq.n	200008ec <_ntoa_format+0xc0>
200008e0:	6afb      	ldr	r3, [r7, #44]	; 0x2c
200008e2:	2b10      	cmp	r3, #16
200008e4:	d102      	bne.n	200008ec <_ntoa_format+0xc0>
200008e6:	6a7b      	ldr	r3, [r7, #36]	; 0x24
200008e8:	3b01      	subs	r3, #1
200008ea:	627b      	str	r3, [r7, #36]	; 0x24
200008ec:	6afb      	ldr	r3, [r7, #44]	; 0x2c
200008ee:	2b10      	cmp	r3, #16
200008f0:	d10e      	bne.n	20000910 <_ntoa_format+0xe4>
200008f2:	6bbb      	ldr	r3, [r7, #56]	; 0x38
200008f4:	2220      	movs	r2, #32
200008f6:	4013      	ands	r3, r2
200008f8:	d10a      	bne.n	20000910 <_ntoa_format+0xe4>
200008fa:	6a7b      	ldr	r3, [r7, #36]	; 0x24
200008fc:	2b1f      	cmp	r3, #31
200008fe:	d807      	bhi.n	20000910 <_ntoa_format+0xe4>
20000900:	6a7b      	ldr	r3, [r7, #36]	; 0x24
20000902:	1c5a      	adds	r2, r3, #1
20000904:	627a      	str	r2, [r7, #36]	; 0x24
20000906:	6a3a      	ldr	r2, [r7, #32]
20000908:	18d3      	adds	r3, r2, r3
2000090a:	2278      	movs	r2, #120	; 0x78
2000090c:	701a      	strb	r2, [r3, #0]
2000090e:	e01e      	b.n	2000094e <_ntoa_format+0x122>
20000910:	6afb      	ldr	r3, [r7, #44]	; 0x2c
20000912:	2b10      	cmp	r3, #16
20000914:	d10e      	bne.n	20000934 <_ntoa_format+0x108>
20000916:	6bbb      	ldr	r3, [r7, #56]	; 0x38
20000918:	2220      	movs	r2, #32
2000091a:	4013      	ands	r3, r2
2000091c:	d00a      	beq.n	20000934 <_ntoa_format+0x108>
2000091e:	6a7b      	ldr	r3, [r7, #36]	; 0x24
20000920:	2b1f      	cmp	r3, #31
20000922:	d807      	bhi.n	20000934 <_ntoa_format+0x108>
20000924:	6a7b      	ldr	r3, [r7, #36]	; 0x24
20000926:	1c5a      	adds	r2, r3, #1
20000928:	627a      	str	r2, [r7, #36]	; 0x24
2000092a:	6a3a      	ldr	r2, [r7, #32]
2000092c:	18d3      	adds	r3, r2, r3
2000092e:	2258      	movs	r2, #88	; 0x58
20000930:	701a      	strb	r2, [r3, #0]
20000932:	e00c      	b.n	2000094e <_ntoa_format+0x122>
20000934:	6afb      	ldr	r3, [r7, #44]	; 0x2c
20000936:	2b02      	cmp	r3, #2
20000938:	d109      	bne.n	2000094e <_ntoa_format+0x122>
2000093a:	6a7b      	ldr	r3, [r7, #36]	; 0x24
2000093c:	2b1f      	cmp	r3, #31
2000093e:	d806      	bhi.n	2000094e <_ntoa_format+0x122>
20000940:	6a7b      	ldr	r3, [r7, #36]	; 0x24
20000942:	1c5a      	adds	r2, r3, #1
20000944:	627a      	str	r2, [r7, #36]	; 0x24
20000946:	6a3a      	ldr	r2, [r7, #32]
20000948:	18d3      	adds	r3, r2, r3
2000094a:	2262      	movs	r2, #98	; 0x62
2000094c:	701a      	strb	r2, [r3, #0]
2000094e:	6a7b      	ldr	r3, [r7, #36]	; 0x24
20000950:	2b1f      	cmp	r3, #31
20000952:	d806      	bhi.n	20000962 <_ntoa_format+0x136>
20000954:	6a7b      	ldr	r3, [r7, #36]	; 0x24
20000956:	1c5a      	adds	r2, r3, #1
20000958:	627a      	str	r2, [r7, #36]	; 0x24
2000095a:	6a3a      	ldr	r2, [r7, #32]
2000095c:	18d3      	adds	r3, r2, r3
2000095e:	2230      	movs	r2, #48	; 0x30
20000960:	701a      	strb	r2, [r3, #0]
20000962:	6a7b      	ldr	r3, [r7, #36]	; 0x24
20000964:	2b1f      	cmp	r3, #31
20000966:	d823      	bhi.n	200009b0 <_ntoa_format+0x184>
20000968:	2328      	movs	r3, #40	; 0x28
2000096a:	18fb      	adds	r3, r7, r3
2000096c:	781b      	ldrb	r3, [r3, #0]
2000096e:	2b00      	cmp	r3, #0
20000970:	d007      	beq.n	20000982 <_ntoa_format+0x156>
20000972:	6a7b      	ldr	r3, [r7, #36]	; 0x24
20000974:	1c5a      	adds	r2, r3, #1
20000976:	627a      	str	r2, [r7, #36]	; 0x24
20000978:	6a3a      	ldr	r2, [r7, #32]
2000097a:	18d3      	adds	r3, r2, r3
2000097c:	222d      	movs	r2, #45	; 0x2d
2000097e:	701a      	strb	r2, [r3, #0]
20000980:	e016      	b.n	200009b0 <_ntoa_format+0x184>
20000982:	6bbb      	ldr	r3, [r7, #56]	; 0x38
20000984:	2204      	movs	r2, #4
20000986:	4013      	ands	r3, r2
20000988:	d007      	beq.n	2000099a <_ntoa_format+0x16e>
2000098a:	6a7b      	ldr	r3, [r7, #36]	; 0x24
2000098c:	1c5a      	adds	r2, r3, #1
2000098e:	627a      	str	r2, [r7, #36]	; 0x24
20000990:	6a3a      	ldr	r2, [r7, #32]
20000992:	18d3      	adds	r3, r2, r3
20000994:	222b      	movs	r2, #43	; 0x2b
20000996:	701a      	strb	r2, [r3, #0]
20000998:	e00a      	b.n	200009b0 <_ntoa_format+0x184>
2000099a:	6bbb      	ldr	r3, [r7, #56]	; 0x38
2000099c:	2208      	movs	r2, #8
2000099e:	4013      	ands	r3, r2
200009a0:	d006      	beq.n	200009b0 <_ntoa_format+0x184>
200009a2:	6a7b      	ldr	r3, [r7, #36]	; 0x24
200009a4:	1c5a      	adds	r2, r3, #1
200009a6:	627a      	str	r2, [r7, #36]	; 0x24
200009a8:	6a3a      	ldr	r2, [r7, #32]
200009aa:	18d3      	adds	r3, r2, r3
200009ac:	2220      	movs	r2, #32
200009ae:	701a      	strb	r2, [r3, #0]
200009b0:	683c      	ldr	r4, [r7, #0]
200009b2:	687a      	ldr	r2, [r7, #4]
200009b4:	68b9      	ldr	r1, [r7, #8]
200009b6:	68f8      	ldr	r0, [r7, #12]
200009b8:	6bbb      	ldr	r3, [r7, #56]	; 0x38
200009ba:	9303      	str	r3, [sp, #12]
200009bc:	6b7b      	ldr	r3, [r7, #52]	; 0x34
200009be:	9302      	str	r3, [sp, #8]
200009c0:	6a7b      	ldr	r3, [r7, #36]	; 0x24
200009c2:	9301      	str	r3, [sp, #4]
200009c4:	6a3b      	ldr	r3, [r7, #32]
200009c6:	9300      	str	r3, [sp, #0]
200009c8:	0023      	movs	r3, r4
200009ca:	f7ff fee2 	bl	20000792 <_out_rev>
200009ce:	0003      	movs	r3, r0
200009d0:	0018      	movs	r0, r3
200009d2:	46bd      	mov	sp, r7
200009d4:	b005      	add	sp, #20
200009d6:	bd90      	pop	{r4, r7, pc}

200009d8 <_ntoa_long>:
200009d8:	b590      	push	{r4, r7, lr}
200009da:	b097      	sub	sp, #92	; 0x5c
200009dc:	af08      	add	r7, sp, #32
200009de:	60f8      	str	r0, [r7, #12]
200009e0:	60b9      	str	r1, [r7, #8]
200009e2:	607a      	str	r2, [r7, #4]
200009e4:	603b      	str	r3, [r7, #0]
200009e6:	2300      	movs	r3, #0
200009e8:	637b      	str	r3, [r7, #52]	; 0x34
200009ea:	6cbb      	ldr	r3, [r7, #72]	; 0x48
200009ec:	2b00      	cmp	r3, #0
200009ee:	d103      	bne.n	200009f8 <_ntoa_long+0x20>
200009f0:	6dfb      	ldr	r3, [r7, #92]	; 0x5c
200009f2:	2210      	movs	r2, #16
200009f4:	4393      	bics	r3, r2
200009f6:	65fb      	str	r3, [r7, #92]	; 0x5c
200009f8:	6dfa      	ldr	r2, [r7, #92]	; 0x5c
200009fa:	2380      	movs	r3, #128	; 0x80
200009fc:	00db      	lsls	r3, r3, #3
200009fe:	4013      	ands	r3, r2
20000a00:	d002      	beq.n	20000a08 <_ntoa_long+0x30>
20000a02:	6cbb      	ldr	r3, [r7, #72]	; 0x48
20000a04:	2b00      	cmp	r3, #0
20000a06:	d035      	beq.n	20000a74 <_ntoa_long+0x9c>
20000a08:	6cbb      	ldr	r3, [r7, #72]	; 0x48
20000a0a:	6d3a      	ldr	r2, [r7, #80]	; 0x50
20000a0c:	0011      	movs	r1, r2
20000a0e:	0018      	movs	r0, r3
20000a10:	f7ff fde5 	bl	200005de <imod>
20000a14:	0002      	movs	r2, r0
20000a16:	2133      	movs	r1, #51	; 0x33
20000a18:	187b      	adds	r3, r7, r1
20000a1a:	701a      	strb	r2, [r3, #0]
20000a1c:	000a      	movs	r2, r1
20000a1e:	18bb      	adds	r3, r7, r2
20000a20:	781b      	ldrb	r3, [r3, #0]
20000a22:	2b09      	cmp	r3, #9
20000a24:	d804      	bhi.n	20000a30 <_ntoa_long+0x58>
20000a26:	18bb      	adds	r3, r7, r2
20000a28:	781b      	ldrb	r3, [r3, #0]
20000a2a:	3330      	adds	r3, #48	; 0x30
20000a2c:	b2da      	uxtb	r2, r3
20000a2e:	e00d      	b.n	20000a4c <_ntoa_long+0x74>
20000a30:	6dfb      	ldr	r3, [r7, #92]	; 0x5c
20000a32:	2220      	movs	r2, #32
20000a34:	4013      	ands	r3, r2
20000a36:	d001      	beq.n	20000a3c <_ntoa_long+0x64>
20000a38:	2341      	movs	r3, #65	; 0x41
20000a3a:	e000      	b.n	20000a3e <_ntoa_long+0x66>
20000a3c:	2361      	movs	r3, #97	; 0x61
20000a3e:	2233      	movs	r2, #51	; 0x33
20000a40:	18ba      	adds	r2, r7, r2
20000a42:	7812      	ldrb	r2, [r2, #0]
20000a44:	189b      	adds	r3, r3, r2
20000a46:	b2db      	uxtb	r3, r3
20000a48:	3b0a      	subs	r3, #10
20000a4a:	b2da      	uxtb	r2, r3
20000a4c:	6b7b      	ldr	r3, [r7, #52]	; 0x34
20000a4e:	1c59      	adds	r1, r3, #1
20000a50:	6379      	str	r1, [r7, #52]	; 0x34
20000a52:	2110      	movs	r1, #16
20000a54:	1879      	adds	r1, r7, r1
20000a56:	54ca      	strb	r2, [r1, r3]
20000a58:	6d3a      	ldr	r2, [r7, #80]	; 0x50
20000a5a:	6cbb      	ldr	r3, [r7, #72]	; 0x48
20000a5c:	0011      	movs	r1, r2
20000a5e:	0018      	movs	r0, r3
20000a60:	f7ff fd7b 	bl	2000055a <udiv>
20000a64:	0003      	movs	r3, r0
20000a66:	64bb      	str	r3, [r7, #72]	; 0x48
20000a68:	6cbb      	ldr	r3, [r7, #72]	; 0x48
20000a6a:	2b00      	cmp	r3, #0
20000a6c:	d002      	beq.n	20000a74 <_ntoa_long+0x9c>
20000a6e:	6b7b      	ldr	r3, [r7, #52]	; 0x34
20000a70:	2b1f      	cmp	r3, #31
20000a72:	d9c9      	bls.n	20000a08 <_ntoa_long+0x30>
20000a74:	683c      	ldr	r4, [r7, #0]
20000a76:	687a      	ldr	r2, [r7, #4]
20000a78:	68b9      	ldr	r1, [r7, #8]
20000a7a:	68f8      	ldr	r0, [r7, #12]
20000a7c:	6dfb      	ldr	r3, [r7, #92]	; 0x5c
20000a7e:	9306      	str	r3, [sp, #24]
20000a80:	6dbb      	ldr	r3, [r7, #88]	; 0x58
20000a82:	9305      	str	r3, [sp, #20]
20000a84:	6d7b      	ldr	r3, [r7, #84]	; 0x54
20000a86:	9304      	str	r3, [sp, #16]
20000a88:	6d3b      	ldr	r3, [r7, #80]	; 0x50
20000a8a:	9303      	str	r3, [sp, #12]
20000a8c:	234c      	movs	r3, #76	; 0x4c
20000a8e:	18fb      	adds	r3, r7, r3
20000a90:	781b      	ldrb	r3, [r3, #0]
20000a92:	9302      	str	r3, [sp, #8]
20000a94:	6b7b      	ldr	r3, [r7, #52]	; 0x34
20000a96:	9301      	str	r3, [sp, #4]
20000a98:	2310      	movs	r3, #16
20000a9a:	18fb      	adds	r3, r7, r3
20000a9c:	9300      	str	r3, [sp, #0]
20000a9e:	0023      	movs	r3, r4
20000aa0:	f7ff fec4 	bl	2000082c <_ntoa_format>
20000aa4:	0003      	movs	r3, r0
20000aa6:	0018      	movs	r0, r3
20000aa8:	46bd      	mov	sp, r7
20000aaa:	b00f      	add	sp, #60	; 0x3c
20000aac:	bd90      	pop	{r4, r7, pc}

20000aae <_vsnprintf>:
20000aae:	b5f0      	push	{r4, r5, r6, r7, lr}
20000ab0:	b099      	sub	sp, #100	; 0x64
20000ab2:	af06      	add	r7, sp, #24
20000ab4:	60f8      	str	r0, [r7, #12]
20000ab6:	60b9      	str	r1, [r7, #8]
20000ab8:	607a      	str	r2, [r7, #4]
20000aba:	603b      	str	r3, [r7, #0]
20000abc:	2300      	movs	r3, #0
20000abe:	637b      	str	r3, [r7, #52]	; 0x34
20000ac0:	68bb      	ldr	r3, [r7, #8]
20000ac2:	2b00      	cmp	r3, #0
20000ac4:	d000      	beq.n	20000ac8 <_vsnprintf+0x1a>
20000ac6:	e2e1      	b.n	2000108c <_vsnprintf+0x5de>
20000ac8:	4bc6      	ldr	r3, [pc, #792]	; (20000de4 <_vsnprintf+0x336>)
20000aca:	60fb      	str	r3, [r7, #12]
20000acc:	e2de      	b.n	2000108c <_vsnprintf+0x5de>
20000ace:	683b      	ldr	r3, [r7, #0]
20000ad0:	781b      	ldrb	r3, [r3, #0]
20000ad2:	2b25      	cmp	r3, #37	; 0x25
20000ad4:	d00c      	beq.n	20000af0 <_vsnprintf+0x42>
20000ad6:	683b      	ldr	r3, [r7, #0]
20000ad8:	7818      	ldrb	r0, [r3, #0]
20000ada:	6b7a      	ldr	r2, [r7, #52]	; 0x34
20000adc:	1c53      	adds	r3, r2, #1
20000ade:	637b      	str	r3, [r7, #52]	; 0x34
20000ae0:	687b      	ldr	r3, [r7, #4]
20000ae2:	68b9      	ldr	r1, [r7, #8]
20000ae4:	68fc      	ldr	r4, [r7, #12]
20000ae6:	47a0      	blx	r4
20000ae8:	683b      	ldr	r3, [r7, #0]
20000aea:	3301      	adds	r3, #1
20000aec:	603b      	str	r3, [r7, #0]
20000aee:	e2cd      	b.n	2000108c <_vsnprintf+0x5de>
20000af0:	683b      	ldr	r3, [r7, #0]
20000af2:	3301      	adds	r3, #1
20000af4:	603b      	str	r3, [r7, #0]
20000af6:	2300      	movs	r3, #0
20000af8:	647b      	str	r3, [r7, #68]	; 0x44
20000afa:	683b      	ldr	r3, [r7, #0]
20000afc:	781b      	ldrb	r3, [r3, #0]
20000afe:	3b20      	subs	r3, #32
20000b00:	2b10      	cmp	r3, #16
20000b02:	d836      	bhi.n	20000b72 <_vsnprintf+0xc4>
20000b04:	009a      	lsls	r2, r3, #2
20000b06:	4bb8      	ldr	r3, [pc, #736]	; (20000de8 <_vsnprintf+0x33a>)
20000b08:	18d3      	adds	r3, r2, r3
20000b0a:	681b      	ldr	r3, [r3, #0]
20000b0c:	469f      	mov	pc, r3
20000b0e:	6c7b      	ldr	r3, [r7, #68]	; 0x44
20000b10:	2201      	movs	r2, #1
20000b12:	4313      	orrs	r3, r2
20000b14:	647b      	str	r3, [r7, #68]	; 0x44
20000b16:	683b      	ldr	r3, [r7, #0]
20000b18:	3301      	adds	r3, #1
20000b1a:	603b      	str	r3, [r7, #0]
20000b1c:	2301      	movs	r3, #1
20000b1e:	63bb      	str	r3, [r7, #56]	; 0x38
20000b20:	e02a      	b.n	20000b78 <_vsnprintf+0xca>
20000b22:	6c7b      	ldr	r3, [r7, #68]	; 0x44
20000b24:	2202      	movs	r2, #2
20000b26:	4313      	orrs	r3, r2
20000b28:	647b      	str	r3, [r7, #68]	; 0x44
20000b2a:	683b      	ldr	r3, [r7, #0]
20000b2c:	3301      	adds	r3, #1
20000b2e:	603b      	str	r3, [r7, #0]
20000b30:	2301      	movs	r3, #1
20000b32:	63bb      	str	r3, [r7, #56]	; 0x38
20000b34:	e020      	b.n	20000b78 <_vsnprintf+0xca>
20000b36:	6c7b      	ldr	r3, [r7, #68]	; 0x44
20000b38:	2204      	movs	r2, #4
20000b3a:	4313      	orrs	r3, r2
20000b3c:	647b      	str	r3, [r7, #68]	; 0x44
20000b3e:	683b      	ldr	r3, [r7, #0]
20000b40:	3301      	adds	r3, #1
20000b42:	603b      	str	r3, [r7, #0]
20000b44:	2301      	movs	r3, #1
20000b46:	63bb      	str	r3, [r7, #56]	; 0x38
20000b48:	e016      	b.n	20000b78 <_vsnprintf+0xca>
20000b4a:	6c7b      	ldr	r3, [r7, #68]	; 0x44
20000b4c:	2208      	movs	r2, #8
20000b4e:	4313      	orrs	r3, r2
20000b50:	647b      	str	r3, [r7, #68]	; 0x44
20000b52:	683b      	ldr	r3, [r7, #0]
20000b54:	3301      	adds	r3, #1
20000b56:	603b      	str	r3, [r7, #0]
20000b58:	2301      	movs	r3, #1
20000b5a:	63bb      	str	r3, [r7, #56]	; 0x38
20000b5c:	e00c      	b.n	20000b78 <_vsnprintf+0xca>
20000b5e:	6c7b      	ldr	r3, [r7, #68]	; 0x44
20000b60:	2210      	movs	r2, #16
20000b62:	4313      	orrs	r3, r2
20000b64:	647b      	str	r3, [r7, #68]	; 0x44
20000b66:	683b      	ldr	r3, [r7, #0]
20000b68:	3301      	adds	r3, #1
20000b6a:	603b      	str	r3, [r7, #0]
20000b6c:	2301      	movs	r3, #1
20000b6e:	63bb      	str	r3, [r7, #56]	; 0x38
20000b70:	e002      	b.n	20000b78 <_vsnprintf+0xca>
20000b72:	2300      	movs	r3, #0
20000b74:	63bb      	str	r3, [r7, #56]	; 0x38
20000b76:	46c0      	nop			; (mov r8, r8)
20000b78:	6bbb      	ldr	r3, [r7, #56]	; 0x38
20000b7a:	2b00      	cmp	r3, #0
20000b7c:	d1bd      	bne.n	20000afa <_vsnprintf+0x4c>
20000b7e:	2300      	movs	r3, #0
20000b80:	643b      	str	r3, [r7, #64]	; 0x40
20000b82:	683b      	ldr	r3, [r7, #0]
20000b84:	781b      	ldrb	r3, [r3, #0]
20000b86:	0018      	movs	r0, r3
20000b88:	f7ff fdc7 	bl	2000071a <_is_digit>
20000b8c:	1e03      	subs	r3, r0, #0
20000b8e:	d006      	beq.n	20000b9e <_vsnprintf+0xf0>
20000b90:	003b      	movs	r3, r7
20000b92:	0018      	movs	r0, r3
20000b94:	f7ff fdda 	bl	2000074c <_atoi>
20000b98:	0003      	movs	r3, r0
20000b9a:	643b      	str	r3, [r7, #64]	; 0x40
20000b9c:	e018      	b.n	20000bd0 <_vsnprintf+0x122>
20000b9e:	683b      	ldr	r3, [r7, #0]
20000ba0:	781b      	ldrb	r3, [r3, #0]
20000ba2:	2b2a      	cmp	r3, #42	; 0x2a
20000ba4:	d114      	bne.n	20000bd0 <_vsnprintf+0x122>
20000ba6:	6e3b      	ldr	r3, [r7, #96]	; 0x60
20000ba8:	1d1a      	adds	r2, r3, #4
20000baa:	663a      	str	r2, [r7, #96]	; 0x60
20000bac:	681b      	ldr	r3, [r3, #0]
20000bae:	623b      	str	r3, [r7, #32]
20000bb0:	6a3b      	ldr	r3, [r7, #32]
20000bb2:	2b00      	cmp	r3, #0
20000bb4:	da07      	bge.n	20000bc6 <_vsnprintf+0x118>
20000bb6:	6c7b      	ldr	r3, [r7, #68]	; 0x44
20000bb8:	2202      	movs	r2, #2
20000bba:	4313      	orrs	r3, r2
20000bbc:	647b      	str	r3, [r7, #68]	; 0x44
20000bbe:	6a3b      	ldr	r3, [r7, #32]
20000bc0:	425b      	negs	r3, r3
20000bc2:	643b      	str	r3, [r7, #64]	; 0x40
20000bc4:	e001      	b.n	20000bca <_vsnprintf+0x11c>
20000bc6:	6a3b      	ldr	r3, [r7, #32]
20000bc8:	643b      	str	r3, [r7, #64]	; 0x40
20000bca:	683b      	ldr	r3, [r7, #0]
20000bcc:	3301      	adds	r3, #1
20000bce:	603b      	str	r3, [r7, #0]
20000bd0:	2300      	movs	r3, #0
20000bd2:	63fb      	str	r3, [r7, #60]	; 0x3c
20000bd4:	683b      	ldr	r3, [r7, #0]
20000bd6:	781b      	ldrb	r3, [r3, #0]
20000bd8:	2b2e      	cmp	r3, #46	; 0x2e
20000bda:	d126      	bne.n	20000c2a <_vsnprintf+0x17c>
20000bdc:	6c7b      	ldr	r3, [r7, #68]	; 0x44
20000bde:	2280      	movs	r2, #128	; 0x80
20000be0:	00d2      	lsls	r2, r2, #3
20000be2:	4313      	orrs	r3, r2
20000be4:	647b      	str	r3, [r7, #68]	; 0x44
20000be6:	683b      	ldr	r3, [r7, #0]
20000be8:	3301      	adds	r3, #1
20000bea:	603b      	str	r3, [r7, #0]
20000bec:	683b      	ldr	r3, [r7, #0]
20000bee:	781b      	ldrb	r3, [r3, #0]
20000bf0:	0018      	movs	r0, r3
20000bf2:	f7ff fd92 	bl	2000071a <_is_digit>
20000bf6:	1e03      	subs	r3, r0, #0
20000bf8:	d006      	beq.n	20000c08 <_vsnprintf+0x15a>
20000bfa:	003b      	movs	r3, r7
20000bfc:	0018      	movs	r0, r3
20000bfe:	f7ff fda5 	bl	2000074c <_atoi>
20000c02:	0003      	movs	r3, r0
20000c04:	63fb      	str	r3, [r7, #60]	; 0x3c
20000c06:	e010      	b.n	20000c2a <_vsnprintf+0x17c>
20000c08:	683b      	ldr	r3, [r7, #0]
20000c0a:	781b      	ldrb	r3, [r3, #0]
20000c0c:	2b2a      	cmp	r3, #42	; 0x2a
20000c0e:	d10c      	bne.n	20000c2a <_vsnprintf+0x17c>
20000c10:	6e3b      	ldr	r3, [r7, #96]	; 0x60
20000c12:	1d1a      	adds	r2, r3, #4
20000c14:	663a      	str	r2, [r7, #96]	; 0x60
20000c16:	681b      	ldr	r3, [r3, #0]
20000c18:	61fb      	str	r3, [r7, #28]
20000c1a:	69fb      	ldr	r3, [r7, #28]
20000c1c:	2b00      	cmp	r3, #0
20000c1e:	da00      	bge.n	20000c22 <_vsnprintf+0x174>
20000c20:	2300      	movs	r3, #0
20000c22:	63fb      	str	r3, [r7, #60]	; 0x3c
20000c24:	683b      	ldr	r3, [r7, #0]
20000c26:	3301      	adds	r3, #1
20000c28:	603b      	str	r3, [r7, #0]
20000c2a:	683b      	ldr	r3, [r7, #0]
20000c2c:	781b      	ldrb	r3, [r3, #0]
20000c2e:	2b7a      	cmp	r3, #122	; 0x7a
20000c30:	d039      	beq.n	20000ca6 <_vsnprintf+0x1f8>
20000c32:	dc41      	bgt.n	20000cb8 <_vsnprintf+0x20a>
20000c34:	2b6c      	cmp	r3, #108	; 0x6c
20000c36:	d005      	beq.n	20000c44 <_vsnprintf+0x196>
20000c38:	dc3e      	bgt.n	20000cb8 <_vsnprintf+0x20a>
20000c3a:	2b68      	cmp	r3, #104	; 0x68
20000c3c:	d017      	beq.n	20000c6e <_vsnprintf+0x1c0>
20000c3e:	2b6a      	cmp	r3, #106	; 0x6a
20000c40:	d028      	beq.n	20000c94 <_vsnprintf+0x1e6>
20000c42:	e039      	b.n	20000cb8 <_vsnprintf+0x20a>
20000c44:	6c7b      	ldr	r3, [r7, #68]	; 0x44
20000c46:	2280      	movs	r2, #128	; 0x80
20000c48:	0052      	lsls	r2, r2, #1
20000c4a:	4313      	orrs	r3, r2
20000c4c:	647b      	str	r3, [r7, #68]	; 0x44
20000c4e:	683b      	ldr	r3, [r7, #0]
20000c50:	3301      	adds	r3, #1
20000c52:	603b      	str	r3, [r7, #0]
20000c54:	683b      	ldr	r3, [r7, #0]
20000c56:	781b      	ldrb	r3, [r3, #0]
20000c58:	2b6c      	cmp	r3, #108	; 0x6c
20000c5a:	d12f      	bne.n	20000cbc <_vsnprintf+0x20e>
20000c5c:	6c7b      	ldr	r3, [r7, #68]	; 0x44
20000c5e:	2280      	movs	r2, #128	; 0x80
20000c60:	0092      	lsls	r2, r2, #2
20000c62:	4313      	orrs	r3, r2
20000c64:	647b      	str	r3, [r7, #68]	; 0x44
20000c66:	683b      	ldr	r3, [r7, #0]
20000c68:	3301      	adds	r3, #1
20000c6a:	603b      	str	r3, [r7, #0]
20000c6c:	e026      	b.n	20000cbc <_vsnprintf+0x20e>
20000c6e:	6c7b      	ldr	r3, [r7, #68]	; 0x44
20000c70:	2280      	movs	r2, #128	; 0x80
20000c72:	4313      	orrs	r3, r2
20000c74:	647b      	str	r3, [r7, #68]	; 0x44
20000c76:	683b      	ldr	r3, [r7, #0]
20000c78:	3301      	adds	r3, #1
20000c7a:	603b      	str	r3, [r7, #0]
20000c7c:	683b      	ldr	r3, [r7, #0]
20000c7e:	781b      	ldrb	r3, [r3, #0]
20000c80:	2b68      	cmp	r3, #104	; 0x68
20000c82:	d11d      	bne.n	20000cc0 <_vsnprintf+0x212>
20000c84:	6c7b      	ldr	r3, [r7, #68]	; 0x44
20000c86:	2240      	movs	r2, #64	; 0x40
20000c88:	4313      	orrs	r3, r2
20000c8a:	647b      	str	r3, [r7, #68]	; 0x44
20000c8c:	683b      	ldr	r3, [r7, #0]
20000c8e:	3301      	adds	r3, #1
20000c90:	603b      	str	r3, [r7, #0]
20000c92:	e015      	b.n	20000cc0 <_vsnprintf+0x212>
20000c94:	6c7b      	ldr	r3, [r7, #68]	; 0x44
20000c96:	2280      	movs	r2, #128	; 0x80
20000c98:	0092      	lsls	r2, r2, #2
20000c9a:	4313      	orrs	r3, r2
20000c9c:	647b      	str	r3, [r7, #68]	; 0x44
20000c9e:	683b      	ldr	r3, [r7, #0]
20000ca0:	3301      	adds	r3, #1
20000ca2:	603b      	str	r3, [r7, #0]
20000ca4:	e00d      	b.n	20000cc2 <_vsnprintf+0x214>
20000ca6:	6c7b      	ldr	r3, [r7, #68]	; 0x44
20000ca8:	2280      	movs	r2, #128	; 0x80
20000caa:	0052      	lsls	r2, r2, #1
20000cac:	4313      	orrs	r3, r2
20000cae:	647b      	str	r3, [r7, #68]	; 0x44
20000cb0:	683b      	ldr	r3, [r7, #0]
20000cb2:	3301      	adds	r3, #1
20000cb4:	603b      	str	r3, [r7, #0]
20000cb6:	e004      	b.n	20000cc2 <_vsnprintf+0x214>
20000cb8:	46c0      	nop			; (mov r8, r8)
20000cba:	e002      	b.n	20000cc2 <_vsnprintf+0x214>
20000cbc:	46c0      	nop			; (mov r8, r8)
20000cbe:	e000      	b.n	20000cc2 <_vsnprintf+0x214>
20000cc0:	46c0      	nop			; (mov r8, r8)
20000cc2:	683b      	ldr	r3, [r7, #0]
20000cc4:	781b      	ldrb	r3, [r3, #0]
20000cc6:	3b25      	subs	r3, #37	; 0x25
20000cc8:	2b53      	cmp	r3, #83	; 0x53
20000cca:	d900      	bls.n	20000cce <_vsnprintf+0x220>
20000ccc:	e1d1      	b.n	20001072 <_vsnprintf+0x5c4>
20000cce:	009a      	lsls	r2, r3, #2
20000cd0:	4b46      	ldr	r3, [pc, #280]	; (20000dec <_vsnprintf+0x33e>)
20000cd2:	18d3      	adds	r3, r2, r3
20000cd4:	681b      	ldr	r3, [r3, #0]
20000cd6:	469f      	mov	pc, r3
20000cd8:	683b      	ldr	r3, [r7, #0]
20000cda:	781b      	ldrb	r3, [r3, #0]
20000cdc:	2b78      	cmp	r3, #120	; 0x78
20000cde:	d003      	beq.n	20000ce8 <_vsnprintf+0x23a>
20000ce0:	683b      	ldr	r3, [r7, #0]
20000ce2:	781b      	ldrb	r3, [r3, #0]
20000ce4:	2b58      	cmp	r3, #88	; 0x58
20000ce6:	d102      	bne.n	20000cee <_vsnprintf+0x240>
20000ce8:	2310      	movs	r3, #16
20000cea:	633b      	str	r3, [r7, #48]	; 0x30
20000cec:	e013      	b.n	20000d16 <_vsnprintf+0x268>
20000cee:	683b      	ldr	r3, [r7, #0]
20000cf0:	781b      	ldrb	r3, [r3, #0]
20000cf2:	2b6f      	cmp	r3, #111	; 0x6f
20000cf4:	d102      	bne.n	20000cfc <_vsnprintf+0x24e>
20000cf6:	2308      	movs	r3, #8
20000cf8:	633b      	str	r3, [r7, #48]	; 0x30
20000cfa:	e00c      	b.n	20000d16 <_vsnprintf+0x268>
20000cfc:	683b      	ldr	r3, [r7, #0]
20000cfe:	781b      	ldrb	r3, [r3, #0]
20000d00:	2b62      	cmp	r3, #98	; 0x62
20000d02:	d102      	bne.n	20000d0a <_vsnprintf+0x25c>
20000d04:	2302      	movs	r3, #2
20000d06:	633b      	str	r3, [r7, #48]	; 0x30
20000d08:	e005      	b.n	20000d16 <_vsnprintf+0x268>
20000d0a:	230a      	movs	r3, #10
20000d0c:	633b      	str	r3, [r7, #48]	; 0x30
20000d0e:	6c7b      	ldr	r3, [r7, #68]	; 0x44
20000d10:	2210      	movs	r2, #16
20000d12:	4393      	bics	r3, r2
20000d14:	647b      	str	r3, [r7, #68]	; 0x44
20000d16:	683b      	ldr	r3, [r7, #0]
20000d18:	781b      	ldrb	r3, [r3, #0]
20000d1a:	2b58      	cmp	r3, #88	; 0x58
20000d1c:	d103      	bne.n	20000d26 <_vsnprintf+0x278>
20000d1e:	6c7b      	ldr	r3, [r7, #68]	; 0x44
20000d20:	2220      	movs	r2, #32
20000d22:	4313      	orrs	r3, r2
20000d24:	647b      	str	r3, [r7, #68]	; 0x44
20000d26:	683b      	ldr	r3, [r7, #0]
20000d28:	781b      	ldrb	r3, [r3, #0]
20000d2a:	2b69      	cmp	r3, #105	; 0x69
20000d2c:	d007      	beq.n	20000d3e <_vsnprintf+0x290>
20000d2e:	683b      	ldr	r3, [r7, #0]
20000d30:	781b      	ldrb	r3, [r3, #0]
20000d32:	2b64      	cmp	r3, #100	; 0x64
20000d34:	d003      	beq.n	20000d3e <_vsnprintf+0x290>
20000d36:	6c7b      	ldr	r3, [r7, #68]	; 0x44
20000d38:	220c      	movs	r2, #12
20000d3a:	4393      	bics	r3, r2
20000d3c:	647b      	str	r3, [r7, #68]	; 0x44
20000d3e:	6c7a      	ldr	r2, [r7, #68]	; 0x44
20000d40:	2380      	movs	r3, #128	; 0x80
20000d42:	00db      	lsls	r3, r3, #3
20000d44:	4013      	ands	r3, r2
20000d46:	d003      	beq.n	20000d50 <_vsnprintf+0x2a2>
20000d48:	6c7b      	ldr	r3, [r7, #68]	; 0x44
20000d4a:	2201      	movs	r2, #1
20000d4c:	4393      	bics	r3, r2
20000d4e:	647b      	str	r3, [r7, #68]	; 0x44
20000d50:	683b      	ldr	r3, [r7, #0]
20000d52:	781b      	ldrb	r3, [r3, #0]
20000d54:	2b69      	cmp	r3, #105	; 0x69
20000d56:	d003      	beq.n	20000d60 <_vsnprintf+0x2b2>
20000d58:	683b      	ldr	r3, [r7, #0]
20000d5a:	781b      	ldrb	r3, [r3, #0]
20000d5c:	2b64      	cmp	r3, #100	; 0x64
20000d5e:	d169      	bne.n	20000e34 <_vsnprintf+0x386>
20000d60:	6c7a      	ldr	r2, [r7, #68]	; 0x44
20000d62:	2380      	movs	r3, #128	; 0x80
20000d64:	009b      	lsls	r3, r3, #2
20000d66:	4013      	ands	r3, r2
20000d68:	d000      	beq.n	20000d6c <_vsnprintf+0x2be>
20000d6a:	e0b5      	b.n	20000ed8 <_vsnprintf+0x42a>
20000d6c:	6c7a      	ldr	r2, [r7, #68]	; 0x44
20000d6e:	2380      	movs	r3, #128	; 0x80
20000d70:	005b      	lsls	r3, r3, #1
20000d72:	4013      	ands	r3, r2
20000d74:	d021      	beq.n	20000dba <_vsnprintf+0x30c>
20000d76:	6e3b      	ldr	r3, [r7, #96]	; 0x60
20000d78:	1d1a      	adds	r2, r3, #4
20000d7a:	663a      	str	r2, [r7, #96]	; 0x60
20000d7c:	681b      	ldr	r3, [r3, #0]
20000d7e:	613b      	str	r3, [r7, #16]
20000d80:	693b      	ldr	r3, [r7, #16]
20000d82:	17da      	asrs	r2, r3, #31
20000d84:	189b      	adds	r3, r3, r2
20000d86:	4053      	eors	r3, r2
20000d88:	001e      	movs	r6, r3
20000d8a:	693b      	ldr	r3, [r7, #16]
20000d8c:	0fdb      	lsrs	r3, r3, #31
20000d8e:	b2db      	uxtb	r3, r3
20000d90:	687d      	ldr	r5, [r7, #4]
20000d92:	6b7c      	ldr	r4, [r7, #52]	; 0x34
20000d94:	68b9      	ldr	r1, [r7, #8]
20000d96:	68f8      	ldr	r0, [r7, #12]
20000d98:	6c7a      	ldr	r2, [r7, #68]	; 0x44
20000d9a:	9205      	str	r2, [sp, #20]
20000d9c:	6c3a      	ldr	r2, [r7, #64]	; 0x40
20000d9e:	9204      	str	r2, [sp, #16]
20000da0:	6bfa      	ldr	r2, [r7, #60]	; 0x3c
20000da2:	9203      	str	r2, [sp, #12]
20000da4:	6b3a      	ldr	r2, [r7, #48]	; 0x30
20000da6:	9202      	str	r2, [sp, #8]
20000da8:	9301      	str	r3, [sp, #4]
20000daa:	9600      	str	r6, [sp, #0]
20000dac:	002b      	movs	r3, r5
20000dae:	0022      	movs	r2, r4
20000db0:	f7ff fe12 	bl	200009d8 <_ntoa_long>
20000db4:	0003      	movs	r3, r0
20000db6:	637b      	str	r3, [r7, #52]	; 0x34
20000db8:	e08e      	b.n	20000ed8 <_vsnprintf+0x42a>
20000dba:	6c7b      	ldr	r3, [r7, #68]	; 0x44
20000dbc:	2240      	movs	r2, #64	; 0x40
20000dbe:	4013      	ands	r3, r2
20000dc0:	d005      	beq.n	20000dce <_vsnprintf+0x320>
20000dc2:	6e3b      	ldr	r3, [r7, #96]	; 0x60
20000dc4:	1d1a      	adds	r2, r3, #4
20000dc6:	663a      	str	r2, [r7, #96]	; 0x60
20000dc8:	681b      	ldr	r3, [r3, #0]
20000dca:	b2db      	uxtb	r3, r3
20000dcc:	e014      	b.n	20000df8 <_vsnprintf+0x34a>
20000dce:	6c7b      	ldr	r3, [r7, #68]	; 0x44
20000dd0:	2280      	movs	r2, #128	; 0x80
20000dd2:	4013      	ands	r3, r2
20000dd4:	d00c      	beq.n	20000df0 <_vsnprintf+0x342>
20000dd6:	6e3b      	ldr	r3, [r7, #96]	; 0x60
20000dd8:	1d1a      	adds	r2, r3, #4
20000dda:	663a      	str	r2, [r7, #96]	; 0x60
20000ddc:	681b      	ldr	r3, [r3, #0]
20000dde:	b21b      	sxth	r3, r3
20000de0:	e00a      	b.n	20000df8 <_vsnprintf+0x34a>
20000de2:	46c0      	nop			; (mov r8, r8)
20000de4:	20000663 	andcs	r0, r0, r3, ror #12
20000de8:	100019f0 	strdne	r1, [r0], -r0
20000dec:	10001a34 	andne	r1, r0, r4, lsr sl
20000df0:	6e3b      	ldr	r3, [r7, #96]	; 0x60
20000df2:	1d1a      	adds	r2, r3, #4
20000df4:	663a      	str	r2, [r7, #96]	; 0x60
20000df6:	681b      	ldr	r3, [r3, #0]
20000df8:	617b      	str	r3, [r7, #20]
20000dfa:	697b      	ldr	r3, [r7, #20]
20000dfc:	17da      	asrs	r2, r3, #31
20000dfe:	189b      	adds	r3, r3, r2
20000e00:	4053      	eors	r3, r2
20000e02:	001e      	movs	r6, r3
20000e04:	697b      	ldr	r3, [r7, #20]
20000e06:	0fdb      	lsrs	r3, r3, #31
20000e08:	b2db      	uxtb	r3, r3
20000e0a:	687d      	ldr	r5, [r7, #4]
20000e0c:	6b7c      	ldr	r4, [r7, #52]	; 0x34
20000e0e:	68b9      	ldr	r1, [r7, #8]
20000e10:	68f8      	ldr	r0, [r7, #12]
20000e12:	6c7a      	ldr	r2, [r7, #68]	; 0x44
20000e14:	9205      	str	r2, [sp, #20]
20000e16:	6c3a      	ldr	r2, [r7, #64]	; 0x40
20000e18:	9204      	str	r2, [sp, #16]
20000e1a:	6bfa      	ldr	r2, [r7, #60]	; 0x3c
20000e1c:	9203      	str	r2, [sp, #12]
20000e1e:	6b3a      	ldr	r2, [r7, #48]	; 0x30
20000e20:	9202      	str	r2, [sp, #8]
20000e22:	9301      	str	r3, [sp, #4]
20000e24:	9600      	str	r6, [sp, #0]
20000e26:	002b      	movs	r3, r5
20000e28:	0022      	movs	r2, r4
20000e2a:	f7ff fdd5 	bl	200009d8 <_ntoa_long>
20000e2e:	0003      	movs	r3, r0
20000e30:	637b      	str	r3, [r7, #52]	; 0x34
20000e32:	e051      	b.n	20000ed8 <_vsnprintf+0x42a>
20000e34:	6c7a      	ldr	r2, [r7, #68]	; 0x44
20000e36:	2380      	movs	r3, #128	; 0x80
20000e38:	009b      	lsls	r3, r3, #2
20000e3a:	4013      	ands	r3, r2
20000e3c:	d14c      	bne.n	20000ed8 <_vsnprintf+0x42a>
20000e3e:	6c7a      	ldr	r2, [r7, #68]	; 0x44
20000e40:	2380      	movs	r3, #128	; 0x80
20000e42:	005b      	lsls	r3, r3, #1
20000e44:	4013      	ands	r3, r2
20000e46:	d019      	beq.n	20000e7c <_vsnprintf+0x3ce>
20000e48:	6e3b      	ldr	r3, [r7, #96]	; 0x60
20000e4a:	1d1a      	adds	r2, r3, #4
20000e4c:	663a      	str	r2, [r7, #96]	; 0x60
20000e4e:	681b      	ldr	r3, [r3, #0]
20000e50:	687d      	ldr	r5, [r7, #4]
20000e52:	6b7c      	ldr	r4, [r7, #52]	; 0x34
20000e54:	68b9      	ldr	r1, [r7, #8]
20000e56:	68f8      	ldr	r0, [r7, #12]
20000e58:	6c7a      	ldr	r2, [r7, #68]	; 0x44
20000e5a:	9205      	str	r2, [sp, #20]
20000e5c:	6c3a      	ldr	r2, [r7, #64]	; 0x40
20000e5e:	9204      	str	r2, [sp, #16]
20000e60:	6bfa      	ldr	r2, [r7, #60]	; 0x3c
20000e62:	9203      	str	r2, [sp, #12]
20000e64:	6b3a      	ldr	r2, [r7, #48]	; 0x30
20000e66:	9202      	str	r2, [sp, #8]
20000e68:	2200      	movs	r2, #0
20000e6a:	9201      	str	r2, [sp, #4]
20000e6c:	9300      	str	r3, [sp, #0]
20000e6e:	002b      	movs	r3, r5
20000e70:	0022      	movs	r2, r4
20000e72:	f7ff fdb1 	bl	200009d8 <_ntoa_long>
20000e76:	0003      	movs	r3, r0
20000e78:	637b      	str	r3, [r7, #52]	; 0x34
20000e7a:	e02d      	b.n	20000ed8 <_vsnprintf+0x42a>
20000e7c:	6c7b      	ldr	r3, [r7, #68]	; 0x44
20000e7e:	2240      	movs	r2, #64	; 0x40
20000e80:	4013      	ands	r3, r2
20000e82:	d005      	beq.n	20000e90 <_vsnprintf+0x3e2>
20000e84:	6e3b      	ldr	r3, [r7, #96]	; 0x60
20000e86:	1d1a      	adds	r2, r3, #4
20000e88:	663a      	str	r2, [r7, #96]	; 0x60
20000e8a:	681b      	ldr	r3, [r3, #0]
20000e8c:	b2db      	uxtb	r3, r3
20000e8e:	e00d      	b.n	20000eac <_vsnprintf+0x3fe>
20000e90:	6c7b      	ldr	r3, [r7, #68]	; 0x44
20000e92:	2280      	movs	r2, #128	; 0x80
20000e94:	4013      	ands	r3, r2
20000e96:	d005      	beq.n	20000ea4 <_vsnprintf+0x3f6>
20000e98:	6e3b      	ldr	r3, [r7, #96]	; 0x60
20000e9a:	1d1a      	adds	r2, r3, #4
20000e9c:	663a      	str	r2, [r7, #96]	; 0x60
20000e9e:	681b      	ldr	r3, [r3, #0]
20000ea0:	b29b      	uxth	r3, r3
20000ea2:	e003      	b.n	20000eac <_vsnprintf+0x3fe>
20000ea4:	6e3b      	ldr	r3, [r7, #96]	; 0x60
20000ea6:	1d1a      	adds	r2, r3, #4
20000ea8:	663a      	str	r2, [r7, #96]	; 0x60
20000eaa:	681b      	ldr	r3, [r3, #0]
20000eac:	61bb      	str	r3, [r7, #24]
20000eae:	687c      	ldr	r4, [r7, #4]
20000eb0:	6b7a      	ldr	r2, [r7, #52]	; 0x34
20000eb2:	68b9      	ldr	r1, [r7, #8]
20000eb4:	68f8      	ldr	r0, [r7, #12]
20000eb6:	6c7b      	ldr	r3, [r7, #68]	; 0x44
20000eb8:	9305      	str	r3, [sp, #20]
20000eba:	6c3b      	ldr	r3, [r7, #64]	; 0x40
20000ebc:	9304      	str	r3, [sp, #16]
20000ebe:	6bfb      	ldr	r3, [r7, #60]	; 0x3c
20000ec0:	9303      	str	r3, [sp, #12]
20000ec2:	6b3b      	ldr	r3, [r7, #48]	; 0x30
20000ec4:	9302      	str	r3, [sp, #8]
20000ec6:	2300      	movs	r3, #0
20000ec8:	9301      	str	r3, [sp, #4]
20000eca:	69bb      	ldr	r3, [r7, #24]
20000ecc:	9300      	str	r3, [sp, #0]
20000ece:	0023      	movs	r3, r4
20000ed0:	f7ff fd82 	bl	200009d8 <_ntoa_long>
20000ed4:	0003      	movs	r3, r0
20000ed6:	637b      	str	r3, [r7, #52]	; 0x34
20000ed8:	683b      	ldr	r3, [r7, #0]
20000eda:	3301      	adds	r3, #1
20000edc:	603b      	str	r3, [r7, #0]
20000ede:	e0d5      	b.n	2000108c <_vsnprintf+0x5de>
20000ee0:	2301      	movs	r3, #1
20000ee2:	62fb      	str	r3, [r7, #44]	; 0x2c
20000ee4:	6c7b      	ldr	r3, [r7, #68]	; 0x44
20000ee6:	2202      	movs	r2, #2
20000ee8:	4013      	ands	r3, r2
20000eea:	d10e      	bne.n	20000f0a <_vsnprintf+0x45c>
20000eec:	e007      	b.n	20000efe <_vsnprintf+0x450>
20000eee:	6b7a      	ldr	r2, [r7, #52]	; 0x34
20000ef0:	1c53      	adds	r3, r2, #1
20000ef2:	637b      	str	r3, [r7, #52]	; 0x34
20000ef4:	687b      	ldr	r3, [r7, #4]
20000ef6:	68b9      	ldr	r1, [r7, #8]
20000ef8:	68fc      	ldr	r4, [r7, #12]
20000efa:	2020      	movs	r0, #32
20000efc:	47a0      	blx	r4
20000efe:	6afb      	ldr	r3, [r7, #44]	; 0x2c
20000f00:	1c5a      	adds	r2, r3, #1
20000f02:	62fa      	str	r2, [r7, #44]	; 0x2c
20000f04:	6c3a      	ldr	r2, [r7, #64]	; 0x40
20000f06:	429a      	cmp	r2, r3
20000f08:	d8f1      	bhi.n	20000eee <_vsnprintf+0x440>
20000f0a:	6e3b      	ldr	r3, [r7, #96]	; 0x60
20000f0c:	1d1a      	adds	r2, r3, #4
20000f0e:	663a      	str	r2, [r7, #96]	; 0x60
20000f10:	681b      	ldr	r3, [r3, #0]
20000f12:	b2d8      	uxtb	r0, r3
20000f14:	6b7a      	ldr	r2, [r7, #52]	; 0x34
20000f16:	1c53      	adds	r3, r2, #1
20000f18:	637b      	str	r3, [r7, #52]	; 0x34
20000f1a:	687b      	ldr	r3, [r7, #4]
20000f1c:	68b9      	ldr	r1, [r7, #8]
20000f1e:	68fc      	ldr	r4, [r7, #12]
20000f20:	47a0      	blx	r4
20000f22:	6c7b      	ldr	r3, [r7, #68]	; 0x44
20000f24:	2202      	movs	r2, #2
20000f26:	4013      	ands	r3, r2
20000f28:	d00e      	beq.n	20000f48 <_vsnprintf+0x49a>
20000f2a:	e007      	b.n	20000f3c <_vsnprintf+0x48e>
20000f2c:	6b7a      	ldr	r2, [r7, #52]	; 0x34
20000f2e:	1c53      	adds	r3, r2, #1
20000f30:	637b      	str	r3, [r7, #52]	; 0x34
20000f32:	687b      	ldr	r3, [r7, #4]
20000f34:	68b9      	ldr	r1, [r7, #8]
20000f36:	68fc      	ldr	r4, [r7, #12]
20000f38:	2020      	movs	r0, #32
20000f3a:	47a0      	blx	r4
20000f3c:	6afb      	ldr	r3, [r7, #44]	; 0x2c
20000f3e:	1c5a      	adds	r2, r3, #1
20000f40:	62fa      	str	r2, [r7, #44]	; 0x2c
20000f42:	6c3a      	ldr	r2, [r7, #64]	; 0x40
20000f44:	429a      	cmp	r2, r3
20000f46:	d8f1      	bhi.n	20000f2c <_vsnprintf+0x47e>
20000f48:	683b      	ldr	r3, [r7, #0]
20000f4a:	3301      	adds	r3, #1
20000f4c:	603b      	str	r3, [r7, #0]
20000f4e:	e09d      	b.n	2000108c <_vsnprintf+0x5de>
20000f50:	6e3b      	ldr	r3, [r7, #96]	; 0x60
20000f52:	1d1a      	adds	r2, r3, #4
20000f54:	663a      	str	r2, [r7, #96]	; 0x60
20000f56:	681b      	ldr	r3, [r3, #0]
20000f58:	62bb      	str	r3, [r7, #40]	; 0x28
20000f5a:	6bfb      	ldr	r3, [r7, #60]	; 0x3c
20000f5c:	2b00      	cmp	r3, #0
20000f5e:	d001      	beq.n	20000f64 <_vsnprintf+0x4b6>
20000f60:	6bfb      	ldr	r3, [r7, #60]	; 0x3c
20000f62:	e001      	b.n	20000f68 <_vsnprintf+0x4ba>
20000f64:	2301      	movs	r3, #1
20000f66:	425b      	negs	r3, r3
20000f68:	6aba      	ldr	r2, [r7, #40]	; 0x28
20000f6a:	0019      	movs	r1, r3
20000f6c:	0010      	movs	r0, r2
20000f6e:	f7ff fbb9 	bl	200006e4 <_strnlen_s>
20000f72:	0003      	movs	r3, r0
20000f74:	627b      	str	r3, [r7, #36]	; 0x24
20000f76:	6c7a      	ldr	r2, [r7, #68]	; 0x44
20000f78:	2380      	movs	r3, #128	; 0x80
20000f7a:	00db      	lsls	r3, r3, #3
20000f7c:	4013      	ands	r3, r2
20000f7e:	d005      	beq.n	20000f8c <_vsnprintf+0x4de>
20000f80:	6a7a      	ldr	r2, [r7, #36]	; 0x24
20000f82:	6bfb      	ldr	r3, [r7, #60]	; 0x3c
20000f84:	4293      	cmp	r3, r2
20000f86:	d900      	bls.n	20000f8a <_vsnprintf+0x4dc>
20000f88:	0013      	movs	r3, r2
20000f8a:	627b      	str	r3, [r7, #36]	; 0x24
20000f8c:	6c7b      	ldr	r3, [r7, #68]	; 0x44
20000f8e:	2202      	movs	r2, #2
20000f90:	4013      	ands	r3, r2
20000f92:	d11a      	bne.n	20000fca <_vsnprintf+0x51c>
20000f94:	e007      	b.n	20000fa6 <_vsnprintf+0x4f8>
20000f96:	6b7a      	ldr	r2, [r7, #52]	; 0x34
20000f98:	1c53      	adds	r3, r2, #1
20000f9a:	637b      	str	r3, [r7, #52]	; 0x34
20000f9c:	687b      	ldr	r3, [r7, #4]
20000f9e:	68b9      	ldr	r1, [r7, #8]
20000fa0:	68fc      	ldr	r4, [r7, #12]
20000fa2:	2020      	movs	r0, #32
20000fa4:	47a0      	blx	r4
20000fa6:	6a7b      	ldr	r3, [r7, #36]	; 0x24
20000fa8:	1c5a      	adds	r2, r3, #1
20000faa:	627a      	str	r2, [r7, #36]	; 0x24
20000fac:	6c3a      	ldr	r2, [r7, #64]	; 0x40
20000fae:	429a      	cmp	r2, r3
20000fb0:	d8f1      	bhi.n	20000f96 <_vsnprintf+0x4e8>
20000fb2:	e00a      	b.n	20000fca <_vsnprintf+0x51c>
20000fb4:	6abb      	ldr	r3, [r7, #40]	; 0x28
20000fb6:	1c5a      	adds	r2, r3, #1
20000fb8:	62ba      	str	r2, [r7, #40]	; 0x28
20000fba:	7818      	ldrb	r0, [r3, #0]
20000fbc:	6b7a      	ldr	r2, [r7, #52]	; 0x34
20000fbe:	1c53      	adds	r3, r2, #1
20000fc0:	637b      	str	r3, [r7, #52]	; 0x34
20000fc2:	687b      	ldr	r3, [r7, #4]
20000fc4:	68b9      	ldr	r1, [r7, #8]
20000fc6:	68fc      	ldr	r4, [r7, #12]
20000fc8:	47a0      	blx	r4
20000fca:	6abb      	ldr	r3, [r7, #40]	; 0x28
20000fcc:	781b      	ldrb	r3, [r3, #0]
20000fce:	2b00      	cmp	r3, #0
20000fd0:	d009      	beq.n	20000fe6 <_vsnprintf+0x538>
20000fd2:	6c7a      	ldr	r2, [r7, #68]	; 0x44
20000fd4:	2380      	movs	r3, #128	; 0x80
20000fd6:	00db      	lsls	r3, r3, #3
20000fd8:	4013      	ands	r3, r2
20000fda:	d0eb      	beq.n	20000fb4 <_vsnprintf+0x506>
20000fdc:	6bfb      	ldr	r3, [r7, #60]	; 0x3c
20000fde:	1e5a      	subs	r2, r3, #1
20000fe0:	63fa      	str	r2, [r7, #60]	; 0x3c
20000fe2:	2b00      	cmp	r3, #0
20000fe4:	d1e6      	bne.n	20000fb4 <_vsnprintf+0x506>
20000fe6:	6c7b      	ldr	r3, [r7, #68]	; 0x44
20000fe8:	2202      	movs	r2, #2
20000fea:	4013      	ands	r3, r2
20000fec:	d00e      	beq.n	2000100c <_vsnprintf+0x55e>
20000fee:	e007      	b.n	20001000 <_vsnprintf+0x552>
20000ff0:	6b7a      	ldr	r2, [r7, #52]	; 0x34
20000ff2:	1c53      	adds	r3, r2, #1
20000ff4:	637b      	str	r3, [r7, #52]	; 0x34
20000ff6:	687b      	ldr	r3, [r7, #4]
20000ff8:	68b9      	ldr	r1, [r7, #8]
20000ffa:	68fc      	ldr	r4, [r7, #12]
20000ffc:	2020      	movs	r0, #32
20000ffe:	47a0      	blx	r4
20001000:	6a7b      	ldr	r3, [r7, #36]	; 0x24
20001002:	1c5a      	adds	r2, r3, #1
20001004:	627a      	str	r2, [r7, #36]	; 0x24
20001006:	6c3a      	ldr	r2, [r7, #64]	; 0x40
20001008:	429a      	cmp	r2, r3
2000100a:	d8f1      	bhi.n	20000ff0 <_vsnprintf+0x542>
2000100c:	683b      	ldr	r3, [r7, #0]
2000100e:	3301      	adds	r3, #1
20001010:	603b      	str	r3, [r7, #0]
20001012:	e03b      	b.n	2000108c <_vsnprintf+0x5de>
20001014:	2308      	movs	r3, #8
20001016:	643b      	str	r3, [r7, #64]	; 0x40
20001018:	6c7b      	ldr	r3, [r7, #68]	; 0x44
2000101a:	2221      	movs	r2, #33	; 0x21
2000101c:	4313      	orrs	r3, r2
2000101e:	647b      	str	r3, [r7, #68]	; 0x44
20001020:	6e3b      	ldr	r3, [r7, #96]	; 0x60
20001022:	1d1a      	adds	r2, r3, #4
20001024:	663a      	str	r2, [r7, #96]	; 0x60
20001026:	681b      	ldr	r3, [r3, #0]
20001028:	001d      	movs	r5, r3
2000102a:	687c      	ldr	r4, [r7, #4]
2000102c:	6b7a      	ldr	r2, [r7, #52]	; 0x34
2000102e:	68b9      	ldr	r1, [r7, #8]
20001030:	68f8      	ldr	r0, [r7, #12]
20001032:	6c7b      	ldr	r3, [r7, #68]	; 0x44
20001034:	9305      	str	r3, [sp, #20]
20001036:	6c3b      	ldr	r3, [r7, #64]	; 0x40
20001038:	9304      	str	r3, [sp, #16]
2000103a:	6bfb      	ldr	r3, [r7, #60]	; 0x3c
2000103c:	9303      	str	r3, [sp, #12]
2000103e:	2310      	movs	r3, #16
20001040:	9302      	str	r3, [sp, #8]
20001042:	2300      	movs	r3, #0
20001044:	9301      	str	r3, [sp, #4]
20001046:	9500      	str	r5, [sp, #0]
20001048:	0023      	movs	r3, r4
2000104a:	f7ff fcc5 	bl	200009d8 <_ntoa_long>
2000104e:	0003      	movs	r3, r0
20001050:	637b      	str	r3, [r7, #52]	; 0x34
20001052:	683b      	ldr	r3, [r7, #0]
20001054:	3301      	adds	r3, #1
20001056:	603b      	str	r3, [r7, #0]
20001058:	e018      	b.n	2000108c <_vsnprintf+0x5de>
2000105a:	6b7a      	ldr	r2, [r7, #52]	; 0x34
2000105c:	1c53      	adds	r3, r2, #1
2000105e:	637b      	str	r3, [r7, #52]	; 0x34
20001060:	687b      	ldr	r3, [r7, #4]
20001062:	68b9      	ldr	r1, [r7, #8]
20001064:	68fc      	ldr	r4, [r7, #12]
20001066:	2025      	movs	r0, #37	; 0x25
20001068:	47a0      	blx	r4
2000106a:	683b      	ldr	r3, [r7, #0]
2000106c:	3301      	adds	r3, #1
2000106e:	603b      	str	r3, [r7, #0]
20001070:	e00c      	b.n	2000108c <_vsnprintf+0x5de>
20001072:	683b      	ldr	r3, [r7, #0]
20001074:	7818      	ldrb	r0, [r3, #0]
20001076:	6b7a      	ldr	r2, [r7, #52]	; 0x34
20001078:	1c53      	adds	r3, r2, #1
2000107a:	637b      	str	r3, [r7, #52]	; 0x34
2000107c:	687b      	ldr	r3, [r7, #4]
2000107e:	68b9      	ldr	r1, [r7, #8]
20001080:	68fc      	ldr	r4, [r7, #12]
20001082:	47a0      	blx	r4
20001084:	683b      	ldr	r3, [r7, #0]
20001086:	3301      	adds	r3, #1
20001088:	603b      	str	r3, [r7, #0]
2000108a:	46c0      	nop			; (mov r8, r8)
2000108c:	683b      	ldr	r3, [r7, #0]
2000108e:	781b      	ldrb	r3, [r3, #0]
20001090:	2b00      	cmp	r3, #0
20001092:	d000      	beq.n	20001096 <_vsnprintf+0x5e8>
20001094:	e51b      	b.n	20000ace <_vsnprintf+0x20>
20001096:	6b7a      	ldr	r2, [r7, #52]	; 0x34
20001098:	687b      	ldr	r3, [r7, #4]
2000109a:	429a      	cmp	r2, r3
2000109c:	d302      	bcc.n	200010a4 <_vsnprintf+0x5f6>
2000109e:	687b      	ldr	r3, [r7, #4]
200010a0:	1e5a      	subs	r2, r3, #1
200010a2:	e000      	b.n	200010a6 <_vsnprintf+0x5f8>
200010a4:	6b7a      	ldr	r2, [r7, #52]	; 0x34
200010a6:	687b      	ldr	r3, [r7, #4]
200010a8:	68b9      	ldr	r1, [r7, #8]
200010aa:	68fc      	ldr	r4, [r7, #12]
200010ac:	2000      	movs	r0, #0
200010ae:	47a0      	blx	r4
200010b0:	6b7b      	ldr	r3, [r7, #52]	; 0x34
200010b2:	0018      	movs	r0, r3
200010b4:	46bd      	mov	sp, r7
200010b6:	b013      	add	sp, #76	; 0x4c
200010b8:	bdf0      	pop	{r4, r5, r6, r7, pc}

200010ba <printf_>:
200010ba:	b40f      	push	{r0, r1, r2, r3}
200010bc:	b590      	push	{r4, r7, lr}
200010be:	b087      	sub	sp, #28
200010c0:	af02      	add	r7, sp, #8
200010c2:	2324      	movs	r3, #36	; 0x24
200010c4:	18fb      	adds	r3, r7, r3
200010c6:	60bb      	str	r3, [r7, #8]
200010c8:	6a3c      	ldr	r4, [r7, #32]
200010ca:	2301      	movs	r3, #1
200010cc:	425a      	negs	r2, r3
200010ce:	1d39      	adds	r1, r7, #4
200010d0:	4807      	ldr	r0, [pc, #28]	; (200010f0 <printf_+0x36>)
200010d2:	68bb      	ldr	r3, [r7, #8]
200010d4:	9300      	str	r3, [sp, #0]
200010d6:	0023      	movs	r3, r4
200010d8:	f7ff fce9 	bl	20000aae <_vsnprintf>
200010dc:	0003      	movs	r3, r0
200010de:	60fb      	str	r3, [r7, #12]
200010e0:	68fb      	ldr	r3, [r7, #12]
200010e2:	0018      	movs	r0, r3
200010e4:	46bd      	mov	sp, r7
200010e6:	b005      	add	sp, #20
200010e8:	bc90      	pop	{r4, r7}
200010ea:	bc08      	pop	{r3}
200010ec:	b004      	add	sp, #16
200010ee:	4718      	bx	r3
200010f0:	2000067f 	andcs	r0, r0, pc, ror r6

200010f4 <sprintf_>:
200010f4:	b40e      	push	{r1, r2, r3}
200010f6:	b590      	push	{r4, r7, lr}
200010f8:	b086      	sub	sp, #24
200010fa:	af02      	add	r7, sp, #8
200010fc:	6078      	str	r0, [r7, #4]
200010fe:	2320      	movs	r3, #32
20001100:	18fb      	adds	r3, r7, r3
20001102:	60bb      	str	r3, [r7, #8]
20001104:	69fc      	ldr	r4, [r7, #28]
20001106:	2301      	movs	r3, #1
20001108:	425a      	negs	r2, r3
2000110a:	6879      	ldr	r1, [r7, #4]
2000110c:	4807      	ldr	r0, [pc, #28]	; (2000112c <sprintf_+0x38>)
2000110e:	68bb      	ldr	r3, [r7, #8]
20001110:	9300      	str	r3, [sp, #0]
20001112:	0023      	movs	r3, r4
20001114:	f7ff fccb 	bl	20000aae <_vsnprintf>
20001118:	0003      	movs	r3, r0
2000111a:	60fb      	str	r3, [r7, #12]
2000111c:	68fb      	ldr	r3, [r7, #12]
2000111e:	0018      	movs	r0, r3
20001120:	46bd      	mov	sp, r7
20001122:	b004      	add	sp, #16
20001124:	bc90      	pop	{r4, r7}
20001126:	bc08      	pop	{r3}
20001128:	b003      	add	sp, #12
2000112a:	4718      	bx	r3
2000112c:	20000633 	andcs	r0, r0, r3, lsr r6

20001130 <snprintf_>:
20001130:	b40c      	push	{r2, r3}
20001132:	b590      	push	{r4, r7, lr}
20001134:	b087      	sub	sp, #28
20001136:	af02      	add	r7, sp, #8
20001138:	6078      	str	r0, [r7, #4]
2000113a:	6039      	str	r1, [r7, #0]
2000113c:	2324      	movs	r3, #36	; 0x24
2000113e:	18fb      	adds	r3, r7, r3
20001140:	60bb      	str	r3, [r7, #8]
20001142:	6a3c      	ldr	r4, [r7, #32]
20001144:	683a      	ldr	r2, [r7, #0]
20001146:	6879      	ldr	r1, [r7, #4]
20001148:	4807      	ldr	r0, [pc, #28]	; (20001168 <snprintf_+0x38>)
2000114a:	68bb      	ldr	r3, [r7, #8]
2000114c:	9300      	str	r3, [sp, #0]
2000114e:	0023      	movs	r3, r4
20001150:	f7ff fcad 	bl	20000aae <_vsnprintf>
20001154:	0003      	movs	r3, r0
20001156:	60fb      	str	r3, [r7, #12]
20001158:	68fb      	ldr	r3, [r7, #12]
2000115a:	0018      	movs	r0, r3
2000115c:	46bd      	mov	sp, r7
2000115e:	b005      	add	sp, #20
20001160:	bc90      	pop	{r4, r7}
20001162:	bc08      	pop	{r3}
20001164:	b002      	add	sp, #8
20001166:	4718      	bx	r3
20001168:	20000633 	andcs	r0, r0, r3, lsr r6

2000116c <vprintf_>:
2000116c:	b590      	push	{r4, r7, lr}
2000116e:	b087      	sub	sp, #28
20001170:	af02      	add	r7, sp, #8
20001172:	6078      	str	r0, [r7, #4]
20001174:	6039      	str	r1, [r7, #0]
20001176:	687c      	ldr	r4, [r7, #4]
20001178:	2301      	movs	r3, #1
2000117a:	425a      	negs	r2, r3
2000117c:	230c      	movs	r3, #12
2000117e:	18f9      	adds	r1, r7, r3
20001180:	4805      	ldr	r0, [pc, #20]	; (20001198 <vprintf_+0x2c>)
20001182:	683b      	ldr	r3, [r7, #0]
20001184:	9300      	str	r3, [sp, #0]
20001186:	0023      	movs	r3, r4
20001188:	f7ff fc91 	bl	20000aae <_vsnprintf>
2000118c:	0003      	movs	r3, r0
2000118e:	0018      	movs	r0, r3
20001190:	46bd      	mov	sp, r7
20001192:	b005      	add	sp, #20
20001194:	bd90      	pop	{r4, r7, pc}
20001196:	46c0      	nop			; (mov r8, r8)
20001198:	2000067f 	andcs	r0, r0, pc, ror r6

2000119c <vsnprintf_>:
2000119c:	b590      	push	{r4, r7, lr}
2000119e:	b087      	sub	sp, #28
200011a0:	af02      	add	r7, sp, #8
200011a2:	60f8      	str	r0, [r7, #12]
200011a4:	60b9      	str	r1, [r7, #8]
200011a6:	607a      	str	r2, [r7, #4]
200011a8:	603b      	str	r3, [r7, #0]
200011aa:	687c      	ldr	r4, [r7, #4]
200011ac:	68ba      	ldr	r2, [r7, #8]
200011ae:	68f9      	ldr	r1, [r7, #12]
200011b0:	4805      	ldr	r0, [pc, #20]	; (200011c8 <vsnprintf_+0x2c>)
200011b2:	683b      	ldr	r3, [r7, #0]
200011b4:	9300      	str	r3, [sp, #0]
200011b6:	0023      	movs	r3, r4
200011b8:	f7ff fc79 	bl	20000aae <_vsnprintf>
200011bc:	0003      	movs	r3, r0
200011be:	0018      	movs	r0, r3
200011c0:	46bd      	mov	sp, r7
200011c2:	b005      	add	sp, #20
200011c4:	bd90      	pop	{r4, r7, pc}
200011c6:	46c0      	nop			; (mov r8, r8)
200011c8:	20000633 	andcs	r0, r0, r3, lsr r6

200011cc <fctprintf>:
200011cc:	b40c      	push	{r2, r3}
200011ce:	b590      	push	{r4, r7, lr}
200011d0:	b089      	sub	sp, #36	; 0x24
200011d2:	af02      	add	r7, sp, #8
200011d4:	6078      	str	r0, [r7, #4]
200011d6:	6039      	str	r1, [r7, #0]
200011d8:	232c      	movs	r3, #44	; 0x2c
200011da:	18fb      	adds	r3, r7, r3
200011dc:	613b      	str	r3, [r7, #16]
200011de:	2108      	movs	r1, #8
200011e0:	187b      	adds	r3, r7, r1
200011e2:	687a      	ldr	r2, [r7, #4]
200011e4:	601a      	str	r2, [r3, #0]
200011e6:	187b      	adds	r3, r7, r1
200011e8:	683a      	ldr	r2, [r7, #0]
200011ea:	605a      	str	r2, [r3, #4]
200011ec:	6abc      	ldr	r4, [r7, #40]	; 0x28
200011ee:	2301      	movs	r3, #1
200011f0:	425a      	negs	r2, r3
200011f2:	1879      	adds	r1, r7, r1
200011f4:	4807      	ldr	r0, [pc, #28]	; (20001214 <fctprintf+0x48>)
200011f6:	693b      	ldr	r3, [r7, #16]
200011f8:	9300      	str	r3, [sp, #0]
200011fa:	0023      	movs	r3, r4
200011fc:	f7ff fc57 	bl	20000aae <_vsnprintf>
20001200:	0003      	movs	r3, r0
20001202:	617b      	str	r3, [r7, #20]
20001204:	697b      	ldr	r3, [r7, #20]
20001206:	0018      	movs	r0, r3
20001208:	46bd      	mov	sp, r7
2000120a:	b007      	add	sp, #28
2000120c:	bc90      	pop	{r4, r7}
2000120e:	bc08      	pop	{r3}
20001210:	b002      	add	sp, #8
20001212:	4718      	bx	r3
20001214:	200006af 	andcs	r0, r0, pc, lsr #13

20001218 <divlu>:
20001218:	b5b0      	push	{r4, r5, r7, lr}
2000121a:	b08a      	sub	sp, #40	; 0x28
2000121c:	af00      	add	r7, sp, #0
2000121e:	60b8      	str	r0, [r7, #8]
20001220:	60f9      	str	r1, [r7, #12]
20001222:	607a      	str	r2, [r7, #4]
20001224:	68fb      	ldr	r3, [r7, #12]
20001226:	001c      	movs	r4, r3
20001228:	2300      	movs	r3, #0
2000122a:	001d      	movs	r5, r3
2000122c:	0023      	movs	r3, r4
2000122e:	623b      	str	r3, [r7, #32]
20001230:	68bb      	ldr	r3, [r7, #8]
20001232:	61fb      	str	r3, [r7, #28]
20001234:	687b      	ldr	r3, [r7, #4]
20001236:	61bb      	str	r3, [r7, #24]
20001238:	2301      	movs	r3, #1
2000123a:	627b      	str	r3, [r7, #36]	; 0x24
2000123c:	e01b      	b.n	20001276 <divlu+0x5e>
2000123e:	6a3b      	ldr	r3, [r7, #32]
20001240:	17db      	asrs	r3, r3, #31
20001242:	617b      	str	r3, [r7, #20]
20001244:	6a3b      	ldr	r3, [r7, #32]
20001246:	005a      	lsls	r2, r3, #1
20001248:	69fb      	ldr	r3, [r7, #28]
2000124a:	0fdb      	lsrs	r3, r3, #31
2000124c:	4313      	orrs	r3, r2
2000124e:	623b      	str	r3, [r7, #32]
20001250:	69fb      	ldr	r3, [r7, #28]
20001252:	005b      	lsls	r3, r3, #1
20001254:	61fb      	str	r3, [r7, #28]
20001256:	6a3a      	ldr	r2, [r7, #32]
20001258:	697b      	ldr	r3, [r7, #20]
2000125a:	4313      	orrs	r3, r2
2000125c:	69ba      	ldr	r2, [r7, #24]
2000125e:	429a      	cmp	r2, r3
20001260:	d806      	bhi.n	20001270 <divlu+0x58>
20001262:	6a3a      	ldr	r2, [r7, #32]
20001264:	69bb      	ldr	r3, [r7, #24]
20001266:	1ad3      	subs	r3, r2, r3
20001268:	623b      	str	r3, [r7, #32]
2000126a:	69fb      	ldr	r3, [r7, #28]
2000126c:	3301      	adds	r3, #1
2000126e:	61fb      	str	r3, [r7, #28]
20001270:	6a7b      	ldr	r3, [r7, #36]	; 0x24
20001272:	3301      	adds	r3, #1
20001274:	627b      	str	r3, [r7, #36]	; 0x24
20001276:	6a7b      	ldr	r3, [r7, #36]	; 0x24
20001278:	2b20      	cmp	r3, #32
2000127a:	dde0      	ble.n	2000123e <divlu+0x26>
2000127c:	69fb      	ldr	r3, [r7, #28]
2000127e:	0018      	movs	r0, r3
20001280:	46bd      	mov	sp, r7
20001282:	b00a      	add	sp, #40	; 0x28
20001284:	bdb0      	pop	{r4, r5, r7, pc}

20001286 <udiv>:
20001286:	b5b0      	push	{r4, r5, r7, lr}
20001288:	b082      	sub	sp, #8
2000128a:	af00      	add	r7, sp, #0
2000128c:	6078      	str	r0, [r7, #4]
2000128e:	6039      	str	r1, [r7, #0]
20001290:	687b      	ldr	r3, [r7, #4]
20001292:	001c      	movs	r4, r3
20001294:	2300      	movs	r3, #0
20001296:	001d      	movs	r5, r3
20001298:	683b      	ldr	r3, [r7, #0]
2000129a:	001a      	movs	r2, r3
2000129c:	0020      	movs	r0, r4
2000129e:	0029      	movs	r1, r5
200012a0:	f7ff ffba 	bl	20001218 <divlu>
200012a4:	0003      	movs	r3, r0
200012a6:	0018      	movs	r0, r3
200012a8:	46bd      	mov	sp, r7
200012aa:	b002      	add	sp, #8
200012ac:	bdb0      	pop	{r4, r5, r7, pc}

200012ae <uart_init>:
200012ae:	b580      	push	{r7, lr}
200012b0:	b086      	sub	sp, #24
200012b2:	af00      	add	r7, sp, #0
200012b4:	6078      	str	r0, [r7, #4]
200012b6:	687b      	ldr	r3, [r7, #4]
200012b8:	681b      	ldr	r3, [r3, #0]
200012ba:	2102      	movs	r1, #2
200012bc:	0018      	movs	r0, r3
200012be:	f7fe ff79 	bl	200001b4 <gpio_set_function>
200012c2:	687b      	ldr	r3, [r7, #4]
200012c4:	685b      	ldr	r3, [r3, #4]
200012c6:	2102      	movs	r1, #2
200012c8:	0018      	movs	r0, r3
200012ca:	f7fe ff73 	bl	200001b4 <gpio_set_function>
200012ce:	687b      	ldr	r3, [r7, #4]
200012d0:	68db      	ldr	r3, [r3, #12]
200012d2:	4a39      	ldr	r2, [pc, #228]	; (200013b8 <uart_init+0x10a>)
200012d4:	4293      	cmp	r3, r2
200012d6:	d004      	beq.n	200012e2 <uart_init+0x34>
200012d8:	687b      	ldr	r3, [r7, #4]
200012da:	68db      	ldr	r3, [r3, #12]
200012dc:	4a37      	ldr	r2, [pc, #220]	; (200013bc <uart_init+0x10e>)
200012de:	4293      	cmp	r3, r2
200012e0:	d165      	bne.n	200013ae <uart_init+0x100>
200012e2:	2016      	movs	r0, #22
200012e4:	f7fe ff3a 	bl	2000015c <reset_periph>
200012e8:	687b      	ldr	r3, [r7, #4]
200012ea:	689b      	ldr	r3, [r3, #8]
200012ec:	011b      	lsls	r3, r3, #4
200012ee:	4a34      	ldr	r2, [pc, #208]	; (200013c0 <uart_init+0x112>)
200012f0:	0019      	movs	r1, r3
200012f2:	0010      	movs	r0, r2
200012f4:	f7ff ffc7 	bl	20001286 <udiv>
200012f8:	0003      	movs	r3, r0
200012fa:	617b      	str	r3, [r7, #20]
200012fc:	687b      	ldr	r3, [r7, #4]
200012fe:	689b      	ldr	r3, [r3, #8]
20001300:	011b      	lsls	r3, r3, #4
20001302:	4a30      	ldr	r2, [pc, #192]	; (200013c4 <uart_init+0x116>)
20001304:	0019      	movs	r1, r3
20001306:	0010      	movs	r0, r2
20001308:	f7ff ffbd 	bl	20001286 <udiv>
2000130c:	0003      	movs	r3, r0
2000130e:	0019      	movs	r1, r3
20001310:	697b      	ldr	r3, [r7, #20]
20001312:	2264      	movs	r2, #100	; 0x64
20001314:	4353      	muls	r3, r2
20001316:	1acb      	subs	r3, r1, r3
20001318:	613b      	str	r3, [r7, #16]
2000131a:	693b      	ldr	r3, [r7, #16]
2000131c:	019b      	lsls	r3, r3, #6
2000131e:	2164      	movs	r1, #100	; 0x64
20001320:	0018      	movs	r0, r3
20001322:	f7ff ffb0 	bl	20001286 <udiv>
20001326:	0003      	movs	r3, r0
20001328:	60fb      	str	r3, [r7, #12]
2000132a:	687b      	ldr	r3, [r7, #4]
2000132c:	68db      	ldr	r3, [r3, #12]
2000132e:	3324      	adds	r3, #36	; 0x24
20001330:	697a      	ldr	r2, [r7, #20]
20001332:	0011      	movs	r1, r2
20001334:	0018      	movs	r0, r3
20001336:	f7fe fee8 	bl	2000010a <PUT32>
2000133a:	687b      	ldr	r3, [r7, #4]
2000133c:	68db      	ldr	r3, [r3, #12]
2000133e:	3328      	adds	r3, #40	; 0x28
20001340:	68fa      	ldr	r2, [r7, #12]
20001342:	0011      	movs	r1, r2
20001344:	0018      	movs	r0, r3
20001346:	f7fe fee0 	bl	2000010a <PUT32>
2000134a:	687b      	ldr	r3, [r7, #4]
2000134c:	68db      	ldr	r3, [r3, #12]
2000134e:	4a1e      	ldr	r2, [pc, #120]	; (200013c8 <uart_init+0x11a>)
20001350:	4694      	mov	ip, r2
20001352:	4463      	add	r3, ip
20001354:	2160      	movs	r1, #96	; 0x60
20001356:	0018      	movs	r0, r3
20001358:	f7fe fed7 	bl	2000010a <PUT32>
2000135c:	687b      	ldr	r3, [r7, #4]
2000135e:	68db      	ldr	r3, [r3, #12]
20001360:	4a19      	ldr	r2, [pc, #100]	; (200013c8 <uart_init+0x11a>)
20001362:	4694      	mov	ip, r2
20001364:	4463      	add	r3, ip
20001366:	2110      	movs	r1, #16
20001368:	0018      	movs	r0, r3
2000136a:	f7fe fece 	bl	2000010a <PUT32>
2000136e:	687b      	ldr	r3, [r7, #4]
20001370:	68db      	ldr	r3, [r3, #12]
20001372:	4a16      	ldr	r2, [pc, #88]	; (200013cc <uart_init+0x11e>)
20001374:	4694      	mov	ip, r2
20001376:	4463      	add	r3, ip
20001378:	2280      	movs	r2, #128	; 0x80
2000137a:	0052      	lsls	r2, r2, #1
2000137c:	0011      	movs	r1, r2
2000137e:	0018      	movs	r0, r3
20001380:	f7fe fec3 	bl	2000010a <PUT32>
20001384:	687b      	ldr	r3, [r7, #4]
20001386:	68db      	ldr	r3, [r3, #12]
20001388:	4a10      	ldr	r2, [pc, #64]	; (200013cc <uart_init+0x11e>)
2000138a:	4694      	mov	ip, r2
2000138c:	4463      	add	r3, ip
2000138e:	2280      	movs	r2, #128	; 0x80
20001390:	0092      	lsls	r2, r2, #2
20001392:	0011      	movs	r1, r2
20001394:	0018      	movs	r0, r3
20001396:	f7fe feb8 	bl	2000010a <PUT32>
2000139a:	687b      	ldr	r3, [r7, #4]
2000139c:	68db      	ldr	r3, [r3, #12]
2000139e:	4a0b      	ldr	r2, [pc, #44]	; (200013cc <uart_init+0x11e>)
200013a0:	4694      	mov	ip, r2
200013a2:	4463      	add	r3, ip
200013a4:	2101      	movs	r1, #1
200013a6:	0018      	movs	r0, r3
200013a8:	f7fe feaf 	bl	2000010a <PUT32>
200013ac:	e000      	b.n	200013b0 <uart_init+0x102>
200013ae:	46c0      	nop			; (mov r8, r8)
200013b0:	46bd      	mov	sp, r7
200013b2:	b006      	add	sp, #24
200013b4:	bd80      	pop	{r7, pc}
200013b6:	46c0      	nop			; (mov r8, r8)
200013b8:	40034000 	andmi	r4, r3, r0
200013bc:	40038000 	andmi	r8, r3, r0
200013c0:	00b71b00 	adcseq	r1, r7, r0, lsl #22
200013c4:	47868c00 	strmi	r8, [r6, r0, lsl #24]
200013c8:	0000202c 	andeq	r2, r0, ip, lsr #32
200013cc:	00002030 	andeq	r2, r0, r0, lsr r0

200013d0 <uart_can_getc>:
200013d0:	b580      	push	{r7, lr}
200013d2:	af00      	add	r7, sp, #0
200013d4:	2300      	movs	r3, #0
200013d6:	0018      	movs	r0, r3
200013d8:	46bd      	mov	sp, r7
200013da:	bd80      	pop	{r7, pc}

200013dc <uart_getc>:
200013dc:	b580      	push	{r7, lr}
200013de:	af00      	add	r7, sp, #0
200013e0:	2300      	movs	r3, #0
200013e2:	0018      	movs	r0, r3
200013e4:	46bd      	mov	sp, r7
200013e6:	bd80      	pop	{r7, pc}

200013e8 <uart_can_putc>:
200013e8:	b580      	push	{r7, lr}
200013ea:	af00      	add	r7, sp, #0
200013ec:	4b07      	ldr	r3, [pc, #28]	; (2000140c <uart_can_putc+0x24>)
200013ee:	68db      	ldr	r3, [r3, #12]
200013f0:	3318      	adds	r3, #24
200013f2:	0018      	movs	r0, r3
200013f4:	f7fe fe8b 	bl	2000010e <GET32>
200013f8:	0003      	movs	r3, r0
200013fa:	095b      	lsrs	r3, r3, #5
200013fc:	2201      	movs	r2, #1
200013fe:	4013      	ands	r3, r2
20001400:	425a      	negs	r2, r3
20001402:	4153      	adcs	r3, r2
20001404:	b2db      	uxtb	r3, r3
20001406:	0018      	movs	r0, r3
20001408:	46bd      	mov	sp, r7
2000140a:	bd80      	pop	{r7, pc}
2000140c:	2000f400 	andcs	pc, r0, r0, lsl #8

20001410 <uart_putc>:
20001410:	b580      	push	{r7, lr}
20001412:	b082      	sub	sp, #8
20001414:	af00      	add	r7, sp, #0
20001416:	0002      	movs	r2, r0
20001418:	1dfb      	adds	r3, r7, #7
2000141a:	701a      	strb	r2, [r3, #0]
2000141c:	46c0      	nop			; (mov r8, r8)
2000141e:	f7ff ffe3 	bl	200013e8 <uart_can_putc>
20001422:	1e03      	subs	r3, r0, #0
20001424:	d0fb      	beq.n	2000141e <uart_putc+0xe>
20001426:	4b06      	ldr	r3, [pc, #24]	; (20001440 <uart_putc+0x30>)
20001428:	68da      	ldr	r2, [r3, #12]
2000142a:	1dfb      	adds	r3, r7, #7
2000142c:	781b      	ldrb	r3, [r3, #0]
2000142e:	0019      	movs	r1, r3
20001430:	0010      	movs	r0, r2
20001432:	f7fe fe6a 	bl	2000010a <PUT32>
20001436:	46c0      	nop			; (mov r8, r8)
20001438:	46bd      	mov	sp, r7
2000143a:	b002      	add	sp, #8
2000143c:	bd80      	pop	{r7, pc}
2000143e:	46c0      	nop			; (mov r8, r8)
20001440:	2000f400 	andcs	pc, r0, r0, lsl #8

20001444 <uart_has_data>:
20001444:	b580      	push	{r7, lr}
20001446:	af00      	add	r7, sp, #0
20001448:	f7ff ffc2 	bl	200013d0 <uart_can_getc>
2000144c:	0003      	movs	r3, r0
2000144e:	0018      	movs	r0, r3
20001450:	46bd      	mov	sp, r7
20001452:	bd80      	pop	{r7, pc}

20001454 <uart_getc_async>:
20001454:	b580      	push	{r7, lr}
20001456:	af00      	add	r7, sp, #0
20001458:	f7ff fff4 	bl	20001444 <uart_has_data>
2000145c:	1e03      	subs	r3, r0, #0
2000145e:	d102      	bne.n	20001466 <uart_getc_async+0x12>
20001460:	2301      	movs	r3, #1
20001462:	425b      	negs	r3, r3
20001464:	e002      	b.n	2000146c <uart_getc_async+0x18>
20001466:	f7ff ffb9 	bl	200013dc <uart_getc>
2000146a:	0003      	movs	r3, r0
2000146c:	0018      	movs	r0, r3
2000146e:	46bd      	mov	sp, r7
20001470:	bd80      	pop	{r7, pc}
20001472:	46c0      	nop			; (mov r8, r8)

20001474 <cstart>:
20001474:	b580      	push	{r7, lr}
20001476:	af00      	add	r7, sp, #0
20001478:	f7fe ff92 	bl	200003a0 <enable_clock>
2000147c:	2388      	movs	r3, #136	; 0x88
2000147e:	011b      	lsls	r3, r3, #4
20001480:	4a0f      	ldr	r2, [pc, #60]	; (200014c0 <cstart+0x4c>)
20001482:	0019      	movs	r1, r3
20001484:	0010      	movs	r0, r2
20001486:	f7fe fe40 	bl	2000010a <PUT32>
2000148a:	f7fe fe8b 	bl	200001a4 <gpio_reset>
2000148e:	f000 f889 	bl	200015a4 <init_uart_printing>
20001492:	4b0c      	ldr	r3, [pc, #48]	; (200014c4 <cstart+0x50>)
20001494:	220c      	movs	r2, #12
20001496:	601a      	str	r2, [r3, #0]
20001498:	4b0a      	ldr	r3, [pc, #40]	; (200014c4 <cstart+0x50>)
2000149a:	220d      	movs	r2, #13
2000149c:	605a      	str	r2, [r3, #4]
2000149e:	4b09      	ldr	r3, [pc, #36]	; (200014c4 <cstart+0x50>)
200014a0:	22e1      	movs	r2, #225	; 0xe1
200014a2:	0252      	lsls	r2, r2, #9
200014a4:	609a      	str	r2, [r3, #8]
200014a6:	4b07      	ldr	r3, [pc, #28]	; (200014c4 <cstart+0x50>)
200014a8:	4a07      	ldr	r2, [pc, #28]	; (200014c8 <cstart+0x54>)
200014aa:	60da      	str	r2, [r3, #12]
200014ac:	4b05      	ldr	r3, [pc, #20]	; (200014c4 <cstart+0x50>)
200014ae:	0018      	movs	r0, r3
200014b0:	f7ff fefd 	bl	200012ae <uart_init>
200014b4:	f7fe fe32 	bl	2000011c <mymain>
200014b8:	46c0      	nop			; (mov r8, r8)
200014ba:	46bd      	mov	sp, r7
200014bc:	bd80      	pop	{r7, pc}
200014be:	46c0      	nop			; (mov r8, r8)
200014c0:	40008048 	andmi	r8, r0, r8, asr #32
200014c4:	2000f400 	andcs	pc, r0, r0, lsl #8
200014c8:	40034000 	andmi	r4, r3, r0

200014cc <timed_write>:
200014cc:	b580      	push	{r7, lr}
200014ce:	b084      	sub	sp, #16
200014d0:	af00      	add	r7, sp, #0
200014d2:	60f8      	str	r0, [r7, #12]
200014d4:	60b9      	str	r1, [r7, #8]
200014d6:	607a      	str	r2, [r7, #4]
200014d8:	68bb      	ldr	r3, [r7, #8]
200014da:	2b00      	cmp	r3, #0
200014dc:	d004      	beq.n	200014e8 <timed_write+0x1c>
200014de:	68fb      	ldr	r3, [r7, #12]
200014e0:	0018      	movs	r0, r3
200014e2:	f7fe feff 	bl	200002e4 <gpio_set_on>
200014e6:	e003      	b.n	200014f0 <timed_write+0x24>
200014e8:	68fb      	ldr	r3, [r7, #12]
200014ea:	0018      	movs	r0, r3
200014ec:	f7fe ff12 	bl	20000314 <gpio_set_off>
200014f0:	687b      	ldr	r3, [r7, #4]
200014f2:	0018      	movs	r0, r3
200014f4:	f7fe ff82 	bl	200003fc <delay_us>
200014f8:	46c0      	nop			; (mov r8, r8)
200014fa:	46bd      	mov	sp, r7
200014fc:	b004      	add	sp, #16
200014fe:	bd80      	pop	{r7, pc}

20001500 <sw_uart_putc>:
20001500:	b580      	push	{r7, lr}
20001502:	b084      	sub	sp, #16
20001504:	af00      	add	r7, sp, #0
20001506:	6078      	str	r0, [r7, #4]
20001508:	000a      	movs	r2, r1
2000150a:	1cfb      	adds	r3, r7, #3
2000150c:	701a      	strb	r2, [r3, #0]
2000150e:	687b      	ldr	r3, [r7, #4]
20001510:	6818      	ldr	r0, [r3, #0]
20001512:	687b      	ldr	r3, [r7, #4]
20001514:	68db      	ldr	r3, [r3, #12]
20001516:	001a      	movs	r2, r3
20001518:	2100      	movs	r1, #0
2000151a:	f7ff ffd7 	bl	200014cc <timed_write>
2000151e:	2300      	movs	r3, #0
20001520:	60fb      	str	r3, [r7, #12]
20001522:	e011      	b.n	20001548 <sw_uart_putc+0x48>
20001524:	687b      	ldr	r3, [r7, #4]
20001526:	6818      	ldr	r0, [r3, #0]
20001528:	1cfb      	adds	r3, r7, #3
2000152a:	781a      	ldrb	r2, [r3, #0]
2000152c:	68fb      	ldr	r3, [r7, #12]
2000152e:	411a      	asrs	r2, r3
20001530:	0013      	movs	r3, r2
20001532:	2201      	movs	r2, #1
20001534:	4013      	ands	r3, r2
20001536:	0019      	movs	r1, r3
20001538:	687b      	ldr	r3, [r7, #4]
2000153a:	68db      	ldr	r3, [r3, #12]
2000153c:	001a      	movs	r2, r3
2000153e:	f7ff ffc5 	bl	200014cc <timed_write>
20001542:	68fb      	ldr	r3, [r7, #12]
20001544:	3301      	adds	r3, #1
20001546:	60fb      	str	r3, [r7, #12]
20001548:	68fb      	ldr	r3, [r7, #12]
2000154a:	2b07      	cmp	r3, #7
2000154c:	ddea      	ble.n	20001524 <sw_uart_putc+0x24>
2000154e:	687b      	ldr	r3, [r7, #4]
20001550:	6818      	ldr	r0, [r3, #0]
20001552:	687b      	ldr	r3, [r7, #4]
20001554:	68db      	ldr	r3, [r3, #12]
20001556:	001a      	movs	r2, r3
20001558:	2101      	movs	r1, #1
2000155a:	f7ff ffb7 	bl	200014cc <timed_write>
2000155e:	46c0      	nop			; (mov r8, r8)
20001560:	46bd      	mov	sp, r7
20001562:	b004      	add	sp, #16
20001564:	bd80      	pop	{r7, pc}

20001566 <sw_uart_putk>:
20001566:	b580      	push	{r7, lr}
20001568:	b084      	sub	sp, #16
2000156a:	af00      	add	r7, sp, #0
2000156c:	6078      	str	r0, [r7, #4]
2000156e:	6039      	str	r1, [r7, #0]
20001570:	2300      	movs	r3, #0
20001572:	60fb      	str	r3, [r7, #12]
20001574:	e00b      	b.n	2000158e <sw_uart_putk+0x28>
20001576:	68fb      	ldr	r3, [r7, #12]
20001578:	683a      	ldr	r2, [r7, #0]
2000157a:	18d3      	adds	r3, r2, r3
2000157c:	781a      	ldrb	r2, [r3, #0]
2000157e:	687b      	ldr	r3, [r7, #4]
20001580:	0011      	movs	r1, r2
20001582:	0018      	movs	r0, r3
20001584:	f7ff ffbc 	bl	20001500 <sw_uart_putc>
20001588:	68fb      	ldr	r3, [r7, #12]
2000158a:	3301      	adds	r3, #1
2000158c:	60fb      	str	r3, [r7, #12]
2000158e:	68fb      	ldr	r3, [r7, #12]
20001590:	683a      	ldr	r2, [r7, #0]
20001592:	18d3      	adds	r3, r2, r3
20001594:	781b      	ldrb	r3, [r3, #0]
20001596:	2b00      	cmp	r3, #0
20001598:	d1ed      	bne.n	20001576 <sw_uart_putk+0x10>
2000159a:	46c0      	nop			; (mov r8, r8)
2000159c:	46c0      	nop			; (mov r8, r8)
2000159e:	46bd      	mov	sp, r7
200015a0:	b004      	add	sp, #16
200015a2:	bd80      	pop	{r7, pc}

200015a4 <init_uart_printing>:
200015a4:	b590      	push	{r4, r7, lr}
200015a6:	b085      	sub	sp, #20
200015a8:	af00      	add	r7, sp, #0
200015aa:	2000      	movs	r0, #0
200015ac:	f7fe fe5c 	bl	20000268 <gpio_set_output>
200015b0:	2000      	movs	r0, #0
200015b2:	f7fe fe97 	bl	200002e4 <gpio_set_on>
200015b6:	2001      	movs	r0, #1
200015b8:	f7fe fe1c 	bl	200001f4 <gpio_set_input>
200015bc:	4b05      	ldr	r3, [pc, #20]	; (200015d4 <init_uart_printing+0x30>)
200015be:	4a06      	ldr	r2, [pc, #24]	; (200015d8 <init_uart_printing+0x34>)
200015c0:	ca13      	ldmia	r2!, {r0, r1, r4}
200015c2:	c313      	stmia	r3!, {r0, r1, r4}
200015c4:	6812      	ldr	r2, [r2, #0]
200015c6:	601a      	str	r2, [r3, #0]
200015c8:	2301      	movs	r3, #1
200015ca:	0018      	movs	r0, r3
200015cc:	46bd      	mov	sp, r7
200015ce:	b005      	add	sp, #20
200015d0:	bd90      	pop	{r4, r7, pc}
200015d2:	46c0      	nop			; (mov r8, r8)
200015d4:	2000f410 	andcs	pc, r0, r0, lsl r4	; <UNPREDICTABLE>
200015d8:	10001b84 	andne	r1, r0, r4, lsl #23

200015dc <__code_end__>:
200015dc:	00000000 	andeq	r0, r0, r0

Disassembly of section .data:

2000f000 <__data_start__>:
2000f000:	00000000 	andeq	r0, r0, r0
2000f004:	04c11db7 	strbeq	r1, [r1], #3511	; 0xdb7
2000f008:	09823b6e 	stmibeq	r2, {r1, r2, r3, r5, r6, r8, r9, fp, ip, sp}
2000f00c:	0d4326d9 	stcleq	6, cr2, [r3, #-868]	; 0xfffffc9c
2000f010:	130476dc 	movwne	r7, #18140	; 0x46dc
2000f014:	17c56b6b 	strbne	r6, [r5, fp, ror #22]
2000f018:	1a864db2 	bne	1e1a26e8 <FLASH_END+0xe1a0d08>
2000f01c:	1e475005 	cdpne	0, 4, cr5, cr7, cr5, {0}
2000f020:	2608edb8 			; <UNDEFINED> instruction: 0x2608edb8
2000f024:	22c9f00f 	sbccs	pc, r9, #15, 0
2000f028:	2f8ad6d6 	svccs	0x008ad6d6
2000f02c:	2b4bcb61 	blcs	21301db8 <__bss_end__+0x12f2998>
2000f030:	350c9b64 	strcc	r9, [ip, #-2916]	; 0xfffff49c
2000f034:	31cd86d3 	ldrdcc	r8, [sp, #99]	; 0x63
2000f038:	3c8ea00a 	stccc	0, cr10, [lr], {10}
2000f03c:	384fbdbd 	stmdacc	pc, {r0, r2, r3, r4, r5, r7, r8, sl, fp, ip, sp, pc}^	; <UNPREDICTABLE>
2000f040:	4c11db70 			; <UNDEFINED> instruction: 0x4c11db70
2000f044:	48d0c6c7 	ldmmi	r0, {r0, r1, r2, r6, r7, r9, sl, lr, pc}^
2000f048:	4593e01e 	ldrmi	lr, [r3, #30]
2000f04c:	4152fda9 	cmpmi	r2, r9, lsr #27	; <UNPREDICTABLE>
2000f050:	5f15adac 	svcpl	0x0015adac
2000f054:	5bd4b01b 	blpl	1f53b0c8 <FLASH_END+0xf5396e8>
2000f058:	569796c2 	ldrpl	r9, [r7], r2, asr #13
2000f05c:	52568b75 	subspl	r8, r6, #119808	; 0x1d400
2000f060:	6a1936c8 	bvs	2065cb88 <__bss_end__+0x64d768>
2000f064:	6ed82b7f 	vmovvs.u8	r2, d8[3]
2000f068:	639b0da6 	orrsvs	r0, fp, #10624	; 0x2980
2000f06c:	675a1011 	smmlavs	sl, r1, r0, r1
2000f070:	791d4014 	ldmdbvc	sp, {r2, r4, lr}
2000f074:	7ddc5da3 	ldclvc	13, cr5, [ip, #652]	; 0x28c
2000f078:	709f7b7a 	addsvc	r7, pc, sl, ror fp	; <UNPREDICTABLE>
2000f07c:	745e66cd 	ldrbvc	r6, [lr], #-1741	; 0xfffff933
2000f080:	9823b6e0 	stmdals	r3!, {r5, r6, r7, r9, sl, ip, sp, pc}
2000f084:	9ce2ab57 	fstmiaxls	r2!, {d26-d68}	;@ Deprecated
2000f088:	91a18d8e 			; <UNDEFINED> instruction: 0x91a18d8e
2000f08c:	95609039 	strbls	r9, [r0, #-57]!	; 0xffffffc7
2000f090:	8b27c03c 	blhi	209ff188 <__bss_end__+0x9efd68>
2000f094:	8fe6dd8b 	svchi	0x00e6dd8b
2000f098:	82a5fb52 	adchi	pc, r5, #83968	; 0x14800
2000f09c:	8664e6e5 	strbthi	lr, [r4], -r5, ror #13
2000f0a0:	be2b5b58 			; <UNDEFINED> instruction: 0xbe2b5b58
2000f0a4:	baea46ef 	blt	1faa0c68 <FLASH_END+0xfa9f288>
2000f0a8:	b7a96036 			; <UNDEFINED> instruction: 0xb7a96036
2000f0ac:	b3687d81 	cmnlt	r8, #8256	; 0x2040
2000f0b0:	ad2f2d84 	stcge	13, cr2, [pc, #-528]!	; 2000eea8 <__code_end__+0xd8cc>
2000f0b4:	a9ee3033 	stmibge	lr!, {r0, r1, r4, r5, ip, sp}^
2000f0b8:	a4ad16ea 	strtge	r1, [sp], #1770	; 0x6ea
2000f0bc:	a06c0b5d 	rsbge	r0, ip, sp, asr fp
2000f0c0:	d4326d90 	ldrtle	r6, [r2], #-3472	; 0xfffff270
2000f0c4:	d0f37027 	rscsle	r7, r3, r7, lsr #32
2000f0c8:	ddb056fe 	ldcle	6, cr5, [r0, #1016]!	; 0x3f8
2000f0cc:	d9714b49 	ldmdble	r1!, {r0, r3, r6, r8, r9, fp, lr}^
2000f0d0:	c7361b4c 	ldrgt	r1, [r6, -ip, asr #22]!
2000f0d4:	c3f706fb 	mvnsgt	r0, #263192576	; 0xfb00000
2000f0d8:	ceb42022 	cdpgt	0, 11, cr2, cr4, cr2, {1}
2000f0dc:	ca753d95 	bgt	21d5e738 <__bss_end__+0x1d4f318>
2000f0e0:	f23a8028 	vhadd.s<illegal width 64>	d8, d10, d24
2000f0e4:	f6fb9d9f 			; <UNDEFINED> instruction: 0xf6fb9d9f
2000f0e8:	fbb8bb46 	blx	1ee3de0a <FLASH_END+0xee3c42a>
2000f0ec:	ff79a6f1 			; <UNDEFINED> instruction: 0xff79a6f1
2000f0f0:	e13ef6f4 	teq	lr, r4	; <illegal shifter operand>	; <UNPREDICTABLE>
2000f0f4:	e5ffeb43 	ldrb	lr, [pc, #2883]!	; 2000fc3f <__bss_end__+0x81f>
2000f0f8:	e8bccd9a 	ldm	ip!, {r1, r3, r4, r7, r8, sl, fp, lr, pc}
2000f0fc:	ec7dd02d 	ldcl	0, cr13, [sp], #-180	; 0xffffff4c
2000f100:	34867077 	strcc	r7, [r6], #119	; 0x77
2000f104:	30476dc0 	subcc	r6, r7, r0, asr #27
2000f108:	3d044b19 	vstrcc	d4, [r4, #-100]	; 0xffffff9c
2000f10c:	39c556ae 	stmibcc	r5, {r1, r2, r3, r5, r7, r9, sl, ip, lr}^
2000f110:	278206ab 	strcs	r0, [r2, fp, lsr #13]
2000f114:	23431b1c 	movtcs	r1, #15132	; 0x3b1c
2000f118:	2e003dc5 	cdpcs	13, 0, cr3, cr0, cr5, {6}
2000f11c:	2ac12072 	bcs	1f0572ec <FLASH_END+0xf05590c>
2000f120:	128e9dcf 	addne	r9, lr, #13248	; 0x33c0
2000f124:	164f8078 			; <UNDEFINED> instruction: 0x164f8078
2000f128:	1b0ca6a1 	blne	20338bb4 <__bss_end__+0x329794>
2000f12c:	1fcdbb16 	svcne	0x00cdbb16
2000f130:	018aeb13 	orreq	lr, sl, r3, lsl fp
2000f134:	054bf6a4 	strbeq	pc, [fp, #-1700]	; 0xfffff95c	; <UNPREDICTABLE>
2000f138:	0808d07d 	stmdaeq	r8, {r0, r2, r3, r4, r5, r6, ip, lr, pc}
2000f13c:	0cc9cdca 	stcleq	13, cr12, [r9], {202}	; 0xca
2000f140:	7897ab07 	ldmvc	r7, {r0, r1, r2, r8, r9, fp, sp, pc}
2000f144:	7c56b6b0 	mrrcvc	6, 11, fp, r6, cr0
2000f148:	71159069 	tstvc	r5, r9, rrx
2000f14c:	75d48dde 	ldrbvc	r8, [r4, #3550]	; 0xdde
2000f150:	6b93dddb 	blvs	1e5068c4 <FLASH_END+0xe504ee4>
2000f154:	6f52c06c 	svcvs	0x0052c06c
2000f158:	6211e6b5 	andsvs	lr, r1, #189792256	; 0xb500000
2000f15c:	66d0fb02 	ldrbvs	pc, [r0], r2, lsl #22	; <UNPREDICTABLE>
2000f160:	5e9f46bf 	mrcpl	6, 4, r4, cr15, cr15, {5}
2000f164:	5a5e5b08 	bpl	217a5d8c <__bss_end__+0x179696c>
2000f168:	571d7dd1 			; <UNDEFINED> instruction: 0x571d7dd1
2000f16c:	53dc6066 	bicspl	r6, ip, #102, 0	; 0x66
2000f170:	4d9b3063 	ldcmi	0, cr3, [fp, #396]	; 0x18c
2000f174:	495a2dd4 	ldmdbmi	sl, {r2, r4, r6, r7, r8, sl, fp, sp}^
2000f178:	44190b0d 	ldrmi	r0, [r9], #-2829	; 0xfffff4f3
2000f17c:	40d816ba 	ldrhmi	r1, [r8], #106	; 0x6a
2000f180:	aca5c697 	stcge	6, cr12, [r5], #604	; 0x25c
2000f184:	a864db20 	stmdage	r4!, {r5, r8, r9, fp, ip, lr, pc}^
2000f188:	a527fdf9 	strge	pc, [r7, #-3577]!	; 0xfffff207
2000f18c:	a1e6e04e 	mvnge	lr, lr, asr #32
2000f190:	bfa1b04b 	svclt	0x00a1b04b
2000f194:	bb60adfc 	bllt	2183a98c <__bss_end__+0x182b56c>
2000f198:	b6238b25 	strtlt	r8, [r3], -r5, lsr #22
2000f19c:	b2e29692 	rsclt	r9, r2, #153092096	; 0x9200000
2000f1a0:	8aad2b2f 	bhi	1eb59e64 <FLASH_END+0xeb58484>
2000f1a4:	8e6c3698 	mcrhi	6, 3, r3, cr12, cr8, {4}
2000f1a8:	832f1041 			; <UNDEFINED> instruction: 0x832f1041
2000f1ac:	87ee0df6 			; <UNDEFINED> instruction: 0x87ee0df6
2000f1b0:	99a95df3 	stmibls	r9!, {r0, r1, r4, r5, r6, r7, r8, sl, fp, ip, lr}
2000f1b4:	9d684044 	stclls	0, cr4, [r8, #-272]!	; 0xfffffef0
2000f1b8:	902b669d 	mlals	fp, sp, r6, r6
2000f1bc:	94ea7b2a 	strbtls	r7, [sl], #2858	; 0xb2a
2000f1c0:	e0b41de7 	adcs	r1, r4, r7, ror #27
2000f1c4:	e4750050 	ldrbt	r0, [r5], #-80	; 0xffffffb0
2000f1c8:	e9362689 	ldmdb	r6!, {r0, r3, r7, r9, sl, sp}
2000f1cc:	edf73b3e 			; <UNDEFINED> instruction: 0xedf73b3e
2000f1d0:	f3b06b3b 			; <UNDEFINED> instruction: 0xf3b06b3b
2000f1d4:	f771768c 			; <UNDEFINED> instruction: 0xf771768c
2000f1d8:	fa325055 	blx	20ca3334 <__bss_end__+0xc93f14>
2000f1dc:	fef34de2 	vsdot.s8	q10, <illegal reg q9.5>, d2[1]
2000f1e0:	c6bcf05f 	ssatgt	pc, #29, pc, asr #0	; <UNPREDICTABLE>
2000f1e4:	c27dede8 	rsbsgt	lr, sp, #232, 26	; 0x3a00
2000f1e8:	cf3ecb31 	svcgt	0x003ecb31
2000f1ec:	cbffd686 	blgt	20004c0c <__code_end__+0x3630>
2000f1f0:	d5b88683 	ldrle	r8, [r8, #1667]!	; 0x683
2000f1f4:	d1799b34 	cmnle	r9, r4, lsr fp
2000f1f8:	dc3abded 	ldcle	13, cr11, [sl], #-948	; 0xfffffc4c
2000f1fc:	d8fba05a 	ldmle	fp!, {r1, r3, r4, r6, sp, pc}^
2000f200:	690ce0ee 	stmdbvs	ip, {r1, r2, r3, r5, r6, r7, sp, lr, pc}
2000f204:	6dcdfd59 	stclvs	13, cr15, [sp, #356]	; 0x164
2000f208:	608edb80 	addvs	sp, lr, r0, lsl #23
2000f20c:	644fc637 	strbvs	ip, [pc], #-1591	; 2000f214 <__data_start__+0x214>
2000f210:	7a089632 	bvc	20234ae0 <__bss_end__+0x2256c0>
2000f214:	7ec98b85 	vdivvc.f64	d24, d25, d5
2000f218:	738aad5c 	orrvc	sl, sl, #92, 26	; 0x1700
2000f21c:	774bb0eb 	strbvc	fp, [fp, -fp, ror #1]
2000f220:	4f040d56 	svcmi	0x00040d56
2000f224:	4bc510e1 	blmi	1f1535b0 <FLASH_END+0xf151bd0>
2000f228:	46863638 			; <UNDEFINED> instruction: 0x46863638
2000f22c:	42472b8f 	submi	r2, r7, #146432	; 0x23c00
2000f230:	5c007b8a 			; <UNDEFINED> instruction: 0x5c007b8a
2000f234:	58c1663d 	stmiapl	r1, {r0, r2, r3, r4, r5, r9, sl, sp, lr}^
2000f238:	558240e4 	strpl	r4, [r2, #228]	; 0xe4
2000f23c:	51435d53 	cmppl	r3, r3, asr sp
2000f240:	251d3b9e 	ldrcs	r3, [sp, #-2974]	; 0xfffff462
2000f244:	21dc2629 	bicscs	r2, ip, r9, lsr #12
2000f248:	2c9f00f0 	ldccs	0, cr0, [pc], {240}	; 0xf0
2000f24c:	285e1d47 	ldmdacs	lr, {r0, r1, r2, r6, r8, sl, fp, ip}^
2000f250:	36194d42 	ldrcc	r4, [r9], -r2, asr #26
2000f254:	32d850f5 	sbcscc	r5, r8, #245, 0	; 0xf5
2000f258:	3f9b762c 	svccc	0x009b762c
2000f25c:	3b5a6b9b 	blcc	216aa0d0 <__bss_end__+0x169acb0>
2000f260:	0315d626 	tsteq	r5, #39845888	; 0x2600000
2000f264:	07d4cb91 	bfieq	ip, r1, (invalid: 23:20)
2000f268:	0a97ed48 	beq	1e60a790 <FLASH_END+0xe608db0>
2000f26c:	0e56f0ff 	mrceq	0, 2, APSR_nzcv, cr6, cr15, {7}
2000f270:	1011a0fa 	ldrshne	sl, [r1], -sl	; <UNPREDICTABLE>
2000f274:	14d0bd4d 	ldrbne	fp, [r0], #3405	; 0xd4d
2000f278:	19939b94 	ldmibne	r3, {r2, r4, r7, r8, r9, fp, ip, pc}
2000f27c:	1d528623 	ldclne	6, cr8, [r2, #-140]	; 0xffffff74
2000f280:	f12f560e 			; <UNDEFINED> instruction: 0xf12f560e
2000f284:	f5ee4bb9 			; <UNDEFINED> instruction: 0xf5ee4bb9
2000f288:	f8ad6d60 			; <UNDEFINED> instruction: 0xf8ad6d60
2000f28c:	fc6c70d7 	stc2l	0, cr7, [ip], #-860	; 0xfffffca4
2000f290:	e22b20d2 	eor	r2, fp, #210, 0	; 0xd2
2000f294:	e6ea3d65 	strbt	r3, [sl], r5, ror #26
2000f298:	eba91bbc 	bl	1ea56190 <FLASH_END+0xea547b0>
2000f29c:	ef68060b 	svc	0x0068060b
2000f2a0:	d727bbb6 			; <UNDEFINED> instruction: 0xd727bbb6
2000f2a4:	d3e6a601 	mvnle	sl, #1048576	; 0x100000
2000f2a8:	dea580d8 	mcrle	0, 5, r8, cr5, cr8, {6}
2000f2ac:	da649d6f 	ble	21936870 <__bss_end__+0x1927450>
2000f2b0:	c423cd6a 	strtgt	ip, [r3], #-3434	; 0xfffff296
2000f2b4:	c0e2d0dd 	ldrdgt	sp, [r2], #13	; <UNPREDICTABLE>
2000f2b8:	cda1f604 	stcgt	6, cr15, [r1, #16]!
2000f2bc:	c960ebb3 	stmdbgt	r0!, {r0, r1, r4, r5, r7, r8, r9, fp, sp, lr, pc}^
2000f2c0:	bd3e8d7e 	ldclt	13, cr8, [lr, #-504]!	; 0xfffffe08
2000f2c4:	b9ff90c9 	ldmiblt	pc!, {r0, r3, r6, r7, ip, pc}^	; <UNPREDICTABLE>
2000f2c8:	b4bcb610 	ldrtlt	fp, [ip], #1552	; 0x610
2000f2cc:	b07daba7 	rsbslt	sl, sp, r7, lsr #23
2000f2d0:	ae3afba2 	vaddge.f64	d15, d26, d18
2000f2d4:	aafbe615 	bge	1ff08b30 <FLASH_END+0xff07150>
2000f2d8:	a7b8c0cc 	ldrge	ip, [r8, ip, asr #1]!
2000f2dc:	a379dd7b 	cmnge	r9, #7872	; 0x1ec0
2000f2e0:	9b3660c6 	blls	20da7600 <__bss_end__+0xd981e0>
2000f2e4:	9ff77d71 	svcls	0x00f77d71
2000f2e8:	92b45ba8 	adcsls	r5, r4, #168, 22	; 0x2a000
2000f2ec:	9675461f 			; <UNDEFINED> instruction: 0x9675461f
2000f2f0:	8832161a 	ldmdahi	r2!, {r1, r3, r4, r9, sl, ip}
2000f2f4:	8cf30bad 	fldmiaxhi	r3!, {d16-d101}	;@ Deprecated
2000f2f8:	81b02d74 	rorshi	r2, r4, sp
2000f2fc:	857130c3 	ldrbhi	r3, [r1, #-195]!	; 0xffffff3d
2000f300:	5d8a9099 	stcpl	0, cr9, [sl, #612]	; 0x264
2000f304:	594b8d2e 	stmdbpl	fp, {r1, r2, r3, r5, r8, sl, fp, pc}^
2000f308:	5408abf7 	strpl	sl, [r8], #-3063	; 0xfffff409
2000f30c:	50c9b640 	sbcpl	fp, r9, r0, asr #12
2000f310:	4e8ee645 	cdpmi	6, 8, cr14, cr14, cr5, {2}
2000f314:	4a4ffbf2 	bmi	2140e2e4 <__bss_end__+0x13feec4>
2000f318:	470cdd2b 	strmi	sp, [ip, -fp, lsr #26]
2000f31c:	43cdc09c 	bicmi	ip, sp, #156, 0	; 0x9c
2000f320:	7b827d21 	blvc	1e0ae7ac <FLASH_END+0xe0acdcc>
2000f324:	7f436096 	svcvc	0x00436096
2000f328:	7200464f 	andvc	r4, r0, #82837504	; 0x4f00000
2000f32c:	76c15bf8 			; <UNDEFINED> instruction: 0x76c15bf8
2000f330:	68860bfd 	stmvs	r6, {r0, r2, r3, r4, r5, r6, r7, r8, r9, fp}
2000f334:	6c47164a 	mcrrvs	6, 4, r1, r7, cr10
2000f338:	61043093 	swpvs	r3, r3, [r4]
2000f33c:	65c52d24 	strbvs	r2, [r5, #3364]	; 0xd24
2000f340:	119b4be9 	orrsne	r4, fp, r9, ror #23
2000f344:	155a565e 	ldrbne	r5, [sl, #-1630]	; 0xfffff9a2
2000f348:	18197087 	ldmdane	r9, {r0, r1, r2, r7, ip, sp, lr}
2000f34c:	1cd86d30 	ldclne	13, cr6, [r8], {48}	; 0x30
2000f350:	029f3d35 	addseq	r3, pc, #3392	; 0xd40
2000f354:	065e2082 	ldrbeq	r2, [lr], -r2, lsl #1
2000f358:	0b1d065b 	bleq	20750ccc <__bss_end__+0x7418ac>
2000f35c:	0fdc1bec 	svceq	0x00dc1bec
2000f360:	3793a651 			; <UNDEFINED> instruction: 0x3793a651
2000f364:	3352bbe6 	cmpcc	r2, #235520	; 0x39800
2000f368:	3e119d3f 	mrccc	13, 0, r9, cr1, cr15, {1}
2000f36c:	3ad08088 	bcc	1f42f594 <FLASH_END+0xf42dbb4>
2000f370:	2497d08d 	ldrcs	sp, [r7], #141	; 0x8d
2000f374:	2056cd3a 	subscs	ip, r6, sl, lsr sp
2000f378:	2d15ebe3 	vldrcs	d14, [r5, #-908]	; 0xfffffc74
2000f37c:	29d4f654 	ldmibcs	r4, {r2, r4, r6, r9, sl, ip, sp, lr, pc}^
2000f380:	c5a92679 	strgt	r2, [r9, #1657]!	; 0x679
2000f384:	c1683bce 	cmngt	r8, lr, asr #23
2000f388:	cc2b1d17 	stcgt	13, cr1, [fp], #-92	; 0xffffffa4
2000f38c:	c8ea00a0 	stmiagt	sl!, {r5, r7}^
2000f390:	d6ad50a5 	strtle	r5, [sp], r5, lsr #1
2000f394:	d26c4d12 	rsble	r4, ip, #1152	; 0x480
2000f398:	df2f6bcb 	svcle	0x002f6bcb
2000f39c:	dbee767c 	blle	1fbacd94 <FLASH_END+0xfbab3b4>
2000f3a0:	e3a1cbc1 			; <UNDEFINED> instruction: 0xe3a1cbc1
2000f3a4:	e760d676 			; <UNDEFINED> instruction: 0xe760d676
2000f3a8:	ea23f0af 	b	2090b66c <__bss_end__+0x8fc24c>
2000f3ac:	eee2ed18 	mcr	13, 7, lr, cr2, cr8, {0}
2000f3b0:	f0a5bd1d 			; <UNDEFINED> instruction: 0xf0a5bd1d
2000f3b4:	f464a0aa 	vld4.32	{d26-d29}, [r4 :128], sl
2000f3b8:	f9278673 			; <UNDEFINED> instruction: 0xf9278673
2000f3bc:	fde69bc4 	stc2l	11, cr9, [r6, #784]!	; 0x310	; <UNPREDICTABLE>
2000f3c0:	89b8fd09 	ldmibhi	r8!, {r0, r3, r8, sl, fp, ip, sp, lr, pc}
2000f3c4:	8d79e0be 	ldclhi	0, cr14, [r9, #-760]!	; 0xfffffd08
2000f3c8:	803ac667 	eorshi	ip, sl, r7, ror #12
2000f3cc:	84fbdbd0 	ldrbthi	sp, [fp], #3024	; 0xbd0
2000f3d0:	9abc8bd5 	bls	1ef3232c <FLASH_END+0xef3094c>
2000f3d4:	9e7d9662 	cdpls	6, 7, cr9, cr13, cr2, {3}
2000f3d8:	933eb0bb 	teqls	lr, #187, 0	; 0xbb
2000f3dc:	97ffad0c 	ldrbls	sl, [pc, ip, lsl #26]!
2000f3e0:	afb010b1 	svcge	0x00b010b1
2000f3e4:	ab710d06 	blge	21c52804 <__bss_end__+0x1c433e4>
2000f3e8:	a6322bdf 			; <UNDEFINED> instruction: 0xa6322bdf
2000f3ec:	a2f33668 	rscsge	r3, r3, #104, 12	; 0x6800000
2000f3f0:	bcb4666d 	ldclt	6, cr6, [r4], #436	; 0x1b4
2000f3f4:	b8757bda 	ldmdalt	r5!, {r1, r3, r4, r6, r7, r8, r9, fp, ip, sp, lr}^
2000f3f8:	b5365d03 	ldrlt	r5, [r6, #-3331]!	; 0xfffff2fd
2000f3fc:	b1f740b4 	ldrhlt	r4, [r7, #4]!

Disassembly of section .rodata:

100019e0 <FLASH_END>:
100019e0:	6c6c6568 	cfstr64vs	mvdx6, [ip], #-416	; 0xfffffe60
100019e4:	6f77206f 	svcvs	0x0077206f
100019e8:	0a646c72 	beq	1191cbb8 <FLASH_END+0x191b1d8>
100019ec:	00000000 	andeq	r0, r0, r0
100019f0:	20000b4a 	andcs	r0, r0, sl, asr #22
100019f4:	20000b72 	andcs	r0, r0, r2, ror fp
100019f8:	20000b72 	andcs	r0, r0, r2, ror fp
100019fc:	20000b5e 	andcs	r0, r0, lr, asr fp
10001a00:	20000b72 	andcs	r0, r0, r2, ror fp
10001a04:	20000b72 	andcs	r0, r0, r2, ror fp
10001a08:	20000b72 	andcs	r0, r0, r2, ror fp
10001a0c:	20000b72 	andcs	r0, r0, r2, ror fp
10001a10:	20000b72 	andcs	r0, r0, r2, ror fp
10001a14:	20000b72 	andcs	r0, r0, r2, ror fp
10001a18:	20000b72 	andcs	r0, r0, r2, ror fp
10001a1c:	20000b36 	andcs	r0, r0, r6, lsr fp
10001a20:	20000b72 	andcs	r0, r0, r2, ror fp
10001a24:	20000b22 	andcs	r0, r0, r2, lsr #22
10001a28:	20000b72 	andcs	r0, r0, r2, ror fp
10001a2c:	20000b72 	andcs	r0, r0, r2, ror fp
10001a30:	20000b0e 	andcs	r0, r0, lr, lsl #22
10001a34:	2000105a 	andcs	r1, r0, sl, asr r0
10001a38:	20001072 	andcs	r1, r0, r2, ror r0
10001a3c:	20001072 	andcs	r1, r0, r2, ror r0
10001a40:	20001072 	andcs	r1, r0, r2, ror r0
10001a44:	20001072 	andcs	r1, r0, r2, ror r0
10001a48:	20001072 	andcs	r1, r0, r2, ror r0
10001a4c:	20001072 	andcs	r1, r0, r2, ror r0
10001a50:	20001072 	andcs	r1, r0, r2, ror r0
10001a54:	20001072 	andcs	r1, r0, r2, ror r0
10001a58:	20001072 	andcs	r1, r0, r2, ror r0
10001a5c:	20001072 	andcs	r1, r0, r2, ror r0
10001a60:	20001072 	andcs	r1, r0, r2, ror r0
10001a64:	20001072 	andcs	r1, r0, r2, ror r0
10001a68:	20001072 	andcs	r1, r0, r2, ror r0
10001a6c:	20001072 	andcs	r1, r0, r2, ror r0
10001a70:	20001072 	andcs	r1, r0, r2, ror r0
10001a74:	20001072 	andcs	r1, r0, r2, ror r0
10001a78:	20001072 	andcs	r1, r0, r2, ror r0
10001a7c:	20001072 	andcs	r1, r0, r2, ror r0
10001a80:	20001072 	andcs	r1, r0, r2, ror r0
10001a84:	20001072 	andcs	r1, r0, r2, ror r0
10001a88:	20001072 	andcs	r1, r0, r2, ror r0
10001a8c:	20001072 	andcs	r1, r0, r2, ror r0
10001a90:	20001072 	andcs	r1, r0, r2, ror r0
10001a94:	20001072 	andcs	r1, r0, r2, ror r0
10001a98:	20001072 	andcs	r1, r0, r2, ror r0
10001a9c:	20001072 	andcs	r1, r0, r2, ror r0
10001aa0:	20001072 	andcs	r1, r0, r2, ror r0
10001aa4:	20001072 	andcs	r1, r0, r2, ror r0
10001aa8:	20001072 	andcs	r1, r0, r2, ror r0
10001aac:	20001072 	andcs	r1, r0, r2, ror r0
10001ab0:	20001072 	andcs	r1, r0, r2, ror r0
10001ab4:	20001072 	andcs	r1, r0, r2, ror r0
10001ab8:	20001072 	andcs	r1, r0, r2, ror r0
10001abc:	20001072 	andcs	r1, r0, r2, ror r0
10001ac0:	20001072 	andcs	r1, r0, r2, ror r0
10001ac4:	20001072 	andcs	r1, r0, r2, ror r0
10001ac8:	20001072 	andcs	r1, r0, r2, ror r0
10001acc:	20001072 	andcs	r1, r0, r2, ror r0
10001ad0:	20001072 	andcs	r1, r0, r2, ror r0
10001ad4:	20001072 	andcs	r1, r0, r2, ror r0
10001ad8:	20001072 	andcs	r1, r0, r2, ror r0
10001adc:	20001072 	andcs	r1, r0, r2, ror r0
10001ae0:	20001072 	andcs	r1, r0, r2, ror r0
10001ae4:	20001072 	andcs	r1, r0, r2, ror r0
10001ae8:	20001072 	andcs	r1, r0, r2, ror r0
10001aec:	20001072 	andcs	r1, r0, r2, ror r0
10001af0:	20001072 	andcs	r1, r0, r2, ror r0
10001af4:	20001072 	andcs	r1, r0, r2, ror r0
10001af8:	20001072 	andcs	r1, r0, r2, ror r0
10001afc:	20001072 	andcs	r1, r0, r2, ror r0
10001b00:	20000cd8 	ldrdcs	r0, [r0], -r8
10001b04:	20001072 	andcs	r1, r0, r2, ror r0
10001b08:	20001072 	andcs	r1, r0, r2, ror r0
10001b0c:	20001072 	andcs	r1, r0, r2, ror r0
10001b10:	20001072 	andcs	r1, r0, r2, ror r0
10001b14:	20001072 	andcs	r1, r0, r2, ror r0
10001b18:	20001072 	andcs	r1, r0, r2, ror r0
10001b1c:	20001072 	andcs	r1, r0, r2, ror r0
10001b20:	20001072 	andcs	r1, r0, r2, ror r0
10001b24:	20001072 	andcs	r1, r0, r2, ror r0
10001b28:	20000cd8 	ldrdcs	r0, [r0], -r8
10001b2c:	20000ee0 	andcs	r0, r0, r0, ror #29
10001b30:	20000cd8 	ldrdcs	r0, [r0], -r8
10001b34:	20001072 	andcs	r1, r0, r2, ror r0
10001b38:	20001072 	andcs	r1, r0, r2, ror r0
10001b3c:	20001072 	andcs	r1, r0, r2, ror r0
10001b40:	20001072 	andcs	r1, r0, r2, ror r0
10001b44:	20000cd8 	ldrdcs	r0, [r0], -r8
10001b48:	20001072 	andcs	r1, r0, r2, ror r0
10001b4c:	20001072 	andcs	r1, r0, r2, ror r0
10001b50:	20001072 	andcs	r1, r0, r2, ror r0
10001b54:	20001072 	andcs	r1, r0, r2, ror r0
10001b58:	20001072 	andcs	r1, r0, r2, ror r0
10001b5c:	20000cd8 	ldrdcs	r0, [r0], -r8
10001b60:	20001014 	andcs	r1, r0, r4, lsl r0
10001b64:	20001072 	andcs	r1, r0, r2, ror r0
10001b68:	20001072 	andcs	r1, r0, r2, ror r0
10001b6c:	20000f50 	andcs	r0, r0, r0, asr pc
10001b70:	20001072 	andcs	r1, r0, r2, ror r0
10001b74:	20000cd8 	ldrdcs	r0, [r0], -r8
10001b78:	20001072 	andcs	r1, r0, r2, ror r0
10001b7c:	20001072 	andcs	r1, r0, r2, ror r0
10001b80:	20000cd8 	ldrdcs	r0, [r0], -r8
10001b84:	00000000 	andeq	r0, r0, r0
10001b88:	00000001 	andeq	r0, r0, r1
10001b8c:	00002580 	andeq	r2, r0, r0, lsl #11
10001b90:	00000068 	andeq	r0, r0, r8, rrx

Disassembly of section .bss:

2000f400 <global_hw_uart>:
	...

2000f410 <global_uart>:
	...

Disassembly of section .debug_info:

00000000 <.debug_info>:
       0:	00000177 	andeq	r0, r0, r7, ror r1
       4:	00000004 	andeq	r0, r0, r4
       8:	01040000 	mrseq	r0, (UNDEF: 4)
       c:	000000b6 	strheq	r0, [r0], -r6
      10:	0000500c 	andeq	r5, r0, ip
      14:	00005900 	andeq	r5, r0, r0, lsl #18
      18:	00011c00 	andeq	r1, r1, r0, lsl #24
      1c:	00004020 	andeq	r4, r0, r0, lsr #32
      20:	00000000 	andeq	r0, r0, r0
      24:	06010200 	streq	r0, [r1], -r0, lsl #4
      28:	00000094 	muleq	r0, r4, r0
      2c:	7e050202 	cdpvc	2, 0, cr0, cr5, cr2, {0}
      30:	02000001 	andeq	r0, r0, #1, 0
      34:	00050504 	andeq	r0, r5, r4, lsl #10
      38:	08020000 	stmdaeq	r2, {}	; <UNPREDICTABLE>
      3c:	00000005 	andeq	r0, r0, r5
      40:	08010200 	stmdaeq	r1, {r9}
      44:	00000092 	muleq	r0, r2, r0
      48:	53070202 	movwpl	r0, #29186	; 0x7202
      4c:	03000001 	movweq	r0, #1
      50:	00000021 	andeq	r0, r0, r1, lsr #32
      54:	5b193403 	blpl	64d068 <STACK_SIZE+0x64a958>
      58:	02000000 	andeq	r0, r0, #0, 0
      5c:	003e0704 	eorseq	r0, lr, r4, lsl #14
      60:	08020000 	stmdaeq	r2, {}	; <UNPREDICTABLE>
      64:	00003907 	andeq	r3, r0, r7, lsl #18
      68:	05040400 	streq	r0, [r4, #-1024]	; 0xfffffc00
      6c:	00746e69 	rsbseq	r6, r4, r9, ror #28
      70:	43070402 	movwmi	r0, #29698	; 0x7402
      74:	05000000 	streq	r0, [r0, #-0]
      78:	00000070 	andeq	r0, r0, r0, ror r0
      7c:	00000087 	andeq	r0, r0, r7, lsl #1
      80:	00007006 	andeq	r7, r0, r6
      84:	0700ff00 	streq	pc, [r0, -r0, lsl #30]
      88:	00000018 	andeq	r0, r0, r8, lsl r0
      8c:	77150405 	ldrvc	r0, [r5, -r5, lsl #8]
      90:	05000000 	streq	r0, [r0, #-0]
      94:	00f00003 	rscseq	r0, r0, r3
      98:	04080220 	streq	r0, [r8], #-544	; 0xfffffde0
      9c:	00000166 	andeq	r0, r0, r6, ror #2
      a0:	0c021008 	stceq	0, cr1, [r2], {8}
      a4:	0000dc09 	andeq	sp, r0, r9, lsl #24
      a8:	78740900 	ldmdavc	r4!, {r8, fp}^
      ac:	090d0200 	stmdbeq	sp, {r9}
      b0:	00000069 	andeq	r0, r0, r9, rrx
      b4:	78720900 	ldmdavc	r2!, {r8, fp}^
      b8:	0c0d0200 	sfmeq	f0, 4, [sp], {-0}
      bc:	00000069 	andeq	r0, r0, r9, rrx
      c0:	00b10a04 	adcseq	r0, r1, r4, lsl #20
      c4:	0e020000 	cdpeq	0, 0, cr0, cr2, cr0, {0}
      c8:	0000700e 	andeq	r7, r0, lr
      cc:	880a0800 	stmdahi	sl, {fp}
      d0:	02000001 	andeq	r0, r0, #1, 0
      d4:	00700e0f 	rsbseq	r0, r0, pc, lsl #28
      d8:	000c0000 	andeq	r0, ip, r0
      dc:	00019503 	andeq	r9, r1, r3, lsl #10
      e0:	03100200 	tsteq	r0, #0, 4
      e4:	000000a0 	andeq	r0, r0, r0, lsr #1
      e8:	0001720b 	andeq	r7, r1, fp, lsl #4
      ec:	0b120200 	bleq	4808f4 <STACK_SIZE+0x47e1e4>
      f0:	000000dc 	ldrdeq	r0, [r0], -ip
      f4:	f4100305 			; <UNDEFINED> instruction: 0xf4100305
      f8:	10082000 	andne	r2, r8, r0
      fc:	36091204 	strcc	r1, [r9], -r4, lsl #4
     100:	09000001 	stmdbeq	r0, {r0}
     104:	04007874 	streq	r7, [r0], #-2164	; 0xfffff78c
     108:	004f0e13 	subeq	r0, pc, r3, lsl lr	; <UNPREDICTABLE>
     10c:	09000000 	stmdbeq	r0, {}	; <UNPREDICTABLE>
     110:	04007872 	streq	r7, [r0], #-2162	; 0xfffff78e
     114:	004f1113 	subeq	r1, pc, r3, lsl r1	; <UNPREDICTABLE>
     118:	0a040000 	beq	100120 <STACK_SIZE+0xfda10>
     11c:	000000a0 	andeq	r0, r0, r0, lsr #1
     120:	4f0e1404 	svcmi	0x000e1404
     124:	08000000 	stmdaeq	r0, {}	; <UNPREDICTABLE>
     128:	0001450a 	andeq	r4, r1, sl, lsl #10
     12c:	0e150400 	cfmulseq	mvf0, mvf5, mvf0
     130:	0000004f 	andeq	r0, r0, pc, asr #32
     134:	0e03000c 	cdpeq	0, 0, cr0, cr3, cr12, {0}
     138:	04000000 	streq	r0, [r0], #-0
     13c:	00fa0316 	rscseq	r0, sl, r6, lsl r3
     140:	2a0b0000 	bcs	2c0148 <STACK_SIZE+0x2bda38>
     144:	04000000 	streq	r0, [r0], #-0
     148:	01360b18 	teqeq	r6, r8, lsl fp
     14c:	03050000 	movweq	r0, #20480	; 0x5000
     150:	2000f400 	andcs	pc, r0, r0, lsl #8
     154:	0000aa0c 	andeq	sl, r0, ip, lsl #20
     158:	05050100 	streq	r0, [r5, #-256]	; 0xffffff00
     15c:	00000069 	andeq	r0, r0, r9, rrx
     160:	2000011c 	andcs	r0, r0, ip, lsl r1
     164:	00000040 	andeq	r0, r0, r0, asr #32
     168:	4b079c01 	blmi	1e7174 <STACK_SIZE+0x1e4a64>
     16c:	01000001 	tsteq	r0, r1
     170:	004f0e08 	subeq	r0, pc, r8, lsl #28
     174:	91020000 	mrsls	r0, (UNDEF: 2)
     178:	bd000074 	stclt	0, cr0, [r0, #-464]	; 0xfffffe30
     17c:	04000002 	streq	r0, [r0], #-2
     180:	0000ba00 	andeq	fp, r0, r0, lsl #20
     184:	b6010400 	strlt	r0, [r1], -r0, lsl #8
     188:	0c000000 	stceq	0, cr0, [r0], {-0}
     18c:	000002e4 	andeq	r0, r0, r4, ror #5
     190:	00000266 	andeq	r0, r0, r6, ror #4
     194:	2000015c 	andcs	r0, r0, ip, asr r1
     198:	000001e8 	andeq	r0, r0, r8, ror #3
     19c:	000000ff 	strdeq	r0, [r0], -pc	; <UNPREDICTABLE>
     1a0:	94060102 	strls	r0, [r6], #-258	; 0xfffffefe
     1a4:	02000000 	andeq	r0, r0, #0, 0
     1a8:	017e0502 	cmneq	lr, r2, lsl #10
     1ac:	04020000 	streq	r0, [r2], #-0
     1b0:	00000505 	andeq	r0, r0, r5, lsl #10
     1b4:	05080200 	streq	r0, [r8, #-512]	; 0xfffffe00
     1b8:	00000000 	andeq	r0, r0, r0
     1bc:	92080102 	andls	r0, r8, #-2147483648	; 0x80000000
     1c0:	02000000 	andeq	r0, r0, #0, 0
     1c4:	01530702 	cmpeq	r3, r2, lsl #14
     1c8:	21030000 	mrscs	r0, (UNDEF: 3)
     1cc:	03000000 	movweq	r0, #0
     1d0:	005b1934 	subseq	r1, fp, r4, lsr r9
     1d4:	04020000 	streq	r0, [r2], #-0
     1d8:	00003e07 	andeq	r3, r0, r7, lsl #28
     1dc:	07080200 	streq	r0, [r8, -r0, lsl #4]
     1e0:	00000039 	andeq	r0, r0, r9, lsr r0
     1e4:	69050404 	stmdbvs	r5, {r2, sl}
     1e8:	0200746e 	andeq	r7, r0, #1845493760	; 0x6e000000
     1ec:	00430704 	subeq	r0, r3, r4, lsl #14
     1f0:	07050000 	streq	r0, [r5, -r0]
     1f4:	00007004 	andeq	r7, r0, r4
     1f8:	060d0200 	streq	r0, [sp], -r0, lsl #4
     1fc:	00000098 	muleq	r0, r8, r0
     200:	0001b806 	andeq	fp, r1, r6, lsl #16
     204:	01400000 	mrseq	r0, (UNDEF: 64)
     208:	02b90640 	adcseq	r0, r9, #64, 12	; 0x4000000
     20c:	40040000 	andmi	r0, r4, r0
     210:	05004001 	streq	r4, [r0, #-1]
     214:	00700407 	rsbseq	r0, r0, r7, lsl #8
     218:	14020000 	strne	r0, [r2], #-0
     21c:	0000e606 	andeq	lr, r0, r6, lsl #12
     220:	022e0600 	eoreq	r0, lr, #0, 12
     224:	00040000 	andeq	r0, r4, r0
     228:	1406d000 	strne	sp, [r6], #-0
     22c:	10000003 	andne	r0, r0, r3
     230:	06d00000 	ldrbeq	r0, [r0], r0
     234:	000002ef 	andeq	r0, r0, pc, ror #5
     238:	d0000014 	andle	r0, r0, r4, lsl r0
     23c:	0001ab06 	andeq	sl, r1, r6, lsl #22
     240:	00001800 	andeq	r1, r0, r0, lsl #16
     244:	024606d0 	subeq	r0, r6, #208, 12	; 0xd000000
     248:	00200000 	eoreq	r0, r0, r0
     24c:	9f06d000 	svcls	0x0006d000
     250:	28000001 	stmdacs	r0, {r0}
     254:	06d00000 	ldrbeq	r0, [r0], r0
     258:	000002d8 	ldrdeq	r0, [r0], -r8
     25c:	d0000024 	andle	r0, r0, r4, lsr #32
     260:	04070500 	streq	r0, [r7], #-1280	; 0xfffffb00
     264:	00000070 	andeq	r0, r0, r0, ror r0
     268:	19062202 	stmdbne	r6, {r1, r9, sp}
     26c:	06000001 	streq	r0, [r0], -r1
     270:	0000030e 	andeq	r0, r0, lr, lsl #6
     274:	4000c000 	andmi	ip, r0, r0
     278:	00022406 	andeq	r2, r2, r6, lsl #8
     27c:	00c00400 	sbceq	r0, r0, r0, lsl #8
     280:	02360640 	eorseq	r0, r6, #64, 12	; 0x4000000
     284:	c0080000 	andgt	r0, r8, r0
     288:	96064000 	strls	r4, [r6], -r0
     28c:	00000002 	andeq	r0, r0, r2
     290:	004000f0 	strdeq	r0, [r0], #-0
     294:	41010705 	tstmi	r1, r5, lsl #14
     298:	02000000 	andeq	r0, r0, #0, 0
     29c:	0140062a 	cmpeq	r0, sl, lsr #12
     2a0:	05070000 	streq	r0, [r7, #-0]
     2a4:	05000002 	streq	r0, [r0, #-2]
     2a8:	0001d107 	andeq	sp, r1, r7, lsl #2
     2ac:	5a071800 	bpl	1c62b4 <STACK_SIZE+0x1c3ba4>
     2b0:	17000002 	strne	r0, [r0, -r2]
     2b4:	00024e07 	andeq	r4, r2, r7, lsl #28
     2b8:	05001600 	streq	r1, [r0, #-1536]	; 0xfffffa00
     2bc:	00410107 	subeq	r0, r1, r7, lsl #2
     2c0:	32020000 	andcc	r0, r2, #0, 0
     2c4:	0001610e 	andeq	r6, r1, lr, lsl #2
     2c8:	49530800 	ldmdbmi	r3, {fp}^
     2cc:	0705004f 	streq	r0, [r5, -pc, asr #32]
     2d0:	000001cc 	andeq	r0, r0, ip, asr #3
     2d4:	02410706 	subeq	r0, r1, #1572864	; 0x180000
     2d8:	00070000 	andeq	r0, r7, r0
     2dc:	66040802 	strvs	r0, [r4], -r2, lsl #16
     2e0:	09000001 	stmdbeq	r0, {r0}
     2e4:	000001f8 	strdeq	r0, [r0], -r8
     2e8:	14064f01 	strne	r4, [r6], #-3841	; 0xfffff0ff
     2ec:	30200003 	eorcc	r0, r0, r3
     2f0:	01000000 	mrseq	r0, (UNDEF: 0)
     2f4:	00018e9c 	muleq	r1, ip, lr
     2f8:	69700a00 	ldmdbvs	r0!, {r9, fp}^
     2fc:	4f01006e 	svcmi	0x0001006e
     300:	00004f1c 	andeq	r4, r0, ip, lsl pc
     304:	74910200 	ldrvc	r0, [r1], #512	; 0x200
     308:	031d0900 	tsteq	sp, #0, 18
     30c:	48010000 	stmdami	r1, {}	; <UNPREDICTABLE>
     310:	0002e406 	andeq	lr, r2, r6, lsl #8
     314:	00003020 	andeq	r3, r0, r0, lsr #32
     318:	b49c0100 	ldrlt	r0, [ip], #256	; 0x100
     31c:	0a000001 	beq	328 <STACK_SIZE-0x23e8>
     320:	006e6970 	rsbeq	r6, lr, r0, ror r9
     324:	4f1b4801 	svcmi	0x001b4801
     328:	02000000 	andeq	r0, r0, #0, 0
     32c:	09007491 	stmdbeq	r0, {r0, r4, r7, sl, ip, sp, lr}
     330:	00000214 	andeq	r0, r0, r4, lsl r2
     334:	68063b01 	stmdavs	r6, {r0, r8, r9, fp, ip, sp}
     338:	7c200002 	stcvc	0, cr0, [r0], #-8
     33c:	01000000 	mrseq	r0, (UNDEF: 0)
     340:	0001e99c 	muleq	r1, ip, r9
     344:	69700a00 	ldmdbvs	r0!, {r9, fp}^
     348:	3b01006e 	blcc	40508 <STACK_SIZE+0x3ddf8>
     34c:	00004f1f 	andeq	r4, r0, pc, lsl pc
     350:	6c910200 	lfmvs	f0, 4, [r1], {0}
     354:	0002b20b 	andeq	fp, r2, fp, lsl #4
     358:	0e400100 	dvfeqs	f0, f0, f0
     35c:	0000004f 	andeq	r0, r0, pc, asr #32
     360:	00749102 	rsbseq	r9, r4, r2, lsl #2
     364:	0001ee0c 	andeq	lr, r1, ip, lsl #28
     368:	0a340100 	beq	d00770 <STACK_SIZE+0xcfe060>
     36c:	0000004f 	andeq	r0, r0, pc, asr #32
     370:	20000234 	andcs	r0, r0, r4, lsr r2
     374:	00000034 	andeq	r0, r0, r4, lsr r0
     378:	02139c01 	andseq	r9, r3, #256	; 0x100
     37c:	700a0000 	andvc	r0, sl, r0
     380:	01006e69 	tsteq	r0, r9, ror #28
     384:	004f1d34 	subeq	r1, pc, r4, lsr sp	; <UNPREDICTABLE>
     388:	91020000 	mrsls	r0, (UNDEF: 2)
     38c:	df090074 	svcle	0x00090074
     390:	01000001 	tsteq	r0, r1
     394:	01f4062b 	mvnseq	r0, fp, lsr #12
     398:	00402000 	subeq	r2, r0, r0
     39c:	9c010000 	stcls	0, cr0, [r1], {-0}
     3a0:	00000248 	andeq	r0, r0, r8, asr #4
     3a4:	6e69700a 	cdpvs	0, 6, cr7, cr9, cr10, {0}
     3a8:	1e2b0100 	sufnee	f0, f3, f0
     3ac:	0000004f 	andeq	r0, r0, pc, asr #32
     3b0:	0b6c9102 	bleq	1b247c0 <STACK_SIZE+0x1b220b0>
     3b4:	000002b2 			; <UNDEFINED> instruction: 0x000002b2
     3b8:	4f0e2f01 	svcmi	0x000e2f01
     3bc:	02000000 	andeq	r0, r0, #0, 0
     3c0:	09007491 	stmdbeq	r0, {r0, r4, r7, sl, ip, sp, lr}
     3c4:	000002fc 	strdeq	r0, [r0], -ip
     3c8:	b4061201 	strlt	r1, [r6], #-513	; 0xfffffdff
     3cc:	40200001 	eormi	r0, r0, r1
     3d0:	01000000 	mrseq	r0, (UNDEF: 0)
     3d4:	00028c9c 	muleq	r2, ip, ip
     3d8:	69700a00 	ldmdbvs	r0!, {r9, fp}^
     3dc:	1201006e 	andne	r0, r1, #110, 0	; 0x6e
     3e0:	00004f21 	andeq	r4, r0, r1, lsr #30
     3e4:	6c910200 	lfmvs	f0, 4, [r1], {0}
     3e8:	0003050d 	andeq	r0, r3, sp, lsl #10
     3ec:	2f120100 	svccs	0x00120100
     3f0:	0000004f 	andeq	r0, r0, pc, asr #32
     3f4:	0b689102 	bleq	1a24804 <STACK_SIZE+0x1a220f4>
     3f8:	000002b2 			; <UNDEFINED> instruction: 0x000002b2
     3fc:	4f0e1901 	svcmi	0x000e1901
     400:	02000000 	andeq	r0, r0, #0, 0
     404:	0e007491 	mcreq	4, 0, r7, cr0, cr1, {4}
     408:	000002a7 	andeq	r0, r0, r7, lsr #5
     40c:	a4060e01 	strge	r0, [r6], #-3585	; 0xfffff1ff
     410:	10200001 	eorne	r0, r0, r1
     414:	01000000 	mrseq	r0, (UNDEF: 0)
     418:	02cb0f9c 	sbceq	r0, fp, #156, 30	; 0x270
     41c:	09010000 	stmdbeq	r1, {}	; <UNPREDICTABLE>
     420:	00015c06 	andeq	r5, r1, r6, lsl #24
     424:	00004820 	andeq	r4, r0, r0, lsr #16
     428:	0a9c0100 	beq	fe700830 <__bss_end__+0xde6f1410>
     42c:	00636f6c 	rsbeq	r6, r3, ip, ror #30
     430:	4f1c0901 	svcmi	0x001c0901
     434:	02000000 	andeq	r0, r0, #0, 0
     438:	00007491 	muleq	r0, r1, r4
     43c:	00000197 	muleq	r0, r7, r1
     440:	01c00004 	biceq	r0, r0, r4
     444:	01040000 	mrseq	r0, (UNDEF: 4)
     448:	000000b6 	strheq	r0, [r0], -r6
     44c:	0003720c 	andeq	r7, r3, ip, lsl #4
     450:	00026600 	andeq	r6, r2, r0, lsl #12
     454:	00034400 	andeq	r4, r3, r0, lsl #8
     458:	00019020 	andeq	r9, r1, r0, lsr #32
     45c:	00026b00 	andeq	r6, r2, r0, lsl #22
     460:	06010200 	streq	r0, [r1], -r0, lsl #4
     464:	00000094 	muleq	r0, r4, r0
     468:	7e050202 	cdpvc	2, 0, cr0, cr5, cr2, {0}
     46c:	02000001 	andeq	r0, r0, #1, 0
     470:	00050504 	andeq	r0, r5, r4, lsl #10
     474:	08020000 	stmdaeq	r2, {}	; <UNPREDICTABLE>
     478:	00000005 	andeq	r0, r0, r5
     47c:	08010200 	stmdaeq	r1, {r9}
     480:	00000092 	muleq	r0, r2, r0
     484:	53070202 	movwpl	r0, #29186	; 0x7202
     488:	03000001 	movweq	r0, #1
     48c:	00000021 	andeq	r0, r0, r1, lsr #32
     490:	5b193403 	blpl	64d4a4 <STACK_SIZE+0x64ad94>
     494:	02000000 	andeq	r0, r0, #0, 0
     498:	003e0704 	eorseq	r0, lr, r4, lsl #14
     49c:	08020000 	stmdaeq	r2, {}	; <UNPREDICTABLE>
     4a0:	00003907 	andeq	r3, r0, r7, lsl #18
     4a4:	05040400 	streq	r0, [r4, #-1024]	; 0xfffffc00
     4a8:	00746e69 	rsbseq	r6, r4, r9, ror #28
     4ac:	43070402 	movwmi	r0, #29698	; 0x7402
     4b0:	05000000 	streq	r0, [r0, #-0]
     4b4:	00700407 	rsbseq	r0, r0, r7, lsl #8
     4b8:	13020000 	movwne	r0, #8192	; 0x2000
     4bc:	0000b306 	andeq	fp, r0, r6, lsl #6
     4c0:	03bd0600 			; <UNDEFINED> instruction: 0x03bd0600
     4c4:	40000000 	andmi	r0, r0, r0
     4c8:	59064002 	stmdbpl	r6, {r1, lr}
     4cc:	04000003 	streq	r0, [r0], #-3
     4d0:	06400240 	strbeq	r0, [r0], -r0, asr #4
     4d4:	00000329 	andeq	r0, r0, r9, lsr #6
     4d8:	40024008 	andmi	r4, r2, r8
     4dc:	00033c06 	andeq	r3, r3, r6, lsl #24
     4e0:	02400c00 	subeq	r0, r0, #0, 24
     4e4:	03870640 	orreq	r0, r7, #64, 12	; 0x4000000
     4e8:	401c0000 	andsmi	r0, ip, r0
     4ec:	05004002 	streq	r4, [r0, #-2]
     4f0:	00700407 	rsbseq	r0, r0, r7, lsl #8
     4f4:	1e020000 	cdpne	0, 0, cr0, cr2, cr0, {0}
     4f8:	0000cb06 	andeq	ip, r0, r6, lsl #22
     4fc:	03c70600 	biceq	r0, r7, #0, 12
     500:	80480000 	subhi	r0, r8, r0
     504:	07004000 	streq	r4, [r0, -r0]
     508:	00000349 	andeq	r0, r0, r9, asr #6
     50c:	9c064301 	stcls	3, cr4, [r6], {1}
     510:	38200004 	stmdacc	r0!, {r2}
     514:	01000000 	mrseq	r0, (UNDEF: 0)
     518:	0000f19c 	muleq	r0, ip, r1
     51c:	036b0800 	cmneq	fp, #0, 16
     520:	43010000 	movwmi	r0, #4096	; 0x1000
     524:	00004f1f 	andeq	r4, r0, pc, lsl pc
     528:	74910200 	ldrvc	r0, [r1], #512	; 0x200
     52c:	03920700 	orrseq	r0, r2, #0, 14
     530:	3a010000 	bcc	40538 <STACK_SIZE+0x3de28>
     534:	00045406 	andeq	r5, r4, r6, lsl #8
     538:	00004820 	andeq	r4, r0, r0, lsr #16
     53c:	179c0100 	ldrne	r0, [ip, r0, lsl #2]
     540:	08000001 	stmdaeq	r0, {r0}
     544:	00000336 	andeq	r0, r0, r6, lsr r3
     548:	4f233a01 	svcmi	0x00233a01
     54c:	02000000 	andeq	r0, r0, #0, 0
     550:	07007491 			; <UNDEFINED> instruction: 0x07007491
     554:	0000037e 	andeq	r0, r0, lr, ror r3
     558:	fc063101 	stc2	1, cr3, [r6], {1}
     55c:	58200003 	stmdapl	r0!, {r0, r1}
     560:	01000000 	mrseq	r0, (UNDEF: 0)
     564:	0001629c 	muleq	r1, ip, r2
     568:	73750900 	cmnvc	r5, #0, 18
     56c:	18310100 	ldmdane	r1!, {r8}
     570:	0000004f 	andeq	r0, r0, pc, asr #32
     574:	0a6c9102 	beq	1b24984 <STACK_SIZE+0x1b22274>
     578:	000003b3 			; <UNDEFINED> instruction: 0x000003b3
     57c:	4f0e3201 	svcmi	0x000e3201
     580:	02000000 	andeq	r0, r0, #0, 0
     584:	120b7091 	andne	r7, fp, #145, 0	; 0x91
     588:	30200004 	eorcc	r0, r0, r4
     58c:	0c000000 	stceq	0, cr0, [r0], {-0}
     590:	33010069 	movwcc	r0, #4201	; 0x1069
     594:	0000690e 	andeq	r6, r0, lr, lsl #18
     598:	74910200 	ldrvc	r0, [r1], #512	; 0x200
     59c:	a60d0000 	strge	r0, [sp], -r0
     5a0:	01000003 	tsteq	r0, r3
     5a4:	03a00616 	moveq	r0, #23068672	; 0x1600000
     5a8:	005c2000 	subseq	r2, ip, r0
     5ac:	9c010000 	stcls	0, cr0, [r1], {-0}
     5b0:	00000188 	andeq	r0, r0, r8, lsl #3
     5b4:	0003650a 	andeq	r6, r3, sl, lsl #10
     5b8:	0e180100 	mufeqe	f0, f0, f0
     5bc:	0000004f 	andeq	r0, r0, pc, asr #32
     5c0:	00749102 	rsbseq	r9, r4, r2, lsl #2
     5c4:	0003980e 	andeq	r9, r3, lr, lsl #16
     5c8:	060b0100 	streq	r0, [fp], -r0, lsl #2
     5cc:	20000344 	andcs	r0, r0, r4, asr #6
     5d0:	0000005c 	andeq	r0, r0, ip, asr r0
     5d4:	dd009c01 	stcle	12, cr9, [r0, #-4]
     5d8:	0400000b 	streq	r0, [r0], #-11
     5dc:	0002b000 	andeq	fp, r2, r0
     5e0:	b6010400 	strlt	r0, [r1], -r0, lsl #8
     5e4:	0c000000 	stceq	0, cr0, [r0], {-0}
     5e8:	0000043f 	andeq	r0, r0, pc, lsr r4
     5ec:	00000266 	andeq	r0, r0, r6, ror #4
     5f0:	200004d4 	ldrdcs	r0, [r0], -r4
     5f4:	00000d44 	andeq	r0, r0, r4, asr #26
     5f8:	000003c9 	andeq	r0, r0, r9, asr #7
     5fc:	94060102 	strls	r0, [r6], #-258	; 0xfffffefe
     600:	02000000 	andeq	r0, r0, #0, 0
     604:	017e0502 	cmneq	lr, r2, lsl #10
     608:	22030000 	andcs	r0, r3, #0, 0
     60c:	03000000 	movweq	r0, #0
     610:	003f1828 	eorseq	r1, pc, r8, lsr #16
     614:	04020000 	streq	r0, [r2], #-0
     618:	00000505 	andeq	r0, r0, r5, lsl #10
     61c:	003f0400 	eorseq	r0, pc, r0, lsl #8
     620:	08020000 	stmdaeq	r2, {}	; <UNPREDICTABLE>
     624:	00000005 	andeq	r0, r0, r5
     628:	08010200 	stmdaeq	r1, {r9}
     62c:	00000092 	muleq	r0, r2, r0
     630:	53070202 	movwpl	r0, #29186	; 0x7202
     634:	03000001 	movweq	r0, #1
     638:	00000021 	andeq	r0, r0, r1, lsr #32
     63c:	6c193403 	cfldrsvs	mvf3, [r9], {3}
     640:	02000000 	andeq	r0, r0, #0, 0
     644:	003e0704 	eorseq	r0, lr, r4, lsl #14
     648:	f5030000 			; <UNDEFINED> instruction: 0xf5030000
     64c:	03000003 	movweq	r0, #3
     650:	007f1937 	rsbseq	r1, pc, r7, lsr r9	; <UNPREDICTABLE>
     654:	08020000 	stmdaeq	r2, {}	; <UNPREDICTABLE>
     658:	00003907 	andeq	r3, r0, r7, lsl #18
     65c:	05040500 	streq	r0, [r4, #-1280]	; 0xfffffb00
     660:	00746e69 	rsbseq	r6, r4, r9, ror #28
     664:	00008604 	andeq	r8, r0, r4, lsl #12
     668:	07040200 	streq	r0, [r4, -r0, lsl #4]
     66c:	00000043 	andeq	r0, r0, r3, asr #32
     670:	00009204 	andeq	r9, r0, r4, lsl #4
     674:	042b0300 	strteq	r0, [fp], #-768	; 0xfffffd00
     678:	56030000 	strpl	r0, [r3], -r0
     67c:	0000921a 	andeq	r9, r0, sl, lsl r2
     680:	04100600 	ldreq	r0, [r0], #-1536	; 0xfffffa00
     684:	00e60912 	rsceq	r0, r6, r2, lsl r9
     688:	74070000 	strvc	r0, [r7], #-0
     68c:	13040078 	movwne	r0, #16504	; 0x4078
     690:	0000600e 	andeq	r6, r0, lr
     694:	72070000 	andvc	r0, r7, #0, 0
     698:	13040078 	movwne	r0, #16504	; 0x4078
     69c:	00006011 	andeq	r6, r0, r1, lsl r0
     6a0:	a0080400 	andge	r0, r8, r0, lsl #8
     6a4:	04000000 	streq	r0, [r0], #-0
     6a8:	00600e14 	rsbeq	r0, r0, r4, lsl lr
     6ac:	08080000 	stmdaeq	r8, {}	; <UNPREDICTABLE>
     6b0:	00000145 	andeq	r0, r0, r5, asr #2
     6b4:	600e1504 	andvs	r1, lr, r4, lsl #10
     6b8:	0c000000 	stceq	0, cr0, [r0], {-0}
     6bc:	000e0300 	andeq	r0, lr, r0, lsl #6
     6c0:	16040000 	strne	r0, [r4], -r0
     6c4:	0000aa03 	andeq	sl, r0, r3, lsl #20
     6c8:	002a0900 	eoreq	r0, sl, r0, lsl #18
     6cc:	18040000 	stmdane	r4, {}	; <UNPREDICTABLE>
     6d0:	0000e60b 	andeq	lr, r0, fp, lsl #12
     6d4:	00030500 	andeq	r0, r3, r0, lsl #10
     6d8:	032000f4 			; <UNDEFINED> instruction: 0x032000f4
     6dc:	00000532 	andeq	r0, r0, r2, lsr r5
     6e0:	101b2805 	andsne	r2, fp, r5, lsl #16
     6e4:	0a000001 	beq	6f0 <STACK_SIZE-0x2020>
     6e8:	00000465 	andeq	r0, r0, r5, ror #8
     6ec:	27000704 	strcs	r0, [r0, -r4, lsl #14]
     6f0:	0b000001 	bleq	6fc <STACK_SIZE-0x2014>
     6f4:	000004ae 	andeq	r0, r0, lr, lsr #9
     6f8:	00000127 	andeq	r0, r0, r7, lsr #2
     6fc:	040c0000 	streq	r0, [ip], #-0
     700:	00046703 	andeq	r6, r4, r3, lsl #14
     704:	18630500 	stmdane	r3!, {r8, sl}^
     708:	00000104 	andeq	r0, r0, r4, lsl #2
     70c:	0003fe03 	andeq	pc, r3, r3, lsl #28
     710:	17d10600 	ldrbne	r0, [r1, r0, lsl #12]
     714:	00000092 	muleq	r0, r2, r0
     718:	00013504 	andeq	r3, r1, r4, lsl #10
     71c:	04080200 	streq	r0, [r8], #-512	; 0xfffffe00
     720:	00000166 	andeq	r0, r0, r6, ror #2
     724:	00049003 	andeq	r9, r4, r3
     728:	10890200 	addne	r0, r9, r0, lsl #4
     72c:	00000159 	andeq	r0, r0, r9, asr r1
     730:	015f040d 	cmpeq	pc, sp, lsl #8
     734:	790e0000 	stmdbvc	lr, {}	; <UNPREDICTABLE>
     738:	0f000001 	svceq	0x00000001
     73c:	00000179 	andeq	r0, r0, r9, ror r1
     740:	0001270f 	andeq	r2, r1, pc, lsl #14
     744:	01350f00 	teqeq	r5, r0, lsl #30
     748:	350f0000 	strcc	r0, [pc, #-0]	; 750 <STACK_SIZE-0x1fc0>
     74c:	00000001 	andeq	r0, r0, r1
     750:	9b080102 	blls	200b60 <STACK_SIZE+0x1fe450>
     754:	04000000 	streq	r0, [r0], #-0
     758:	00000179 	andeq	r0, r0, r9, ror r1
     75c:	8d020806 	stchi	8, cr0, [r2, #-24]	; 0xffffffe8
     760:	0001a909 	andeq	sl, r1, r9, lsl #18
     764:	63660700 	cmnvs	r6, #0, 14
     768:	8e020074 	mcrhi	0, 0, r0, cr2, cr4, {3}
     76c:	0001b90b 	andeq	fp, r1, fp, lsl #18
     770:	61070000 	mrsvs	r0, (UNDEF: 7)
     774:	02006772 	andeq	r6, r0, #29884416	; 0x1c80000
     778:	0127098f 	smlawbeq	r7, pc, r9, r0	; <UNPREDICTABLE>
     77c:	00040000 	andeq	r0, r4, r0
     780:	0001b90e 	andeq	fp, r1, lr, lsl #18
     784:	01790f00 	cmneq	r9, r0, lsl #30
     788:	270f0000 	strcs	r0, [pc, -r0]
     78c:	00000001 	andeq	r0, r0, r1
     790:	01a9040d 			; <UNDEFINED> instruction: 0x01a9040d
     794:	1b030000 	blne	c079c <STACK_SIZE+0xbe08c>
     798:	02000005 	andeq	r0, r0, #5, 0
     79c:	01850390 			; <UNDEFINED> instruction: 0x01850390
     7a0:	bf040000 	svclt	0x00040000
     7a4:	10000001 	andne	r0, r0, r1
     7a8:	00000452 	andeq	r0, r0, r2, asr r4
     7ac:	05039902 	streq	r9, [r3, #-2306]	; 0xfffff6fe
     7b0:	00000086 	andeq	r0, r0, r6, lsl #1
     7b4:	200011cc 	andcs	r1, r0, ip, asr #3
     7b8:	0000004c 	andeq	r0, r0, ip, asr #32
     7bc:	024c9c01 	subeq	r9, ip, #256	; 0x100
     7c0:	6f110000 	svcvs	0x00110000
     7c4:	02007475 	andeq	r7, r0, #1962934272	; 0x75000000
     7c8:	b9160399 	ldmdblt	r6, {r0, r3, r4, r7, r8, r9}
     7cc:	02000001 	andeq	r0, r0, #1, 0
     7d0:	61115491 			; <UNDEFINED> instruction: 0x61115491
     7d4:	02006772 	andeq	r6, r0, #29884416	; 0x1c80000
     7d8:	273d0399 			; <UNDEFINED> instruction: 0x273d0399
     7dc:	02000001 	andeq	r0, r0, #1, 0
     7e0:	7a125091 	bvc	494a2c <STACK_SIZE+0x49231c>
     7e4:	02000004 	andeq	r0, r0, #4, 0
     7e8:	4c4e0399 	mcrrmi	3, 9, r0, lr, cr9
     7ec:	02000002 	andeq	r0, r0, #2, 0
     7f0:	14137891 	ldrne	r7, [r3], #-2193	; 0xfffff76f
     7f4:	02006176 	andeq	r6, r0, #-2147483619	; 0x8000001d
     7f8:	290b039b 	stmdbcs	fp, {r0, r1, r3, r4, r7, r8, r9}
     7fc:	02000001 	andeq	r0, r0, #1, 0
     800:	dc156091 	ldcle	0, cr6, [r5], {145}	; 0x91
     804:	02000003 	andeq	r0, r0, #3, 0
     808:	cb1b039d 	blgt	6c1684 <STACK_SIZE+0x6bef74>
     80c:	02000001 	andeq	r0, r0, #1, 0
     810:	72145891 	andsvc	r5, r4, #9502720	; 0x910000
     814:	02007465 	andeq	r7, r0, #1694498816	; 0x65000000
     818:	8d0d039e 	stchi	3, cr0, [sp, #-632]	; 0xfffffd88
     81c:	02000000 	andeq	r0, r0, #0, 0
     820:	0d006491 	cfstrseq	mvf6, [r0, #-580]	; 0xfffffdbc
     824:	00018004 	andeq	r8, r1, r4
     828:	04b31000 	ldrteq	r1, [r3], #0
     82c:	93020000 	movwls	r0, #8192	; 0x2000
     830:	00860503 	addeq	r0, r6, r3, lsl #10
     834:	119c0000 	orrsne	r0, ip, r0
     838:	00302000 	eorseq	r2, r0, r0
     83c:	9c010000 	stcls	0, cr0, [r1], {-0}
     840:	000002ad 	andeq	r0, r0, sp, lsr #5
     844:	0003ee12 	andeq	lr, r3, r2, lsl lr
     848:	03930200 	orrseq	r0, r3, #0, 4
     84c:	0002ad16 	andeq	sl, r2, r6, lsl sp
     850:	6c910200 	lfmvs	f0, 4, [r1], {0}
     854:	00033612 	andeq	r3, r3, r2, lsl r6
     858:	03930200 	orrseq	r0, r3, #0, 4
     85c:	00013525 	andeq	r3, r1, r5, lsr #10
     860:	68910200 	ldmvs	r1, {r9}
     864:	00047a12 	andeq	r7, r4, r2, lsl sl
     868:	03930200 	orrseq	r0, r3, #0, 4
     86c:	00024c38 	andeq	r4, r2, r8, lsr ip
     870:	64910200 	ldrvs	r0, [r1], #512	; 0x200
     874:	00617611 	rsbeq	r7, r1, r1, lsl r6
     878:	48039302 	stmdami	r3, {r1, r8, r9, ip, pc}
     87c:	00000129 	andeq	r0, r0, r9, lsr #2
     880:	00609102 	rsbeq	r9, r0, r2, lsl #2
     884:	0179040d 	cmneq	r9, sp, lsl #8
     888:	56100000 	ldrpl	r0, [r0], -r0
     88c:	02000005 	andeq	r0, r0, #5, 0
     890:	8605038c 	strhi	r0, [r5], -ip, lsl #7
     894:	6c000000 	stcvs	0, cr0, [r0], {-0}
     898:	30200011 	eorcc	r0, r0, r1, lsl r0
     89c:	01000000 	mrseq	r0, (UNDEF: 0)
     8a0:	0002fe9c 	muleq	r2, ip, lr
     8a4:	047a1200 	ldrbteq	r1, [sl], #-512	; 0xfffffe00
     8a8:	8c020000 	stchi	0, cr0, [r2], {-0}
     8ac:	024c1a03 	subeq	r1, ip, #12288	; 0x3000
     8b0:	91020000 	mrsls	r0, (UNDEF: 2)
     8b4:	61761164 	cmnvs	r6, r4, ror #2
     8b8:	038c0200 	orreq	r0, ip, #0, 4
     8bc:	0001292a 	andeq	r2, r1, sl, lsr #18
     8c0:	60910200 	addsvs	r0, r1, r0, lsl #4
     8c4:	0003ee15 	andeq	lr, r3, r5, lsl lr
     8c8:	038e0200 	orreq	r0, lr, #0, 4
     8cc:	0002fe08 	andeq	pc, r2, r8, lsl #28
     8d0:	6c910200 	lfmvs	f0, 4, [r1], {0}
     8d4:	01791600 	cmneq	r9, r0, lsl #12
     8d8:	030e0000 	movweq	r0, #57344	; 0xe000
     8dc:	92170000 	andsls	r0, r7, #0, 0
     8e0:	00000000 	andeq	r0, r0, r0
     8e4:	04b41000 	ldrteq	r1, [r4], #0
     8e8:	82020000 	andhi	r0, r2, #0, 0
     8ec:	00860503 	addeq	r0, r6, r3, lsl #10
     8f0:	11300000 	teqne	r0, r0
     8f4:	003c2000 	eorseq	r2, ip, r0
     8f8:	9c010000 	stcls	0, cr0, [r1], {-0}
     8fc:	0000037a 	andeq	r0, r0, sl, ror r3
     900:	0003ee12 	andeq	lr, r3, r2, lsl lr
     904:	03820200 	orreq	r0, r2, #0, 4
     908:	0002ad15 	andeq	sl, r2, r5, lsl sp
     90c:	5c910200 	lfmpl	f0, 4, [r1], {0}
     910:	00033612 	andeq	r3, r3, r2, lsl r6
     914:	03820200 	orreq	r0, r2, #0, 4
     918:	00013524 	andeq	r3, r1, r4, lsr #10
     91c:	58910200 	ldmpl	r1, {r9}
     920:	00047a12 	andeq	r7, r4, r2, lsl sl
     924:	03820200 	orreq	r0, r2, #0, 4
     928:	00024c37 	andeq	r4, r2, r7, lsr ip
     92c:	78910200 	ldmvc	r1, {r9}
     930:	61761413 	cmnvs	r6, r3, lsl r4
     934:	03840200 	orreq	r0, r4, #0, 4
     938:	0001290b 	andeq	r2, r1, fp, lsl #18
     93c:	60910200 	addsvs	r0, r1, r0, lsl #4
     940:	74657214 	strbtvc	r7, [r5], #-532	; 0xfffffdec
     944:	03860200 	orreq	r0, r6, #0, 4
     948:	00008d0d 	andeq	r8, r0, sp, lsl #26
     94c:	64910200 	ldrvs	r0, [r1], #512	; 0x200
     950:	04dc1000 	ldrbeq	r1, [ip], #0
     954:	78020000 	stmdavc	r2, {}	; <UNPREDICTABLE>
     958:	00860503 	addeq	r0, r6, r3, lsl #10
     95c:	10f40000 	rscsne	r0, r4, r0
     960:	003c2000 	eorseq	r2, ip, r0
     964:	9c010000 	stcls	0, cr0, [r1], {-0}
     968:	000003d6 	ldrdeq	r0, [r0], -r6
     96c:	0003ee12 	andeq	lr, r3, r2, lsl lr
     970:	03780200 	cmneq	r8, #0, 4
     974:	0002ad14 	andeq	sl, r2, r4, lsl sp
     978:	5c910200 	lfmpl	f0, 4, [r1], {0}
     97c:	00047a12 	andeq	r7, r4, r2, lsl sl
     980:	03780200 	cmneq	r8, #0, 4
     984:	00024c28 	andeq	r4, r2, r8, lsr #24
     988:	74910200 	ldrvc	r0, [r1], #512	; 0x200
     98c:	61761413 	cmnvs	r6, r3, lsl r4
     990:	037a0200 	cmneq	sl, #0, 4
     994:	0001290b 	andeq	r2, r1, fp, lsl #18
     998:	60910200 	addsvs	r0, r1, r0, lsl #4
     99c:	74657214 	strbtvc	r7, [r5], #-532	; 0xfffffdec
     9a0:	037c0200 	cmneq	ip, #0, 4
     9a4:	00008d0d 	andeq	r8, r0, sp, lsl #26
     9a8:	64910200 	ldrvs	r0, [r1], #512	; 0x200
     9ac:	04b61000 	ldrteq	r1, [r6], #0
     9b0:	6d020000 	stcvs	0, cr0, [r2, #-0]
     9b4:	00860503 	addeq	r0, r6, r3, lsl #10
     9b8:	10ba0000 	adcsne	r0, sl, r0
     9bc:	003a2000 	eorseq	r2, sl, r0
     9c0:	9c010000 	stcls	0, cr0, [r1], {-0}
     9c4:	00000432 	andeq	r0, r0, r2, lsr r4
     9c8:	00047a12 	andeq	r7, r4, r2, lsl sl
     9cc:	036d0200 	cmneq	sp, #0, 4
     9d0:	00024c19 	andeq	r4, r2, r9, lsl ip
     9d4:	70910200 	addsvc	r0, r1, r0, lsl #4
     9d8:	61761413 	cmnvs	r6, r3, lsl r4
     9dc:	036f0200 	cmneq	pc, #0, 4
     9e0:	0001290b 	andeq	r2, r1, fp, lsl #18
     9e4:	58910200 	ldmpl	r1, {r9}
     9e8:	0003ee15 	andeq	lr, r3, r5, lsl lr
     9ec:	03710200 	cmneq	r1, #0, 4
     9f0:	0002fe08 	andeq	pc, r2, r8, lsl #28
     9f4:	54910200 	ldrpl	r0, [r1], #512	; 0x200
     9f8:	74657214 	strbtvc	r7, [r5], #-532	; 0xfffffdec
     9fc:	03720200 	cmneq	r2, #0, 4
     a00:	00008d0d 	andeq	r8, r0, sp, lsl #26
     a04:	5c910200 	lfmpl	f0, 4, [r1], {0}
     a08:	04ef1800 	strbteq	r1, [pc], #2048	; a10 <STACK_SIZE-0x1d00>
     a0c:	50020000 	andpl	r0, r2, r0
     a10:	00860c02 	addeq	r0, r6, r2, lsl #24
     a14:	0aae0000 	beq	feb80a1c <__bss_end__+0xdeb715fc>
     a18:	060c2000 	streq	r2, [ip], -r0
     a1c:	9c010000 	stcls	0, cr0, [r1], {-0}
     a20:	000005e3 	andeq	r0, r0, r3, ror #11
     a24:	74756f11 	ldrbtvc	r6, [r5], #-3857	; 0xfffff0ef
     a28:	02500200 	subseq	r0, r0, #0, 4
     a2c:	00014d24 	andeq	r4, r1, r4, lsr #26
     a30:	ac910300 	ldcge	3, cr0, [r1], {0}
     a34:	03ee127f 	mvneq	r1, #-268435449	; 0xf0000007
     a38:	50020000 	andpl	r0, r2, r0
     a3c:	02ad2f02 	adceq	r2, sp, #2, 30
     a40:	91030000 	mrsls	r0, (UNDEF: 3)
     a44:	be127fa8 	cdplt	15, 1, cr7, cr2, cr8, {5}
     a48:	02000004 	andeq	r0, r0, #4, 0
     a4c:	41440250 	cmpmi	r4, r0, asr r2
     a50:	03000001 	movweq	r0, #1
     a54:	127fa491 	rsbsne	sl, pc, #-1862270976	; 0x91000000
     a58:	0000047a 	andeq	r0, r0, sl, ror r4
     a5c:	58025002 	stmdapl	r2, {r1, ip, lr}
     a60:	0000024c 	andeq	r0, r0, ip, asr #4
     a64:	7fa09103 	svcvc	0x00a09103
     a68:	00617611 	rsbeq	r7, r1, r1, lsl r6
     a6c:	68025002 	stmdavs	r2, {r1, ip, lr}
     a70:	00000129 	andeq	r0, r0, r9, lsr #2
     a74:	15009102 	strne	r9, [r0, #-258]	; 0xfffffefe
     a78:	000004a8 	andeq	r0, r0, r8, lsr #9
     a7c:	10025202 	andne	r5, r2, r2, lsl #4
     a80:	00000092 	muleq	r0, r2, r0
     a84:	15649102 	strbne	r9, [r4, #-258]!	; 0xfffffefe
     a88:	0000044c 	andeq	r0, r0, ip, asr #8
     a8c:	17025202 	strne	r5, [r2, -r2, lsl #4]
     a90:	00000092 	muleq	r0, r2, r0
     a94:	15609102 	strbne	r9, [r0, #-258]!	; 0xfffffefe
     a98:	0000054c 	andeq	r0, r0, ip, asr #10
     a9c:	1e025202 	cdpne	2, 0, cr5, cr2, cr2, {0}
     aa0:	00000092 	muleq	r0, r2, r0
     aa4:	145c9102 	ldrbne	r9, [ip], #-258	; 0xfffffefe
     aa8:	5202006e 	andpl	r0, r2, #110, 0	; 0x6e
     aac:	00922902 	addseq	r2, r2, r2, lsl #18
     ab0:	91020000 	mrsls	r0, (UNDEF: 2)
     ab4:	64691458 	strbtvs	r1, [r9], #-1112	; 0xfffffba8
     ab8:	53020078 	movwpl	r0, #8312	; 0x2078
     abc:	01350a02 	teqeq	r5, r2, lsl #20
     ac0:	91020000 	mrsls	r0, (UNDEF: 2)
     ac4:	0ba61954 	bleq	fe98701c <__bss_end__+0xde977bfc>
     ac8:	002a2000 	eoreq	r2, sl, r0
     acc:	050a0000 	streq	r0, [sl, #-0]
     ad0:	77140000 	ldrvc	r0, [r4, -r0]
     ad4:	027b0200 	rsbseq	r0, fp, #0, 4
     ad8:	00008d11 	andeq	r8, r0, r1, lsl sp
     adc:	40910200 	addsmi	r0, r1, r0, lsl #4
     ae0:	0c101900 			; <UNDEFINED> instruction: 0x0c101900
     ae4:	001a2000 	andseq	r2, sl, r0
     ae8:	05290000 	streq	r0, [r9, #-0]!
     aec:	2d150000 	ldccs	0, cr0, [r5, #-0]
     af0:	02000005 	andeq	r0, r0, #5, 0
     af4:	8d13028f 	lfmhi	f0, 4, [r3, #-572]	; 0xfffffdc4
     af8:	03000000 	movweq	r0, #0
     afc:	007fbc91 			; <UNDEFINED> instruction: 0x007fbc91
     b00:	000cd819 	andeq	sp, ip, r9, lsl r8
     b04:	00020820 	andeq	r0, r2, r0, lsr #16
     b08:	0005a000 	andeq	sl, r5, r0
     b0c:	05411500 	strbeq	r1, [r1, #-1280]	; 0xfffffb00
     b10:	c3020000 	movwgt	r0, #8192	; 0x2000
     b14:	00921602 	addseq	r1, r2, r2, lsl #12
     b18:	91020000 	mrsls	r0, (UNDEF: 2)
     b1c:	0d761950 			; <UNDEFINED> instruction: 0x0d761950
     b20:	00422000 	subeq	r2, r2, r0
     b24:	05650000 	strbeq	r0, [r5, #-0]!
     b28:	1c150000 	ldcne	0, cr0, [r5], {-0}
     b2c:	02000004 	andeq	r0, r0, #4, 0
     b30:	461802ea 	ldrmi	r0, [r8], -sl, ror #5
     b34:	03000000 	movweq	r0, #0
     b38:	007fb091 			; <UNDEFINED> instruction: 0x007fb091
     b3c:	000dba19 	andeq	fp, sp, r9, lsl sl
     b40:	00007820 	andeq	r7, r0, r0, lsr #16
     b44:	00058400 	andeq	r8, r5, r0, lsl #8
     b48:	041c1500 	ldreq	r1, [ip], #-1280	; 0xfffffb00
     b4c:	ee020000 	cdp	0, 0, cr0, cr2, cr0, {0}
     b50:	008d1702 	addeq	r1, sp, r2, lsl #14
     b54:	91030000 	mrsls	r0, (UNDEF: 3)
     b58:	1a007fb4 	bne	20a30 <STACK_SIZE+0x1e320>
     b5c:	20000e7c 	andcs	r0, r0, ip, ror lr
     b60:	0000005c 	andeq	r0, r0, ip, asr r0
     b64:	00041c15 	andeq	r1, r4, r5, lsl ip
     b68:	02fd0200 	rscseq	r0, sp, #0, 4
     b6c:	00009920 	andeq	r9, r0, r0, lsr #18
     b70:	b8910300 	ldmlt	r1, {r8, r9}
     b74:	1900007f 	stmdbne	r0, {r0, r1, r2, r3, r4, r5, r6}
     b78:	20000ee0 	andcs	r0, r0, r0, ror #29
     b7c:	00000070 	andeq	r0, r0, r0, ror r0
     b80:	000005bc 			; <UNDEFINED> instruction: 0x000005bc
     b84:	02006c14 	andeq	r6, r0, #20, 24	; 0x1400
     b88:	92160318 	andsls	r0, r6, #24, 6	; 0x60000000
     b8c:	02000000 	andeq	r0, r0, #0, 0
     b90:	1a004c91 	bne	13ddc <STACK_SIZE+0x116cc>
     b94:	20000f50 	andcs	r0, r0, r0, asr pc
     b98:	000000c4 	andeq	r0, r0, r4, asr #1
     b9c:	02007014 	andeq	r7, r0, #20, 0
     ba0:	4c15032c 	ldcmi	3, cr0, [r5], {44}	; 0x2c
     ba4:	02000002 	andeq	r0, r0, #2, 0
     ba8:	6c144891 	ldcvs	8, cr4, [r4], {145}	; 0x91
     bac:	032d0200 			; <UNDEFINED> instruction: 0x032d0200
     bb0:	00009216 	andeq	r9, r0, r6, lsl r2
     bb4:	44910200 	ldrmi	r0, [r1], #512	; 0x200
     bb8:	9d180000 	ldcls	0, cr0, [r8, #-0]
     bbc:	02000004 	andeq	r0, r0, #4, 0
     bc0:	350f0128 	strcc	r0, [pc, #-296]	; aa0 <STACK_SIZE-0x1c70>
     bc4:	d8000001 	stmdale	r0, {r0}
     bc8:	d6200009 	strtle	r0, [r0], -r9
     bcc:	01000000 	mrseq	r0, (UNDEF: 0)
     bd0:	0006db9c 	muleq	r6, ip, fp
     bd4:	756f1100 	strbvc	r1, [pc, #-256]!	; adc <STACK_SIZE-0x1c34>
     bd8:	28020074 	stmdacs	r2, {r2, r4, r5, r6}
     bdc:	014d2701 	cmpeq	sp, r1, lsl #14
     be0:	91020000 	mrsls	r0, (UNDEF: 2)
     be4:	03ee1244 	mvneq	r1, #68, 4	; 0x40000004
     be8:	28020000 	stmdacs	r2, {}	; <UNPREDICTABLE>
     bec:	02ad3201 	adceq	r3, sp, #268435456	; 0x10000000
     bf0:	91020000 	mrsls	r0, (UNDEF: 2)
     bf4:	64691140 	strbtvs	r1, [r9], #-320	; 0xfffffec0
     bf8:	28020078 	stmdacs	r2, {r3, r4, r5, r6}
     bfc:	01354101 	teqeq	r5, r1, lsl #2
     c00:	91030000 	mrsls	r0, (UNDEF: 3)
     c04:	be127fbc 	mrclt	15, 0, r7, cr2, cr12, {5}
     c08:	02000004 	andeq	r0, r0, #4, 0
     c0c:	354d0128 	strbcc	r0, [sp, #-296]	; 0xfffffed8
     c10:	03000001 	movweq	r0, #1
     c14:	127fb891 	rsbsne	fp, pc, #9502720	; 0x910000
     c18:	0000041c 	andeq	r0, r0, ip, lsl r4
     c1c:	63012802 	movwvs	r2, #6146	; 0x1802
     c20:	0000006c 	andeq	r0, r0, ip, rrx
     c24:	12009102 	andne	r9, r0, #-2147483648	; 0x80000000
     c28:	0000045c 	andeq	r0, r0, ip, asr r4
     c2c:	6f012802 	svcvs	0x00012802
     c30:	000006db 	ldrdeq	r0, [r0], -fp
     c34:	12049102 	andne	r9, r4, #-2147483648	; 0x80000000
     c38:	00000541 	andeq	r0, r0, r1, asr #10
     c3c:	87012802 	strhi	r2, [r1, -r2, lsl #16]
     c40:	0000006c 	andeq	r0, r0, ip, rrx
     c44:	12089102 	andne	r9, r8, #-2147483648	; 0x80000000
     c48:	0000052d 	andeq	r0, r0, sp, lsr #10
     c4c:	9a012802 	bls	4ac5c <STACK_SIZE+0x4854c>
     c50:	00000092 	muleq	r0, r2, r0
     c54:	120c9102 	andne	r9, ip, #-2147483648	; 0x80000000
     c58:	0000044c 	andeq	r0, r0, ip, asr #8
     c5c:	ad012802 	stcge	8, cr2, [r1, #-8]
     c60:	00000092 	muleq	r0, r2, r0
     c64:	12109102 	andsne	r9, r0, #-2147483648	; 0x80000000
     c68:	000004a8 	andeq	r0, r0, r8, lsr #9
     c6c:	c1012802 	tstgt	r1, r2, lsl #16
     c70:	00000092 	muleq	r0, r2, r0
     c74:	14149102 	ldrne	r9, [r4], #-258	; 0xfffffefe
     c78:	00667562 	rsbeq	r7, r6, r2, ror #10
     c7c:	08012a02 	stmdaeq	r1, {r1, r9, fp, sp}
     c80:	000006e2 	andeq	r0, r0, r2, ror #13
     c84:	14489102 	strbne	r9, [r8], #-258	; 0xfffffefe
     c88:	006e656c 	rsbeq	r6, lr, ip, ror #10
     c8c:	0a012b02 	beq	4b89c <STACK_SIZE+0x4918c>
     c90:	00000135 	andeq	r0, r0, r5, lsr r1
     c94:	1a6c9102 	bne	1b250a4 <STACK_SIZE+0x1b22994>
     c98:	20000a08 	andcs	r0, r0, r8, lsl #20
     c9c:	00000060 	andeq	r0, r0, r0, rrx
     ca0:	0004e915 	andeq	lr, r4, r5, lsl r9
     ca4:	01350200 	teqeq	r5, r0, lsl #4
     ca8:	00018012 	andeq	r8, r1, r2, lsl r0
     cac:	6b910200 	blvs	fe4414b4 <__bss_end__+0xde432094>
     cb0:	01020000 	mrseq	r0, (UNDEF: 2)
     cb4:	0004d602 	andeq	sp, r4, r2, lsl #12
     cb8:	01791600 	cmneq	r9, r0, lsl #12
     cbc:	06f20000 	ldrbteq	r0, [r2], r0
     cc0:	92170000 	andsls	r0, r7, #0, 0
     cc4:	1f000000 	svcne	0x00000000
     cc8:	04741b00 	ldrbteq	r1, [r4], #-2816	; 0xfffff500
     ccc:	f2020000 	vhadd.s8	d0, d2, d0
     cd0:	0001350f 	andeq	r3, r1, pc, lsl #10
     cd4:	00082c00 	andeq	r2, r8, r0, lsl #24
     cd8:	0001ac20 	andeq	sl, r1, r0, lsr #24
     cdc:	b29c0100 	addslt	r0, ip, #0
     ce0:	1c000007 	stcne	0, cr0, [r0], {7}
     ce4:	0074756f 	rsbseq	r7, r4, pc, ror #10
     ce8:	4d29f202 	sfmmi	f7, 1, [r9, #-8]!
     cec:	02000001 	andeq	r0, r0, #1, 0
     cf0:	ee1d6c91 	mrc	12, 0, r6, cr13, cr1, {4}
     cf4:	02000003 	andeq	r0, r0, #3, 0
     cf8:	02ad34f2 	adceq	r3, sp, #-234881024	; 0xf2000000
     cfc:	91020000 	mrsls	r0, (UNDEF: 2)
     d00:	64691c68 	strbtvs	r1, [r9], #-3176	; 0xfffff398
     d04:	f2020078 	vqadd.s8	q0, q1, q12
     d08:	00013543 	andeq	r3, r1, r3, asr #10
     d0c:	64910200 	ldrvs	r0, [r1], #512	; 0x200
     d10:	0004be1d 	andeq	fp, r4, sp, lsl lr
     d14:	4ff20200 	svcmi	0x00f20200
     d18:	00000135 	andeq	r0, r0, r5, lsr r1
     d1c:	1c609102 	stfnep	f1, [r0], #-8
     d20:	00667562 	rsbeq	r7, r6, r2, ror #10
     d24:	ad5df202 	lfmge	f7, 3, [sp, #-8]
     d28:	02000002 	andeq	r0, r0, #2, 0
     d2c:	6c1c0091 	ldcvs	0, cr0, [ip], {145}	; 0x91
     d30:	02006e65 	andeq	r6, r0, #1616	; 0x650
     d34:	013569f2 	teqeq	r5, r2	; <illegal shifter operand>
     d38:	91020000 	mrsls	r0, (UNDEF: 2)
     d3c:	045c1d04 	ldrbeq	r1, [ip], #-3332	; 0xfffff2fc
     d40:	f2020000 	vhadd.s8	d0, d2, d0
     d44:	0006db73 	andeq	sp, r6, r3, ror fp
     d48:	08910200 	ldmeq	r1, {r9}
     d4c:	0005411d 	andeq	r4, r5, sp, lsl r1
     d50:	8af20200 	bhi	ffc81558 <__bss_end__+0xdfc72138>
     d54:	00000092 	muleq	r0, r2, r0
     d58:	1d0c9102 	stfned	f1, [ip, #-8]
     d5c:	0000052d 	andeq	r0, r0, sp, lsr #10
     d60:	929df202 	addsls	pc, sp, #536870912	; 0x20000000
     d64:	02000000 	andeq	r0, r0, #0, 0
     d68:	4c1d1091 	ldcmi	0, cr1, [sp], {145}	; 0x91
     d6c:	02000004 	andeq	r0, r0, #4, 0
     d70:	0092b0f2 	ldrsheq	fp, [r2], r2
     d74:	91020000 	mrsls	r0, (UNDEF: 2)
     d78:	04a81d14 	strteq	r1, [r8], #3348	; 0xd14
     d7c:	f2020000 	vhadd.s8	d0, d2, d0
     d80:	000092c4 	andeq	r9, r0, r4, asr #5
     d84:	18910200 	ldmne	r1, {r9}
     d88:	05041b00 	streq	r1, [r4, #-2816]	; 0xfffff500
     d8c:	d6020000 	strle	r0, [r2], -r0
     d90:	0001350f 	andeq	r3, r1, pc, lsl #10
     d94:	00079200 	andeq	r9, r7, r0, lsl #4
     d98:	00009a20 	andeq	r9, r0, r0, lsr #20
     d9c:	6b9c0100 	blvs	fe7011a4 <__bss_end__+0xde6f1d84>
     da0:	1c000008 	stcne	0, cr0, [r0], {8}
     da4:	0074756f 	rsbseq	r7, r4, pc, ror #10
     da8:	4d25d602 	stcmi	6, cr13, [r5, #-8]!
     dac:	02000001 	andeq	r0, r0, #1, 0
     db0:	ee1d6491 	cfcmps	r6, mvf13, mvf1
     db4:	02000003 	andeq	r0, r0, #3, 0
     db8:	02ad30d6 	adceq	r3, sp, #214, 0	; 0xd6
     dbc:	91020000 	mrsls	r0, (UNDEF: 2)
     dc0:	64691c60 	strbtvs	r1, [r9], #-3168	; 0xfffff3a0
     dc4:	d6020078 			; <UNDEFINED> instruction: 0xd6020078
     dc8:	0001353f 	andeq	r3, r1, pc, lsr r5
     dcc:	5c910200 	lfmpl	f0, 4, [r1], {0}
     dd0:	0004be1d 	andeq	fp, r4, sp, lsl lr
     dd4:	4bd60200 	blmi	ff5815dc <__bss_end__+0xdf5721bc>
     dd8:	00000135 	andeq	r0, r0, r5, lsr r1
     ddc:	1c589102 	ldfnep	f1, [r8], {2}
     de0:	00667562 	rsbeq	r7, r6, r2, ror #10
     de4:	4c5fd602 	mrrcmi	6, 0, sp, pc, cr2	; <UNPREDICTABLE>
     de8:	02000002 	andeq	r0, r0, #2, 0
     dec:	6c1c0091 	ldcvs	0, cr0, [ip], {145}	; 0x91
     df0:	02006e65 	andeq	r6, r0, #1616	; 0x650
     df4:	01356bd6 	teqeq	r5, r6	; <illegal shifter operand>
     df8:	91020000 	mrsls	r0, (UNDEF: 2)
     dfc:	044c1d04 	strbeq	r1, [ip], #-3332	; 0xfffff2fc
     e00:	d6020000 	strle	r0, [r2], -r0
     e04:	0000927d 	andeq	r9, r0, sp, ror r2
     e08:	08910200 	ldmeq	r1, {r9}
     e0c:	0004a81d 	andeq	sl, r4, sp, lsl r8
     e10:	91d60200 	bicsls	r0, r6, r0, lsl #4
     e14:	00000092 	muleq	r0, r2, r0
     e18:	1e0c9102 	mvfnee	f1, f2
     e1c:	00000435 	andeq	r0, r0, r5, lsr r4
     e20:	4110d802 	tstmi	r0, r2, lsl #16
     e24:	02000001 	andeq	r0, r0, #1, 0
     e28:	b41a6891 	ldrlt	r6, [sl], #-2193	; 0xfffff76f
     e2c:	24200007 	strtcs	r0, [r0], #-7
     e30:	1f000000 	svcne	0x00000000
     e34:	dc020069 	stcle	0, cr0, [r2], {105}	; 0x69
     e38:	00013511 	andeq	r3, r1, r1, lsl r5
     e3c:	6c910200 	lfmvs	f0, 4, [r1], {0}
     e40:	c51b0000 	ldrgt	r0, [fp, #-0]
     e44:	02000004 	andeq	r0, r0, #4, 0
     e48:	009215cb 	addseq	r1, r2, fp, asr #11
     e4c:	074c0000 	strbeq	r0, [ip, -r0]
     e50:	00462000 	subeq	r2, r6, r0
     e54:	9c010000 	stcls	0, cr0, [r1], {-0}
     e58:	000008a2 	andeq	r0, r0, r2, lsr #17
     e5c:	7274731c 	rsbsvc	r7, r4, #28, 6	; 0x70000000
     e60:	28cb0200 	stmiacs	fp, {r9}^
     e64:	000008a2 	andeq	r0, r0, r2, lsr #17
     e68:	1f6c9102 	svcne	0x006c9102
     e6c:	cd020069 	stcgt	0, cr0, [r2, #-420]	; 0xfffffe5c
     e70:	00009210 	andeq	r9, r0, r0, lsl r2
     e74:	74910200 	ldrvc	r0, [r1], #512	; 0x200
     e78:	4c040d00 	stcmi	13, cr0, [r4], {-0}
     e7c:	20000002 	andcs	r0, r0, r2
     e80:	000004e5 	andeq	r0, r0, r5, ror #9
     e84:	db14c402 	blle	531e94 <STACK_SIZE+0x52f784>
     e88:	1a000006 	bne	ea8 <STACK_SIZE-0x1868>
     e8c:	32200007 	eorcc	r0, r0, #7, 0
     e90:	01000000 	mrseq	r0, (UNDEF: 0)
     e94:	0008d19c 	muleq	r8, ip, r1
     e98:	68631c00 	stmdavs	r3!, {sl, fp, ip}^
     e9c:	23c40200 	biccs	r0, r4, #0, 4
     ea0:	00000179 	andeq	r0, r0, r9, ror r1
     ea4:	00779102 	rsbseq	r9, r7, r2, lsl #2
     ea8:	0004cb20 	andeq	ip, r4, r0, lsr #22
     eac:	1cba0200 	lfmne	f0, 4, [sl]
     eb0:	00000092 	muleq	r0, r2, r0
     eb4:	200006e4 	andcs	r0, r0, r4, ror #13
     eb8:	00000036 	andeq	r0, r0, r6, lsr r0
     ebc:	09179c01 	ldmdbeq	r7, {r0, sl, fp, ip, pc}
     ec0:	731c0000 	tstvc	ip, #0, 0
     ec4:	02007274 	andeq	r7, r0, #116, 4	; 0x40000007
     ec8:	024c33ba 	subeq	r3, ip, #-402653182	; 0xe8000002
     ecc:	91020000 	mrsls	r0, (UNDEF: 2)
     ed0:	040f1d6c 	streq	r1, [pc], #-3436	; ed8 <STACK_SIZE-0x1838>
     ed4:	ba020000 	blt	80edc <STACK_SIZE+0x7e7cc>
     ed8:	0001353f 	andeq	r3, r1, pc, lsr r5
     edc:	68910200 	ldmvs	r1, {r9}
     ee0:	0200731f 	andeq	r7, r0, #2080374784	; 0x7c000000
     ee4:	024c0fbc 	subeq	r0, ip, #188, 30	; 0x2f0
     ee8:	91020000 	mrsls	r0, (UNDEF: 2)
     eec:	22210074 	eorcs	r0, r1, #116, 0	; 0x74
     ef0:	02000004 	andeq	r0, r0, #4, 0
     ef4:	06ae14ae 	strteq	r1, [lr], lr, lsr #9
     ef8:	00362000 	eorseq	r2, r6, r0
     efc:	9c010000 	stcls	0, cr0, [r1], {-0}
     f00:	0000096a 	andeq	r0, r0, sl, ror #18
     f04:	0004fa1d 	andeq	pc, r4, sp, lsl sl	; <UNPREDICTABLE>
     f08:	22ae0200 	adccs	r0, lr, #0, 4
     f0c:	00000179 	andeq	r0, r0, r9, ror r1
     f10:	1d779102 	ldfnep	f1, [r7, #-8]!
     f14:	000003ee 	andeq	r0, r0, lr, ror #7
     f18:	2733ae02 	ldrcs	sl, [r3, -r2, lsl #28]!
     f1c:	02000001 	andeq	r0, r0, #1, 0
     f20:	691c7091 	ldmdbvs	ip, {r0, r4, r7, ip, sp, lr}
     f24:	02007864 	andeq	r7, r0, #100, 16	; 0x640000
     f28:	013542ae 	teqeq	r5, lr, lsr #5
     f2c:	91020000 	mrsls	r0, (UNDEF: 2)
     f30:	04be1d6c 	ldrteq	r1, [lr], #3436	; 0xd6c
     f34:	ae020000 	cdpge	0, 0, cr0, cr2, cr0, {0}
     f38:	0001354e 	andeq	r3, r1, lr, asr #10
     f3c:	68910200 	ldmvs	r1, {r9}
     f40:	04052100 	streq	r2, [r5], #-256	; 0xffffff00
     f44:	a4020000 	strge	r0, [r2], #-0
     f48:	00067e14 	andeq	r7, r6, r4, lsl lr
     f4c:	00003020 	andeq	r3, r0, r0, lsr #32
     f50:	bd9c0100 	ldflts	f0, [ip]
     f54:	1d000009 	stcne	0, cr0, [r0, #-36]	; 0xffffffdc
     f58:	000004fa 	strdeq	r0, [r0], -sl
     f5c:	7923a402 	stmdbvc	r3!, {r1, sl, sp, pc}
     f60:	02000001 	andeq	r0, r0, #1, 0
     f64:	ee1d7791 	mrc	7, 0, r7, cr13, cr1, {4}
     f68:	02000003 	andeq	r0, r0, #3, 0
     f6c:	012734a4 			; <UNDEFINED> instruction: 0x012734a4
     f70:	91020000 	mrsls	r0, (UNDEF: 2)
     f74:	64691c70 	strbtvs	r1, [r9], #-3184	; 0xfffff390
     f78:	a4020078 	strge	r0, [r2], #-120	; 0xffffff88
     f7c:	00013543 	andeq	r3, r1, r3, asr #10
     f80:	6c910200 	lfmvs	f0, 4, [r1], {0}
     f84:	0004be1d 	andeq	fp, r4, sp, lsl lr
     f88:	4fa40200 	svcmi	0x00a40200
     f8c:	00000135 	andeq	r0, r0, r5, lsr r1
     f90:	00689102 	rsbeq	r9, r8, r2, lsl #2
     f94:	00048122 	andeq	r8, r4, r2, lsr #2
     f98:	149d0200 	ldrne	r0, [sp], #512	; 0x200
     f9c:	20000662 	andcs	r0, r0, r2, ror #12
     fa0:	0000001c 	andeq	r0, r0, ip, lsl r0
     fa4:	0a109c01 	beq	427fb0 <STACK_SIZE+0x4258a0>
     fa8:	fa1d0000 	blx	740fb0 <STACK_SIZE+0x73e8a0>
     fac:	02000004 	andeq	r0, r0, #4, 0
     fb0:	0179239d 			; <UNDEFINED> instruction: 0x0179239d
     fb4:	91020000 	mrsls	r0, (UNDEF: 2)
     fb8:	03ee1d77 	mvneq	r1, #7616	; 0x1dc0
     fbc:	9d020000 	stcls	0, cr0, [r2, #-0]
     fc0:	00012734 	andeq	r2, r1, r4, lsr r7
     fc4:	70910200 	addsvc	r0, r1, r0, lsl #4
     fc8:	7864691c 	stmdavc	r4!, {r2, r3, r4, r8, fp, sp, lr}^
     fcc:	439d0200 	orrsmi	r0, sp, #0, 4
     fd0:	00000135 	andeq	r0, r0, r5, lsr r1
     fd4:	1d6c9102 	stfnep	f1, [ip, #-8]!
     fd8:	000004be 			; <UNDEFINED> instruction: 0x000004be
     fdc:	354f9d02 	strbcc	r9, [pc, #-3330]	; 2e2 <STACK_SIZE-0x242e>
     fe0:	02000001 	andeq	r0, r0, #1, 0
     fe4:	22006891 	andcs	r6, r0, #9502720	; 0x910000
     fe8:	000003e9 	andeq	r0, r0, r9, ror #7
     fec:	32149402 	andscc	r9, r4, #33554432	; 0x2000000
     ff0:	30200006 	eorcc	r0, r0, r6
     ff4:	01000000 	mrseq	r0, (UNDEF: 0)
     ff8:	000a639c 	muleq	sl, ip, r3
     ffc:	04fa1d00 	ldrbteq	r1, [sl], #3328	; 0xd00
    1000:	94020000 	strls	r0, [r2], #-0
    1004:	00017925 	andeq	r7, r1, r5, lsr #18
    1008:	77910200 	ldrvc	r0, [r1, r0, lsl #4]
    100c:	0003ee1d 	andeq	lr, r3, sp, lsl lr
    1010:	36940200 	ldrcc	r0, [r4], r0, lsl #4
    1014:	00000127 	andeq	r0, r0, r7, lsr #2
    1018:	1c709102 	ldfnep	f1, [r0], #-8
    101c:	00786469 	rsbseq	r6, r8, r9, ror #8
    1020:	35459402 	strbcc	r9, [r5, #-1026]	; 0xfffffbfe
    1024:	02000001 	andeq	r0, r0, #1, 0
    1028:	be1d6c91 	mrclt	12, 0, r6, cr13, cr1, {4}
    102c:	02000004 	andeq	r0, r0, #4, 0
    1030:	01355194 	teqeq	r5, r4	; <illegal shifter operand>
    1034:	91020000 	mrsls	r0, (UNDEF: 2)
    1038:	12230068 	eorne	r0, r3, #104, 0	; 0x68
    103c:	02000005 	andeq	r0, r0, #5, 0
    1040:	0614067e 			; <UNDEFINED> instruction: 0x0614067e
    1044:	001e2000 	andseq	r2, lr, r0
    1048:	9c010000 	stcls	0, cr0, [r1], {-0}
    104c:	00000a89 	andeq	r0, r0, r9, lsl #21
    1050:	0004fa1d 	andeq	pc, r4, sp, lsl sl	; <UNPREDICTABLE>
    1054:	147e0200 	ldrbtne	r0, [lr], #-512	; 0xfffffe00
    1058:	00000179 	andeq	r0, r0, r9, ror r1
    105c:	00779102 	rsbseq	r9, r7, r2, lsl #2
    1060:	0004171b 	andeq	r1, r4, fp, lsl r7
    1064:	174c0100 	strbne	r0, [ip, -r0, lsl #2]
    1068:	00000033 	andeq	r0, r0, r3, lsr r0
    106c:	200005de 	ldrdcs	r0, [r0], -lr
    1070:	00000036 	andeq	r0, r0, r6, lsr r0
    1074:	0acd9c01 	beq	ff368080 <__bss_end__+0xdf358c60>
    1078:	611c0000 	tstvs	ip, r0
    107c:	244c0100 	strbcs	r0, [ip], #-256	; 0xffffff00
    1080:	00000033 	andeq	r0, r0, r3, lsr r0
    1084:	1c6c9102 	stfnep	f1, [ip], #-8
    1088:	4c010062 	stcmi	0, cr0, [r1], {98}	; 0x62
    108c:	0000332f 	andeq	r3, r0, pc, lsr #6
    1090:	68910200 	ldmvs	r1, {r9}
    1094:	6c756d1f 	ldclvs	13, cr6, [r5], #-124	; 0xffffff84
    1098:	0b4e0100 	bleq	13814a0 <STACK_SIZE+0x137ed90>
    109c:	00000033 	andeq	r0, r0, r3, lsr r0
    10a0:	00749102 	rsbseq	r9, r4, r2, lsl #2
    10a4:	00050d1b 	andeq	r0, r5, fp, lsl sp
    10a8:	13420100 	movtne	r0, #8448	; 0x2100
    10ac:	00000086 	andeq	r0, r0, r6, lsl #1
    10b0:	20000582 	andcs	r0, r0, r2, lsl #11
    10b4:	0000005c 	andeq	r0, r0, ip, asr r0
    10b8:	0b119c01 	bleq	4680c4 <STACK_SIZE+0x4659b4>
    10bc:	611c0000 	tstvs	ip, r0
    10c0:	20420100 	subcs	r0, r2, r0, lsl #2
    10c4:	00000033 	andeq	r0, r0, r3, lsr r0
    10c8:	1c649102 	stfnep	f1, [r4], #-8
    10cc:	42010062 	andmi	r0, r1, #98, 0	; 0x62
    10d0:	0000332b 	andeq	r3, r0, fp, lsr #6
    10d4:	60910200 	addsvs	r0, r1, r0, lsl #4
    10d8:	0003d51e 	andeq	sp, r3, lr, lsl r5
    10dc:	0c440100 	stfeqe	f0, [r4], {-0}
    10e0:	00000060 	andeq	r0, r0, r0, rrx
    10e4:	006c9102 	rsbeq	r9, ip, r2, lsl #2
    10e8:	00048b1b 	andeq	r8, r4, fp, lsl fp
    10ec:	13390100 	teqne	r9, #0
    10f0:	00000086 	andeq	r0, r0, r6, lsl #1
    10f4:	2000055a 	andcs	r0, r0, sl, asr r5
    10f8:	00000028 	andeq	r0, r0, r8, lsr #32
    10fc:	0b469c01 	bleq	11a8108 <STACK_SIZE+0x11a59f8>
    1100:	611c0000 	tstvs	ip, r0
    1104:	21390100 	teqcs	r9, r0, lsl #2
    1108:	00000060 	andeq	r0, r0, r0, rrx
    110c:	1c6c9102 	stfnep	f1, [ip], #-8
    1110:	39010062 	stmdbcc	r1, {r1, r5, r6}
    1114:	0000602d 	andeq	r6, r0, sp, lsr #32
    1118:	68910200 	ldmvs	r1, {r9}
    111c:	05462000 	strbeq	r2, [r6, #-0]
    1120:	20010000 	andcs	r0, r1, r0
    1124:	00006018 	andeq	r6, r0, r8, lsl r0
    1128:	0004ec00 	andeq	lr, r4, r0, lsl #24
    112c:	00006e20 	andeq	r6, r0, r0, lsr #28
    1130:	bc9c0100 	ldflts	f0, [ip], {0}
    1134:	1c00000b 	stcne	0, cr0, [r0], {11}
    1138:	20010061 	andcs	r0, r1, r1, rrx
    113c:	00007327 	andeq	r7, r0, r7, lsr #6
    1140:	50910200 	addspl	r0, r1, r0, lsl #4
    1144:	0100621c 	tsteq	r0, ip, lsl r2
    1148:	00603320 	rsbeq	r3, r0, r0, lsr #6
    114c:	91020000 	mrsls	r0, (UNDEF: 2)
    1150:	00691f4c 	rsbeq	r1, r9, ip, asr #30
    1154:	86072101 	strhi	r2, [r7], -r1, lsl #2
    1158:	02000000 	andeq	r0, r0, #0, 0
    115c:	781f6c91 	ldmdavc	pc, {r0, r4, r7, sl, fp, sp, lr}	; <UNPREDICTABLE>
    1160:	0c240100 	stfeqs	f0, [r4], #-0
    1164:	00000060 	andeq	r0, r0, r0, rrx
    1168:	1f689102 	svcne	0x00689102
    116c:	25010079 	strcs	r0, [r1, #-121]	; 0xffffff87
    1170:	0000600c 	andeq	r6, r0, ip
    1174:	64910200 	ldrvs	r0, [r1], #512	; 0x200
    1178:	01007a1f 	tsteq	r0, pc, lsl sl
    117c:	00600c26 	rsbeq	r0, r0, r6, lsr #24
    1180:	91020000 	mrsls	r0, (UNDEF: 2)
    1184:	00741f60 	rsbseq	r1, r4, r0, ror #30
    1188:	600c2701 	andvs	r2, ip, r1, lsl #14
    118c:	02000000 	andeq	r0, r0, #0, 0
    1190:	24005c91 	strcs	r5, [r0], #-3217	; 0xfffff36f
    1194:	0000046f 	andeq	r0, r0, pc, ror #8
    1198:	92181001 	andsls	r1, r8, #1, 0
    119c:	d4000000 	strle	r0, [r0], #-0
    11a0:	18200004 	stmdane	r0!, {r2}
    11a4:	01000000 	mrseq	r0, (UNDEF: 0)
    11a8:	00781c9c 			; <UNDEFINED> instruction: 0x00781c9c
    11ac:	86211001 	strthi	r1, [r1], -r1
    11b0:	02000000 	andeq	r0, r0, #0, 0
    11b4:	00007491 	muleq	r0, r1, r4
    11b8:	000002ed 	andeq	r0, r0, sp, ror #5
    11bc:	04ff0004 	ldrbteq	r0, [pc], #4	; 11c4 <STACK_SIZE-0x154c>
    11c0:	01040000 	mrseq	r0, (UNDEF: 4)
    11c4:	000000b6 	strheq	r0, [r0], -r6
    11c8:	0005790c 	andeq	r7, r5, ip, lsl #18
    11cc:	00026600 	andeq	r6, r2, r0, lsl #12
    11d0:	00121800 	andseq	r1, r2, r0, lsl #16
    11d4:	00025a20 	andeq	r5, r2, r0, lsr #20
    11d8:	000b6500 	andeq	r6, fp, r0, lsl #10
    11dc:	06010200 	streq	r0, [r1], -r0, lsl #4
    11e0:	00000094 	muleq	r0, r4, r0
    11e4:	7e050202 	cdpvc	2, 0, cr0, cr5, cr2, {0}
    11e8:	02000001 	andeq	r0, r0, #1, 0
    11ec:	00050504 	andeq	r0, r5, r4, lsl #10
    11f0:	08020000 	stmdaeq	r2, {}	; <UNPREDICTABLE>
    11f4:	00000005 	andeq	r0, r0, r5
    11f8:	08010200 	stmdaeq	r1, {r9}
    11fc:	00000092 	muleq	r0, r2, r0
    1200:	53070202 	movwpl	r0, #29186	; 0x7202
    1204:	03000001 	movweq	r0, #1
    1208:	00000021 	andeq	r0, r0, r1, lsr #32
    120c:	5b193403 	blpl	64e220 <STACK_SIZE+0x64bb10>
    1210:	02000000 	andeq	r0, r0, #0, 0
    1214:	003e0704 	eorseq	r0, lr, r4, lsl #14
    1218:	f5030000 			; <UNDEFINED> instruction: 0xf5030000
    121c:	03000003 	movweq	r0, #3
    1220:	006e1937 	rsbeq	r1, lr, r7, lsr r9
    1224:	08020000 	stmdaeq	r2, {}	; <UNPREDICTABLE>
    1228:	00003907 	andeq	r3, r0, r7, lsl #18
    122c:	05040400 	streq	r0, [r4, #-1024]	; 0xfffffc00
    1230:	00746e69 	rsbseq	r6, r4, r9, ror #28
    1234:	43070402 	movwmi	r0, #29698	; 0x7402
    1238:	05000000 	streq	r0, [r0, #-0]
    123c:	00410107 	subeq	r0, r1, r7, lsl #2
    1240:	2a040000 	bcs	101248 <STACK_SIZE+0xfeb38>
    1244:	0000aa06 	andeq	sl, r0, r6, lsl #20
    1248:	02050600 	andeq	r0, r5, #0, 12
    124c:	06050000 	streq	r0, [r5], -r0
    1250:	000001d1 	ldrdeq	r0, [r0], -r1
    1254:	025a0618 	subseq	r0, sl, #24, 12	; 0x1800000
    1258:	06170000 	ldreq	r0, [r7], -r0
    125c:	0000024e 	andeq	r0, r0, lr, asr #4
    1260:	07050016 	smladeq	r5, r6, r0, r0
    1264:	00004101 	andeq	r4, r0, r1, lsl #2
    1268:	06390400 	ldrteq	r0, [r9], -r0, lsl #8
    126c:	000000c4 	andeq	r0, r0, r4, asr #1
    1270:	00058406 	andeq	r8, r5, r6, lsl #8
    1274:	46070500 	strmi	r0, [r7], -r0, lsl #10
    1278:	00020032 	andeq	r0, r2, r2, lsr r0
    127c:	41010705 	tstmi	r1, r5, lsl #14
    1280:	05000000 	streq	r0, [r0, #-0]
    1284:	00fd0608 	rscseq	r0, sp, r8, lsl #12
    1288:	dd060000 	stcle	0, cr0, [r6, #-0]
    128c:	00000005 	andeq	r0, r0, r5
    1290:	00056906 	andeq	r6, r5, r6, lsl #18
    1294:	4b060400 	blmi	18229c <STACK_SIZE+0x17fb8c>
    1298:	18000006 	stmdane	r0, {r1, r2}
    129c:	00058d06 	andeq	r8, r5, r6, lsl #26
    12a0:	3a062400 	bcc	18a2a8 <STACK_SIZE+0x187b98>
    12a4:	28000006 	stmdacs	r0, {r1, r2}
    12a8:	0005cd06 	andeq	ip, r5, r6, lsl #26
    12ac:	ae062c00 	cdpge	12, 0, cr2, cr6, cr0, {0}
    12b0:	30000005 	andcc	r0, r0, r5
    12b4:	05100800 	ldreq	r0, [r0, #-2048]	; 0xfffff800
    12b8:	01390912 	teqeq	r9, r2, lsl r9
    12bc:	74090000 	strvc	r0, [r9], #-0
    12c0:	13050078 	movwne	r0, #20600	; 0x5078
    12c4:	00004f0e 	andeq	r4, r0, lr, lsl #30
    12c8:	72090000 	andvc	r0, r9, #0, 0
    12cc:	13050078 	movwne	r0, #20600	; 0x5078
    12d0:	00004f11 	andeq	r4, r0, r1, lsl pc
    12d4:	a00a0400 	andge	r0, sl, r0, lsl #8
    12d8:	05000000 	streq	r0, [r0, #-0]
    12dc:	004f0e14 	subeq	r0, pc, r4, lsl lr	; <UNPREDICTABLE>
    12e0:	0a080000 	beq	2012e8 <STACK_SIZE+0x1febd8>
    12e4:	00000145 	andeq	r0, r0, r5, asr #2
    12e8:	4f0e1505 	svcmi	0x000e1505
    12ec:	0c000000 	stceq	0, cr0, [r0], {-0}
    12f0:	000e0300 	andeq	r0, lr, r0, lsl #6
    12f4:	16050000 	strne	r0, [r5], -r0
    12f8:	0000fd03 	andeq	pc, r0, r3, lsl #26
    12fc:	002a0b00 	eoreq	r0, sl, r0, lsl #22
    1300:	18050000 	stmdane	r5, {}	; <UNPREDICTABLE>
    1304:	0001390b 	andeq	r3, r1, fp, lsl #18
    1308:	00030500 	andeq	r0, r3, r0, lsl #10
    130c:	022000f4 	eoreq	r0, r0, #244, 0	; 0xf4
    1310:	01660408 	cmneq	r6, r8, lsl #8
    1314:	9e0c0000 	cdpls	0, 0, cr0, cr12, cr0, {0}
    1318:	02000005 	andeq	r0, r0, #5, 0
    131c:	00750540 	rsbseq	r0, r5, r0, asr #10
    1320:	14540000 	ldrbne	r0, [r4], #-0
    1324:	001e2000 	andseq	r2, lr, r0
    1328:	9c010000 	stcls	0, cr0, [r1], {-0}
    132c:	00060f0c 	andeq	r0, r6, ip, lsl #30
    1330:	053c0200 	ldreq	r0, [ip, #-512]!	; 0xfffffe00
    1334:	00000075 	andeq	r0, r0, r5, ror r0
    1338:	20001444 	andcs	r1, r0, r4, asr #8
    133c:	00000010 	andeq	r0, r0, r0, lsl r0
    1340:	b40d9c01 	strlt	r9, [sp], #-3073	; 0xfffff3ff
    1344:	02000006 	andeq	r0, r0, #6, 0
    1348:	14100634 	ldrne	r0, [r0], #-1588	; 0xfffff9cc
    134c:	00342000 	eorseq	r2, r4, r0
    1350:	9c010000 	stcls	0, cr0, [r1], {-0}
    1354:	000001ae 	andeq	r0, r0, lr, lsr #3
    1358:	0200630e 	andeq	r6, r0, #939524096	; 0x38000000
    135c:	00411e34 	subeq	r1, r1, r4, lsr lr
    1360:	91020000 	mrsls	r0, (UNDEF: 2)
    1364:	bf0c0077 	svclt	0x000c0077
    1368:	02000005 	andeq	r0, r0, #5, 0
    136c:	0075052e 	rsbseq	r0, r5, lr, lsr #10
    1370:	13e80000 	mvnne	r0, #0, 0
    1374:	00282000 	eoreq	r2, r8, r0
    1378:	9c010000 	stcls	0, cr0, [r1], {-0}
    137c:	0005ee0f 	andeq	lr, r5, pc, lsl #28
    1380:	05290200 	streq	r0, [r9, #-512]!	; 0xfffffe00
    1384:	00000075 	andeq	r0, r0, r5, ror r0
    1388:	200013dc 	ldrdcs	r1, [r0], -ip
    138c:	0000000c 	andeq	r0, r0, ip
    1390:	2c109c01 	ldccs	12, cr9, [r0], {1}
    1394:	02000006 	andeq	r0, r0, #6, 0
    1398:	00750c23 	rsbseq	r0, r5, r3, lsr #24
    139c:	13d00000 	bicsne	r0, r0, #0, 0
    13a0:	000c2000 	andeq	r2, ip, r0
    13a4:	9c010000 	stcls	0, cr0, [r1], {-0}
    13a8:	00055f0d 	andeq	r5, r5, sp, lsl #30
    13ac:	06080200 	streq	r0, [r8], -r0, lsl #4
    13b0:	200012ae 	andcs	r1, r0, lr, lsr #5
    13b4:	00000122 	andeq	r0, r0, r2, lsr #2
    13b8:	02439c01 	subeq	r9, r3, #256	; 0x100
    13bc:	79110000 	ldmdbvc	r1, {}	; <UNPREDICTABLE>
    13c0:	02000001 	andeq	r0, r0, #1, 0
    13c4:	02431b08 	subeq	r1, r3, #8, 22	; 0x2000
    13c8:	91020000 	mrsls	r0, (UNDEF: 2)
    13cc:	05fd1264 	ldrbeq	r1, [sp, #612]!	; 0x264
    13d0:	10020000 	andne	r0, r2, r0
    13d4:	00004f0e 	andeq	r4, r0, lr, lsl #30
    13d8:	74910200 	ldrvc	r0, [r1], #512	; 0x200
    13dc:	00061d12 	andeq	r1, r6, r2, lsl sp
    13e0:	0e120200 	cdpeq	2, 1, cr0, cr2, cr0, {0}
    13e4:	0000004f 	andeq	r0, r0, pc, asr #32
    13e8:	12709102 	rsbsne	r9, r0, #-2147483648	; 0x80000000
    13ec:	000005f8 	strdeq	r0, [r0], -r8
    13f0:	4f0e1302 	svcmi	0x000e1302
    13f4:	02000000 	andeq	r0, r0, #0, 0
    13f8:	13006c91 	movwne	r6, #3217	; 0xc91
    13fc:	00013904 	andeq	r3, r1, r4, lsl #18
    1400:	048b1400 	streq	r1, [fp], #1024	; 0x400
    1404:	39010000 	stmdbcc	r1, {}	; <UNPREDICTABLE>
    1408:	00007513 	andeq	r7, r0, r3, lsl r5
    140c:	00128600 	andseq	r8, r2, r0, lsl #12
    1410:	00002820 	andeq	r2, r0, r0, lsr #16
    1414:	7e9c0100 	fmlvce	f0, f4, f0
    1418:	0e000002 	cdpeq	0, 0, cr0, cr0, cr2, {0}
    141c:	39010061 	stmdbcc	r1, {r0, r5, r6}
    1420:	00004f21 	andeq	r4, r0, r1, lsr #30
    1424:	6c910200 	lfmvs	f0, 4, [r1], {0}
    1428:	0100620e 	tsteq	r0, lr, lsl #4
    142c:	004f2d39 	subeq	r2, pc, r9, lsr sp	; <UNPREDICTABLE>
    1430:	91020000 	mrsls	r0, (UNDEF: 2)
    1434:	46150068 	ldrmi	r0, [r5], -r8, rrx
    1438:	01000005 	tsteq	r0, r5
    143c:	004f1820 	subeq	r1, pc, r0, lsr #16
    1440:	12180000 	andsne	r0, r8, #0, 0
    1444:	006e2000 	rsbeq	r2, lr, r0
    1448:	9c010000 	stcls	0, cr0, [r1], {-0}
    144c:	0100610e 	tsteq	r0, lr, lsl #2
    1450:	00622720 	rsbeq	r2, r2, r0, lsr #14
    1454:	91020000 	mrsls	r0, (UNDEF: 2)
    1458:	00620e50 	rsbeq	r0, r2, r0, asr lr
    145c:	4f332001 	svcmi	0x00332001
    1460:	02000000 	andeq	r0, r0, #0, 0
    1464:	69164c91 	ldmdbvs	r6, {r0, r4, r7, sl, fp, lr}
    1468:	07210100 	streq	r0, [r1, -r0, lsl #2]!
    146c:	00000075 	andeq	r0, r0, r5, ror r0
    1470:	166c9102 	strbtne	r9, [ip], -r2, lsl #2
    1474:	24010078 	strcs	r0, [r1], #-120	; 0xffffff88
    1478:	00004f0c 	andeq	r4, r0, ip, lsl #30
    147c:	68910200 	ldmvs	r1, {r9}
    1480:	01007916 	tsteq	r0, r6, lsl r9
    1484:	004f0c25 	subeq	r0, pc, r5, lsr #24
    1488:	91020000 	mrsls	r0, (UNDEF: 2)
    148c:	007a1664 	rsbseq	r1, sl, r4, ror #12
    1490:	4f0c2601 	svcmi	0x000c2601
    1494:	02000000 	andeq	r0, r0, #0, 0
    1498:	74166091 	ldrvc	r6, [r6], #-145	; 0xffffff6f
    149c:	0c270100 	stfeqs	f0, [r7], #-0
    14a0:	0000004f 	andeq	r0, r0, pc, asr #32
    14a4:	005c9102 	subseq	r9, ip, r2, lsl #2
    14a8:	00001e00 	andeq	r1, r0, r0, lsl #28
    14ac:	92000200 	andls	r0, r0, #0, 4
    14b0:	04000006 	streq	r0, [r0], #-6
    14b4:	000d5401 	andeq	r5, sp, r1, lsl #8
    14b8:	00000000 	andeq	r0, r0, r0
    14bc:	00065a00 	andeq	r5, r6, r0, lsl #20
    14c0:	00026600 	andeq	r6, r2, r0, lsl #12
    14c4:	00066200 	andeq	r6, r6, r0, lsl #4
    14c8:	80800100 	addhi	r0, r0, r0, lsl #2
    14cc:	04000001 	streq	r0, [r0], #-1
    14d0:	0006a400 	andeq	sl, r6, r0, lsl #8
    14d4:	b6010400 	strlt	r0, [r1], -r0, lsl #8
    14d8:	0c000000 	stceq	0, cr0, [r0], {-0}
    14dc:	0000068a 	andeq	r0, r0, sl, lsl #13
    14e0:	00000266 	andeq	r0, r0, r6, ror #4
    14e4:	20001474 	andcs	r1, r0, r4, ror r4
    14e8:	00000058 	andeq	r0, r0, r8, asr r0
    14ec:	00000dd5 	ldrdeq	r0, [r0], -r5
    14f0:	94060102 	strls	r0, [r6], #-258	; 0xfffffefe
    14f4:	02000000 	andeq	r0, r0, #0, 0
    14f8:	017e0502 	cmneq	lr, r2, lsl #10
    14fc:	04020000 	streq	r0, [r2], #-0
    1500:	00000505 	andeq	r0, r0, r5, lsl #10
    1504:	05080200 	streq	r0, [r8, #-512]	; 0xfffffe00
    1508:	00000000 	andeq	r0, r0, r0
    150c:	92080102 	andls	r0, r8, #-2147483648	; 0x80000000
    1510:	02000000 	andeq	r0, r0, #0, 0
    1514:	01530702 	cmpeq	r3, r2, lsl #14
    1518:	21030000 	mrscs	r0, (UNDEF: 3)
    151c:	03000000 	movweq	r0, #0
    1520:	005b1934 	subseq	r1, fp, r4, lsr r9
    1524:	04020000 	streq	r0, [r2], #-0
    1528:	00003e07 	andeq	r3, r0, r7, lsl #28
    152c:	07080200 	streq	r0, [r8, -r0, lsl #4]
    1530:	00000039 	andeq	r0, r0, r9, lsr r0
    1534:	69050404 	stmdbvs	r5, {r2, sl}
    1538:	0200746e 	andeq	r7, r0, #1845493760	; 0x6e000000
    153c:	00430704 	subeq	r0, r3, r4, lsl #14
    1540:	07050000 	streq	r0, [r5, -r0]
    1544:	00007004 	andeq	r7, r0, r4
    1548:	061e0500 	ldreq	r0, [lr], -r0, lsl #10
    154c:	0000008f 	andeq	r0, r0, pc, lsl #1
    1550:	0003c706 	andeq	ip, r3, r6, lsl #14
    1554:	00804800 	addeq	r4, r0, r0, lsl #16
    1558:	10070040 	andne	r0, r7, r0, asr #32
    155c:	cb090c02 	blgt	24456c <STACK_SIZE+0x241e5c>
    1560:	08000000 	stmdaeq	r0, {}	; <UNPREDICTABLE>
    1564:	02007874 	andeq	r7, r0, #116, 16	; 0x740000
    1568:	0069090d 	rsbeq	r0, r9, sp, lsl #18
    156c:	08000000 	stmdaeq	r0, {}	; <UNPREDICTABLE>
    1570:	02007872 	andeq	r7, r0, #7471104	; 0x720000
    1574:	00690c0d 	rsbeq	r0, r9, sp, lsl #24
    1578:	09040000 	stmdbeq	r4, {}	; <UNPREDICTABLE>
    157c:	000000b1 	strheq	r0, [r0], -r1
    1580:	700e0e02 	andvc	r0, lr, r2, lsl #28
    1584:	08000000 	stmdaeq	r0, {}	; <UNPREDICTABLE>
    1588:	00018809 	andeq	r8, r1, r9, lsl #16
    158c:	0e0f0200 	cdpeq	2, 0, cr0, cr15, cr0, {0}
    1590:	00000070 	andeq	r0, r0, r0, ror r0
    1594:	9503000c 	strls	r0, [r3, #-12]
    1598:	02000001 	andeq	r0, r0, #1, 0
    159c:	008f0310 	addeq	r0, pc, r0, lsl r3	; <UNPREDICTABLE>
    15a0:	720a0000 	andvc	r0, sl, #0, 0
    15a4:	02000001 	andeq	r0, r0, #1, 0
    15a8:	00cb0b12 	sbceq	r0, fp, r2, lsl fp
    15ac:	03050000 	movweq	r0, #20480	; 0x5000
    15b0:	2000f410 	andcs	pc, r0, r0, lsl r4	; <UNPREDICTABLE>
    15b4:	66040802 	strvs	r0, [r4], -r2, lsl #16
    15b8:	07000001 	streq	r0, [r0, -r1]
    15bc:	09120410 	ldmdbeq	r2, {r4, sl}
    15c0:	0000012c 	andeq	r0, r0, ip, lsr #2
    15c4:	00787408 	rsbseq	r7, r8, r8, lsl #8
    15c8:	4f0e1304 	svcmi	0x000e1304
    15cc:	00000000 	andeq	r0, r0, r0
    15d0:	00787208 	rsbseq	r7, r8, r8, lsl #4
    15d4:	4f111304 	svcmi	0x00111304
    15d8:	04000000 	streq	r0, [r0], #-0
    15dc:	0000a009 	andeq	sl, r0, r9
    15e0:	0e140400 	cfmulseq	mvf0, mvf4, mvf0
    15e4:	0000004f 	andeq	r0, r0, pc, asr #32
    15e8:	01450908 	cmpeq	r5, r8, lsl #18
    15ec:	15040000 	strne	r0, [r4, #-0]
    15f0:	00004f0e 	andeq	r4, r0, lr, lsl #30
    15f4:	03000c00 	movweq	r0, #3072	; 0xc00
    15f8:	0000000e 	andeq	r0, r0, lr
    15fc:	f0031604 			; <UNDEFINED> instruction: 0xf0031604
    1600:	0a000000 	beq	1608 <STACK_SIZE-0x1108>
    1604:	0000002a 	andeq	r0, r0, sl, lsr #32
    1608:	2c0b1804 	stccs	8, cr1, [fp], {4}
    160c:	05000001 	streq	r0, [r0, #-1]
    1610:	00f40003 	rscseq	r0, r4, r3
    1614:	06970b20 	ldreq	r0, [r7], r0, lsr #22
    1618:	09010000 	stmdbeq	r1, {}	; <UNPREDICTABLE>
    161c:	00147406 	andseq	r7, r4, r6, lsl #8
    1620:	00005820 	andeq	r5, r0, r0, lsr #16
    1624:	0c9c0100 	ldfeqs	f0, [ip], {0}
    1628:	00000670 	andeq	r0, r0, r0, ror r6
    162c:	4f151601 	svcmi	0x00151601
    1630:	0c000000 	stceq	0, cr0, [r0], {-0}
    1634:	0000067e 	andeq	r0, r0, lr, ror r6
    1638:	4f231601 	svcmi	0x00231601
    163c:	0d000000 	stceq	0, cr0, [r0, #-0]
    1640:	000000aa 	andeq	r0, r0, sl, lsr #1
    1644:	69051f01 	stmdbvs	r5, {r0, r8, r9, sl, fp, ip}
    1648:	0e000000 	cdpeq	0, 0, cr0, cr0, cr0, {0}
    164c:	c4000000 	strgt	r0, [r0], #-0
    1650:	04000001 	streq	r0, [r0], #-1
    1654:	00078000 	andeq	r8, r7, r0
    1658:	b6010400 	strlt	r0, [r1], -r0, lsl #8
    165c:	0c000000 	stceq	0, cr0, [r0], {-0}
    1660:	000006a3 	andeq	r0, r0, r3, lsr #13
    1664:	00000266 	andeq	r0, r0, r6, ror #4
    1668:	200014cc 	andcs	r1, r0, ip, asr #9
    166c:	00000110 	andeq	r0, r0, r0, lsl r1
    1670:	00000ebd 			; <UNDEFINED> instruction: 0x00000ebd
    1674:	94060102 	strls	r0, [r6], #-258	; 0xfffffefe
    1678:	02000000 	andeq	r0, r0, #0, 0
    167c:	017e0502 	cmneq	lr, r2, lsl #10
    1680:	04020000 	streq	r0, [r2], #-0
    1684:	00000505 	andeq	r0, r0, r5, lsl #10
    1688:	05080200 	streq	r0, [r8, #-512]	; 0xfffffe00
    168c:	00000000 	andeq	r0, r0, r0
    1690:	92080102 	andls	r0, r8, #-2147483648	; 0x80000000
    1694:	02000000 	andeq	r0, r0, #0, 0
    1698:	01530702 	cmpeq	r3, r2, lsl #14
    169c:	04020000 	streq	r0, [r2], #-0
    16a0:	00003e07 	andeq	r3, r0, r7, lsl #28
    16a4:	07080200 	streq	r0, [r8, -r0, lsl #4]
    16a8:	00000039 	andeq	r0, r0, r9, lsr r0
    16ac:	69050403 	stmdbvs	r5, {r0, r1, sl}
    16b0:	0200746e 	andeq	r7, r0, #1845493760	; 0x6e000000
    16b4:	00430704 	subeq	r0, r3, r4, lsl #14
    16b8:	10040000 	andne	r0, r4, r0
    16bc:	a7090c02 	strge	r0, [r9, -r2, lsl #24]
    16c0:	05000000 	streq	r0, [r0, #-0]
    16c4:	02007874 	andeq	r7, r0, #116, 16	; 0x740000
    16c8:	005d090d 	subseq	r0, sp, sp, lsl #18
    16cc:	05000000 	streq	r0, [r0, #-0]
    16d0:	02007872 	andeq	r7, r0, #7471104	; 0x720000
    16d4:	005d0c0d 	subseq	r0, sp, sp, lsl #24
    16d8:	06040000 	streq	r0, [r4], -r0
    16dc:	000000b1 	strheq	r0, [r0], -r1
    16e0:	640e0e02 	strvs	r0, [lr], #-3586	; 0xfffff1fe
    16e4:	08000000 	stmdaeq	r0, {}	; <UNPREDICTABLE>
    16e8:	00018806 	andeq	r8, r1, r6, lsl #16
    16ec:	0e0f0200 	cdpeq	2, 0, cr0, cr15, cr0, {0}
    16f0:	00000064 	andeq	r0, r0, r4, rrx
    16f4:	9507000c 	strls	r0, [r7, #-12]
    16f8:	02000001 	andeq	r0, r0, #1, 0
    16fc:	006b0310 	rsbeq	r0, fp, r0, lsl r3
    1700:	72080000 	andvc	r0, r8, #0, 0
    1704:	02000001 	andeq	r0, r0, #1, 0
    1708:	00a70b12 	adceq	r0, r7, r2, lsl fp
    170c:	03050000 	movweq	r0, #20480	; 0x5000
    1710:	2000f410 	andcs	pc, r0, r0, lsl r4	; <UNPREDICTABLE>
    1714:	0006ca09 	andeq	ip, r6, r9, lsl #20
    1718:	051b0100 	ldreq	r0, [fp, #-256]	; 0xffffff00
    171c:	0000005d 	andeq	r0, r0, sp, asr r0
    1720:	200015a4 	andcs	r1, r0, r4, lsr #11
    1724:	00000038 	andeq	r0, r0, r8, lsr r0
    1728:	dd0a9c01 	stcle	12, cr9, [sl, #-4]
    172c:	01000006 	tsteq	r0, r6
    1730:	15660615 	strbne	r0, [r6, #-1557]!	; 0xfffff9eb
    1734:	003e2000 	eorseq	r2, lr, r0
    1738:	9c010000 	stcls	0, cr0, [r1], {-0}
    173c:	00000127 	andeq	r0, r0, r7, lsr #2
    1740:	0001790b 	andeq	r7, r1, fp, lsl #18
    1744:	1e150100 	mufnes	f0, f5, f0
    1748:	00000127 	andeq	r0, r0, r7, lsr #2
    174c:	0c6c9102 	stfeqp	f1, [ip], #-8
    1750:	0067736d 	rsbeq	r7, r7, sp, ror #6
    1754:	2d301501 	cfldr32cs	mvfx1, [r0, #-4]!
    1758:	02000001 	andeq	r0, r0, #1, 0
    175c:	700d6891 	mulvc	sp, r1, r8
    1760:	2a200015 	bcs	8017bc <STACK_SIZE+0x7ff0ac>
    1764:	0e000000 	cdpeq	0, 0, cr0, cr0, cr0, {0}
    1768:	16010069 	strne	r0, [r1], -r9, rrx
    176c:	00005d0d 	andeq	r5, r0, sp, lsl #26
    1770:	74910200 	ldrvc	r0, [r1], #512	; 0x200
    1774:	040f0000 	streq	r0, [pc], #-0	; 177c <STACK_SIZE-0xf94>
    1778:	000000a7 	andeq	r0, r0, r7, lsr #1
    177c:	013a040f 	teqeq	sl, pc, lsl #8
    1780:	01020000 	mrseq	r0, (UNDEF: 2)
    1784:	00009b08 	andeq	r9, r0, r8, lsl #22
    1788:	01331000 	teqeq	r3, r0
    178c:	b10a0000 	mrslt	r0, (UNDEF: 10)
    1790:	01000006 	tsteq	r0, r6
    1794:	1500060b 	strne	r0, [r0, #-1547]	; 0xfffff9f5
    1798:	00662000 	rsbeq	r2, r6, r0
    179c:	9c010000 	stcls	0, cr0, [r1], {-0}
    17a0:	00000189 	andeq	r0, r0, r9, lsl #3
    17a4:	0001790b 	andeq	r7, r1, fp, lsl #18
    17a8:	1e0b0100 	adfnee	f0, f3, f0
    17ac:	00000127 	andeq	r0, r0, r7, lsr #2
    17b0:	0c6c9102 	stfeqp	f1, [ip], #-8
    17b4:	0b010063 	bleq	41948 <STACK_SIZE+0x3f238>
    17b8:	00004132 	andeq	r4, r0, r2, lsr r1
    17bc:	6b910200 	blvs	fe441fc4 <__bss_end__+0xde432ba4>
    17c0:	00151e0d 	andseq	r1, r5, sp, lsl #28
    17c4:	00003020 	andeq	r3, r0, r0, lsr #32
    17c8:	00690e00 	rsbeq	r0, r9, r0, lsl #28
    17cc:	5d0e0e01 	stcpl	14, cr0, [lr, #-4]
    17d0:	02000000 	andeq	r0, r0, #0, 0
    17d4:	00007491 	muleq	r0, r1, r4
    17d8:	0006be11 	andeq	fp, r6, r1, lsl lr
    17dc:	14050100 	strne	r0, [r5], #-256	; 0xffffff00
    17e0:	200014cc 	andcs	r1, r0, ip, asr #9
    17e4:	00000034 	andeq	r0, r0, r4, lsr r0
    17e8:	700c9c01 	andvc	r9, ip, r1, lsl #24
    17ec:	01006e69 	tsteq	r0, r9, ror #28
    17f0:	005d2405 	subseq	r2, sp, r5, lsl #8
    17f4:	91020000 	mrsls	r0, (UNDEF: 2)
    17f8:	00760c74 	rsbseq	r0, r6, r4, ror ip
    17fc:	5d2d0501 	cfstr32pl	mvfx0, [sp, #-4]!
    1800:	02000000 	andeq	r0, r0, #0, 0
    1804:	9e0b7091 	mcrls	0, 0, r7, cr11, cr1, {4}
    1808:	01000006 	tsteq	r0, r6
    180c:	00643905 	rsbeq	r3, r4, r5, lsl #18
    1810:	91020000 	mrsls	r0, (UNDEF: 2)
    1814:	Address 0x0000000000001814 is out of bounds.


Disassembly of section .debug_abbrev:

00000000 <.debug_abbrev>:
   0:	25011101 	strcs	r1, [r1, #-257]	; 0xfffffeff
   4:	030b130e 	movweq	r1, #45838	; 0xb30e
   8:	110e1b0e 	tstne	lr, lr, lsl #22
   c:	10061201 	andne	r1, r6, r1, lsl #4
  10:	02000017 	andeq	r0, r0, #23, 0
  14:	0b0b0024 	bleq	2c00ac <STACK_SIZE+0x2bd99c>
  18:	0e030b3e 	vmoveq.16	d3[0], r0
  1c:	16030000 	strne	r0, [r3], -r0
  20:	3a0e0300 	bcc	380c28 <STACK_SIZE+0x37e518>
  24:	390b3b0b 	stmdbcc	fp, {r0, r1, r3, r8, r9, fp, ip, sp}
  28:	0013490b 	andseq	r4, r3, fp, lsl #18
  2c:	00240400 	eoreq	r0, r4, r0, lsl #8
  30:	0b3e0b0b 	bleq	f82c64 <STACK_SIZE+0xf80554>
  34:	00000803 	andeq	r0, r0, r3, lsl #16
  38:	49010105 	stmdbmi	r1, {r0, r2, r8}
  3c:	00130113 	andseq	r0, r3, r3, lsl r1
  40:	00210600 	eoreq	r0, r1, r0, lsl #12
  44:	0b2f1349 	bleq	bc4d70 <STACK_SIZE+0xbc2660>
  48:	34070000 	strcc	r0, [r7], #-0
  4c:	3a0e0300 	bcc	380c54 <STACK_SIZE+0x37e544>
  50:	390b3b0b 	stmdbcc	fp, {r0, r1, r3, r8, r9, fp, ip, sp}
  54:	0213490b 	andseq	r4, r3, #180224	; 0x2c000
  58:	08000018 	stmdaeq	r0, {r3, r4}
  5c:	0b0b0113 	bleq	2c04b0 <STACK_SIZE+0x2bdda0>
  60:	0b3b0b3a 	bleq	ec2d50 <STACK_SIZE+0xec0640>
  64:	13010b39 	movwne	r0, #6969	; 0x1b39
  68:	0d090000 	stceq	0, cr0, [r9, #-0]
  6c:	3a080300 	bcc	200c74 <STACK_SIZE+0x1fe564>
  70:	390b3b0b 	stmdbcc	fp, {r0, r1, r3, r8, r9, fp, ip, sp}
  74:	3813490b 	ldmdacc	r3, {r0, r1, r3, r8, fp, lr}
  78:	0a00000b 	beq	ac <STACK_SIZE-0x2664>
  7c:	0e03000d 	cdpeq	0, 0, cr0, cr3, cr13, {0}
  80:	0b3b0b3a 	bleq	ec2d70 <STACK_SIZE+0xec0660>
  84:	13490b39 	movtne	r0, #39737	; 0x9b39
  88:	00000b38 	andeq	r0, r0, r8, lsr fp
  8c:	0300340b 	movweq	r3, #1035	; 0x40b
  90:	3b0b3a0e 	blcc	2ce8d0 <STACK_SIZE+0x2cc1c0>
  94:	490b390b 	stmdbmi	fp, {r0, r1, r3, r8, fp, ip, sp}
  98:	02193f13 	andseq	r3, r9, #76	; 0x4c
  9c:	0c000018 	stceq	0, cr0, [r0], {24}
  a0:	193f012e 	ldmdbne	pc!, {r1, r2, r3, r5, r8}	; <UNPREDICTABLE>
  a4:	0b3a0e03 	bleq	e838b8 <STACK_SIZE+0xe811a8>
  a8:	0b390b3b 	bleq	e42d9c <STACK_SIZE+0xe4068c>
  ac:	01111349 	tsteq	r1, r9, asr #6
  b0:	18400612 	stmdane	r0, {r1, r4, r9, sl}^
  b4:	00194296 	mulseq	r9, r6, r2
  b8:	11010000 	mrsne	r0, (UNDEF: 1)
  bc:	130e2501 	movwne	r2, #58625	; 0xe501
  c0:	1b0e030b 	blne	380cf4 <STACK_SIZE+0x37e5e4>
  c4:	1201110e 	andne	r1, r1, #-2147483645	; 0x80000003
  c8:	00171006 	andseq	r1, r7, r6
  cc:	00240200 	eoreq	r0, r4, r0, lsl #4
  d0:	0b3e0b0b 	bleq	f82d04 <STACK_SIZE+0xf805f4>
  d4:	00000e03 	andeq	r0, r0, r3, lsl #28
  d8:	03001603 	movweq	r1, #1539	; 0x603
  dc:	3b0b3a0e 	blcc	2ce91c <STACK_SIZE+0x2cc20c>
  e0:	490b390b 	stmdbmi	fp, {r0, r1, r3, r8, fp, ip, sp}
  e4:	04000013 	streq	r0, [r0], #-19	; 0xffffffed
  e8:	0b0b0024 	bleq	2c0180 <STACK_SIZE+0x2bda70>
  ec:	08030b3e 	stmdaeq	r3, {r1, r2, r3, r4, r5, r8, r9, fp}
  f0:	04050000 	streq	r0, [r5], #-0
  f4:	0b0b3e01 	bleq	2cf900 <STACK_SIZE+0x2cd1f0>
  f8:	3a13490b 	bcc	4d252c <STACK_SIZE+0x4cfe1c>
  fc:	390b3b0b 	stmdbcc	fp, {r0, r1, r3, r8, r9, fp, ip, sp}
 100:	0013010b 	andseq	r0, r3, fp, lsl #2
 104:	00280600 	eoreq	r0, r8, r0, lsl #12
 108:	061c0e03 	ldreq	r0, [ip], -r3, lsl #28
 10c:	28070000 	stmdacs	r7, {}	; <UNPREDICTABLE>
 110:	1c0e0300 	stcne	3, cr0, [lr], {-0}
 114:	0800000b 	stmdaeq	r0, {r0, r1, r3}
 118:	08030028 	stmdaeq	r3, {r3, r5}
 11c:	00000b1c 	andeq	r0, r0, ip, lsl fp
 120:	3f012e09 	svccc	0x00012e09
 124:	3a0e0319 	bcc	380d90 <STACK_SIZE+0x37e680>
 128:	390b3b0b 	stmdbcc	fp, {r0, r1, r3, r8, r9, fp, ip, sp}
 12c:	1119270b 	tstne	r9, fp, lsl #14
 130:	40061201 	andmi	r1, r6, r1, lsl #4
 134:	19429618 	stmdbne	r2, {r3, r4, r9, sl, ip, pc}^
 138:	00001301 	andeq	r1, r0, r1, lsl #6
 13c:	0300050a 	movweq	r0, #1290	; 0x50a
 140:	3b0b3a08 	blcc	2ce968 <STACK_SIZE+0x2cc258>
 144:	490b390b 	stmdbmi	fp, {r0, r1, r3, r8, fp, ip, sp}
 148:	00180213 	andseq	r0, r8, r3, lsl r2
 14c:	00340b00 	eorseq	r0, r4, r0, lsl #22
 150:	0b3a0e03 	bleq	e83964 <STACK_SIZE+0xe81254>
 154:	0b390b3b 	bleq	e42e48 <STACK_SIZE+0xe40738>
 158:	18021349 	stmdane	r2, {r0, r3, r6, r8, r9, ip}
 15c:	2e0c0000 	cdpcs	0, 0, cr0, cr12, cr0, {0}
 160:	03193f01 	tsteq	r9, #1, 30
 164:	3b0b3a0e 	blcc	2ce9a4 <STACK_SIZE+0x2cc294>
 168:	270b390b 	strcs	r3, [fp, -fp, lsl #18]
 16c:	11134919 	tstne	r3, r9, lsl r9
 170:	40061201 	andmi	r1, r6, r1, lsl #4
 174:	19429618 	stmdbne	r2, {r3, r4, r9, sl, ip, pc}^
 178:	00001301 	andeq	r1, r0, r1, lsl #6
 17c:	0300050d 	movweq	r0, #1293	; 0x50d
 180:	3b0b3a0e 	blcc	2ce9c0 <STACK_SIZE+0x2cc2b0>
 184:	490b390b 	stmdbmi	fp, {r0, r1, r3, r8, fp, ip, sp}
 188:	00180213 	andseq	r0, r8, r3, lsl r2
 18c:	002e0e00 	eoreq	r0, lr, r0, lsl #28
 190:	0e03193f 			; <UNDEFINED> instruction: 0x0e03193f
 194:	0b3b0b3a 	bleq	ec2e84 <STACK_SIZE+0xec0774>
 198:	01110b39 	tsteq	r1, r9, lsr fp
 19c:	18400612 	stmdane	r0, {r1, r4, r9, sl}^
 1a0:	00194296 	mulseq	r9, r6, r2
 1a4:	012e0f00 			; <UNDEFINED> instruction: 0x012e0f00
 1a8:	0e03193f 			; <UNDEFINED> instruction: 0x0e03193f
 1ac:	0b3b0b3a 	bleq	ec2e9c <STACK_SIZE+0xec078c>
 1b0:	19270b39 	stmdbne	r7!, {r0, r3, r4, r5, r8, r9, fp}
 1b4:	06120111 			; <UNDEFINED> instruction: 0x06120111
 1b8:	42961840 	addsmi	r1, r6, #64, 16	; 0x400000
 1bc:	00000019 	andeq	r0, r0, r9, lsl r0
 1c0:	25011101 	strcs	r1, [r1, #-257]	; 0xfffffeff
 1c4:	030b130e 	movweq	r1, #45838	; 0xb30e
 1c8:	110e1b0e 	tstne	lr, lr, lsl #22
 1cc:	10061201 	andne	r1, r6, r1, lsl #4
 1d0:	02000017 	andeq	r0, r0, #23, 0
 1d4:	0b0b0024 	bleq	2c026c <STACK_SIZE+0x2bdb5c>
 1d8:	0e030b3e 	vmoveq.16	d3[0], r0
 1dc:	16030000 	strne	r0, [r3], -r0
 1e0:	3a0e0300 	bcc	380de8 <STACK_SIZE+0x37e6d8>
 1e4:	390b3b0b 	stmdbcc	fp, {r0, r1, r3, r8, r9, fp, ip, sp}
 1e8:	0013490b 	andseq	r4, r3, fp, lsl #18
 1ec:	00240400 	eoreq	r0, r4, r0, lsl #8
 1f0:	0b3e0b0b 	bleq	f82e24 <STACK_SIZE+0xf80714>
 1f4:	00000803 	andeq	r0, r0, r3, lsl #16
 1f8:	3e010405 	cdpcc	4, 0, cr0, cr1, cr5, {0}
 1fc:	490b0b0b 	stmdbmi	fp, {r0, r1, r3, r8, r9, fp}
 200:	3b0b3a13 	blcc	2cea54 <STACK_SIZE+0x2cc344>
 204:	010b390b 	tsteq	fp, fp, lsl #18
 208:	06000013 			; <UNDEFINED> instruction: 0x06000013
 20c:	0e030028 	cdpeq	0, 0, cr0, cr3, cr8, {1}
 210:	0000061c 	andeq	r0, r0, ip, lsl r6
 214:	3f012e07 	svccc	0x00012e07
 218:	3a0e0319 	bcc	380e84 <STACK_SIZE+0x37e774>
 21c:	390b3b0b 	stmdbcc	fp, {r0, r1, r3, r8, r9, fp, ip, sp}
 220:	1119270b 	tstne	r9, fp, lsl #14
 224:	40061201 	andmi	r1, r6, r1, lsl #4
 228:	19429618 	stmdbne	r2, {r3, r4, r9, sl, ip, pc}^
 22c:	00001301 	andeq	r1, r0, r1, lsl #6
 230:	03000508 	movweq	r0, #1288	; 0x508
 234:	3b0b3a0e 	blcc	2cea74 <STACK_SIZE+0x2cc364>
 238:	490b390b 	stmdbmi	fp, {r0, r1, r3, r8, fp, ip, sp}
 23c:	00180213 	andseq	r0, r8, r3, lsl r2
 240:	00050900 	andeq	r0, r5, r0, lsl #18
 244:	0b3a0803 	bleq	e82258 <STACK_SIZE+0xe7fb48>
 248:	0b390b3b 	bleq	e42f3c <STACK_SIZE+0xe4082c>
 24c:	18021349 	stmdane	r2, {r0, r3, r6, r8, r9, ip}
 250:	340a0000 	strcc	r0, [sl], #-0
 254:	3a0e0300 	bcc	380e5c <STACK_SIZE+0x37e74c>
 258:	390b3b0b 	stmdbcc	fp, {r0, r1, r3, r8, r9, fp, ip, sp}
 25c:	0213490b 	andseq	r4, r3, #180224	; 0x2c000
 260:	0b000018 	bleq	2c8 <STACK_SIZE-0x2448>
 264:	0111010b 	tsteq	r1, fp, lsl #2
 268:	00000612 	andeq	r0, r0, r2, lsl r6
 26c:	0300340c 	movweq	r3, #1036	; 0x40c
 270:	3b0b3a08 	blcc	2cea98 <STACK_SIZE+0x2cc388>
 274:	490b390b 	stmdbmi	fp, {r0, r1, r3, r8, fp, ip, sp}
 278:	00180213 	andseq	r0, r8, r3, lsl r2
 27c:	012e0d00 			; <UNDEFINED> instruction: 0x012e0d00
 280:	0e03193f 			; <UNDEFINED> instruction: 0x0e03193f
 284:	0b3b0b3a 	bleq	ec2f74 <STACK_SIZE+0xec0864>
 288:	01110b39 	tsteq	r1, r9, lsr fp
 28c:	18400612 	stmdane	r0, {r1, r4, r9, sl}^
 290:	01194296 			; <UNDEFINED> instruction: 0x01194296
 294:	0e000013 	mcreq	0, 0, r0, cr0, cr3, {0}
 298:	193f002e 	ldmdbne	pc!, {r1, r2, r3, r5}	; <UNPREDICTABLE>
 29c:	0b3a0e03 	bleq	e83ab0 <STACK_SIZE+0xe813a0>
 2a0:	0b390b3b 	bleq	e42f94 <STACK_SIZE+0xe40884>
 2a4:	06120111 			; <UNDEFINED> instruction: 0x06120111
 2a8:	42961840 	addsmi	r1, r6, #64, 16	; 0x400000
 2ac:	00000019 	andeq	r0, r0, r9, lsl r0
 2b0:	25011101 	strcs	r1, [r1, #-257]	; 0xfffffeff
 2b4:	030b130e 	movweq	r1, #45838	; 0xb30e
 2b8:	110e1b0e 	tstne	lr, lr, lsl #22
 2bc:	10061201 	andne	r1, r6, r1, lsl #4
 2c0:	02000017 	andeq	r0, r0, #23, 0
 2c4:	0b0b0024 	bleq	2c035c <STACK_SIZE+0x2bdc4c>
 2c8:	0e030b3e 	vmoveq.16	d3[0], r0
 2cc:	16030000 	strne	r0, [r3], -r0
 2d0:	3a0e0300 	bcc	380ed8 <STACK_SIZE+0x37e7c8>
 2d4:	390b3b0b 	stmdbcc	fp, {r0, r1, r3, r8, r9, fp, ip, sp}
 2d8:	0013490b 	andseq	r4, r3, fp, lsl #18
 2dc:	00260400 	eoreq	r0, r6, r0, lsl #8
 2e0:	00001349 	andeq	r1, r0, r9, asr #6
 2e4:	0b002405 	bleq	9300 <STACK_SIZE+0x6bf0>
 2e8:	030b3e0b 	movweq	r3, #48651	; 0xbe0b
 2ec:	06000008 	streq	r0, [r0], -r8
 2f0:	0b0b0113 	bleq	2c0744 <STACK_SIZE+0x2be034>
 2f4:	0b3b0b3a 	bleq	ec2fe4 <STACK_SIZE+0xec08d4>
 2f8:	13010b39 	movwne	r0, #6969	; 0x1b39
 2fc:	0d070000 	stceq	0, cr0, [r7, #-0]
 300:	3a080300 	bcc	200f08 <STACK_SIZE+0x1fe7f8>
 304:	390b3b0b 	stmdbcc	fp, {r0, r1, r3, r8, r9, fp, ip, sp}
 308:	3813490b 	ldmdacc	r3, {r0, r1, r3, r8, fp, lr}
 30c:	0800000b 	stmdaeq	r0, {r0, r1, r3}
 310:	0e03000d 	cdpeq	0, 0, cr0, cr3, cr13, {0}
 314:	0b3b0b3a 	bleq	ec3004 <STACK_SIZE+0xec08f4>
 318:	13490b39 	movtne	r0, #39737	; 0x9b39
 31c:	00000b38 	andeq	r0, r0, r8, lsr fp
 320:	03003409 	movweq	r3, #1033	; 0x409
 324:	3b0b3a0e 	blcc	2ceb64 <STACK_SIZE+0x2cc454>
 328:	490b390b 	stmdbmi	fp, {r0, r1, r3, r8, fp, ip, sp}
 32c:	02193f13 	andseq	r3, r9, #76	; 0x4c
 330:	0a000018 	beq	398 <STACK_SIZE-0x2378>
 334:	0e030113 	mcreq	1, 0, r0, cr3, cr3, {0}
 338:	0b3a0b0b 	bleq	e82f6c <STACK_SIZE+0xe8085c>
 33c:	13010b3b 	movwne	r0, #6971	; 0x1b3b
 340:	0d0b0000 	stceq	0, cr0, [fp, #-0]
 344:	490e0300 	stmdbmi	lr, {r8, r9}
 348:	340b3813 	strcc	r3, [fp], #-2067	; 0xfffff7ed
 34c:	0c000019 	stceq	0, cr0, [r0], {25}
 350:	0b0b000f 	bleq	2c0394 <STACK_SIZE+0x2bdc84>
 354:	0f0d0000 	svceq	0x000d0000
 358:	490b0b00 	stmdbmi	fp, {r8, r9, fp}
 35c:	0e000013 	mcreq	0, 0, r0, cr0, cr3, {0}
 360:	19270115 	stmdbne	r7!, {r0, r2, r4, r8}
 364:	00001301 	andeq	r1, r0, r1, lsl #6
 368:	4900050f 	stmdbmi	r0, {r0, r1, r2, r3, r8, sl}
 36c:	10000013 	andne	r0, r0, r3, lsl r0
 370:	193f012e 	ldmdbne	pc!, {r1, r2, r3, r5, r8}	; <UNPREDICTABLE>
 374:	0b3a0e03 	bleq	e83b88 <STACK_SIZE+0xe81478>
 378:	0b39053b 	bleq	e4186c <STACK_SIZE+0xe3f15c>
 37c:	13491927 	movtne	r1, #39207	; 0x9927
 380:	06120111 			; <UNDEFINED> instruction: 0x06120111
 384:	42961840 	addsmi	r1, r6, #64, 16	; 0x400000
 388:	00130119 	andseq	r0, r3, r9, lsl r1
 38c:	00051100 	andeq	r1, r5, r0, lsl #2
 390:	0b3a0803 	bleq	e823a4 <STACK_SIZE+0xe7fc94>
 394:	0b39053b 	bleq	e41888 <STACK_SIZE+0xe3f178>
 398:	18021349 	stmdane	r2, {r0, r3, r6, r8, r9, ip}
 39c:	05120000 	ldreq	r0, [r2, #-0]
 3a0:	3a0e0300 	bcc	380fa8 <STACK_SIZE+0x37e898>
 3a4:	39053b0b 	stmdbcc	r5, {r0, r1, r3, r8, r9, fp, ip, sp}
 3a8:	0213490b 	andseq	r4, r3, #180224	; 0x2c000
 3ac:	13000018 	movwne	r0, #24
 3b0:	00000018 	andeq	r0, r0, r8, lsl r0
 3b4:	03003414 	movweq	r3, #1044	; 0x414
 3b8:	3b0b3a08 	blcc	2cebe0 <STACK_SIZE+0x2cc4d0>
 3bc:	490b3905 	stmdbmi	fp, {r0, r2, r8, fp, ip, sp}
 3c0:	00180213 	andseq	r0, r8, r3, lsl r2
 3c4:	00341500 	eorseq	r1, r4, r0, lsl #10
 3c8:	0b3a0e03 	bleq	e83bdc <STACK_SIZE+0xe814cc>
 3cc:	0b39053b 	bleq	e418c0 <STACK_SIZE+0xe3f1b0>
 3d0:	18021349 	stmdane	r2, {r0, r3, r6, r8, r9, ip}
 3d4:	01160000 	tsteq	r6, r0
 3d8:	01134901 	tsteq	r3, r1, lsl #18
 3dc:	17000013 	smladne	r0, r3, r0, r0
 3e0:	13490021 	movtne	r0, #36897	; 0x9021
 3e4:	00000b2f 	andeq	r0, r0, pc, lsr #22
 3e8:	03012e18 	movweq	r2, #7704	; 0x1e18
 3ec:	3b0b3a0e 	blcc	2cec2c <STACK_SIZE+0x2cc51c>
 3f0:	270b3905 	strcs	r3, [fp, -r5, lsl #18]
 3f4:	11134919 	tstne	r3, r9, lsl r9
 3f8:	40061201 	andmi	r1, r6, r1, lsl #4
 3fc:	19429618 	stmdbne	r2, {r3, r4, r9, sl, ip, pc}^
 400:	00001301 	andeq	r1, r0, r1, lsl #6
 404:	11010b19 	tstne	r1, r9, lsl fp
 408:	01061201 	tsteq	r6, r1, lsl #4
 40c:	1a000013 	bne	460 <STACK_SIZE-0x22b0>
 410:	0111010b 	tsteq	r1, fp, lsl #2
 414:	00000612 	andeq	r0, r0, r2, lsl r6
 418:	03012e1b 	movweq	r2, #7707	; 0x1e1b
 41c:	3b0b3a0e 	blcc	2cec5c <STACK_SIZE+0x2cc54c>
 420:	270b390b 	strcs	r3, [fp, -fp, lsl #18]
 424:	11134919 	tstne	r3, r9, lsl r9
 428:	40061201 	andmi	r1, r6, r1, lsl #4
 42c:	19429618 	stmdbne	r2, {r3, r4, r9, sl, ip, pc}^
 430:	00001301 	andeq	r1, r0, r1, lsl #6
 434:	0300051c 	movweq	r0, #1308	; 0x51c
 438:	3b0b3a08 	blcc	2cec60 <STACK_SIZE+0x2cc550>
 43c:	490b390b 	stmdbmi	fp, {r0, r1, r3, r8, fp, ip, sp}
 440:	00180213 	andseq	r0, r8, r3, lsl r2
 444:	00051d00 	andeq	r1, r5, r0, lsl #26
 448:	0b3a0e03 	bleq	e83c5c <STACK_SIZE+0xe8154c>
 44c:	0b390b3b 	bleq	e43140 <STACK_SIZE+0xe40a30>
 450:	18021349 	stmdane	r2, {r0, r3, r6, r8, r9, ip}
 454:	341e0000 	ldrcc	r0, [lr], #-0
 458:	3a0e0300 	bcc	381060 <STACK_SIZE+0x37e950>
 45c:	390b3b0b 	stmdbcc	fp, {r0, r1, r3, r8, r9, fp, ip, sp}
 460:	0213490b 	andseq	r4, r3, #180224	; 0x2c000
 464:	1f000018 	svcne	0x00000018
 468:	08030034 	stmdaeq	r3, {r2, r4, r5}
 46c:	0b3b0b3a 	bleq	ec315c <STACK_SIZE+0xec0a4c>
 470:	13490b39 	movtne	r0, #39737	; 0x9b39
 474:	00001802 	andeq	r1, r0, r2, lsl #16
 478:	03012e20 	movweq	r2, #7712	; 0x1e20
 47c:	3b0b3a0e 	blcc	2cecbc <STACK_SIZE+0x2cc5ac>
 480:	270b390b 	strcs	r3, [fp, -fp, lsl #18]
 484:	11134919 	tstne	r3, r9, lsl r9
 488:	40061201 	andmi	r1, r6, r1, lsl #4
 48c:	19429718 	stmdbne	r2, {r3, r4, r8, r9, sl, ip, pc}^
 490:	00001301 	andeq	r1, r0, r1, lsl #6
 494:	03012e21 	movweq	r2, #7713	; 0x1e21
 498:	3b0b3a0e 	blcc	2cecd8 <STACK_SIZE+0x2cc5c8>
 49c:	270b390b 	strcs	r3, [fp, -fp, lsl #18]
 4a0:	12011119 	andne	r1, r1, #1073741830	; 0x40000006
 4a4:	96184006 	ldrls	r4, [r8], -r6
 4a8:	13011942 	movwne	r1, #6466	; 0x1942
 4ac:	2e220000 	cdpcs	0, 2, cr0, cr2, cr0, {0}
 4b0:	3a0e0301 	bcc	3810bc <STACK_SIZE+0x37e9ac>
 4b4:	390b3b0b 	stmdbcc	fp, {r0, r1, r3, r8, r9, fp, ip, sp}
 4b8:	1119270b 	tstne	r9, fp, lsl #14
 4bc:	40061201 	andmi	r1, r6, r1, lsl #4
 4c0:	19429718 	stmdbne	r2, {r3, r4, r8, r9, sl, ip, pc}^
 4c4:	00001301 	andeq	r1, r0, r1, lsl #6
 4c8:	3f012e23 	svccc	0x00012e23
 4cc:	3a0e0319 	bcc	381138 <STACK_SIZE+0x37ea28>
 4d0:	390b3b0b 	stmdbcc	fp, {r0, r1, r3, r8, r9, fp, ip, sp}
 4d4:	1119270b 	tstne	r9, fp, lsl #14
 4d8:	40061201 	andmi	r1, r6, r1, lsl #4
 4dc:	19429618 	stmdbne	r2, {r3, r4, r9, sl, ip, pc}^
 4e0:	00001301 	andeq	r1, r0, r1, lsl #6
 4e4:	03012e24 	movweq	r2, #7716	; 0x1e24
 4e8:	3b0b3a0e 	blcc	2ced28 <STACK_SIZE+0x2cc618>
 4ec:	270b390b 	strcs	r3, [fp, -fp, lsl #18]
 4f0:	11134919 	tstne	r3, r9, lsl r9
 4f4:	40061201 	andmi	r1, r6, r1, lsl #4
 4f8:	19429718 	stmdbne	r2, {r3, r4, r8, r9, sl, ip, pc}^
 4fc:	01000000 	mrseq	r0, (UNDEF: 0)
 500:	0e250111 	mcreq	1, 1, r0, cr5, cr1, {0}
 504:	0e030b13 	vmoveq.32	d3[0], r0
 508:	01110e1b 	tsteq	r1, fp, lsl lr
 50c:	17100612 			; <UNDEFINED> instruction: 0x17100612
 510:	24020000 	strcs	r0, [r2], #-0
 514:	3e0b0b00 	vmlacc.f64	d0, d11, d0
 518:	000e030b 	andeq	r0, lr, fp, lsl #6
 51c:	00160300 	andseq	r0, r6, r0, lsl #6
 520:	0b3a0e03 	bleq	e83d34 <STACK_SIZE+0xe81624>
 524:	0b390b3b 	bleq	e43218 <STACK_SIZE+0xe40b08>
 528:	00001349 	andeq	r1, r0, r9, asr #6
 52c:	0b002404 	bleq	9544 <STACK_SIZE+0x6e34>
 530:	030b3e0b 	movweq	r3, #48651	; 0xbe0b
 534:	05000008 	streq	r0, [r0, #-8]
 538:	0b3e0104 	bleq	f80950 <STACK_SIZE+0xf7e240>
 53c:	13490b0b 	movtne	r0, #39691	; 0x9b0b
 540:	0b3b0b3a 	bleq	ec3230 <STACK_SIZE+0xec0b20>
 544:	13010b39 	movwne	r0, #6969	; 0x1b39
 548:	28060000 	stmdacs	r6, {}	; <UNPREDICTABLE>
 54c:	1c0e0300 	stcne	3, cr0, [lr], {-0}
 550:	0700000b 	streq	r0, [r0, -fp]
 554:	08030028 	stmdaeq	r3, {r3, r5}
 558:	00000b1c 	andeq	r0, r0, ip, lsl fp
 55c:	0b011308 	bleq	45184 <STACK_SIZE+0x42a74>
 560:	3b0b3a0b 	blcc	2ced94 <STACK_SIZE+0x2cc684>
 564:	010b390b 	tsteq	fp, fp, lsl #18
 568:	09000013 	stmdbeq	r0, {r0, r1, r4}
 56c:	0803000d 	stmdaeq	r3, {r0, r2, r3}
 570:	0b3b0b3a 	bleq	ec3260 <STACK_SIZE+0xec0b50>
 574:	13490b39 	movtne	r0, #39737	; 0x9b39
 578:	00000b38 	andeq	r0, r0, r8, lsr fp
 57c:	03000d0a 	movweq	r0, #3338	; 0xd0a
 580:	3b0b3a0e 	blcc	2cedc0 <STACK_SIZE+0x2cc6b0>
 584:	490b390b 	stmdbmi	fp, {r0, r1, r3, r8, fp, ip, sp}
 588:	000b3813 	andeq	r3, fp, r3, lsl r8
 58c:	00340b00 	eorseq	r0, r4, r0, lsl #22
 590:	0b3a0e03 	bleq	e83da4 <STACK_SIZE+0xe81694>
 594:	0b390b3b 	bleq	e43288 <STACK_SIZE+0xe40b78>
 598:	193f1349 	ldmdbne	pc!, {r0, r3, r6, r8, r9, ip}	; <UNPREDICTABLE>
 59c:	00001802 	andeq	r1, r0, r2, lsl #16
 5a0:	3f002e0c 	svccc	0x00002e0c
 5a4:	3a0e0319 	bcc	381210 <STACK_SIZE+0x37eb00>
 5a8:	390b3b0b 	stmdbcc	fp, {r0, r1, r3, r8, r9, fp, ip, sp}
 5ac:	4919270b 	ldmdbmi	r9, {r0, r1, r3, r8, r9, sl, sp}
 5b0:	12011113 	andne	r1, r1, #-1073741820	; 0xc0000004
 5b4:	96184006 	ldrls	r4, [r8], -r6
 5b8:	00001942 	andeq	r1, r0, r2, asr #18
 5bc:	3f012e0d 	svccc	0x00012e0d
 5c0:	3a0e0319 	bcc	38122c <STACK_SIZE+0x37eb1c>
 5c4:	390b3b0b 	stmdbcc	fp, {r0, r1, r3, r8, r9, fp, ip, sp}
 5c8:	1119270b 	tstne	r9, fp, lsl #14
 5cc:	40061201 	andmi	r1, r6, r1, lsl #4
 5d0:	19429618 	stmdbne	r2, {r3, r4, r9, sl, ip, pc}^
 5d4:	00001301 	andeq	r1, r0, r1, lsl #6
 5d8:	0300050e 	movweq	r0, #1294	; 0x50e
 5dc:	3b0b3a08 	blcc	2cee04 <STACK_SIZE+0x2cc6f4>
 5e0:	490b390b 	stmdbmi	fp, {r0, r1, r3, r8, fp, ip, sp}
 5e4:	00180213 	andseq	r0, r8, r3, lsl r2
 5e8:	002e0f00 	eoreq	r0, lr, r0, lsl #30
 5ec:	0e03193f 			; <UNDEFINED> instruction: 0x0e03193f
 5f0:	0b3b0b3a 	bleq	ec32e0 <STACK_SIZE+0xec0bd0>
 5f4:	19270b39 	stmdbne	r7!, {r0, r3, r4, r5, r8, r9, fp}
 5f8:	01111349 	tsteq	r1, r9, asr #6
 5fc:	18400612 	stmdane	r0, {r1, r4, r9, sl}^
 600:	00194297 	mulseq	r9, r7, r2
 604:	002e1000 	eoreq	r1, lr, r0
 608:	0b3a0e03 	bleq	e83e1c <STACK_SIZE+0xe8170c>
 60c:	0b390b3b 	bleq	e43300 <STACK_SIZE+0xe40bf0>
 610:	13491927 	movtne	r1, #39207	; 0x9927
 614:	06120111 			; <UNDEFINED> instruction: 0x06120111
 618:	42971840 	addsmi	r1, r7, #64, 16	; 0x400000
 61c:	11000019 	tstne	r0, r9, lsl r0
 620:	0e030005 	cdpeq	0, 0, cr0, cr3, cr5, {0}
 624:	0b3b0b3a 	bleq	ec3314 <STACK_SIZE+0xec0c04>
 628:	13490b39 	movtne	r0, #39737	; 0x9b39
 62c:	00001802 	andeq	r1, r0, r2, lsl #16
 630:	03003412 	movweq	r3, #1042	; 0x412
 634:	3b0b3a0e 	blcc	2cee74 <STACK_SIZE+0x2cc764>
 638:	490b390b 	stmdbmi	fp, {r0, r1, r3, r8, fp, ip, sp}
 63c:	00180213 	andseq	r0, r8, r3, lsl r2
 640:	000f1300 	andeq	r1, pc, r0, lsl #6
 644:	13490b0b 	movtne	r0, #39691	; 0x9b0b
 648:	2e140000 	cdpcs	0, 1, cr0, cr4, cr0, {0}
 64c:	3a0e0301 	bcc	381258 <STACK_SIZE+0x37eb48>
 650:	390b3b0b 	stmdbcc	fp, {r0, r1, r3, r8, r9, fp, ip, sp}
 654:	4919270b 	ldmdbmi	r9, {r0, r1, r3, r8, r9, sl, sp}
 658:	12011113 	andne	r1, r1, #-1073741820	; 0xc0000004
 65c:	96184006 	ldrls	r4, [r8], -r6
 660:	13011942 	movwne	r1, #6466	; 0x1942
 664:	2e150000 	cdpcs	0, 1, cr0, cr5, cr0, {0}
 668:	3a0e0301 	bcc	381274 <STACK_SIZE+0x37eb64>
 66c:	390b3b0b 	stmdbcc	fp, {r0, r1, r3, r8, r9, fp, ip, sp}
 670:	4919270b 	ldmdbmi	r9, {r0, r1, r3, r8, r9, sl, sp}
 674:	12011113 	andne	r1, r1, #-1073741820	; 0xc0000004
 678:	97184006 	ldrls	r4, [r8, -r6]
 67c:	00001942 	andeq	r1, r0, r2, asr #18
 680:	03003416 	movweq	r3, #1046	; 0x416
 684:	3b0b3a08 	blcc	2ceeac <STACK_SIZE+0x2cc79c>
 688:	490b390b 	stmdbmi	fp, {r0, r1, r3, r8, fp, ip, sp}
 68c:	00180213 	andseq	r0, r8, r3, lsl r2
 690:	11010000 	mrsne	r0, (UNDEF: 1)
 694:	55061000 	strpl	r1, [r6, #-0]
 698:	1b0e0306 	blne	3812b8 <STACK_SIZE+0x37eba8>
 69c:	130e250e 	movwne	r2, #58638	; 0xe50e
 6a0:	00000005 	andeq	r0, r0, r5
 6a4:	25011101 	strcs	r1, [r1, #-257]	; 0xfffffeff
 6a8:	030b130e 	movweq	r1, #45838	; 0xb30e
 6ac:	110e1b0e 	tstne	lr, lr, lsl #22
 6b0:	10061201 	andne	r1, r6, r1, lsl #4
 6b4:	02000017 	andeq	r0, r0, #23, 0
 6b8:	0b0b0024 	bleq	2c0750 <STACK_SIZE+0x2be040>
 6bc:	0e030b3e 	vmoveq.16	d3[0], r0
 6c0:	16030000 	strne	r0, [r3], -r0
 6c4:	3a0e0300 	bcc	3812cc <STACK_SIZE+0x37ebbc>
 6c8:	390b3b0b 	stmdbcc	fp, {r0, r1, r3, r8, r9, fp, ip, sp}
 6cc:	0013490b 	andseq	r4, r3, fp, lsl #18
 6d0:	00240400 	eoreq	r0, r4, r0, lsl #8
 6d4:	0b3e0b0b 	bleq	f83308 <STACK_SIZE+0xf80bf8>
 6d8:	00000803 	andeq	r0, r0, r3, lsl #16
 6dc:	3e010405 	cdpcc	4, 0, cr0, cr1, cr5, {0}
 6e0:	490b0b0b 	stmdbmi	fp, {r0, r1, r3, r8, r9, fp}
 6e4:	3b0b3a13 	blcc	2cef38 <STACK_SIZE+0x2cc828>
 6e8:	010b390b 	tsteq	fp, fp, lsl #18
 6ec:	06000013 			; <UNDEFINED> instruction: 0x06000013
 6f0:	0e030028 	cdpeq	0, 0, cr0, cr3, cr8, {1}
 6f4:	0000061c 	andeq	r0, r0, ip, lsl r6
 6f8:	0b011307 	bleq	4531c <STACK_SIZE+0x42c0c>
 6fc:	3b0b3a0b 	blcc	2cef30 <STACK_SIZE+0x2cc820>
 700:	010b390b 	tsteq	fp, fp, lsl #18
 704:	08000013 	stmdaeq	r0, {r0, r1, r4}
 708:	0803000d 	stmdaeq	r3, {r0, r2, r3}
 70c:	0b3b0b3a 	bleq	ec33fc <STACK_SIZE+0xec0cec>
 710:	13490b39 	movtne	r0, #39737	; 0x9b39
 714:	00000b38 	andeq	r0, r0, r8, lsr fp
 718:	03000d09 	movweq	r0, #3337	; 0xd09
 71c:	3b0b3a0e 	blcc	2cef5c <STACK_SIZE+0x2cc84c>
 720:	490b390b 	stmdbmi	fp, {r0, r1, r3, r8, fp, ip, sp}
 724:	000b3813 	andeq	r3, fp, r3, lsl r8
 728:	00340a00 	eorseq	r0, r4, r0, lsl #20
 72c:	0b3a0e03 	bleq	e83f40 <STACK_SIZE+0xe81830>
 730:	0b390b3b 	bleq	e43424 <STACK_SIZE+0xe40d14>
 734:	193f1349 	ldmdbne	pc!, {r0, r3, r6, r8, r9, ip}	; <UNPREDICTABLE>
 738:	00001802 	andeq	r1, r0, r2, lsl #16
 73c:	3f012e0b 	svccc	0x00012e0b
 740:	3a0e0319 	bcc	3813ac <STACK_SIZE+0x37ec9c>
 744:	390b3b0b 	stmdbcc	fp, {r0, r1, r3, r8, r9, fp, ip, sp}
 748:	1201110b 	andne	r1, r1, #-1073741822	; 0xc0000002
 74c:	96184006 	ldrls	r4, [r8], -r6
 750:	00001942 	andeq	r1, r0, r2, asr #18
 754:	0300340c 	movweq	r3, #1036	; 0x40c
 758:	3b0b3a0e 	blcc	2cef98 <STACK_SIZE+0x2cc888>
 75c:	490b390b 	stmdbmi	fp, {r0, r1, r3, r8, fp, ip, sp}
 760:	3c193f13 	ldccc	15, cr3, [r9], {19}
 764:	0d000019 	stceq	0, cr0, [r0, #-100]	; 0xffffff9c
 768:	193f012e 	ldmdbne	pc!, {r1, r2, r3, r5, r8}	; <UNPREDICTABLE>
 76c:	0b3a0e03 	bleq	e83f80 <STACK_SIZE+0xe81870>
 770:	0b390b3b 	bleq	e43464 <STACK_SIZE+0xe40d54>
 774:	193c1349 	ldmdbne	ip!, {r0, r3, r6, r8, r9, ip}
 778:	180e0000 	stmdane	lr, {}	; <UNPREDICTABLE>
 77c:	00000000 	andeq	r0, r0, r0
 780:	25011101 	strcs	r1, [r1, #-257]	; 0xfffffeff
 784:	030b130e 	movweq	r1, #45838	; 0xb30e
 788:	110e1b0e 	tstne	lr, lr, lsl #22
 78c:	10061201 	andne	r1, r6, r1, lsl #4
 790:	02000017 	andeq	r0, r0, #23, 0
 794:	0b0b0024 	bleq	2c082c <STACK_SIZE+0x2be11c>
 798:	0e030b3e 	vmoveq.16	d3[0], r0
 79c:	24030000 	strcs	r0, [r3], #-0
 7a0:	3e0b0b00 	vmlacc.f64	d0, d11, d0
 7a4:	0008030b 	andeq	r0, r8, fp, lsl #6
 7a8:	01130400 	tsteq	r3, r0, lsl #8
 7ac:	0b3a0b0b 	bleq	e833e0 <STACK_SIZE+0xe80cd0>
 7b0:	0b390b3b 	bleq	e434a4 <STACK_SIZE+0xe40d94>
 7b4:	00001301 	andeq	r1, r0, r1, lsl #6
 7b8:	03000d05 	movweq	r0, #3333	; 0xd05
 7bc:	3b0b3a08 	blcc	2cefe4 <STACK_SIZE+0x2cc8d4>
 7c0:	490b390b 	stmdbmi	fp, {r0, r1, r3, r8, fp, ip, sp}
 7c4:	000b3813 	andeq	r3, fp, r3, lsl r8
 7c8:	000d0600 	andeq	r0, sp, r0, lsl #12
 7cc:	0b3a0e03 	bleq	e83fe0 <STACK_SIZE+0xe818d0>
 7d0:	0b390b3b 	bleq	e434c4 <STACK_SIZE+0xe40db4>
 7d4:	0b381349 	bleq	e05500 <STACK_SIZE+0xe02df0>
 7d8:	16070000 	strne	r0, [r7], -r0
 7dc:	3a0e0300 	bcc	3813e4 <STACK_SIZE+0x37ecd4>
 7e0:	390b3b0b 	stmdbcc	fp, {r0, r1, r3, r8, r9, fp, ip, sp}
 7e4:	0013490b 	andseq	r4, r3, fp, lsl #18
 7e8:	00340800 	eorseq	r0, r4, r0, lsl #16
 7ec:	0b3a0e03 	bleq	e84000 <STACK_SIZE+0xe818f0>
 7f0:	0b390b3b 	bleq	e434e4 <STACK_SIZE+0xe40dd4>
 7f4:	193f1349 	ldmdbne	pc!, {r0, r3, r6, r8, r9, ip}	; <UNPREDICTABLE>
 7f8:	00001802 	andeq	r1, r0, r2, lsl #16
 7fc:	3f002e09 	svccc	0x00002e09
 800:	3a0e0319 	bcc	38146c <STACK_SIZE+0x37ed5c>
 804:	390b3b0b 	stmdbcc	fp, {r0, r1, r3, r8, r9, fp, ip, sp}
 808:	1113490b 	tstne	r3, fp, lsl #18
 80c:	40061201 	andmi	r1, r6, r1, lsl #4
 810:	19429618 	stmdbne	r2, {r3, r4, r9, sl, ip, pc}^
 814:	2e0a0000 	cdpcs	0, 0, cr0, cr10, cr0, {0}
 818:	03193f01 	tsteq	r9, #1, 30
 81c:	3b0b3a0e 	blcc	2cf05c <STACK_SIZE+0x2cc94c>
 820:	270b390b 	strcs	r3, [fp, -fp, lsl #18]
 824:	12011119 	andne	r1, r1, #1073741830	; 0x40000006
 828:	96184006 	ldrls	r4, [r8], -r6
 82c:	13011942 	movwne	r1, #6466	; 0x1942
 830:	050b0000 	streq	r0, [fp, #-0]
 834:	3a0e0300 	bcc	38143c <STACK_SIZE+0x37ed2c>
 838:	390b3b0b 	stmdbcc	fp, {r0, r1, r3, r8, r9, fp, ip, sp}
 83c:	0213490b 	andseq	r4, r3, #180224	; 0x2c000
 840:	0c000018 	stceq	0, cr0, [r0], {24}
 844:	08030005 	stmdaeq	r3, {r0, r2}
 848:	0b3b0b3a 	bleq	ec3538 <STACK_SIZE+0xec0e28>
 84c:	13490b39 	movtne	r0, #39737	; 0x9b39
 850:	00001802 	andeq	r1, r0, r2, lsl #16
 854:	11010b0d 	tstne	r1, sp, lsl #22
 858:	00061201 	andeq	r1, r6, r1, lsl #4
 85c:	00340e00 	eorseq	r0, r4, r0, lsl #28
 860:	0b3a0803 	bleq	e82874 <STACK_SIZE+0xe80164>
 864:	0b390b3b 	bleq	e43558 <STACK_SIZE+0xe40e48>
 868:	18021349 	stmdane	r2, {r0, r3, r6, r8, r9, ip}
 86c:	0f0f0000 	svceq	0x000f0000
 870:	490b0b00 	stmdbmi	fp, {r8, r9, fp}
 874:	10000013 	andne	r0, r0, r3, lsl r0
 878:	13490026 	movtne	r0, #36902	; 0x9026
 87c:	2e110000 	cdpcs	0, 1, cr0, cr1, cr0, {0}
 880:	3a0e0301 	bcc	38148c <STACK_SIZE+0x37ed7c>
 884:	390b3b0b 	stmdbcc	fp, {r0, r1, r3, r8, r9, fp, ip, sp}
 888:	1119270b 	tstne	r9, fp, lsl #14
 88c:	40061201 	andmi	r1, r6, r1, lsl #4
 890:	19429618 	stmdbne	r2, {r3, r4, r9, sl, ip, pc}^
 894:	Address 0x0000000000000894 is out of bounds.


Disassembly of section .debug_aranges:

00000000 <.debug_aranges>:
   0:	0000001c 	andeq	r0, r0, ip, lsl r0
   4:	00000002 	andeq	r0, r0, r2
   8:	00040000 	andeq	r0, r4, r0
   c:	00000000 	andeq	r0, r0, r0
  10:	2000011c 	andcs	r0, r0, ip, lsl r1
  14:	00000040 	andeq	r0, r0, r0, asr #32
	...
  20:	0000001c 	andeq	r0, r0, ip, lsl r0
  24:	017b0002 	cmneq	fp, r2
  28:	00040000 	andeq	r0, r4, r0
  2c:	00000000 	andeq	r0, r0, r0
  30:	2000015c 	andcs	r0, r0, ip, asr r1
  34:	000001e8 	andeq	r0, r0, r8, ror #3
	...
  40:	0000001c 	andeq	r0, r0, ip, lsl r0
  44:	043c0002 	ldrteq	r0, [ip], #-2
  48:	00040000 	andeq	r0, r4, r0
  4c:	00000000 	andeq	r0, r0, r0
  50:	20000344 	andcs	r0, r0, r4, asr #6
  54:	00000190 	muleq	r0, r0, r1
	...
  60:	0000001c 	andeq	r0, r0, ip, lsl r0
  64:	05d70002 	ldrbeq	r0, [r7, #2]
  68:	00040000 	andeq	r0, r4, r0
  6c:	00000000 	andeq	r0, r0, r0
  70:	200004d4 	ldrdcs	r0, [r0], -r4
  74:	00000d44 	andeq	r0, r0, r4, asr #26
	...
  80:	0000001c 	andeq	r0, r0, ip, lsl r0
  84:	11b80002 			; <UNDEFINED> instruction: 0x11b80002
  88:	00040000 	andeq	r0, r4, r0
  8c:	00000000 	andeq	r0, r0, r0
  90:	20001218 	andcs	r1, r0, r8, lsl r2
  94:	0000025a 	andeq	r0, r0, sl, asr r2
	...
  a0:	00000024 	andeq	r0, r0, r4, lsr #32
  a4:	14a90002 	strtne	r0, [r9], #2
  a8:	00040000 	andeq	r0, r4, r0
  ac:	00000000 	andeq	r0, r0, r0
  b0:	20000000 	andcs	r0, r0, r0
  b4:	00000074 	andeq	r0, r0, r4, ror r0
  b8:	20000100 	andcs	r0, r0, r0, lsl #2
  bc:	0000001c 	andeq	r0, r0, ip, lsl r0
	...
  c8:	0000001c 	andeq	r0, r0, ip, lsl r0
  cc:	14cb0002 	strbne	r0, [fp], #2
  d0:	00040000 	andeq	r0, r4, r0
  d4:	00000000 	andeq	r0, r0, r0
  d8:	20001474 	andcs	r1, r0, r4, ror r4
  dc:	00000058 	andeq	r0, r0, r8, asr r0
	...
  e8:	0000001c 	andeq	r0, r0, ip, lsl r0
  ec:	164f0002 	strbne	r0, [pc], -r2
  f0:	00040000 	andeq	r0, r4, r0
  f4:	00000000 	andeq	r0, r0, r0
  f8:	200014cc 	andcs	r1, r0, ip, asr #9
  fc:	00000110 	andeq	r0, r0, r0, lsl r1
	...

Disassembly of section .debug_line:

00000000 <.debug_line>:
   0:	000000fb 	strdeq	r0, [r0], -fp
   4:	00c00003 	sbceq	r0, r0, r3
   8:	01020000 	mrseq	r0, (UNDEF: 2)
   c:	000d0efb 	strdeq	r0, [sp], -fp
  10:	01010101 	tsteq	r1, r1, lsl #2
  14:	01000000 	mrseq	r0, (UNDEF: 0)
  18:	2e010000 	cdpcs	0, 0, cr0, cr1, cr0, {0}
  1c:	2e2e2f2e 	cdpcs	15, 2, cr2, cr14, cr14, {1}
  20:	62696c2f 	rsbvs	r6, r9, #12032	; 0x2f00
  24:	692f6970 	stmdbvs	pc!, {r4, r5, r6, r8, fp, sp, lr}	; <UNPREDICTABLE>
  28:	756c636e 	strbvc	r6, [ip, #-878]!	; 0xfffffc92
  2c:	2f006564 	svccs	0x00006564
  30:	2f727375 	svccs	0x00727375
  34:	61636f6c 	cmnvs	r3, ip, ror #30
  38:	65432f6c 	strbvs	r2, [r3, #-3948]	; 0xfffff094
  3c:	72616c6c 	rsbvc	r6, r1, #108, 24	; 0x6c00
  40:	6d72612f 	ldfvse	f6, [r2, #-188]!	; 0xffffff44
  44:	6e6f6e2d 	cdpvs	14, 6, cr6, cr15, cr13, {1}
  48:	61652d65 	cmnvs	r5, r5, ror #26
  4c:	742d6962 	strtvc	r6, [sp], #-2402	; 0xfffff69e
  50:	2f747365 	svccs	0x00747365
  54:	30322d39 	eorscc	r2, r2, r9, lsr sp
  58:	34713931 	ldrbtcc	r3, [r1], #-2353	; 0xfffff6cf
  5c:	3173632d 	cmncc	r3, sp, lsr #6
  60:	2f653730 	svccs	0x00653730
  64:	2f62696c 	svccs	0x0062696c
  68:	2f636367 	svccs	0x00636367
  6c:	2d6d7261 	sfmcs	f7, 2, [sp, #-388]!	; 0xfffffe7c
  70:	656e6f6e 	strbvs	r6, [lr, #-3950]!	; 0xfffff092
  74:	6261652d 	rsbvs	r6, r1, #188743680	; 0xb400000
  78:	2e392f69 	cdpcs	15, 3, cr2, cr9, cr9, {3}
  7c:	2f312e32 	svccs	0x00312e32
  80:	6c636e69 	stclvs	14, cr6, [r3], #-420	; 0xfffffe5c
  84:	00656475 	rsbeq	r6, r5, r5, ror r4
  88:	6d796d00 	ldclvs	13, cr6, [r9, #-0]
  8c:	2e6e6961 	vnmulcs.f16	s13, s28, s3	; <UNPREDICTABLE>
  90:	00000063 	andeq	r0, r0, r3, rrx
  94:	2d777300 	ldclcs	3, cr7, [r7, #-0]
  98:	74726175 	ldrbtvc	r6, [r2], #-373	; 0xfffffe8b
  9c:	0100682e 	tsteq	r0, lr, lsr #16
  a0:	74730000 	ldrbtvc	r0, [r3], #-0
  a4:	746e6964 	strbtvc	r6, [lr], #-2404	; 0xfffff69c
  a8:	6363672d 	cmnvs	r3, #11796480	; 0xb40000
  ac:	0200682e 	andeq	r6, r0, #3014656	; 0x2e0000
  b0:	61750000 	cmnvs	r5, r0
  b4:	682e7472 	stmdavs	lr!, {r1, r4, r5, r6, sl, ip, sp, lr}
  b8:	00000100 	andeq	r0, r0, r0, lsl #2
  bc:	70637263 	rsbvc	r7, r3, r3, ror #4
  c0:	2e6f6369 	cdpcs	3, 6, cr6, cr15, cr9, {3}
  c4:	00010068 	andeq	r0, r1, r8, rrx
  c8:	0e050000 	cdpeq	0, 0, cr0, cr5, cr0, {0}
  cc:	1c020500 	cfstr32ne	mvfx0, [r2], {-0}
  d0:	16200001 	strtne	r0, [r0], -r1
  d4:	053e0505 	ldreq	r0, [lr, #-1285]!	; 0xfffffafb
  d8:	09053d0e 	stmdbeq	r5, {r1, r2, r3, r8, sl, fp, ip, sp}
  dc:	01040200 	mrseq	r0, R12_usr
  e0:	04020030 	streq	r0, [r2], #-48	; 0xffffffd0
  e4:	02003d01 	andeq	r3, r0, #64	; 0x40
  e8:	004b0104 	subeq	r0, fp, r4, lsl #2
  ec:	4b010402 	blmi	410fc <STACK_SIZE+0x3e9ec>
  f0:	01040200 	mrseq	r0, R12_usr
  f4:	0402003d 	streq	r0, [r2], #-61	; 0xffffffc3
  f8:	06024601 	streq	r4, [r2], -r1, lsl #12
  fc:	68010100 	stmdavs	r1, {r8}
 100:	03000001 	movweq	r0, #1
 104:	00009c00 	andeq	r9, r0, r0, lsl #24
 108:	fb010200 	blx	40912 <STACK_SIZE+0x3e202>
 10c:	01000d0e 	tsteq	r0, lr, lsl #26
 110:	00010101 	andeq	r0, r1, r1, lsl #2
 114:	00010000 	andeq	r0, r1, r0
 118:	72730100 	rsbsvc	r0, r3, #0
 11c:	6e690063 	cdpvs	0, 6, cr0, cr9, cr3, {3}
 120:	64756c63 	ldrbtvs	r6, [r5], #-3171	; 0xfffff39d
 124:	752f0065 	strvc	r0, [pc, #-101]!	; c7 <STACK_SIZE-0x2649>
 128:	6c2f7273 	sfmvs	f7, 4, [pc], #-460	; ffffff64 <__bss_end__+0xdfff0b44>
 12c:	6c61636f 	stclvs	3, cr6, [r1], #-444	; 0xfffffe44
 130:	6c65432f 	stclvs	3, cr4, [r5], #-188	; 0xffffff44
 134:	2f72616c 	svccs	0x0072616c
 138:	2d6d7261 	sfmcs	f7, 2, [sp, #-388]!	; 0xfffffe7c
 13c:	656e6f6e 	strbvs	r6, [lr, #-3950]!	; 0xfffff092
 140:	6261652d 	rsbvs	r6, r1, #188743680	; 0xb400000
 144:	65742d69 	ldrbvs	r2, [r4, #-3433]!	; 0xfffff297
 148:	392f7473 	stmdbcc	pc!, {r0, r1, r4, r5, r6, sl, ip, sp, lr}	; <UNPREDICTABLE>
 14c:	3130322d 	teqcc	r0, sp, lsr #4
 150:	2d347139 	ldfcss	f7, [r4, #-228]!	; 0xffffff1c
 154:	30317363 	eorscc	r7, r1, r3, ror #6
 158:	6c2f6537 	cfstr32vs	mvfx6, [pc], #-220	; 84 <STACK_SIZE-0x268c>
 15c:	672f6269 	strvs	r6, [pc, -r9, ror #4]!
 160:	612f6363 			; <UNDEFINED> instruction: 0x612f6363
 164:	6e2d6d72 	mcrvs	13, 1, r6, cr13, cr2, {3}
 168:	2d656e6f 	stclcs	14, cr6, [r5, #-444]!	; 0xfffffe44
 16c:	69626165 	stmdbvs	r2!, {r0, r2, r5, r6, r8, sp, lr}^
 170:	322e392f 	eorcc	r3, lr, #770048	; 0xbc000
 174:	692f312e 	stmdbvs	pc!, {r1, r2, r3, r5, r8, ip, sp}	; <UNPREDICTABLE>
 178:	756c636e 	strbvc	r6, [ip, #-878]!	; 0xfffffc92
 17c:	00006564 	andeq	r6, r0, r4, ror #10
 180:	6f697067 	svcvs	0x00697067
 184:	0100632e 	tsteq	r0, lr, lsr #6
 188:	70670000 	rsbvc	r0, r7, r0
 18c:	682e6f69 	stmdavs	lr!, {r0, r3, r5, r6, r8, r9, sl, fp, sp, lr}
 190:	00000200 	andeq	r0, r0, r0, lsl #4
 194:	69647473 	stmdbvs	r4!, {r0, r1, r4, r5, r6, sl, ip, sp, lr}^
 198:	672d746e 	strvs	r7, [sp, -lr, ror #8]!
 19c:	682e6363 	stmdavs	lr!, {r0, r1, r5, r6, r8, r9, sp, lr}
 1a0:	00000300 	andeq	r0, r0, r0, lsl #6
 1a4:	00210500 	eoreq	r0, r1, r0, lsl #10
 1a8:	015c0205 	cmpeq	ip, r5, lsl #4
 1ac:	4b1a2000 	blmi	6881b4 <STACK_SIZE+0x685aa4>
 1b0:	054a0505 	strbeq	r0, [sl, #-1285]	; 0xfffffafb
 1b4:	0e05670a 	cdpeq	7, 0, cr6, cr5, cr10, {0}
 1b8:	01040200 	mrseq	r0, R12_usr
 1bc:	00200520 	eoreq	r0, r0, r0, lsr #10
 1c0:	58010402 	stmdapl	r1, {r1, sl}
 1c4:	02002805 	andeq	r2, r0, #327680	; 0x50000
 1c8:	053c0104 	ldreq	r0, [ip, #-260]!	; 0xfffffefc
 1cc:	0402000a 	streq	r0, [r2], #-10
 1d0:	01052e01 	tsteq	r5, r1, lsl #28
 1d4:	a0130521 	andsge	r0, r3, r1, lsr #10
 1d8:	052f0505 	streq	r0, [pc, #-1285]!	; fffffcdb <__bss_end__+0xdfff08bb>
 1dc:	39053d01 	stmdbcc	r5, {r0, r8, sl, fp, ip, sp}
 1e0:	5908053e 	stmdbpl	r8, {r1, r2, r3, r4, r5, r8, sl}
 1e4:	3f0e053f 	svccc	0x000e053f
 1e8:	053d0505 	ldreq	r0, [sp, #-1285]!	; 0xfffffafb
 1ec:	9e7a0309 	cdpls	3, 7, cr0, cr10, cr9, {0}
 1f0:	24010531 	strcs	r0, [r1], #-1329	; 0xfffffacf
 1f4:	10032305 	andne	r2, r3, r5, lsl #6
 1f8:	4b080558 	blmi	201760 <STACK_SIZE+0x1ff050>
 1fc:	053f0e05 	ldreq	r0, [pc, #-3589]!	; fffff3ff <__bss_end__+0xdffeffdf>
 200:	05833d05 	streq	r3, [r3, #3333]	; 0xd05
 204:	01056209 	tsteq	r5, r9, lsl #4
 208:	76220525 	strtvc	r0, [r2], -r5, lsr #10
 20c:	054b0805 	strbeq	r0, [fp, #-2053]	; 0xfffff7fb
 210:	0d053d10 	stceq	13, cr3, [r5, #-64]	; 0xffffffc0
 214:	581c0530 	ldmdapl	ip, {r4, r5, r8, sl}
 218:	053c2405 	ldreq	r2, [ip, #-1029]!	; 0xfffffbfb
 21c:	24052f01 	strcs	r2, [r5], #-3841	; 0xfffff0ff
 220:	4c080576 	cfstr32mi	mvfx0, [r8], {118}	; 0x76
 224:	053f0e05 	ldreq	r0, [pc, #-3589]!	; fffff427 <__bss_end__+0xdfff0007>
 228:	05053d1a 	streq	r3, [r5, #-3354]	; 0xfffff2e6
 22c:	671b054a 	ldrvs	r0, [fp, -sl, asr #10]
 230:	674a0505 	strbvs	r0, [sl, -r5, lsl #10]
 234:	05831a05 	streq	r1, [r3, #2565]	; 0xa05
 238:	09054a05 	stmdbeq	r5, {r0, r2, r9, fp, lr}
 23c:	05747a03 	ldrbeq	r7, [r4, #-2563]!	; 0xfffff5fd
 240:	20052701 	andcs	r2, r5, r1, lsl #14
 244:	4b0805bd 	blmi	201940 <STACK_SIZE+0x1ff230>
 248:	053f1b05 	ldreq	r1, [pc, #-2821]!	; fffff74b <__bss_end__+0xdfff032b>
 24c:	09054a05 	stmdbeq	r5, {r0, r2, r9, fp, lr}
 250:	23010572 	movwcs	r0, #5490	; 0x1572
 254:	055a2105 	ldrbeq	r2, [sl, #-261]	; 0xfffffefb
 258:	1b054b08 	blne	152e80 <STACK_SIZE+0x150770>
 25c:	4a05053f 	bmi	141760 <STACK_SIZE+0x13f050>
 260:	05720905 	ldrbeq	r0, [r2, #-2309]!	; 0xfffff6fb
 264:	05022301 	streq	r2, [r2, #-769]	; 0xfffffcff
 268:	5a010100 	bpl	40670 <STACK_SIZE+0x3df60>
 26c:	03000001 	movweq	r0, #1
 270:	00009e00 	andeq	r9, r0, r0, lsl #28
 274:	fb010200 	blx	40a7e <STACK_SIZE+0x3e36e>
 278:	01000d0e 	tsteq	r0, lr, lsl #26
 27c:	00010101 	andeq	r0, r1, r1, lsl #2
 280:	00010000 	andeq	r0, r1, r0
 284:	72730100 	rsbsvc	r0, r3, #0
 288:	6e690063 	cdpvs	0, 6, cr0, cr9, cr3, {3}
 28c:	64756c63 	ldrbtvs	r6, [r5], #-3171	; 0xfffff39d
 290:	752f0065 	strvc	r0, [pc, #-101]!	; 233 <STACK_SIZE-0x24dd>
 294:	6c2f7273 	sfmvs	f7, 4, [pc], #-460	; d0 <STACK_SIZE-0x2640>
 298:	6c61636f 	stclvs	3, cr6, [r1], #-444	; 0xfffffe44
 29c:	6c65432f 	stclvs	3, cr4, [r5], #-188	; 0xffffff44
 2a0:	2f72616c 	svccs	0x0072616c
 2a4:	2d6d7261 	sfmcs	f7, 2, [sp, #-388]!	; 0xfffffe7c
 2a8:	656e6f6e 	strbvs	r6, [lr, #-3950]!	; 0xfffff092
 2ac:	6261652d 	rsbvs	r6, r1, #188743680	; 0xb400000
 2b0:	65742d69 	ldrbvs	r2, [r4, #-3433]!	; 0xfffff297
 2b4:	392f7473 	stmdbcc	pc!, {r0, r1, r4, r5, r6, sl, ip, sp, lr}	; <UNPREDICTABLE>
 2b8:	3130322d 	teqcc	r0, sp, lsr #4
 2bc:	2d347139 	ldfcss	f7, [r4, #-228]!	; 0xffffff1c
 2c0:	30317363 	eorscc	r7, r1, r3, ror #6
 2c4:	6c2f6537 	cfstr32vs	mvfx6, [pc], #-220	; 1f0 <STACK_SIZE-0x2520>
 2c8:	672f6269 	strvs	r6, [pc, -r9, ror #4]!
 2cc:	612f6363 			; <UNDEFINED> instruction: 0x612f6363
 2d0:	6e2d6d72 	mcrvs	13, 1, r6, cr13, cr2, {3}
 2d4:	2d656e6f 	stclcs	14, cr6, [r5, #-444]!	; 0xfffffe44
 2d8:	69626165 	stmdbvs	r2!, {r0, r2, r5, r6, r8, sp, lr}^
 2dc:	322e392f 	eorcc	r3, lr, #770048	; 0xbc000
 2e0:	692f312e 	stmdbvs	pc!, {r1, r2, r3, r5, r8, ip, sp}	; <UNPREDICTABLE>
 2e4:	756c636e 	strbvc	r6, [ip, #-878]!	; 0xfffffc92
 2e8:	00006564 	andeq	r6, r0, r4, ror #10
 2ec:	636f6c63 	cmnvs	pc, #25344	; 0x6300
 2f0:	00632e6b 	rsbeq	r2, r3, fp, ror #28
 2f4:	63000001 	movwvs	r0, #1
 2f8:	6b636f6c 	blvs	18dc0b0 <STACK_SIZE+0x18d99a0>
 2fc:	0200682e 	andeq	r6, r0, #3014656	; 0x2e0000
 300:	74730000 	ldrbtvc	r0, [r3], #-0
 304:	746e6964 	strbtvc	r6, [lr], #-2404	; 0xfffff69c
 308:	6363672d 	cmnvs	r3, #11796480	; 0xb40000
 30c:	0300682e 	movweq	r6, #2094	; 0x82e
 310:	05000000 	streq	r0, [r0, #-0]
 314:	02050016 	andeq	r0, r5, #22, 0
 318:	20000344 	andcs	r0, r0, r4, asr #6
 31c:	05010a03 	streq	r0, [r1, #-2563]	; 0xfffff5fd
 320:	68592f05 	ldmdavs	r9, {r0, r2, r8, r9, sl, fp, sp}^
 324:	590a0559 	stmdbpl	sl, {r0, r3, r4, r6, r8, sl}
 328:	02000e05 	andeq	r0, r0, #80	; 0x50
 32c:	05200104 	streq	r0, [r0, #-260]!	; 0xfffffefc
 330:	0402001d 	streq	r0, [r2], #-29	; 0xffffffe3
 334:	24055801 	strcs	r5, [r5], #-2049	; 0xfffff7ff
 338:	01040200 	mrseq	r0, R12_usr
 33c:	000a0520 	andeq	r0, sl, r0, lsr #10
 340:	2e010402 	cdpcs	4, 0, cr0, cr1, cr2, {0}
 344:	05210105 	streq	r0, [r1, #-261]!	; 0xfffffefb
 348:	0e05cc15 	mcreq	12, 0, ip, cr5, cr5, {0}
 34c:	2f05053e 	svccs	0x0005053e
 350:	0b056775 	bleq	15a12c <STACK_SIZE+0x157a1c>
 354:	000e0569 	andeq	r0, lr, r9, ror #10
 358:	20010402 	andcs	r0, r1, r2, lsl #8
 35c:	02000b05 	andeq	r0, r0, #5120	; 0x1400
 360:	05580104 	ldrbeq	r0, [r8, #-260]	; 0xfffffefc
 364:	1c052401 	cfstrsne	mvf2, [r5], {1}
 368:	05e40f03 	strbeq	r0, [r4, #3843]!	; 0xf03
 36c:	0e054b1e 	vmoveq.32	d5[0], r4
 370:	05052f58 	streq	r2, [r5, #-3928]	; 0xfffff0a8
 374:	2109052e 	tstcs	r9, lr, lsr #10
 378:	05590f05 	ldrbeq	r0, [r9, #-3845]	; 0xfffff0fb
 37c:	04020011 	streq	r0, [r2], #-17	; 0xffffffef
 380:	23052001 	movwcs	r2, #20481	; 0x5001
 384:	01040200 	mrseq	r0, R12_usr
 388:	000f0558 	andeq	r0, pc, r8, asr r5	; <UNPREDICTABLE>
 38c:	2e010402 	cdpcs	4, 0, cr0, cr1, cr2, {0}
 390:	02002505 	andeq	r2, r0, #20971520	; 0x1400000
 394:	051e0204 	ldreq	r0, [lr, #-516]	; 0xfffffdfc
 398:	04020017 	streq	r0, [r2], #-23	; 0xffffffe9
 39c:	05053c01 	streq	r3, [r5, #-3073]	; 0xfffff3ff
 3a0:	01040200 	mrseq	r0, R12_usr
 3a4:	40010520 	andmi	r0, r1, r0, lsr #10
 3a8:	05932a05 	ldreq	r2, [r3, #2565]	; 0xa05
 3ac:	68594b05 	ldmdavs	r9, {r0, r2, r8, r9, fp, lr}^
 3b0:	59010559 	stmdbpl	r1, {r0, r3, r4, r6, r8, sl}
 3b4:	05af2705 	streq	r2, [pc, #1797]!	; ac1 <STACK_SIZE-0x1c4f>
 3b8:	05054b08 	streq	r4, [r5, #-2824]	; 0xfffff4f8
 3bc:	0905753f 	stmdbeq	r5, {r0, r1, r2, r3, r4, r5, r8, sl, ip, sp, lr}
 3c0:	2401057f 	strcs	r0, [r1], #-1407	; 0xfffffa81
 3c4:	01000502 	tsteq	r0, r2, lsl #10
 3c8:	00079801 	andeq	r9, r7, r1, lsl #16
 3cc:	d6000300 	strle	r0, [r0], -r0, lsl #6
 3d0:	02000000 	andeq	r0, r0, #0, 0
 3d4:	0d0efb01 	vstreq	d15, [lr, #-4]
 3d8:	01010100 	mrseq	r0, (UNDEF: 17)
 3dc:	00000001 	andeq	r0, r0, r1
 3e0:	01000001 	tsteq	r0, r1
 3e4:	6c636e69 	stclvs	14, cr6, [r3], #-420	; 0xfffffe5c
 3e8:	00656475 	rsbeq	r6, r5, r5, ror r4
 3ec:	00637273 	rsbeq	r7, r3, r3, ror r2
 3f0:	7273752f 	rsbsvc	r7, r3, #197132288	; 0xbc00000
 3f4:	636f6c2f 	cmnvs	pc, #12032	; 0x2f00
 3f8:	432f6c61 			; <UNDEFINED> instruction: 0x432f6c61
 3fc:	616c6c65 	cmnvs	ip, r5, ror #24
 400:	72612f72 	rsbvc	r2, r1, #456	; 0x1c8
 404:	6f6e2d6d 	svcvs	0x006e2d6d
 408:	652d656e 	strvs	r6, [sp, #-1390]!	; 0xfffffa92
 40c:	2d696261 	sfmcs	f6, 2, [r9, #-388]!	; 0xfffffe7c
 410:	74736574 	ldrbtvc	r6, [r3], #-1396	; 0xfffffa8c
 414:	322d392f 	eorcc	r3, sp, #770048	; 0xbc000
 418:	71393130 	teqvc	r9, r0, lsr r1
 41c:	73632d34 	cmnvc	r3, #52, 26	; 0xd00
 420:	65373031 	ldrvs	r3, [r7, #-49]!	; 0xffffffcf
 424:	62696c2f 	rsbvs	r6, r9, #12032	; 0x2f00
 428:	6363672f 	cmnvs	r3, #12320768	; 0xbc0000
 42c:	6d72612f 	ldfvse	f6, [r2, #-188]!	; 0xffffff44
 430:	6e6f6e2d 	cdpvs	14, 6, cr6, cr15, cr13, {1}
 434:	61652d65 	cmnvs	r5, r5, ror #26
 438:	392f6962 	stmdbcc	pc!, {r1, r5, r6, r8, fp, sp, lr}	; <UNPREDICTABLE>
 43c:	312e322e 			; <UNDEFINED> instruction: 0x312e322e
 440:	636e692f 	cmnvs	lr, #770048	; 0xbc000
 444:	6564756c 	strbvs	r7, [r4, #-1388]!	; 0xfffffa94
 448:	6e690000 	cdpvs	0, 6, cr0, cr9, cr0, {0}
 44c:	65676574 	strbvs	r6, [r7, #-1396]!	; 0xfffffa8c
 450:	616d2d72 	smcvs	53970	; 0xd2d2
 454:	682e6874 	stmdavs	lr!, {r2, r4, r5, r6, fp, sp, lr}
 458:	00000100 	andeq	r0, r0, r0, lsl #2
 45c:	6e697270 	mcrvs	2, 3, r7, cr9, cr0, {3}
 460:	632e6674 			; <UNDEFINED> instruction: 0x632e6674
 464:	00000200 	andeq	r0, r0, r0, lsl #4
 468:	69647473 	stmdbvs	r4!, {r0, r1, r4, r5, r6, sl, ip, sp, lr}^
 46c:	672d746e 	strvs	r7, [sp, -lr, ror #8]!
 470:	682e6363 	stmdavs	lr!, {r0, r1, r5, r6, r8, r9, sp, lr}
 474:	00000300 	andeq	r0, r0, r0, lsl #6
 478:	74726175 	ldrbtvc	r6, [r2], #-373	; 0xfffffe8b
 47c:	0100682e 	tsteq	r0, lr, lsr #16
 480:	74730000 	ldrbtvc	r0, [r3], #-0
 484:	67726164 	ldrbvs	r6, [r2, -r4, ror #2]!
 488:	0300682e 	movweq	r6, #2094	; 0x82e
 48c:	74730000 	ldrbtvc	r0, [r3], #-0
 490:	66656464 	strbtvs	r6, [r5], -r4, ror #8
 494:	0300682e 	movweq	r6, #2094	; 0x82e
 498:	623c0000 	eorsvs	r0, ip, #0, 0
 49c:	746c6975 	strbtvc	r6, [ip], #-2421	; 0xfffff68b
 4a0:	3e6e692d 	vmulcc.f16	s13, s28, s27	; <UNPREDICTABLE>
 4a4:	00000000 	andeq	r0, r0, r0
 4a8:	00240500 	eoreq	r0, r4, r0, lsl #10
 4ac:	04d40205 	ldrbeq	r0, [r4], #517	; 0x205
 4b0:	0f032000 	svceq	0x00032000
 4b4:	4b0a0501 	blmi	2818c0 <STACK_SIZE+0x27f1b0>
 4b8:	054b0105 	strbeq	r0, [fp, #-261]	; 0xfffffefb
 4bc:	4a0e0336 	bmi	38119c <STACK_SIZE+0x37ea8c>
 4c0:	056a1805 	strbeq	r1, [sl, #-2053]!	; 0xfffff7fb
 4c4:	2f2f4a0c 	svccs	0x002f4a0c
 4c8:	05310a05 	ldreq	r0, [r1, #-2565]!	; 0xfffff5fb
 4cc:	09052e03 	stmdbeq	r5, {r0, r1, r9, sl, fp, sp}
 4d0:	20100521 	andscs	r0, r0, r1, lsr #10
 4d4:	05200705 	streq	r0, [r0, #-1797]!	; 0xfffff8fb
 4d8:	1705210c 	strne	r2, [r5, -ip, lsl #2]
 4dc:	2e07052e 	cfsh32cs	mvfx0, mvfx7, #30
 4e0:	3d0c052f 	cfstr32cc	mvfx0, [ip, #-188]	; 0xffffff44
 4e4:	053c0805 	ldreq	r0, [ip, #-2053]!	; 0xfffff7fb
 4e8:	054b3d09 	strbeq	r3, [fp, #-3337]	; 0xfffff2f7
 4ec:	04020019 	streq	r0, [r2], #-25	; 0xffffffe7
 4f0:	3c7a0302 	ldclcc	3, cr0, [sl], #-8
 4f4:	02000305 	andeq	r0, r0, #335544320	; 0x14000000
 4f8:	053c0104 	ldreq	r0, [ip, #-260]!	; 0xfffffefc
 4fc:	3c09030a 	stccc	3, cr0, [r9], {10}
 500:	05210105 	streq	r0, [r1, #-261]!	; 0xfffffefb
 504:	0a055030 	beq	1545cc <STACK_SIZE+0x151ebc>
 508:	ad010559 	cfstr32ge	mvfx0, [r1, #-356]	; 0xfffffe9c
 50c:	05512e05 	ldrbeq	r2, [r1, #-3589]	; 0xfffff1fb
 510:	16055906 	strne	r5, [r5], -r6, lsl #18
 514:	01040200 	mrseq	r0, R12_usr
 518:	2f1a053c 	svccs	0x001a053c
 51c:	05582305 	ldrbeq	r2, [r8, #-773]	; 0xfffffcfb
 520:	0c055815 	stceq	8, cr5, [r5], {21}
 524:	21060558 	tstcs	r6, r8, asr r5
 528:	02000e05 	andeq	r0, r0, #80	; 0x50
 52c:	053c0104 	ldreq	r0, [ip, #-260]!	; 0xfffffefc
 530:	04020018 	streq	r0, [r2], #-24	; 0xffffffe8
 534:	22053c03 	andcs	r3, r5, #768	; 0x300
 538:	04040200 	streq	r0, [r4], #-512	; 0xfffffe00
 53c:	3d0c053c 	cfstr32cc	mvfx0, [ip, #-240]	; 0xffffff10
 540:	30010530 	andcc	r0, r1, r0, lsr r5
 544:	054c3205 	strbeq	r3, [ip, #-517]	; 0xfffffdfb
 548:	16055906 	strne	r5, [r5], -r6, lsl #18
 54c:	01040200 	mrseq	r0, R12_usr
 550:	2f11053c 	svccs	0x0011053c
 554:	3c0c0583 	cfstr32cc	mvfx0, [ip], {131}	; 0x83
 558:	042f0105 	strteq	r0, [pc], #-261	; 560 <STACK_SIZE-0x21b0>
 55c:	031e0502 	tsteq	lr, #8388608	; 0x800000
 560:	05054a2e 	streq	r4, [r5, #-2606]	; 0xfffff5d2
 564:	5901056d 	stmdbpl	r1, {r0, r2, r3, r5, r6, r8, sl}
 568:	054a0f03 	strbeq	r0, [sl, #-3843]	; 0xfffff0fd
 56c:	14059f06 	strne	r9, [r5], #-3846	; 0xfffff0fa
 570:	3c1a054b 	cfldr32cc	mvfx0, [sl], {75}	; 0x4b
 574:	4f3e0105 	svcmi	0x003e0105
 578:	06054fa0 	streq	r4, [r5], -r0, lsr #31
 57c:	590505a0 	stmdbpl	r5, {r5, r7, r8, sl}
 580:	4f5a0105 	svcmi	0x005a0105
 584:	05a00605 	streq	r0, [r0, #1541]!	; 0x605
 588:	06055a21 	streq	r5, [r5], -r1, lsr #20
 58c:	6801052e 	stmdavs	r1, {r1, r2, r3, r5, r8, sl}
 590:	5a0a0550 	bpl	281ad8 <STACK_SIZE+0x27f3c8>
 594:	052e0305 	streq	r0, [lr, #-773]!	; 0xfffffcfb
 598:	04020022 	streq	r0, [r2], #-34	; 0xffffffde
 59c:	11052004 	tstne	r5, r4
 5a0:	01040200 	mrseq	r0, R12_usr
 5a4:	0003053c 	andeq	r0, r3, ip, lsr r5
 5a8:	2e010402 	cdpcs	4, 0, cr0, cr1, cr2, {0}
 5ac:	02001e05 	andeq	r1, r0, #80	; 0x50
 5b0:	052e0304 	streq	r0, [lr, #-772]!	; 0xfffffcfc
 5b4:	04020014 	streq	r0, [r2], #-20	; 0xffffffec
 5b8:	1b053c03 	blne	14f5cc <STACK_SIZE+0x14cebc>
 5bc:	3d01052f 	cfstr32cc	mvfx0, [r1, #-188]	; 0xffffff44
 5c0:	67160550 			; <UNDEFINED> instruction: 0x67160550
 5c4:	01040200 	mrseq	r0, R12_usr
 5c8:	02004a06 	andeq	r4, r0, #24576	; 0x6000
 5cc:	004a0304 	subeq	r0, sl, r4, lsl #6
 5d0:	2e040402 	cdpcs	4, 0, cr0, cr4, cr2, {0}
 5d4:	06040200 	streq	r0, [r4], -r0, lsl #4
 5d8:	00010520 	andeq	r0, r1, r0, lsr #10
 5dc:	06060402 	streq	r0, [r6], -r2, lsl #8
 5e0:	10054f4b 	andne	r4, r5, fp, asr #30
 5e4:	2f09054b 	svccs	0x0009054b
 5e8:	05210b05 	streq	r0, [r1, #-2821]!	; 0xfffff4fb
 5ec:	2a056625 	bcs	159e88 <STACK_SIZE+0x157778>
 5f0:	3c22052e 	cfstr32cc	mvfx0, [r2], #-184	; 0xffffff48
 5f4:	05201105 	streq	r1, [r0, #-261]!	; 0xfffffefb
 5f8:	15052007 	strne	r2, [r5, #-7]
 5fc:	2e0a052d 	cfsh32cs	mvfx0, mvfx10, #29
 600:	05580905 	ldrbeq	r0, [r8, #-2309]	; 0xfffff6fb
 604:	0105230a 	tsteq	r5, sl, lsl #6
 608:	10054f21 	andne	r4, r5, r1, lsr #30
 60c:	310f0575 	tstcc	pc, r5, ror r5	; <UNPREDICTABLE>
 610:	053c0605 	ldreq	r0, [ip, #-1541]!	; 0xfffff9fb
 614:	04020028 	streq	r0, [r2], #-40	; 0xffffffd8
 618:	1d052001 	stcne	0, cr2, [r5, #-4]
 61c:	01040200 	mrseq	r0, R12_usr
 620:	2111053c 	tstcs	r1, ip, lsr r5
 624:	052e0505 	streq	r0, [lr, #-1285]!	; 0xfffffafb
 628:	04020007 	streq	r0, [r2], #-7
 62c:	26052103 	strcs	r2, [r5], -r3, lsl #2
 630:	03040200 	movweq	r0, #16896	; 0x4200
 634:	00050581 	andeq	r0, r5, r1, lsl #11
 638:	3c010402 	cfstrscc	mvf0, [r1], {2}
 63c:	05500905 	ldrbeq	r0, [r0, #-2309]	; 0xfffff6fb
 640:	0c052105 	stfeqs	f2, [r5], {5}
 644:	3c05053c 	cfstr32cc	mvfx0, [r5], {60}	; 0x3c
 648:	05810905 	streq	r0, [r1, #2309]	; 0x905
 64c:	0605410d 	streq	r4, [r5], -sp, lsl #2
 650:	210b053c 	tstcs	fp, ip, lsr r5
 654:	05210705 	streq	r0, [r1, #-1797]!	; 0xfffff8fb
 658:	0b058110 	bleq	160aa0 <STACK_SIZE+0x15e390>
 65c:	410a053c 	tstmi	sl, ip, lsr r5
 660:	4f210105 	svcmi	0x00210105
 664:	05760f05 	ldrbeq	r0, [r6, #-3845]!	; 0xfffff0fb
 668:	08053c06 	stmdaeq	r5, {r1, r2, sl, fp, ip, sp}
 66c:	00190521 	andseq	r0, r9, r1, lsr #10
 670:	3c010402 	cfstrscc	mvf0, [r1], {2}
 674:	02000f05 	andeq	r0, r0, #5, 30
 678:	053c0104 	ldreq	r0, [ip, #-260]!	; 0xfffffefc
 67c:	0402002a 	streq	r0, [r2], #-42	; 0xffffffd6
 680:	41052002 	tstmi	r5, r2
 684:	03040200 	movweq	r0, #16896	; 0x4200
 688:	00370558 	eorseq	r0, r7, r8, asr r5
 68c:	3c030402 	cfstrscc	mvf0, [r3], {2}
 690:	05210c05 	streq	r0, [r1, #-3077]!	; 0xfffff3fb
 694:	0e053e0b 	cdpeq	14, 0, cr3, cr5, cr11, {0}
 698:	3c0a0521 	cfstr32cc	mvfx0, [sl], {33}	; 0x21
 69c:	052e1205 	streq	r1, [lr, #-517]!	; 0xfffffdfb
 6a0:	19052d0b 	stmdbne	r5, {r0, r1, r3, r8, sl, fp, sp}
 6a4:	01040200 	mrseq	r0, R12_usr
 6a8:	3f0b054a 	svccc	0x000b054a
 6ac:	05210e05 	streq	r0, [r1, #-3589]!	; 0xfffff1fb
 6b0:	12053c0a 	andne	r3, r5, #2560	; 0xa00
 6b4:	2d13052e 	cfldr32cs	mvfx0, [r3, #-184]	; 0xffffff48
 6b8:	053c0b05 	ldreq	r0, [ip, #-2821]!	; 0xfffff4fb
 6bc:	04020024 	streq	r0, [r2], #-36	; 0xffffffdc
 6c0:	35052001 	strcc	r2, [r5, #-1]
 6c4:	02040200 	andeq	r0, r4, #0, 4
 6c8:	420d054a 	andmi	r0, sp, #310378496	; 0x12800000
 6cc:	053c0605 	ldreq	r0, [ip, #-1541]!	; 0xfffff9fb
 6d0:	08052111 	stmdaeq	r5, {r0, r4, r8, sp}
 6d4:	0024054a 	eoreq	r0, r4, sl, asr #10
 6d8:	20010402 	andcs	r0, r1, r2, lsl #8
 6dc:	02002b05 	andeq	r2, r0, #5120	; 0x1400
 6e0:	053c0204 	ldreq	r0, [ip, #-516]!	; 0xfffffdfc
 6e4:	0402003d 	streq	r0, [r2], #-61	; 0xffffffc3
 6e8:	0a054a03 	beq	152efc <STACK_SIZE+0x1507ec>
 6ec:	0f053d4b 	svceq	0x00053d4b
 6f0:	01040200 	mrseq	r0, R12_usr
 6f4:	3d0c053c 	cfstr32cc	mvfx0, [ip, #-240]	; 0xffffff10
 6f8:	053f0805 	ldreq	r0, [pc, #-2053]!	; fffffefb <__bss_end__+0xdfff0adb>
 6fc:	04020022 	streq	r0, [r2], #-34	; 0xffffffde
 700:	17053c01 	strne	r3, [r5, -r1, lsl #24]
 704:	01040200 	mrseq	r0, R12_usr
 708:	0035053c 	eorseq	r0, r5, ip, lsr r5
 70c:	20020402 	andcs	r0, r2, r2, lsl #8
 710:	053d0e05 	ldreq	r0, [sp, #-3589]!	; 0xfffff1fb
 714:	12053c0a 	andne	r3, r5, #2560	; 0xa00
 718:	3e0d052e 	cfsh32cc	mvfx0, mvfx13, #30
 71c:	02002605 	andeq	r2, r0, #5242880	; 0x500000
 720:	053c0104 	ldreq	r0, [ip, #-260]!	; 0xfffffefc
 724:	0402001c 	streq	r0, [r2], #-28	; 0xffffffe4
 728:	39053c01 	stmdbcc	r5, {r0, sl, fp, ip, sp}
 72c:	02040200 	andeq	r0, r4, #0, 4
 730:	3d0e0520 	cfstr32cc	mvfx0, [lr, #-128]	; 0xffffff80
 734:	053c0a05 	ldreq	r0, [ip, #-2565]!	; 0xfffff5fb
 738:	0d052e12 	stceq	14, cr2, [r5, #-72]	; 0xffffffb8
 73c:	001b053e 	andseq	r0, fp, lr, lsr r5
 740:	3c010402 	cfstrscc	mvf0, [r1], {2}
 744:	053d0e05 	ldreq	r0, [sp, #-3589]!	; 0xfffff1fb
 748:	12053c0a 	andne	r3, r5, #2560	; 0xa00
 74c:	3008052e 	andcc	r0, r8, lr, lsr #10
 750:	053d0e05 	ldreq	r0, [sp, #-3589]!	; 0xfffff1fb
 754:	12053c0a 	andne	r3, r5, #2560	; 0xa00
 758:	3206052e 	andcc	r0, r6, #192937984	; 0xb800000
 75c:	053d0805 	ldreq	r0, [sp, #-2053]!	; 0xfffff7fb
 760:	0a05590e 	beq	156ba0 <STACK_SIZE+0x154490>
 764:	2e12053c 	mrccs	5, 0, r0, cr2, cr12, {1}
 768:	053e1405 	ldreq	r1, [lr, #-1029]!	; 0xfffffbfb
 76c:	0e053c0d 	cdpeq	12, 0, cr3, cr5, cr13, {0}
 770:	3c0a0521 	cfstr32cc	mvfx0, [sl], {33}	; 0x21
 774:	052e1205 	streq	r1, [lr, #-517]!	; 0xfffffdfb
 778:	0d053e14 	stceq	14, cr3, [r5, #-80]	; 0xffffffb0
 77c:	210e053c 	tstcs	lr, ip, lsr r5
 780:	053c0a05 	ldreq	r0, [ip, #-2565]!	; 0xfffff5fb
 784:	0a052e12 	beq	14bfd4 <STACK_SIZE+0x1498c4>
 788:	f3010532 	vqrshl.u8	d0, d18, d1
 78c:	760a054f 	strvc	r0, [sl], -pc, asr #10
 790:	05310605 	ldreq	r0, [r1, #-1541]!	; 0xfffff9fb
 794:	0f053d0b 	svceq	0x00053d0b
 798:	4a06054e 	bmi	181cd8 <STACK_SIZE+0x17f5c8>
 79c:	02002205 	andeq	r2, r0, #1342177280	; 0x50000000
 7a0:	05200104 	streq	r0, [r0, #-260]!	; 0xfffffefc
 7a4:	12053e21 	andne	r3, r5, #528	; 0x210
 7a8:	02003d74 	andeq	r3, r0, #116, 26	; 0x1d00
 7ac:	58060104 	stmdapl	r6, {r2, r8}
 7b0:	02003605 	andeq	r3, r0, #5242880	; 0x500000
 7b4:	58060204 	stmdapl	r6, {r2, r9}
 7b8:	02005505 	andeq	r5, r0, #20971520	; 0x1400000
 7bc:	003c0204 	eorseq	r0, ip, r4, lsl #4
 7c0:	06040402 	streq	r0, [r4], -r2, lsl #8
 7c4:	04020020 	streq	r0, [r2], #-32	; 0xffffffe0
 7c8:	02002e05 	andeq	r2, r0, #80	; 0x50
 7cc:	05200704 	streq	r0, [r0, #-1796]!	; 0xfffff8fc
 7d0:	04020012 	streq	r0, [r2], #-18	; 0xffffffee
 7d4:	05580607 	ldrbeq	r0, [r8, #-1543]	; 0xfffff9f9
 7d8:	0402000e 	streq	r0, [r2], #-14
 7dc:	12052e08 	andne	r2, r5, #8, 28	; 0x80
 7e0:	08040200 	stmdaeq	r4, {r9}
 7e4:	000f053c 	andeq	r0, pc, ip, lsr r5	; <UNPREDICTABLE>
 7e8:	3d080402 	cfstrscc	mvf0, [r8, #-8]
 7ec:	02000d05 	andeq	r0, r0, #320	; 0x140
 7f0:	05740804 	ldrbeq	r0, [r4, #-2052]!	; 0xfffff7fc
 7f4:	04020005 	streq	r0, [r2], #-5
 7f8:	14052108 	strne	r2, [r5], #-264	; 0xfffffef8
 7fc:	01040200 	mrseq	r0, R12_usr
 800:	3f0a053c 	svccc	0x000a053c
 804:	83080105 	movwhi	r0, #33029	; 0x8105
 808:	4a029503 	bmi	a5c1c <STACK_SIZE+0xa350c>
 80c:	05760a05 	ldrbeq	r0, [r6, #-2565]!	; 0xfffff5fb
 810:	09053006 	stmdbeq	r5, {r1, r2, ip, sp}
 814:	0523314c 	streq	r3, [r3, #-332]!	; 0xfffffeb4
 818:	07052e08 	streq	r2, [r5, -r8, lsl #28]
 81c:	910d0530 	tstls	sp, r0, lsr r5
 820:	053d0705 	ldreq	r0, [sp, #-1797]!	; 0xfffff8fb
 824:	0b05240d 	bleq	149860 <STACK_SIZE+0x147150>
 828:	300f0540 	andcc	r0, pc, r0, asr #10
 82c:	059f1905 	ldreq	r1, [pc, #2309]	; 1139 <STACK_SIZE-0x15d7>
 830:	37054a31 	smladxcc	r5, r1, sl, r4
 834:	2e09053c 	mcrcs	5, 0, r0, cr9, cr12, {1}
 838:	05211905 	streq	r1, [r1, #-2309]!	; 0xfffff6fb
 83c:	37054a31 	smladxcc	r5, r1, sl, r4
 840:	2e09053c 	mcrcs	5, 0, r0, cr9, cr12, {1}
 844:	05211905 	streq	r1, [r1, #-2309]!	; 0xfffff6fb
 848:	37054a31 	smladxcc	r5, r1, sl, r4
 84c:	2e09053c 	mcrcs	5, 0, r0, cr9, cr12, {1}
 850:	05211905 	streq	r1, [r1, #-2309]!	; 0xfffff6fb
 854:	37054a31 	smladxcc	r5, r1, sl, r4
 858:	2e09053c 	mcrcs	5, 0, r0, cr9, cr12, {1}
 85c:	05211905 	streq	r1, [r1, #-2309]!	; 0xfffff6fb
 860:	37054a31 	smladxcc	r5, r1, sl, r4
 864:	2e09053c 	mcrcs	5, 0, r0, cr9, cr12, {1}
 868:	05213705 	streq	r3, [r1, #-1797]!	; 0xfffff8fb
 86c:	05052e09 	streq	r2, [r5, #-3593]	; 0xfffff1f7
 870:	3f0b0522 	svccc	0x000b0522
 874:	052f0905 	streq	r0, [pc, #-2309]!	; ffffff77 <__bss_end__+0xdfff0b57>
 878:	0f056608 	svceq	0x00056608
 87c:	760e0521 	strvc	r0, [lr], -r1, lsr #10
 880:	052e0d05 	streq	r0, [lr, #-3333]!	; 0xfffff2fb
 884:	0a052f11 	beq	14c4d0 <STACK_SIZE+0x149dc0>
 888:	3d0f0559 	cfstr32cc	mvfx0, [pc, #-356]	; 72c <STACK_SIZE-0x1fe4>
 88c:	054b1f05 	strbeq	r1, [fp, #-3845]	; 0xfffff0fb
 890:	05312e0f 	ldreq	r2, [r1, #-3599]!	; 0xfffff1f1
 894:	0f05300d 	svceq	0x0005300d
 898:	2f090540 	svccs	0x00090540
 89c:	052e0805 	streq	r0, [lr, #-2053]!	; 0xfffff7fb
 8a0:	05592f0d 	ldrbeq	r2, [r9, #-3853]	; 0xfffff0f3
 8a4:	0a053d0b 	beq	14fcd8 <STACK_SIZE+0x14d5c8>
 8a8:	21150566 	tstcs	r5, r6, ror #10
 8ac:	05761005 	ldrbeq	r1, [r6, #-5]!
 8b0:	13052e0f 	movwne	r2, #24079	; 0x5e0f
 8b4:	5933052f 	ldmdbpl	r3!, {r0, r1, r2, r3, r5, r8, sl}
 8b8:	054a1305 	strbeq	r1, [sl, #-773]	; 0xfffffcfb
 8bc:	0d05210f 	stfeqs	f2, [r5, #-60]	; 0xffffffc4
 8c0:	2e050541 	cfsh32cs	mvfx0, mvfx5, #33
 8c4:	20030905 	andcs	r0, r3, r5, lsl #18
 8c8:	030f059e 	movweq	r0, #62878	; 0xf59e
 8cc:	05592062 	ldrbeq	r2, [r9, #-98]	; 0xffffff9e
 8d0:	0c053d0d 	stceq	13, cr3, [r5], {13}
 8d4:	2f11052e 	svccs	0x0011052e
 8d8:	3e090559 	cfrshl32cc	mvfx9, mvfx9, r0
 8dc:	4b220f05 	blmi	8844f8 <STACK_SIZE+0x881de8>
 8e0:	053d0d05 	ldreq	r0, [sp, #-3333]!	; 0xfffff2fb
 8e4:	11052e0c 	tstne	r5, ip, lsl #28
 8e8:	09054b2f 	stmdbeq	r5, {r0, r1, r2, r3, r5, r8, r9, fp, lr}
 8ec:	280f053e 	stmdacs	pc, {r1, r2, r3, r4, r5, r8, sl}	; <UNPREDICTABLE>
 8f0:	3d090559 	cfstr32cc	mvfx0, [r9, #-356]	; 0xfffffe9c
 8f4:	59220f05 	stmdbpl	r2!, {r0, r2, r8, r9, sl, fp}
 8f8:	223d0905 	eorscs	r0, sp, #81920	; 0x14000
 8fc:	362e6803 	strtcc	r6, [lr], -r3, lsl #16
 900:	14030d05 	strne	r0, [r3], #-3333	; 0xfffff2fb
 904:	ac0a0320 	stcge	3, cr0, [sl], {32}
 908:	052e0c05 	streq	r0, [lr, #-3077]!	; 0xfffff3fb
 90c:	0402001f 	streq	r0, [r2], #-31	; 0xffffffe1
 910:	1c052e01 	stcne	14, cr2, [r5], {1}
 914:	01040200 	mrseq	r0, R12_usr
 918:	2f10052e 	svccs	0x0010052e
 91c:	053e1205 	ldreq	r1, [lr, #-517]!	; 0xfffffdfb
 920:	10052e11 	andne	r2, r5, r1, lsl lr
 924:	3e12052f 	cfmul64cc	mvdx0, mvdx2, mvdx15
 928:	052e1105 	streq	r1, [lr, #-261]!	; 0xfffffefb
 92c:	053f2f10 	ldreq	r2, [pc, #-3856]!	; fffffa24 <__bss_end__+0xdfff0604>
 930:	0d052f11 	stceq	15, cr2, [r5, #-68]	; 0xffffffbc
 934:	2e0c054d 	cfsh32cs	mvfx0, mvfx12, #45
 938:	052f1105 	streq	r1, [pc, #-261]!	; 83b <STACK_SIZE-0x1ed5>
 93c:	0c054e0e 	stceq	14, cr4, [r5], {14}
 940:	0022052e 	eoreq	r0, r2, lr, lsr #10
 944:	2e010402 	cdpcs	4, 0, cr0, cr1, cr2, {0}
 948:	02001e05 	andeq	r1, r0, #80	; 0x50
 94c:	052e0104 	streq	r0, [lr, #-260]!	; 0xfffffefc
 950:	13052f11 	movwne	r2, #24337	; 0x5f11
 954:	4a0c054e 	bmi	301e94 <STACK_SIZE+0x2ff784>
 958:	05211105 	streq	r1, [r1, #-261]!	; 0xfffffefb
 95c:	0c054e0e 	stceq	14, cr4, [r5], {14}
 960:	0022052e 	eoreq	r0, r2, lr, lsr #10
 964:	2e010402 	cdpcs	4, 0, cr0, cr1, cr2, {0}
 968:	02001e05 	andeq	r1, r0, #80	; 0x50
 96c:	052e0104 	streq	r0, [lr, #-260]!	; 0xfffffefc
 970:	0e053015 	mcreq	0, 0, r3, cr5, cr5, {0}
 974:	341a054a 	ldrcc	r0, [sl], #-1354	; 0xfffffab6
 978:	054a1305 	strbeq	r1, [sl, #-773]	; 0xfffffcfb
 97c:	38052118 	stmdacc	r5, {r3, r4, r8, sp}
 980:	4a130559 	bmi	4c1eec <STACK_SIZE+0x4bf7dc>
 984:	78030e05 	stmdavc	r3, {r0, r2, r9, sl, fp}
 988:	26057408 	strcs	r7, [r5], -r8, lsl #8
 98c:	05200b03 	streq	r0, [r0, #-2819]!	; 0xfffff4fd
 990:	3c053c4c 	stccc	12, cr3, [r5], {76}	; 0x4c
 994:	4a360520 	bmi	d81e1c <STACK_SIZE+0xd7f70c>
 998:	02005505 	andeq	r5, r0, #20971520	; 0x1400000
 99c:	052e0204 	streq	r0, [lr, #-516]!	; 0xfffffdfc
 9a0:	02000181 	andeq	r0, r0, #1073741856	; 0x40000020
 9a4:	053c0204 	ldreq	r0, [ip, #-516]!	; 0xfffffdfc
 9a8:	66052071 			; <UNDEFINED> instruction: 0x66052071
 9ac:	0181054a 	orreq	r0, r1, sl, asr #10
 9b0:	00170590 	mulseq	r7, r0, r5
 9b4:	4a080402 	bmi	2019c4 <STACK_SIZE+0x1ff2b4>
 9b8:	02003805 	andeq	r3, r0, #327680	; 0x50000
 9bc:	05210804 	streq	r0, [r1, #-2052]!	; 0xfffff7fc
 9c0:	04020013 	streq	r0, [r2], #-19	; 0xffffffed
 9c4:	0e054a08 	vmlaeq.f32	s8, s10, s16
 9c8:	08040200 	stmdaeq	r4, {r9}
 9cc:	74087403 	strvc	r7, [r8], #-1027	; 0xfffffbfd
 9d0:	11031505 	tstne	r3, r5, lsl #10
 9d4:	4a0e0520 	bmi	381e5c <STACK_SIZE+0x37f74c>
 9d8:	05251a05 	streq	r1, [r5, #-2565]!	; 0xfffff5fb
 9dc:	05214a13 	streq	r4, [r1, #-2579]!	; 0xfffff5ed
 9e0:	0593082f 	ldreq	r0, [r3, #2095]	; 0x82f
 9e4:	4e053c67 	cdpmi	12, 0, cr3, cr5, cr7, {3}
 9e8:	4a3f0520 	bmi	fc1e70 <STACK_SIZE+0xfbf760>
 9ec:	02007005 	andeq	r7, r0, #5, 0
 9f0:	052e0204 	streq	r0, [lr, #-516]!	; 0xfffffdfc
 9f4:	020001ae 	andeq	r0, r0, #-2147483605	; 0x8000002b
 9f8:	053c0204 	ldreq	r0, [ip, #-516]!	; 0xfffffdfc
 9fc:	05200195 	streq	r0, [r0, #-405]!	; 0xfffffe6b
 a00:	054a0181 	strbeq	r0, [sl, #-385]	; 0xfffffe7f
 a04:	052e01ae 	streq	r0, [lr, #-430]!	; 0xfffffe52
 a08:	04020020 	streq	r0, [r2], #-32	; 0xffffffe0
 a0c:	13054a08 	movwne	r4, #23048	; 0x5a08
 a10:	08040200 	stmdaeq	r4, {r9}
 a14:	080f0521 	stmdaeq	pc, {r0, r5, r8, sl}	; <UNPREDICTABLE>
 a18:	3d09054d 	cfstr32cc	mvfx0, [r9, #-308]	; 0xfffffecc
 a1c:	16031605 	strne	r1, [r3], -r5, lsl #12
 a20:	30150520 	andscc	r0, r5, r0, lsr #10
 a24:	053c0c05 	ldreq	r0, [ip, #-3077]!	; 0xfffff3fb
 a28:	0d052111 	stfeqs	f2, [r5, #-68]	; 0xffffffbc
 a2c:	81130521 	tsthi	r3, r1, lsr #10
 a30:	053c1105 	ldreq	r1, [ip, #-261]!	; 0xfffffefb
 a34:	09054113 	stmdbeq	r5, {r0, r1, r4, r8, lr}
 a38:	8413054a 	ldrhi	r0, [r3], #-1354	; 0xfffffab6
 a3c:	053c0c05 	ldreq	r0, [ip, #-3077]!	; 0xfffff3fb
 a40:	0d052111 	stfeqs	f2, [r5, #-68]	; 0xffffffbc
 a44:	81130521 	tsthi	r3, r1, lsr #10
 a48:	053c1105 	ldreq	r1, [ip, #-261]!	; 0xfffffefb
 a4c:	0905400f 	stmdbeq	r5, {r0, r1, r2, r3, lr}
 a50:	2415053d 	ldrcs	r0, [r5], #-1341	; 0xfffffac3
 a54:	00591a05 	subseq	r1, r9, r5, lsl #20
 a58:	06010402 	streq	r0, [r1], -r2, lsl #8
 a5c:	0402003c 	streq	r0, [r2], #-60	; 0xffffffc4
 a60:	02002e02 	andeq	r2, r0, #2, 28
 a64:	052e0404 	streq	r0, [lr, #-1028]!	; 0xfffffbfc
 a68:	04020013 	streq	r0, [r2], #-19	; 0xffffffed
 a6c:	05760604 	ldrbeq	r0, [r6, #-1540]!	; 0xfffff9fc
 a70:	0402000c 	streq	r0, [r2], #-12
 a74:	0d054a04 	vstreq	s8, [r5, #-16]
 a78:	68150521 	ldmdavs	r5, {r0, r5, r8, sl}
 a7c:	053c0c05 	ldreq	r0, [ip, #-3077]!	; 0xfffff3fb
 a80:	0d052111 	stfeqs	f2, [r5, #-68]	; 0xffffffbc
 a84:	81130521 	tsthi	r3, r1, lsr #10
 a88:	053c1105 	ldreq	r1, [ip, #-261]!	; 0xfffffefb
 a8c:	1205410f 	andne	r4, r5, #-1073741821	; 0xc0000003
 a90:	3c0b0521 	cfstr32cc	mvfx0, [fp], {33}	; 0x21
 a94:	05811105 	streq	r1, [r1, #261]	; 0x105
 a98:	26052e0f 	strcs	r2, [r5], -pc, lsl #28
 a9c:	01040200 	mrseq	r0, R12_usr
 aa0:	001a052e 	andseq	r0, sl, lr, lsr #10
 aa4:	4a010402 	bmi	41ab4 <STACK_SIZE+0x3f3a4>
 aa8:	02004505 	andeq	r4, r0, #20971520	; 0x1400000
 aac:	05200204 	streq	r0, [r0, #-516]!	; 0xfffffdfc
 ab0:	04020039 	streq	r0, [r2], #-57	; 0xffffffc7
 ab4:	13053c02 	movwne	r3, #23554	; 0x5c02
 ab8:	3c0c0532 	cfstr32cc	mvfx0, [ip], {50}	; 0x32
 abc:	05211105 	streq	r1, [r1, #-261]!	; 0xfffffefb
 ac0:	1305210d 	movwne	r2, #20749	; 0x510d
 ac4:	3c110581 	cfldr32cc	mvfx0, [r1], {129}	; 0x81
 ac8:	05400f05 	strbeq	r0, [r0, #-3845]	; 0xfffff0fb
 acc:	0f053d09 	svceq	0x00053d09
 ad0:	51052f24 	tstpl	r5, r4, lsr #30
 ad4:	4a110552 	bmi	442024 <STACK_SIZE+0x43f914>
 ad8:	4e080f05 	cdpmi	15, 0, cr0, cr8, cr5, {0}
 adc:	243d0905 	ldrtcs	r0, [sp], #-2309	; 0xfffff6fb
 ae0:	05830f05 	streq	r0, [r3, #3845]	; 0xf05
 ae4:	05233d09 	streq	r3, [r3, #-3337]!	; 0xfffff2f7
 ae8:	0905910f 	stmdbeq	r5, {r0, r1, r2, r3, r8, ip, pc}
 aec:	030a053d 	movweq	r0, #42301	; 0xa53d
 af0:	05207dfb 	streq	r7, [r0, #-3579]!	; 0xfffff205
 af4:	03052e09 	movweq	r2, #24073	; 0x5e09
 af8:	3c028a03 			; <UNDEFINED> instruction: 0x3c028a03
 afc:	01040200 	mrseq	r0, R12_usr
 b00:	02004a06 	andeq	r4, r0, #24576	; 0x6000
 b04:	003c0204 	eorseq	r0, ip, r4, lsl #4
 b08:	20040402 	andcs	r0, r4, r2, lsl #8
 b0c:	02000a05 	andeq	r0, r0, #20480	; 0x5000
 b10:	5b060404 	blpl	181b28 <STACK_SIZE+0x17f418>
 b14:	02000105 	andeq	r0, r0, #1073741825	; 0x40000001
 b18:	50210404 	eorpl	r0, r1, r4, lsl #8
 b1c:	054c0305 	strbeq	r0, [ip, #-773]	; 0xfffffcfb
 b20:	0a053e13 	beq	150374 <STACK_SIZE+0x14dc64>
 b24:	210105bc 			; <UNDEFINED> instruction: 0x210105bc
 b28:	5a030594 	bpl	c2180 <STACK_SIZE+0xbfa70>
 b2c:	053d1305 	ldreq	r1, [sp, #-773]!	; 0xfffffcfb
 b30:	0105bc0a 	tsteq	r5, sl, lsl #24
 b34:	03059421 	movweq	r9, #21537	; 0x5421
 b38:	3d130568 	cfldr32cc	mvfx0, [r3, #-416]	; 0xfffffe60
 b3c:	05ae0a05 	streq	r0, [lr, #2565]!	; 0xa05
 b40:	05942101 	ldreq	r2, [r4, #257]	; 0x101
 b44:	01055a0a 	tsteq	r5, sl, lsl #20
 b48:	0a0578bb 	beq	15ee3c <STACK_SIZE+0x15c72c>
 b4c:	9f010575 	svcls	0x00010575
 b50:	68030578 	stmdavs	r3, {r3, r4, r5, r6, r8, sl}
 b54:	053d1b05 	ldreq	r1, [sp, #-2821]!	; 0xfffff4fb
 b58:	0a057513 	beq	15dfac <STACK_SIZE+0x15b89c>
 b5c:	210105bc 			; <UNDEFINED> instruction: 0x210105bc
 b60:	01000902 	tsteq	r0, r2, lsl #18
 b64:	0001eb01 	andeq	lr, r1, r1, lsl #22
 b68:	b8000300 	stmdalt	r0, {r8, r9}
 b6c:	02000000 	andeq	r0, r0, #0, 0
 b70:	0d0efb01 	vstreq	d15, [lr, #-4]
 b74:	01010100 	mrseq	r0, (UNDEF: 17)
 b78:	00000001 	andeq	r0, r0, r1
 b7c:	01000001 	tsteq	r0, r1
 b80:	6c636e69 	stclvs	14, cr6, [r3], #-420	; 0xfffffe5c
 b84:	00656475 	rsbeq	r6, r5, r5, ror r4
 b88:	00637273 	rsbeq	r7, r3, r3, ror r2
 b8c:	7273752f 	rsbsvc	r7, r3, #197132288	; 0xbc00000
 b90:	636f6c2f 	cmnvs	pc, #12032	; 0x2f00
 b94:	432f6c61 			; <UNDEFINED> instruction: 0x432f6c61
 b98:	616c6c65 	cmnvs	ip, r5, ror #24
 b9c:	72612f72 	rsbvc	r2, r1, #456	; 0x1c8
 ba0:	6f6e2d6d 	svcvs	0x006e2d6d
 ba4:	652d656e 	strvs	r6, [sp, #-1390]!	; 0xfffffa92
 ba8:	2d696261 	sfmcs	f6, 2, [r9, #-388]!	; 0xfffffe7c
 bac:	74736574 	ldrbtvc	r6, [r3], #-1396	; 0xfffffa8c
 bb0:	322d392f 	eorcc	r3, sp, #770048	; 0xbc000
 bb4:	71393130 	teqvc	r9, r0, lsr r1
 bb8:	73632d34 	cmnvc	r3, #52, 26	; 0xd00
 bbc:	65373031 	ldrvs	r3, [r7, #-49]!	; 0xffffffcf
 bc0:	62696c2f 	rsbvs	r6, r9, #12032	; 0x2f00
 bc4:	6363672f 	cmnvs	r3, #12320768	; 0xbc0000
 bc8:	6d72612f 	ldfvse	f6, [r2, #-188]!	; 0xffffff44
 bcc:	6e6f6e2d 	cdpvs	14, 6, cr6, cr15, cr13, {1}
 bd0:	61652d65 	cmnvs	r5, r5, ror #26
 bd4:	392f6962 	stmdbcc	pc!, {r1, r5, r6, r8, fp, sp, lr}	; <UNPREDICTABLE>
 bd8:	312e322e 			; <UNDEFINED> instruction: 0x312e322e
 bdc:	636e692f 	cmnvs	lr, #770048	; 0xbc000
 be0:	6564756c 	strbvs	r7, [r4, #-1388]!	; 0xfffffa94
 be4:	6e690000 	cdpvs	0, 6, cr0, cr9, cr0, {0}
 be8:	65676574 	strbvs	r6, [r7, #-1396]!	; 0xfffffa8c
 bec:	616d2d72 	smcvs	53970	; 0xd2d2
 bf0:	682e6874 	stmdavs	lr!, {r2, r4, r5, r6, fp, sp, lr}
 bf4:	00000100 	andeq	r0, r0, r0, lsl #2
 bf8:	74726175 	ldrbtvc	r6, [r2], #-373	; 0xfffffe8b
 bfc:	0200632e 	andeq	r6, r0, #-1207959552	; 0xb8000000
 c00:	74730000 	ldrbtvc	r0, [r3], #-0
 c04:	746e6964 	strbtvc	r6, [lr], #-2404	; 0xfffff69c
 c08:	6363672d 	cmnvs	r3, #11796480	; 0xb40000
 c0c:	0300682e 	movweq	r6, #2094	; 0x82e
 c10:	70670000 	rsbvc	r0, r7, r0
 c14:	682e6f69 	stmdavs	lr!, {r0, r3, r5, r6, r8, r9, sl, fp, sp, lr}
 c18:	00000100 	andeq	r0, r0, r0, lsl #2
 c1c:	74726175 	ldrbtvc	r6, [r2], #-373	; 0xfffffe8b
 c20:	0100682e 	tsteq	r0, lr, lsr #16
 c24:	05000000 	streq	r0, [r0, #-0]
 c28:	02050036 	andeq	r0, r5, #54, 0	; 0x36
 c2c:	20001218 	andcs	r1, r0, r8, lsl r2
 c30:	05011f03 	streq	r1, [r1, #-3843]	; 0xfffff0fd
 c34:	0c056a18 			; <UNDEFINED> instruction: 0x0c056a18
 c38:	052f2f4a 	streq	r2, [pc, #-3914]!	; fffffcf6 <__bss_end__+0xdfff08d6>
 c3c:	0305310a 	movweq	r3, #20746	; 0x510a
 c40:	2109052e 	tstcs	r9, lr, lsr #10
 c44:	05201005 	streq	r1, [r0, #-5]!
 c48:	0c052007 	stceq	0, cr2, [r5], {7}
 c4c:	2e170521 	cfmul64cs	mvdx0, mvdx7, mvdx1
 c50:	2f2e0705 	svccs	0x002e0705
 c54:	053d0c05 	ldreq	r0, [sp, #-3077]!	; 0xfffff3fb
 c58:	09053c08 	stmdbeq	r5, {r3, sl, fp, ip, sp}
 c5c:	19054b3d 	stmdbne	r5, {r0, r2, r3, r4, r5, r8, r9, fp, lr}
 c60:	02040200 	andeq	r0, r4, #0, 4
 c64:	053c7a03 	ldreq	r7, [ip, #-2563]!	; 0xfffff5fd
 c68:	04020003 	streq	r0, [r2], #-3
 c6c:	0a053c01 	beq	14fc78 <STACK_SIZE+0x14d568>
 c70:	053c0903 	ldreq	r0, [ip, #-2307]!	; 0xfffff6fd
 c74:	30052101 	andcc	r2, r5, r1, lsl #2
 c78:	590a0550 	stmdbpl	sl, {r4, r6, r8, sl}
 c7c:	04ad0105 	strteq	r0, [sp], #261	; 0x105
 c80:	03210502 			; <UNDEFINED> instruction: 0x03210502
 c84:	05054a4d 	streq	r4, [r5, #-2637]	; 0xfffff5b3
 c88:	0d05674b 	stceq	7, cr6, [r5, #-300]	; 0xfffffed4
 c8c:	2e080567 	cfsh32cs	mvfx0, mvfx8, #55
 c90:	02002505 	andeq	r2, r0, #20971520	; 0x1400000
 c94:	053c0104 	ldreq	r0, [ip, #-260]!	; 0xfffffefc
 c98:	0402001e 	streq	r0, [r2], #-30	; 0xffffffe2
 c9c:	05052e01 	streq	r2, [r5, #-3585]	; 0xfffff1ff
 ca0:	3e48053f 	mcrcc	5, 2, r0, cr8, cr15, {1}
 ca4:	052e2205 	streq	r2, [lr, #-517]!	; 0xfffffdfb
 ca8:	4b05740e 	blmi	15dce8 <STACK_SIZE+0x15b5d8>
 cac:	2e1f0522 	cfmul64cs	mvdx0, mvdx15, mvdx2
 cb0:	05826d05 	streq	r6, [r2, #3333]	; 0xd05
 cb4:	15053c0e 	strne	r3, [r5, #-3086]	; 0xfffff3f2
 cb8:	740e052f 	strvc	r0, [lr], #-1327	; 0xfffffad1
 cbc:	05230f05 	streq	r0, [r3, #-3845]!	; 0xfffff0fb
 cc0:	0f052e05 	svceq	0x00052e05
 cc4:	2e050567 	cfsh32cs	mvfx0, mvfx5, #55
 cc8:	05680f05 	strbeq	r0, [r8, #-3845]!	; 0xfffff0fb
 ccc:	0f052e05 	svceq	0x00052e05
 cd0:	2e050576 	cfrshl64cs	mvdx5, mvdx6, r0
 cd4:	05760f05 	ldrbeq	r0, [r6, #-3845]!	; 0xfffff0fb
 cd8:	0f052e05 	svceq	0x00052e05
 cdc:	2e050591 	mcrcs	5, 0, r0, cr5, cr1, {4}
 ce0:	05910f05 	ldreq	r0, [r1, #3845]	; 0xf05
 ce4:	09052e05 	stmdbeq	r5, {r0, r2, r9, sl, fp, sp}
 ce8:	05826d03 	streq	r6, [r2, #3331]	; 0xd03
 cec:	20140301 	andscs	r0, r4, r1, lsl #6
 cf0:	05f52005 	ldrbeq	r2, [r5, #5]!
 cf4:	01052f0c 	tsteq	r5, ip, lsl #30
 cf8:	40150521 	andsmi	r0, r5, r1, lsr #10
 cfc:	052f0905 	streq	r0, [pc, #-2309]!	; 3ff <STACK_SIZE-0x2311>
 d00:	19052101 	stmdbne	r5, {r0, r8, sp}
 d04:	2f23053f 	svccs	0x0023053f
 d08:	052e0f05 	streq	r0, [lr, #-3845]!	; 0xfffff0fb
 d0c:	4205583c 	andmi	r5, r5, #60, 16	; 0x3c0000
 d10:	2e0c0520 	cfsh32cs	mvfx0, mvfx12, #16
 d14:	053d0105 	ldreq	r0, [sp, #-261]!	; 0xfffffefb
 d18:	0a055c21 	beq	157da4 <STACK_SIZE+0x155694>
 d1c:	000c0567 	andeq	r0, ip, r7, ror #10
 d20:	20010402 	andcs	r0, r1, r2, lsl #8
 d24:	02000a05 	andeq	r0, r0, #20480	; 0x5000
 d28:	053c0104 	ldreq	r0, [ip, #-260]!	; 0xfffffefc
 d2c:	05052119 	streq	r2, [r5, #-281]	; 0xfffffee7
 d30:	6701052e 	strvs	r0, [r1, -lr, lsr #10]
 d34:	05791905 	ldrbeq	r1, [r9, #-2309]!	; 0xfffff6fb
 d38:	01052f0c 	tsteq	r5, ip, lsl #30
 d3c:	3e1b053d 	mrccc	5, 0, r0, cr11, cr13, {1}
 d40:	052f0905 	streq	r0, [pc, #-2309]!	; 443 <STACK_SIZE-0x22cd>
 d44:	10053c07 	andne	r3, r5, r7, lsl #24
 d48:	3d0c0521 	cfstr32cc	mvfx0, [ip, #-132]	; 0xffffff7c
 d4c:	023d0105 	eorseq	r0, sp, #1073741825	; 0x40000001
 d50:	01010003 	tsteq	r1, r3
 d54:	0000007d 	andeq	r0, r0, sp, ror r0
 d58:	001e0003 	andseq	r0, lr, r3
 d5c:	01020000 	mrseq	r0, (UNDEF: 2)
 d60:	000d0efb 	strdeq	r0, [sp], -fp
 d64:	01010101 	tsteq	r1, r1, lsl #2
 d68:	01000000 	mrseq	r0, (UNDEF: 0)
 d6c:	00010000 	andeq	r0, r1, r0
 d70:	72617473 	rsbvc	r7, r1, #1929379840	; 0x73000000
 d74:	00532e74 	subseq	r2, r3, r4, ror lr
 d78:	00000000 	andeq	r0, r0, r0
 d7c:	00020500 	andeq	r0, r2, r0, lsl #10
 d80:	03200000 	nopeq	{0}	; <UNPREDICTABLE>
 d84:	2121010c 			; <UNDEFINED> instruction: 0x2121010c
 d88:	23212123 			; <UNDEFINED> instruction: 0x23212123
 d8c:	21232121 			; <UNDEFINED> instruction: 0x21232121
 d90:	21212321 			; <UNDEFINED> instruction: 0x21212321
 d94:	22212123 	eorcs	r2, r1, #-1073741816	; 0xc0000008
 d98:	21222221 			; <UNDEFINED> instruction: 0x21222221
 d9c:	21212121 			; <UNDEFINED> instruction: 0x21212121
 da0:	56032122 	strpl	r2, [r3], -r2, lsr #2
 da4:	2f322f2e 	svccs	0x00322f2e
 da8:	2f322f32 	svccs	0x00322f32
 dac:	2f313432 	svccs	0x00313432
 db0:	2e090330 	mcrcs	3, 0, r0, cr9, cr0, {1}
 db4:	01000202 	tsteq	r0, r2, lsl #4
 db8:	02050001 	andeq	r0, r5, #1, 0
 dbc:	20000100 	andcs	r0, r0, r0, lsl #2
 dc0:	21013f03 	tstcs	r1, r3, lsl #30
 dc4:	21252f21 			; <UNDEFINED> instruction: 0x21252f21
 dc8:	21252125 			; <UNDEFINED> instruction: 0x21252125
 dcc:	206a0321 	rsbcs	r0, sl, r1, lsr #6
 dd0:	01000202 	tsteq	r0, r2, lsl #4
 dd4:	0000e401 	andeq	lr, r0, r1, lsl #8
 dd8:	b6000300 	strlt	r0, [r0], -r0, lsl #6
 ddc:	02000000 	andeq	r0, r0, #0, 0
 de0:	0d0efb01 	vstreq	d15, [lr, #-4]
 de4:	01010100 	mrseq	r0, (UNDEF: 17)
 de8:	00000001 	andeq	r0, r0, r1
 dec:	01000001 	tsteq	r0, r1
 df0:	00637273 	rsbeq	r7, r3, r3, ror r2
 df4:	6c636e69 	stclvs	14, cr6, [r3], #-420	; 0xfffffe5c
 df8:	00656475 	rsbeq	r6, r5, r5, ror r4
 dfc:	7273752f 	rsbsvc	r7, r3, #197132288	; 0xbc00000
 e00:	636f6c2f 	cmnvs	pc, #12032	; 0x2f00
 e04:	432f6c61 			; <UNDEFINED> instruction: 0x432f6c61
 e08:	616c6c65 	cmnvs	ip, r5, ror #24
 e0c:	72612f72 	rsbvc	r2, r1, #456	; 0x1c8
 e10:	6f6e2d6d 	svcvs	0x006e2d6d
 e14:	652d656e 	strvs	r6, [sp, #-1390]!	; 0xfffffa92
 e18:	2d696261 	sfmcs	f6, 2, [r9, #-388]!	; 0xfffffe7c
 e1c:	74736574 	ldrbtvc	r6, [r3], #-1396	; 0xfffffa8c
 e20:	322d392f 	eorcc	r3, sp, #770048	; 0xbc000
 e24:	71393130 	teqvc	r9, r0, lsr r1
 e28:	73632d34 	cmnvc	r3, #52, 26	; 0xd00
 e2c:	65373031 	ldrvs	r3, [r7, #-49]!	; 0xffffffcf
 e30:	62696c2f 	rsbvs	r6, r9, #12032	; 0x2f00
 e34:	6363672f 	cmnvs	r3, #12320768	; 0xbc0000
 e38:	6d72612f 	ldfvse	f6, [r2, #-188]!	; 0xffffff44
 e3c:	6e6f6e2d 	cdpvs	14, 6, cr6, cr15, cr13, {1}
 e40:	61652d65 	cmnvs	r5, r5, ror #26
 e44:	392f6962 	stmdbcc	pc!, {r1, r5, r6, r8, fp, sp, lr}	; <UNPREDICTABLE>
 e48:	312e322e 			; <UNDEFINED> instruction: 0x312e322e
 e4c:	636e692f 	cmnvs	lr, #770048	; 0xbc000
 e50:	6564756c 	strbvs	r7, [r4, #-1388]!	; 0xfffffa94
 e54:	73630000 	cmnvc	r3, #0, 0
 e58:	74726174 	ldrbtvc	r6, [r2], #-372	; 0xfffffe8c
 e5c:	0100632e 	tsteq	r0, lr, lsr #6
 e60:	77730000 	ldrbvc	r0, [r3, -r0]!
 e64:	7261752d 	rsbvc	r7, r1, #188743680	; 0xb400000
 e68:	00682e74 	rsbeq	r2, r8, r4, ror lr
 e6c:	73000002 	movwvc	r0, #2
 e70:	6e696474 	mcrvs	4, 3, r6, cr9, cr4, {3}
 e74:	63672d74 	cmnvs	r7, #116, 26	; 0x1d00
 e78:	00682e63 	rsbeq	r2, r8, r3, ror #28
 e7c:	75000003 	strvc	r0, [r0, #-3]
 e80:	2e747261 	cdpcs	2, 7, cr7, cr4, cr1, {3}
 e84:	00020068 	andeq	r0, r2, r8, rrx
 e88:	6f6c6300 	svcvs	0x006c6300
 e8c:	682e6b63 	stmdavs	lr!, {r0, r1, r5, r6, r8, r9, fp, sp, lr}
 e90:	00000200 	andeq	r0, r0, r0, lsl #4
 e94:	000f0500 	andeq	r0, pc, r0, lsl #10
 e98:	14740205 	ldrbtne	r0, [r4], #-517	; 0xfffffdfb
 e9c:	051a2000 	ldreq	r2, [sl, #-0]
 ea0:	762f3005 	strtvc	r3, [pc], -r5
 ea4:	2f17052f 	svccs	0x0017052f
 ea8:	3d1e053d 	cfldr32cc	mvfx0, [lr, #-244]	; 0xffffff0c
 eac:	054b1a05 	strbeq	r1, [fp, #-2565]	; 0xfffff5fb
 eb0:	0b033d05 	bleq	d02cc <STACK_SIZE+0xcdbbc>
 eb4:	2f01054a 	svccs	0x0001054a
 eb8:	01000a02 	tsteq	r0, r2, lsl #20
 ebc:	0000d401 	andeq	sp, r0, r1, lsl #8
 ec0:	39000300 	stmdbcc	r0, {r8, r9}
 ec4:	02000000 	andeq	r0, r0, #0, 0
 ec8:	0d0efb01 	vstreq	d15, [lr, #-4]
 ecc:	01010100 	mrseq	r0, (UNDEF: 17)
 ed0:	00000001 	andeq	r0, r0, r1
 ed4:	01000001 	tsteq	r0, r1
 ed8:	00637273 	rsbeq	r7, r3, r3, ror r2
 edc:	6c636e69 	stclvs	14, cr6, [r3], #-420	; 0xfffffe5c
 ee0:	00656475 	rsbeq	r6, r5, r5, ror r4
 ee4:	2d777300 	ldclcs	3, cr7, [r7, #-0]
 ee8:	74726175 	ldrbtvc	r6, [r2], #-373	; 0xfffffe8b
 eec:	0100632e 	tsteq	r0, lr, lsr #6
 ef0:	77730000 	ldrbvc	r0, [r3, -r0]!
 ef4:	7261752d 	rsbvc	r7, r1, #188743680	; 0xb400000
 ef8:	00682e74 	rsbeq	r2, r8, r4, ror lr
 efc:	00000002 	andeq	r0, r0, r2
 f00:	05003f05 	streq	r3, [r0, #-3845]	; 0xfffff0fb
 f04:	0014cc02 	andseq	ip, r4, r2, lsl #24
 f08:	08051620 	stmdaeq	r5, {r5, r9, sl, ip}
 f0c:	000c0567 	andeq	r0, ip, r7, ror #10
 f10:	3c010402 	cfstrscc	mvf0, [r1], {2}
 f14:	05590a05 	ldrbeq	r0, [r9, #-2565]	; 0xfffff5fb
 f18:	01054b05 	tsteq	r5, r5, lsl #22
 f1c:	4c35054b 	cfldr32mi	mvfx0, [r5], #-300	; 0xfffffed4
 f20:	05760505 	ldrbeq	r0, [r6, #-1285]!	; 0xfffffafb
 f24:	0505830e 	streq	r8, [r5, #-782]	; 0xfffffcf2
 f28:	0009052e 	andeq	r0, r9, lr, lsr #10
 f2c:	21030402 	tstcs	r3, r2, lsl #8
 f30:	02002205 	andeq	r2, r0, #1342177280	; 0x50000000
 f34:	052e0304 	streq	r0, [lr, #-772]!	; 0xfffffcfc
 f38:	04020009 	streq	r0, [r2], #-9
 f3c:	1d055803 	stcne	8, cr5, [r5, #-12]
 f40:	03040200 	movweq	r0, #16896	; 0x4200
 f44:	00050581 	andeq	r0, r5, r1, lsl #11
 f48:	3c010402 	cfstrscc	mvf0, [r1], {2}
 f4c:	83010540 	movwhi	r0, #5440	; 0x1540
 f50:	054c3505 	strbeq	r3, [ip, #-1285]	; 0xfffffafb
 f54:	0505590d 	streq	r5, [r5, #-2317]	; 0xfffff6f3
 f58:	001f052e 	andseq	r0, pc, lr, lsr #10
 f5c:	21030402 	tstcs	r3, r2, lsl #8
 f60:	02000905 	andeq	r0, r0, #81920	; 0x14000
 f64:	053c0304 	ldreq	r0, [ip, #-772]!	; 0xfffffcfc
 f68:	04020025 	streq	r0, [r2], #-37	; 0xffffffdb
 f6c:	17056503 	strne	r6, [r5, -r3, lsl #10]
 f70:	01040200 	mrseq	r0, R12_usr
 f74:	0005053c 	andeq	r0, r5, ip, lsr r5
 f78:	4a010402 	bmi	41f88 <STACK_SIZE+0x3f878>
 f7c:	05310105 	ldreq	r0, [r1, #-261]!	; 0xfffffefb
 f80:	05055a1a 	streq	r5, [r5, #-2586]	; 0xfffff5e6
 f84:	053d3d3d 	ldreq	r3, [sp, #-3389]!	; 0xfffff2c3
 f88:	0c053d11 	stceq	13, cr3, [r5], {17}
 f8c:	21010567 	tstcs	r1, r7, ror #10
 f90:	01000902 	tsteq	r0, r2, lsl #18
 f94:	Address 0x0000000000000f94 is out of bounds.


Disassembly of section .debug_str:

00000000 <.debug_str>:
   0:	676e6f6c 	strbvs	r6, [lr, -ip, ror #30]!
   4:	6e6f6c20 	cdpvs	12, 6, cr6, cr15, cr0, {1}
   8:	6e692067 	cdpvs	0, 6, cr2, cr9, cr7, {3}
   c:	77680074 			; <UNDEFINED> instruction: 0x77680074
  10:	7261755f 	rsbvc	r7, r1, #398458880	; 0x17c00000
  14:	00745f74 	rsbseq	r5, r4, r4, ror pc
  18:	5f637263 	svcpl	0x00637263
  1c:	6f636970 	svcvs	0x00636970
  20:	6e697500 	cdpvs	5, 6, cr7, cr9, cr0, {0}
  24:	5f323374 	svcpl	0x00323374
  28:	6c670074 	stclvs	0, cr0, [r7], #-464	; 0xfffffe30
  2c:	6c61626f 	sfmvs	f6, 2, [r1], #-444	; 0xfffffe44
  30:	5f77685f 	svcpl	0x0077685f
  34:	74726175 	ldrbtvc	r6, [r2], #-373	; 0xfffffe8b
  38:	6e6f6c00 	cdpvs	12, 6, cr6, cr15, cr0, {0}
  3c:	6f6c2067 	svcvs	0x006c2067
  40:	7520676e 	strvc	r6, [r0, #-1902]!	; 0xfffff892
  44:	6769736e 	strbvs	r7, [r9, -lr, ror #6]!
  48:	2064656e 	rsbcs	r6, r4, lr, ror #10
  4c:	00746e69 	rsbseq	r6, r4, r9, ror #28
  50:	616d796d 	cmnvs	sp, sp, ror #18
  54:	632e6e69 			; <UNDEFINED> instruction: 0x632e6e69
  58:	73552f00 	cmpvc	r5, #0, 30
  5c:	2f737265 	svccs	0x00737265
  60:	6e617665 	cdpvs	6, 6, cr7, cr1, cr5, {3}
  64:	61726173 	cmnvs	r2, r3, ror r1
  68:	2f796163 	svccs	0x00796163
  6c:	6b736544 	blvs	1cd9584 <STACK_SIZE+0x1cd6e74>
  70:	2f706f74 	svccs	0x00706f74
  74:	6f636950 	svcvs	0x00636950
  78:	6369702f 	cmnvs	r9, #47, 0	; 0x2f
  7c:	72702d6f 	rsbsvc	r2, r0, #7104	; 0x1bc0
  80:	702f6a6f 	eorvc	r6, pc, pc, ror #20
  84:	72676f72 	rsbvc	r6, r7, #456	; 0x1c8
  88:	2f736d61 	svccs	0x00736d61
  8c:	656c2d36 	strbvs	r2, [ip, #-3382]!	; 0xfffff2ca
  90:	6e750064 	cdpvs	0, 7, cr0, cr5, cr4, {3}
  94:	6e676973 			; <UNDEFINED> instruction: 0x6e676973
  98:	63206465 			; <UNDEFINED> instruction: 0x63206465
  9c:	00726168 	rsbseq	r6, r2, r8, ror #2
  a0:	64756162 	ldrbtvs	r6, [r5], #-354	; 0xfffffe9e
  a4:	7461725f 	strbtvc	r7, [r1], #-607	; 0xfffffda1
  a8:	796d0065 	stmdbvc	sp!, {r0, r2, r5, r6}^
  ac:	6e69616d 	powvsez	f6, f1, #5.0
  b0:	75616200 	strbvc	r6, [r1, #-512]!	; 0xfffffe00
  b4:	4e470064 	cdpmi	0, 4, cr0, cr7, cr4, {3}
  b8:	31432055 	qdaddcc	r2, r5, r3
  bc:	2e392037 	mrccs	0, 1, r2, cr9, cr7, {1}
  c0:	20312e32 	eorscs	r2, r1, r2, lsr lr
  c4:	39313032 	ldmdbcc	r1!, {r1, r4, r5, ip, sp}
  c8:	35323031 	ldrcc	r3, [r2, #-49]!	; 0xffffffcf
  cc:	65722820 	ldrbvs	r2, [r2, #-2080]!	; 0xfffff7e0
  d0:	7361656c 	cmnvc	r1, #108, 10	; 0x1b000000
  d4:	5b202965 	blpl	80a670 <STACK_SIZE+0x807f60>
  d8:	2f4d5241 	svccs	0x004d5241
  dc:	2d6d7261 	sfmcs	f7, 2, [sp, #-388]!	; 0xfffffe7c
  e0:	72622d39 	rsbvc	r2, r2, #3648	; 0xe40
  e4:	68636e61 	stmdavs	r3!, {r0, r5, r6, r9, sl, fp, sp, lr}^
  e8:	76657220 	strbtvc	r7, [r5], -r0, lsr #4
  ec:	6f697369 	svcvs	0x00697369
  f0:	3732206e 	ldrcc	r2, [r2, -lr, rrx]!
  f4:	39393537 	ldmdbcc	r9!, {r0, r1, r2, r4, r5, r8, sl, ip, sp}
  f8:	6d2d205d 	stcvs	0, cr2, [sp, #-372]!	; 0xfffffe8c
  fc:	6d756874 	ldclvs	8, cr6, [r5, #-464]!	; 0xfffffe30
 100:	6d2d2062 	stcvs	0, cr2, [sp, #-392]!	; 0xfffffe78
 104:	3d757063 	ldclcc	0, cr7, [r5, #-396]!	; 0xfffffe74
 108:	74726f63 	ldrbtvc	r6, [r2], #-3939	; 0xfffff09d
 10c:	6d2d7865 	stcvs	8, cr7, [sp, #-404]!	; 0xfffffe6c
 110:	6d2d2030 	stcvs	0, cr2, [sp, #-192]!	; 0xffffff40
 114:	616f6c66 	cmnvs	pc, r6, ror #24
 118:	62612d74 	rsbvs	r2, r1, #116, 26	; 0x1d00
 11c:	6f733d69 	svcvs	0x00733d69
 120:	2d207466 	cfstrscs	mvf7, [r0, #-408]!	; 0xfffffe68
 124:	6372616d 	cmnvs	r2, #1073741851	; 0x4000001b
 128:	72613d68 	rsbvc	r3, r1, #104, 26	; 0x1a00
 12c:	7336766d 	teqvc	r6, #114294784	; 0x6d00000
 130:	2d206d2d 	stccs	13, cr6, [r0, #-180]!	; 0xffffff4c
 134:	662d2067 	strtvs	r2, [sp], -r7, rrx
 138:	65657266 	strbvs	r7, [r5, #-614]!	; 0xfffffd9a
 13c:	6e617473 	mcrvs	4, 3, r7, cr1, cr3, {3}
 140:	676e6964 	strbvs	r6, [lr, -r4, ror #18]!
 144:	646e6900 	strbtvs	r6, [lr], #-2304	; 0xfffff700
 148:	63007865 	movwvs	r7, #2149	; 0x865
 14c:	746e756f 	strbtvc	r7, [lr], #-1391	; 0xfffffa91
 150:	73007265 	movwvc	r7, #613	; 0x265
 154:	74726f68 	ldrbtvc	r6, [r2], #-3944	; 0xfffff098
 158:	736e7520 	cmnvc	lr, #32, 10	; 0x8000000
 15c:	656e6769 	strbvs	r6, [lr, #-1897]!	; 0xfffff897
 160:	6e692064 	cdpvs	0, 6, cr2, cr9, cr4, {3}
 164:	6f6c0074 	svcvs	0x006c0074
 168:	6420676e 	strtvs	r6, [r0], #-1902	; 0xfffff892
 16c:	6c62756f 	cfstr64vs	mvdx7, [r2], #-444	; 0xfffffe44
 170:	6c670065 	stclvs	0, cr0, [r7], #-404	; 0xfffffe6c
 174:	6c61626f 	sfmvs	f6, 2, [r1], #-444	; 0xfffffe44
 178:	7261755f 	rsbvc	r7, r1, #398458880	; 0x17c00000
 17c:	68730074 	ldmdavs	r3!, {r2, r4, r5, r6}^
 180:	2074726f 	rsbscs	r7, r4, pc, ror #4
 184:	00746e69 	rsbseq	r6, r4, r9, ror #28
 188:	63657375 	cmnvs	r5, #-738197503	; 0xd4000001
 18c:	7265705f 	rsbvc	r7, r5, #95, 0	; 0x5f
 190:	7469625f 	strbtvc	r6, [r9], #-607	; 0xfffffda1
 194:	5f777300 	svcpl	0x00777300
 198:	74726175 	ldrbtvc	r6, [r2], #-373	; 0xfffffe8b
 19c:	4700745f 	smlsdmi	r0, pc, r4, r7	; <UNPREDICTABLE>
 1a0:	5f4f4950 	svcpl	0x004f4950
 1a4:	435f454f 	cmpmi	pc, #331350016	; 0x13c00000
 1a8:	4700524c 	strmi	r5, [r0, -ip, asr #4]
 1ac:	5f4f4950 	svcpl	0x004f4950
 1b0:	5f54554f 	svcpl	0x0054554f
 1b4:	00524c43 	subseq	r4, r2, r3, asr #24
 1b8:	425f4f49 	subsmi	r4, pc, #292	; 0x124
 1bc:	5f4b4e41 	svcpl	0x004b4e41
 1c0:	45534142 	ldrbmi	r4, [r3, #-322]	; 0xfffffebe
 1c4:	4154535f 	cmpmi	r4, pc, asr r3
 1c8:	00535554 	subseq	r5, r3, r4, asr r5
 1cc:	304f4950 	subcc	r4, pc, r0, asr r9	; <UNPREDICTABLE>
 1d0:	53455200 	movtpl	r5, #20992	; 0x5200
 1d4:	555f5445 	ldrbpl	r5, [pc, #-1093]	; fffffd97 <__bss_end__+0xdfff0977>
 1d8:	54434253 	strbpl	r4, [r3], #-595	; 0xfffffdad
 1dc:	67004c52 	smlsdvs	r0, r2, ip, r4
 1e0:	5f6f6970 	svcpl	0x006f6970
 1e4:	5f746573 	svcpl	0x00746573
 1e8:	75706e69 	ldrbvc	r6, [r0, #-3689]!	; 0xfffff197
 1ec:	70670074 	rsbvc	r0, r7, r4, ror r0
 1f0:	725f6f69 	subsvc	r6, pc, #420	; 0x1a4
 1f4:	00646165 	rsbeq	r6, r4, r5, ror #2
 1f8:	6f697067 	svcvs	0x00697067
 1fc:	7465735f 	strbtvc	r7, [r5], #-863	; 0xfffffca1
 200:	66666f5f 	uqsaxvs	r6, r6, pc	; <UNPREDICTABLE>
 204:	53455200 	movtpl	r5, #20992	; 0x5200
 208:	495f5445 	ldmdbmi	pc, {r0, r2, r6, sl, ip, lr}^	; <UNPREDICTABLE>
 20c:	41425f4f 	cmpmi	r2, pc, asr #30
 210:	00304b4e 	eorseq	r4, r0, lr, asr #22
 214:	6f697067 	svcvs	0x00697067
 218:	7465735f 	strbtvc	r7, [r5], #-863	; 0xfffffca1
 21c:	74756f5f 	ldrbtvc	r6, [r5], #-3935	; 0xfffff0a1
 220:	00747570 	rsbseq	r7, r4, r0, ror r5
 224:	43544157 	cmpmi	r4, #-1073741803	; 0xc0000015
 228:	4f445f48 	svcmi	0x00445f48
 22c:	50470047 	subpl	r0, r7, r7, asr #32
 230:	495f4f49 	ldmdbmi	pc, {r0, r3, r6, r8, r9, sl, fp, lr}^	; <UNPREDICTABLE>
 234:	4552004e 	ldrbmi	r0, [r2, #-78]	; 0xffffffb2
 238:	5f544553 	svcpl	0x00544553
 23c:	454e4f44 	strbmi	r4, [lr, #-3908]	; 0xfffff0bc
 240:	4f495000 	svcmi	0x00495000
 244:	50470031 	subpl	r0, r7, r1, lsr r0
 248:	4f5f4f49 	svcmi	0x005f4f49
 24c:	45520045 	ldrbmi	r0, [r2, #-69]	; 0xffffffbb
 250:	5f544553 	svcpl	0x00544553
 254:	54524155 	ldrbpl	r4, [r2], #-341	; 0xfffffeab
 258:	45520030 	ldrbmi	r0, [r2, #-48]	; 0xffffffd0
 25c:	5f544553 	svcpl	0x00544553
 260:	54524155 	ldrbpl	r4, [r2], #-341	; 0xfffffeab
 264:	552f0031 	strpl	r0, [pc, #-49]!	; 23b <STACK_SIZE-0x24d5>
 268:	73726573 	cmnvc	r2, #482344960	; 0x1cc00000
 26c:	6176652f 	cmnvs	r6, pc, lsr #10
 270:	7261736e 	rsbvc	r7, r1, #-1207959551	; 0xb8000001
 274:	79616361 	stmdbvc	r1!, {r0, r5, r6, r8, r9, sp, lr}^
 278:	7365442f 	cmnvc	r5, #788529152	; 0x2f000000
 27c:	706f746b 	rsbvc	r7, pc, fp, ror #8
 280:	6369502f 	cmnvs	r9, #47, 0	; 0x2f
 284:	69702f6f 	ldmdbvs	r0!, {r0, r1, r2, r3, r5, r6, r8, r9, sl, fp, sp}^
 288:	702d6f63 	eorvc	r6, sp, r3, ror #30
 28c:	2f6a6f72 	svccs	0x006a6f72
 290:	7062696c 	rsbvc	r6, r2, ip, ror #18
 294:	45520069 	ldrbmi	r0, [r2, #-105]	; 0xffffff97
 298:	53544553 	cmppl	r4, #348127232	; 0x14c00000
 29c:	5345525f 	movtpl	r5, #21087	; 0x525f
 2a0:	435f5445 	cmpmi	pc, #1157627904	; 0x45000000
 2a4:	6700524c 	strvs	r5, [r0, -ip, asr #4]
 2a8:	5f6f6970 	svcpl	0x006f6970
 2ac:	65736572 	ldrbvs	r6, [r3, #-1394]!	; 0xfffffa8e
 2b0:	666f0074 			; <UNDEFINED> instruction: 0x666f0074
 2b4:	74657366 	strbtvc	r7, [r5], #-870	; 0xfffffc9a
 2b8:	5f4f4900 	svcpl	0x004f4900
 2bc:	4b4e4142 	blmi	13907cc <STACK_SIZE+0x138e0bc>
 2c0:	5341425f 	movtpl	r4, #4703	; 0x125f
 2c4:	54435f45 	strbpl	r5, [r3], #-3909	; 0xfffff0bb
 2c8:	72004c52 	andvc	r4, r0, #20992	; 0x5200
 2cc:	74657365 	strbtvc	r7, [r5], #-869	; 0xfffffc9b
 2d0:	7265705f 	rsbvc	r7, r5, #95, 0	; 0x5f
 2d4:	00687069 	rsbeq	r7, r8, r9, rrx
 2d8:	4f495047 	svcmi	0x00495047
 2dc:	5f454f5f 	svcpl	0x00454f5f
 2e0:	00544553 	subseq	r4, r4, r3, asr r5
 2e4:	2f637273 	svccs	0x00637273
 2e8:	6f697067 	svcvs	0x00697067
 2ec:	4700632e 	strmi	r6, [r0, -lr, lsr #6]
 2f0:	5f4f4950 	svcpl	0x004f4950
 2f4:	5f54554f 	svcpl	0x0054554f
 2f8:	00544553 	subseq	r4, r4, r3, asr r5
 2fc:	6f697067 	svcvs	0x00697067
 300:	7465735f 	strbtvc	r7, [r5], #-863	; 0xfffffca1
 304:	6e75665f 	mrcvs	6, 3, r6, cr5, cr15, {2}
 308:	6f697463 	svcvs	0x00697463
 30c:	4552006e 	ldrbmi	r0, [r2, #-110]	; 0xffffff92
 310:	00544553 	subseq	r4, r4, r3, asr r5
 314:	4f495047 	svcmi	0x00495047
 318:	54554f5f 	ldrbpl	r4, [r5], #-3935	; 0xfffff0a1
 31c:	69706700 	ldmdbvs	r0!, {r8, r9, sl, sp, lr}^
 320:	65735f6f 	ldrbvs	r5, [r3, #-3951]!	; 0xfffff091
 324:	6e6f5f74 	mcrvs	15, 3, r5, cr15, cr4, {3}
 328:	534f5800 	movtpl	r5, #63488	; 0xf800
 32c:	4f445f43 	svcmi	0x00445f43
 330:	4e414d52 	mcrmi	13, 2, r4, cr1, cr2, {2}
 334:	6f630054 	svcvs	0x00630054
 338:	00746e75 	rsbseq	r6, r4, r5, ror lr
 33c:	43534f58 	cmpmi	r3, #88, 30	; 0x160
 340:	4154535f 	cmpmi	r4, pc, asr r3
 344:	50555452 	subspl	r5, r5, r2, asr r4
 348:	616e6500 	cmnvs	lr, r0, lsl #10
 34c:	5f656c62 	svcpl	0x00656c62
 350:	5f6b6c63 	svcpl	0x006b6c63
 354:	69726570 	ldmdbvs	r2!, {r4, r5, r6, r8, sl, sp, lr}^
 358:	534f5800 	movtpl	r5, #63488	; 0xf800
 35c:	54535f43 	ldrbpl	r5, [r3], #-3907	; 0xfffff0bd
 360:	53555441 	cmppl	r5, #1090519040	; 0x41000000
 364:	6c656400 	cfstrdvs	mvd6, [r5], #-0
 368:	73007961 	movwvc	r7, #2401	; 0x961
 36c:	6372756f 	cmnvs	r2, #465567744	; 0x1bc00000
 370:	72730065 	rsbsvc	r0, r3, #101, 0	; 0x65
 374:	6c632f63 	stclvs	15, cr2, [r3], #-396	; 0xfffffe74
 378:	2e6b636f 	cdpcs	3, 6, cr6, cr11, cr15, {3}
 37c:	65640063 	strbvs	r0, [r4, #-99]!	; 0xffffff9d
 380:	5f79616c 	svcpl	0x0079616c
 384:	58007375 	stmdapl	r0, {r0, r2, r4, r5, r6, r8, r9, ip, sp, lr}
 388:	5f43534f 	svcpl	0x0043534f
 38c:	4e554f43 	cdpmi	15, 5, cr4, cr5, cr3, {2}
 390:	696d0054 	stmdbvs	sp!, {r2, r4, r6}^
 394:	5f6f7263 	svcpl	0x006f7263
 398:	6f636573 	svcvs	0x00636573
 39c:	5f73646e 	svcpl	0x0073646e
 3a0:	72617473 	rsbvc	r7, r1, #1929379840	; 0x73000000
 3a4:	6e650074 	mcrvs	0, 3, r0, cr5, cr4, {3}
 3a8:	656c6261 	strbvs	r6, [ip, #-609]!	; 0xfffffd9f
 3ac:	6f6c635f 	svcvs	0x006c635f
 3b0:	6e006b63 	vmlsvs.f64	d6, d0, d19
 3b4:	6c5f6d75 	mrrcvs	13, 7, r6, pc, cr5	; <UNPREDICTABLE>
 3b8:	73706f6f 	cmnvc	r0, #444	; 0x1bc
 3bc:	534f5800 	movtpl	r5, #63488	; 0xf800
 3c0:	54435f43 	strbpl	r5, [r3], #-3907	; 0xfffff0bd
 3c4:	43004c52 	movwmi	r4, #3154	; 0xc52
 3c8:	505f4b4c 	subspl	r4, pc, ip, asr #22
 3cc:	5f495245 	svcpl	0x00495245
 3d0:	4c525443 	cfldrdmi	mvd5, [r2], {67}	; 0x43
 3d4:	73657200 	cmnvc	r5, #0, 4
 3d8:	00746c75 	rsbseq	r6, r4, r5, ror ip
 3dc:	5f74756f 	svcpl	0x0074756f
 3e0:	5f746366 	svcpl	0x00746366
 3e4:	70617277 	rsbvc	r7, r1, r7, ror r2
 3e8:	756f5f00 	strbvc	r5, [pc, #-3840]!	; fffff4f0 <__bss_end__+0xdfff00d0>
 3ec:	75625f74 	strbvc	r5, [r2, #-3956]!	; 0xfffff08c
 3f0:	72656666 	rsbvc	r6, r5, #106954752	; 0x6600000
 3f4:	6e697500 	cdpvs	5, 6, cr7, cr9, cr0, {0}
 3f8:	5f343674 	svcpl	0x00343674
 3fc:	69730074 	ldmdbvs	r3!, {r2, r4, r5, r6}^
 400:	745f657a 	ldrbvc	r6, [pc], #-1402	; 408 <STACK_SIZE-0x2308>
 404:	756f5f00 	strbvc	r5, [pc, #-3840]!	; fffff50c <__bss_end__+0xdfff00ec>
 408:	68635f74 	stmdavs	r3!, {r2, r4, r5, r6, r8, r9, sl, fp, ip, lr}^
 40c:	6d007261 	sfmvs	f7, 4, [r0, #-388]	; 0xfffffe7c
 410:	69737861 	ldmdbvs	r3!, {r0, r5, r6, fp, ip, sp, lr}^
 414:	6900657a 	stmdbvs	r0, {r1, r3, r4, r5, r6, r8, sl, sp, lr}
 418:	00646f6d 	rsbeq	r6, r4, sp, ror #30
 41c:	756c6176 	strbvc	r6, [ip, #-374]!	; 0xfffffe8a
 420:	6f5f0065 	svcvs	0x005f0065
 424:	665f7475 			; <UNDEFINED> instruction: 0x665f7475
 428:	75007463 	strvc	r7, [r0, #-1123]	; 0xfffffb9d
 42c:	70746e69 	rsbsvc	r6, r4, r9, ror #28
 430:	745f7274 	ldrbvc	r7, [pc], #-628	; 438 <STACK_SIZE-0x22d8>
 434:	61747300 	cmnvs	r4, r0, lsl #6
 438:	695f7472 	ldmdbvs	pc, {r1, r4, r5, r6, sl, ip, sp, lr}^	; <UNPREDICTABLE>
 43c:	73007864 	movwvc	r7, #2148	; 0x864
 440:	702f6372 	eorvc	r6, pc, r2, ror r3	; <UNPREDICTABLE>
 444:	746e6972 	strbtvc	r6, [lr], #-2418	; 0xfffff68e
 448:	00632e66 	rsbeq	r2, r3, r6, ror #28
 44c:	74646977 	strbtvc	r6, [r4], #-2423	; 0xfffff689
 450:	63660068 	cmnvs	r6, #104, 0	; 0x68
 454:	69727074 	ldmdbvs	r2!, {r2, r4, r5, r6, ip, sp, lr}^
 458:	0066746e 	rsbeq	r7, r6, lr, ror #8
 45c:	6167656e 	cmnvs	r7, lr, ror #10
 460:	65766974 	ldrbvs	r6, [r6, #-2420]!	; 0xfffff68c
 464:	765f5f00 	ldrbvc	r5, [pc], -r0, lsl #30
 468:	696c5f61 	stmdbvs	ip!, {r0, r5, r6, r8, r9, sl, fp, ip, lr}^
 46c:	69007473 	stmdbvs	r0, {r0, r1, r4, r5, r6, sl, ip, sp, lr}
 470:	00736261 	rsbseq	r6, r3, r1, ror #4
 474:	6f746e5f 	svcvs	0x00746e5f
 478:	6f665f61 	svcvs	0x00665f61
 47c:	74616d72 	strbtvc	r6, [r1], #-3442	; 0xfffff28e
 480:	756f5f00 	strbvc	r5, [pc, #-3840]!	; fffff588 <__bss_end__+0xdfff0168>
 484:	756e5f74 	strbvc	r5, [lr, #-3956]!	; 0xfffff08c
 488:	75006c6c 	strvc	r6, [r0, #-3180]	; 0xfffff394
 48c:	00766964 	rsbseq	r6, r6, r4, ror #18
 490:	5f74756f 	svcpl	0x0074756f
 494:	5f746366 	svcpl	0x00746366
 498:	65707974 	ldrbvs	r7, [r0, #-2420]!	; 0xfffff68c
 49c:	746e5f00 	strbtvc	r5, [lr], #-3840	; 0xfffff100
 4a0:	6c5f616f 	ldfvse	f6, [pc], {111}	; 0x6f
 4a4:	00676e6f 	rsbeq	r6, r7, pc, ror #28
 4a8:	67616c66 	strbvs	r6, [r1, -r6, ror #24]!
 4ac:	5f5f0073 	svcpl	0x005f0073
 4b0:	76007061 	strvc	r7, [r0], -r1, rrx
 4b4:	72706e73 	rsbsvc	r6, r0, #1840	; 0x730
 4b8:	66746e69 	ldrbtvs	r6, [r4], -r9, ror #28
 4bc:	616d005f 	qdsubvs	r0, pc, sp	; <UNPREDICTABLE>
 4c0:	6e656c78 	mcrvs	12, 3, r6, cr5, cr8, {3}
 4c4:	74615f00 	strbtvc	r5, [r1], #-3840	; 0xfffff100
 4c8:	5f00696f 	svcpl	0x0000696f
 4cc:	6e727473 	mrcvs	4, 3, r7, cr2, cr3, {3}
 4d0:	5f6e656c 	svcpl	0x006e656c
 4d4:	425f0073 	subsmi	r0, pc, #115, 0	; 0x73
 4d8:	006c6f6f 	rsbeq	r6, ip, pc, ror #30
 4dc:	69727073 	ldmdbvs	r2!, {r0, r1, r4, r5, r6, ip, sp, lr}^
 4e0:	5f66746e 	svcpl	0x0066746e
 4e4:	73695f00 	cmnvc	r9, #0, 30
 4e8:	6769645f 			; <UNDEFINED> instruction: 0x6769645f
 4ec:	5f007469 	svcpl	0x00007469
 4f0:	706e7376 	rsbvc	r7, lr, r6, ror r3
 4f4:	746e6972 	strbtvc	r6, [lr], #-2418	; 0xfffff68e
 4f8:	68630066 	stmdavs	r3!, {r1, r2, r5, r6}^
 4fc:	63617261 	cmnvs	r1, #268435462	; 0x10000006
 500:	00726574 	rsbseq	r6, r2, r4, ror r5
 504:	74756f5f 	ldrbtvc	r6, [r5], #-3935	; 0xfffff0a1
 508:	7665725f 			; <UNDEFINED> instruction: 0x7665725f
 50c:	69646900 	stmdbvs	r4!, {r8, fp, sp, lr}^
 510:	705f0076 	subsvc	r0, pc, r6, ror r0	; <UNPREDICTABLE>
 514:	68637475 	stmdavs	r3!, {r0, r2, r4, r5, r6, sl, ip, sp, lr}^
 518:	6f007261 	svcvs	0x00007261
 51c:	665f7475 			; <UNDEFINED> instruction: 0x665f7475
 520:	775f7463 	ldrbvc	r7, [pc, -r3, ror #8]
 524:	5f706172 	svcpl	0x00706172
 528:	65707974 	ldrbvs	r7, [r0, #-2420]!	; 0xfffff68c
 52c:	65727000 	ldrbvs	r7, [r2, #-0]!
 530:	5f5f0063 	svcpl	0x005f0063
 534:	63756e67 	cmnvs	r5, #1648	; 0x670
 538:	5f61765f 	svcpl	0x0061765f
 53c:	7473696c 	ldrbtvc	r6, [r3], #-2412	; 0xfffff694
 540:	73616200 	cmnvc	r1, #0, 4
 544:	69640065 	stmdbvs	r4!, {r0, r2, r5, r6}^
 548:	00756c76 	rsbseq	r6, r5, r6, ror ip
 54c:	63657270 	cmnvs	r5, #112, 4
 550:	6f697369 	svcvs	0x00697369
 554:	7076006e 	rsbsvc	r0, r6, lr, rrx
 558:	746e6972 	strbtvc	r6, [lr], #-2418	; 0xfffff68e
 55c:	75005f66 	strvc	r5, [r0, #-3942]	; 0xfffff09a
 560:	5f747261 	svcpl	0x00747261
 564:	74696e69 	strbtvc	r6, [r9], #-3689	; 0xfffff197
 568:	52415500 	subpl	r5, r1, #0, 10
 56c:	53525f54 	cmppl	r2, #84, 30	; 0x150
 570:	464f5f52 			; <UNDEFINED> instruction: 0x464f5f52
 574:	54455346 	strbpl	r5, [r5], #-838	; 0xfffffcba
 578:	63727300 	cmnvs	r2, #0, 6
 57c:	7261752f 	rsbvc	r7, r1, #197132288	; 0xbc00000
 580:	00632e74 	rsbeq	r2, r3, r4, ror lr
 584:	434e5546 	movtmi	r5, #58694	; 0xe546
 588:	4f49535f 	svcmi	0x0049535f
 58c:	52415500 	subpl	r5, r1, #0, 10
 590:	42495f54 	submi	r5, r9, #84, 30	; 0x150
 594:	4f5f4452 	svcmi	0x005f4452
 598:	45534646 	ldrbmi	r4, [r3, #-1606]	; 0xfffff9ba
 59c:	61750054 	cmnvs	r5, r4, asr r0
 5a0:	675f7472 			; <UNDEFINED> instruction: 0x675f7472
 5a4:	5f637465 	svcpl	0x00637465
 5a8:	6e797361 	cdpvs	3, 7, cr7, cr9, cr1, {3}
 5ac:	41550063 	cmpmi	r5, r3, rrx
 5b0:	435f5452 	cmpmi	pc, #1375731712	; 0x52000000
 5b4:	5f4c5254 	svcpl	0x004c5254
 5b8:	5346464f 	movtpl	r4, #26191	; 0x664f
 5bc:	75005445 	strvc	r5, [r0, #-1093]	; 0xfffffbbb
 5c0:	5f747261 	svcpl	0x00747261
 5c4:	5f6e6163 	svcpl	0x006e6163
 5c8:	63747570 	cmnvs	r4, #112, 10	; 0x1c000000
 5cc:	52415500 	subpl	r5, r1, #0, 10
 5d0:	434c5f54 	movtmi	r5, #53076	; 0xcf54
 5d4:	464f5f52 			; <UNDEFINED> instruction: 0x464f5f52
 5d8:	54455346 	strbpl	r5, [r5], #-838	; 0xfffffcba
 5dc:	52415500 	subpl	r5, r1, #0, 10
 5e0:	41445f54 	cmpmi	r4, r4, asr pc
 5e4:	4f5f4154 	svcmi	0x005f4154
 5e8:	45534646 	ldrbmi	r4, [r3, #-1606]	; 0xfffff9ba
 5ec:	61750054 	cmnvs	r5, r4, asr r0
 5f0:	675f7472 			; <UNDEFINED> instruction: 0x675f7472
 5f4:	00637465 	rsbeq	r7, r3, r5, ror #8
 5f8:	64726266 	ldrbtvs	r6, [r2], #-614	; 0xfffffd9a
 5fc:	75616200 	strbvc	r6, [r1, #-512]!	; 0xfffffe00
 600:	61725f64 	cmnvs	r2, r4, ror #30
 604:	645f6574 	ldrbvs	r6, [pc], #-1396	; 60c <STACK_SIZE-0x2104>
 608:	73697669 	cmnvc	r9, #110100480	; 0x6900000
 60c:	7500726f 	strvc	r7, [r0, #-623]	; 0xfffffd91
 610:	5f747261 	svcpl	0x00747261
 614:	5f736168 	svcpl	0x00736168
 618:	61746164 	cmnvs	r4, r4, ror #2
 61c:	75616200 	strbvc	r6, [r1, #-512]!	; 0xfffffe00
 620:	61725f64 	cmnvs	r2, r4, ror #30
 624:	665f6574 			; <UNDEFINED> instruction: 0x665f6574
 628:	00636172 	rsbeq	r6, r3, r2, ror r1
 62c:	74726175 	ldrbtvc	r6, [r2], #-373	; 0xfffffe8b
 630:	6e61635f 	mcrvs	3, 3, r6, cr1, cr15, {2}
 634:	7465675f 	strbtvc	r6, [r5], #-1887	; 0xfffff8a1
 638:	41550063 	cmpmi	r5, r3, rrx
 63c:	465f5452 			; <UNDEFINED> instruction: 0x465f5452
 640:	5f445242 	svcpl	0x00445242
 644:	5346464f 	movtpl	r4, #26191	; 0x664f
 648:	55005445 	strpl	r5, [r0, #-1093]	; 0xfffffbbb
 64c:	5f545241 	svcpl	0x00545241
 650:	4f5f5246 	svcmi	0x005f5246
 654:	45534646 	ldrbmi	r4, [r3, #-1606]	; 0xfffff9ba
 658:	74730054 	ldrbtvc	r0, [r3], #-84	; 0xffffffac
 65c:	2e747261 	cdpcs	2, 7, cr7, cr4, cr1, {3}
 660:	4e470053 	mcrmi	0, 2, r0, cr7, cr3, {2}
 664:	53412055 	movtpl	r2, #4181	; 0x1055
 668:	332e3220 			; <UNDEFINED> instruction: 0x332e3220
 66c:	00312e33 	eorseq	r2, r1, r3, lsr lr
 670:	73625f5f 	cmnvc	r2, #380	; 0x17c
 674:	74735f73 	ldrbtvc	r5, [r3], #-3955	; 0xfffff08d
 678:	5f747261 	svcpl	0x00747261
 67c:	5f5f005f 	svcpl	0x005f005f
 680:	5f737362 	svcpl	0x00737362
 684:	5f646e65 	svcpl	0x00646e65
 688:	7273005f 	rsbsvc	r0, r3, #95, 0	; 0x5f
 68c:	73632f63 	cmnvc	r3, #396	; 0x18c
 690:	74726174 	ldrbtvc	r6, [r2], #-372	; 0xfffffe8c
 694:	6300632e 	movwvs	r6, #814	; 0x32e
 698:	72617473 	rsbvc	r7, r1, #1929379840	; 0x73000000
 69c:	73750074 	cmnvc	r5, #116, 0	; 0x74
 6a0:	73006365 	movwvc	r6, #869	; 0x365
 6a4:	732f6372 			; <UNDEFINED> instruction: 0x732f6372
 6a8:	61752d77 	cmnvs	r5, r7, ror sp
 6ac:	632e7472 			; <UNDEFINED> instruction: 0x632e7472
 6b0:	5f777300 	svcpl	0x00777300
 6b4:	74726175 	ldrbtvc	r6, [r2], #-373	; 0xfffffe8b
 6b8:	7475705f 	ldrbtvc	r7, [r5], #-95	; 0xffffffa1
 6bc:	69740063 	ldmdbvs	r4!, {r0, r1, r5, r6}^
 6c0:	5f64656d 	svcpl	0x0064656d
 6c4:	74697277 	strbtvc	r7, [r9], #-631	; 0xfffffd89
 6c8:	6e690065 	cdpvs	0, 6, cr0, cr9, cr5, {3}
 6cc:	755f7469 	ldrbvc	r7, [pc, #-1129]	; 26b <STACK_SIZE-0x24a5>
 6d0:	5f747261 	svcpl	0x00747261
 6d4:	6e697270 	mcrvs	2, 3, r7, cr9, cr0, {3}
 6d8:	676e6974 			; <UNDEFINED> instruction: 0x676e6974
 6dc:	5f777300 	svcpl	0x00777300
 6e0:	74726175 	ldrbtvc	r6, [r2], #-373	; 0xfffffe8b
 6e4:	7475705f 	ldrbtvc	r7, [r5], #-95	; 0xffffffa1
 6e8:	Address 0x00000000000006e8 is out of bounds.


Disassembly of section .comment:

00000000 <.comment>:
   0:	3a434347 	bcc	10d0d24 <STACK_SIZE+0x10ce614>
   4:	4e472820 	cdpmi	8, 4, cr2, cr7, cr0, {1}
   8:	6f542055 	svcvs	0x00542055
   c:	20736c6f 	rsbscs	r6, r3, pc, ror #24
  10:	20726f66 	rsbscs	r6, r2, r6, ror #30
  14:	206d7241 	rsbcs	r7, sp, r1, asr #4
  18:	65626d45 	strbvs	r6, [r2, #-3397]!	; 0xfffff2bb
  1c:	64656464 	strbtvs	r6, [r5], #-1124	; 0xfffffb9c
  20:	6f725020 	svcvs	0x00725020
  24:	73736563 	cmnvc	r3, #415236096	; 0x18c00000
  28:	2073726f 	rsbscs	r7, r3, pc, ror #4
  2c:	30322d39 	eorscc	r2, r2, r9, lsr sp
  30:	712d3931 			; <UNDEFINED> instruction: 0x712d3931
  34:	616d2d34 	cmnvs	sp, r4, lsr sp
  38:	29726f6a 	ldmdbcs	r2!, {r1, r3, r5, r6, r8, r9, sl, fp, sp, lr}^
  3c:	322e3920 	eorcc	r3, lr, #32, 18	; 0x80000
  40:	3220312e 	eorcc	r3, r0, #-2147483637	; 0x8000000b
  44:	31393130 	teqcc	r9, r0, lsr r1
  48:	20353230 	eorscs	r3, r5, r0, lsr r2
  4c:	6c657228 	sfmvs	f7, 2, [r5], #-160	; 0xffffff60
  50:	65736165 	ldrbvs	r6, [r3, #-357]!	; 0xfffffe9b
  54:	415b2029 	cmpmi	fp, r9, lsr #32
  58:	612f4d52 			; <UNDEFINED> instruction: 0x612f4d52
  5c:	392d6d72 	pushcc	{r1, r4, r5, r6, r8, sl, fp, sp, lr}
  60:	6172622d 	cmnvs	r2, sp, lsr #4
  64:	2068636e 	rsbcs	r6, r8, lr, ror #6
  68:	69766572 	ldmdbvs	r6!, {r1, r4, r5, r6, r8, sl, sp, lr}^
  6c:	6e6f6973 			; <UNDEFINED> instruction: 0x6e6f6973
  70:	37373220 	ldrcc	r3, [r7, -r0, lsr #4]!
  74:	5d393935 			; <UNDEFINED> instruction: 0x5d393935
	...

Disassembly of section .ARM.attributes:

00000000 <.ARM.attributes>:
   0:	00002941 	andeq	r2, r0, r1, asr #18
   4:	61656100 	cmnvs	r5, r0, lsl #2
   8:	01006962 	tsteq	r0, r2, ror #18
   c:	0000001f 	andeq	r0, r0, pc, lsl r0
  10:	2d533605 	ldclcs	6, cr3, [r3, #-20]	; 0xffffffec
  14:	0c06004d 	stceq	0, cr0, [r6], {77}	; 0x4d
  18:	01094d07 	tsteq	r9, r7, lsl #26
  1c:	01140412 	tsteq	r4, r2, lsl r4
  20:	03170115 	tsteq	r7, #1073741829	; 0x40000005
  24:	011a0118 	tsteq	sl, r8, lsl r1
  28:	Address 0x0000000000000028 is out of bounds.


Disassembly of section .debug_frame:

00000000 <.debug_frame>:
   0:	0000000c 	andeq	r0, r0, ip
   4:	ffffffff 			; <UNDEFINED> instruction: 0xffffffff
   8:	7c020001 	stcvc	0, cr0, [r2], {1}
   c:	000d0c0e 	andeq	r0, sp, lr, lsl #24
  10:	0000001c 	andeq	r0, r0, ip, lsl r0
  14:	00000000 	andeq	r0, r0, r0
  18:	2000011c 	andcs	r0, r0, ip, lsl r1
  1c:	00000040 	andeq	r0, r0, r0, asr #32
  20:	87080e41 	strhi	r0, [r8, -r1, asr #28]
  24:	41018e02 	tstmi	r1, r2, lsl #28
  28:	0d41100e 	stcleq	0, cr1, [r1, #-56]	; 0xffffffc8
  2c:	00000007 	andeq	r0, r0, r7
  30:	0000000c 	andeq	r0, r0, ip
  34:	ffffffff 			; <UNDEFINED> instruction: 0xffffffff
  38:	7c020001 	stcvc	0, cr0, [r2], {1}
  3c:	000d0c0e 	andeq	r0, sp, lr, lsl #24
  40:	0000001c 	andeq	r0, r0, ip, lsl r0
  44:	00000030 	andeq	r0, r0, r0, lsr r0
  48:	2000015c 	andcs	r0, r0, ip, asr r1
  4c:	00000048 	andeq	r0, r0, r8, asr #32
  50:	87080e41 	strhi	r0, [r8, -r1, asr #28]
  54:	41018e02 	tstmi	r1, r2, lsl #28
  58:	0d41100e 	stcleq	0, cr1, [r1, #-56]	; 0xffffffc8
  5c:	00000007 	andeq	r0, r0, r7
  60:	00000018 	andeq	r0, r0, r8, lsl r0
  64:	00000030 	andeq	r0, r0, r0, lsr r0
  68:	200001a4 	andcs	r0, r0, r4, lsr #3
  6c:	00000010 	andeq	r0, r0, r0, lsl r0
  70:	87080e41 	strhi	r0, [r8, -r1, asr #28]
  74:	41018e02 	tstmi	r1, r2, lsl #28
  78:	0000070d 	andeq	r0, r0, sp, lsl #14
  7c:	0000001c 	andeq	r0, r0, ip, lsl r0
  80:	00000030 	andeq	r0, r0, r0, lsr r0
  84:	200001b4 			; <UNDEFINED> instruction: 0x200001b4
  88:	00000040 	andeq	r0, r0, r0, asr #32
  8c:	87080e41 	strhi	r0, [r8, -r1, asr #28]
  90:	41018e02 	tstmi	r1, r2, lsl #28
  94:	0d41180e 	stcleq	8, cr1, [r1, #-56]	; 0xffffffc8
  98:	00000007 	andeq	r0, r0, r7
  9c:	0000001c 	andeq	r0, r0, ip, lsl r0
  a0:	00000030 	andeq	r0, r0, r0, lsr r0
  a4:	200001f4 	strdcs	r0, [r0], -r4
  a8:	00000040 	andeq	r0, r0, r0, asr #32
  ac:	87080e41 	strhi	r0, [r8, -r1, asr #28]
  b0:	41018e02 	tstmi	r1, r2, lsl #28
  b4:	0d41180e 	stcleq	8, cr1, [r1, #-56]	; 0xffffffc8
  b8:	00000007 	andeq	r0, r0, r7
  bc:	0000001c 	andeq	r0, r0, ip, lsl r0
  c0:	00000030 	andeq	r0, r0, r0, lsr r0
  c4:	20000234 	andcs	r0, r0, r4, lsr r2
  c8:	00000034 	andeq	r0, r0, r4, lsr r0
  cc:	87080e41 	strhi	r0, [r8, -r1, asr #28]
  d0:	41018e02 	tstmi	r1, r2, lsl #28
  d4:	0d41100e 	stcleq	0, cr1, [r1, #-56]	; 0xffffffc8
  d8:	00000007 	andeq	r0, r0, r7
  dc:	0000001c 	andeq	r0, r0, ip, lsl r0
  e0:	00000030 	andeq	r0, r0, r0, lsr r0
  e4:	20000268 	andcs	r0, r0, r8, ror #4
  e8:	0000007c 	andeq	r0, r0, ip, ror r0
  ec:	87080e41 	strhi	r0, [r8, -r1, asr #28]
  f0:	41018e02 	tstmi	r1, r2, lsl #28
  f4:	0d41180e 	stcleq	8, cr1, [r1, #-56]	; 0xffffffc8
  f8:	00000007 	andeq	r0, r0, r7
  fc:	0000001c 	andeq	r0, r0, ip, lsl r0
 100:	00000030 	andeq	r0, r0, r0, lsr r0
 104:	200002e4 	andcs	r0, r0, r4, ror #5
 108:	00000030 	andeq	r0, r0, r0, lsr r0
 10c:	87080e41 	strhi	r0, [r8, -r1, asr #28]
 110:	41018e02 	tstmi	r1, r2, lsl #28
 114:	0d41100e 	stcleq	0, cr1, [r1, #-56]	; 0xffffffc8
 118:	00000007 	andeq	r0, r0, r7
 11c:	0000001c 	andeq	r0, r0, ip, lsl r0
 120:	00000030 	andeq	r0, r0, r0, lsr r0
 124:	20000314 	andcs	r0, r0, r4, lsl r3
 128:	00000030 	andeq	r0, r0, r0, lsr r0
 12c:	87080e41 	strhi	r0, [r8, -r1, asr #28]
 130:	41018e02 	tstmi	r1, r2, lsl #28
 134:	0d41100e 	stcleq	0, cr1, [r1, #-56]	; 0xffffffc8
 138:	00000007 	andeq	r0, r0, r7
 13c:	0000000c 	andeq	r0, r0, ip
 140:	ffffffff 			; <UNDEFINED> instruction: 0xffffffff
 144:	7c020001 	stcvc	0, cr0, [r2], {1}
 148:	000d0c0e 	andeq	r0, sp, lr, lsl #24
 14c:	00000018 	andeq	r0, r0, r8, lsl r0
 150:	0000013c 	andeq	r0, r0, ip, lsr r1
 154:	20000344 	andcs	r0, r0, r4, asr #6
 158:	0000005c 	andeq	r0, r0, ip, asr r0
 15c:	87080e41 	strhi	r0, [r8, -r1, asr #28]
 160:	41018e02 	tstmi	r1, r2, lsl #28
 164:	0000070d 	andeq	r0, r0, sp, lsl #14
 168:	0000001c 	andeq	r0, r0, ip, lsl r0
 16c:	0000013c 	andeq	r0, r0, ip, lsr r1
 170:	200003a0 	andcs	r0, r0, r0, lsr #7
 174:	0000005c 	andeq	r0, r0, ip, asr r0
 178:	87080e41 	strhi	r0, [r8, -r1, asr #28]
 17c:	41018e02 	tstmi	r1, r2, lsl #28
 180:	0d41100e 	stcleq	0, cr1, [r1, #-56]	; 0xffffffc8
 184:	00000007 	andeq	r0, r0, r7
 188:	0000001c 	andeq	r0, r0, ip, lsl r0
 18c:	0000013c 	andeq	r0, r0, ip, lsr r1
 190:	200003fc 	strdcs	r0, [r0], -ip
 194:	00000058 	andeq	r0, r0, r8, asr r0
 198:	87080e41 	strhi	r0, [r8, -r1, asr #28]
 19c:	41018e02 	tstmi	r1, r2, lsl #28
 1a0:	0d41180e 	stcleq	8, cr1, [r1, #-56]	; 0xffffffc8
 1a4:	00000007 	andeq	r0, r0, r7
 1a8:	0000001c 	andeq	r0, r0, ip, lsl r0
 1ac:	0000013c 	andeq	r0, r0, ip, lsr r1
 1b0:	20000454 	andcs	r0, r0, r4, asr r4
 1b4:	00000048 	andeq	r0, r0, r8, asr #32
 1b8:	87080e41 	strhi	r0, [r8, -r1, asr #28]
 1bc:	41018e02 	tstmi	r1, r2, lsl #28
 1c0:	0d41100e 	stcleq	0, cr1, [r1, #-56]	; 0xffffffc8
 1c4:	00000007 	andeq	r0, r0, r7
 1c8:	0000001c 	andeq	r0, r0, ip, lsl r0
 1cc:	0000013c 	andeq	r0, r0, ip, lsr r1
 1d0:	2000049c 	mulcs	r0, ip, r4
 1d4:	00000038 	andeq	r0, r0, r8, lsr r0
 1d8:	87080e41 	strhi	r0, [r8, -r1, asr #28]
 1dc:	41018e02 	tstmi	r1, r2, lsl #28
 1e0:	0d41100e 	stcleq	0, cr1, [r1, #-56]	; 0xffffffc8
 1e4:	00000007 	andeq	r0, r0, r7
 1e8:	0000000c 	andeq	r0, r0, ip
 1ec:	ffffffff 			; <UNDEFINED> instruction: 0xffffffff
 1f0:	7c020001 	stcvc	0, cr0, [r2], {1}
 1f4:	000d0c0e 	andeq	r0, sp, lr, lsl #24
 1f8:	0000001c 	andeq	r0, r0, ip, lsl r0
 1fc:	000001e8 	andeq	r0, r0, r8, ror #3
 200:	200004d4 	ldrdcs	r0, [r0], -r4
 204:	00000018 	andeq	r0, r0, r8, lsl r0
 208:	87080e41 	strhi	r0, [r8, -r1, asr #28]
 20c:	41018e02 	tstmi	r1, r2, lsl #28
 210:	0d41100e 	stcleq	0, cr1, [r1, #-56]	; 0xffffffc8
 214:	00000007 	andeq	r0, r0, r7
 218:	00000020 	andeq	r0, r0, r0, lsr #32
 21c:	000001e8 	andeq	r0, r0, r8, ror #3
 220:	200004ec 	andcs	r0, r0, ip, ror #9
 224:	0000006e 	andeq	r0, r0, lr, rrx
 228:	84100e41 	ldrhi	r0, [r0], #-3649	; 0xfffff1bf
 22c:	87038504 	strhi	r8, [r3, -r4, lsl #10]
 230:	41018e02 	tstmi	r1, r2, lsl #28
 234:	0d41380e 	stcleq	8, cr3, [r1, #-56]	; 0xffffffc8
 238:	00000007 	andeq	r0, r0, r7
 23c:	00000020 	andeq	r0, r0, r0, lsr #32
 240:	000001e8 	andeq	r0, r0, r8, ror #3
 244:	2000055a 	andcs	r0, r0, sl, asr r5
 248:	00000028 	andeq	r0, r0, r8, lsr #32
 24c:	84100e41 	ldrhi	r0, [r0], #-3649	; 0xfffff1bf
 250:	87038504 	strhi	r8, [r3, -r4, lsl #10]
 254:	41018e02 	tstmi	r1, r2, lsl #28
 258:	0d41180e 	stcleq	8, cr1, [r1, #-56]	; 0xffffffc8
 25c:	00000007 	andeq	r0, r0, r7
 260:	0000001c 	andeq	r0, r0, ip, lsl r0
 264:	000001e8 	andeq	r0, r0, r8, ror #3
 268:	20000582 	andcs	r0, r0, r2, lsl #11
 26c:	0000005c 	andeq	r0, r0, ip, asr r0
 270:	840c0e41 	strhi	r0, [ip], #-3649	; 0xfffff1bf
 274:	8e028703 	cdphi	7, 0, cr8, cr2, cr3, {0}
 278:	200e4101 	andcs	r4, lr, r1, lsl #2
 27c:	00070d41 	andeq	r0, r7, r1, asr #26
 280:	0000001c 	andeq	r0, r0, ip, lsl r0
 284:	000001e8 	andeq	r0, r0, r8, ror #3
 288:	200005de 	ldrdcs	r0, [r0], -lr
 28c:	00000036 	andeq	r0, r0, r6, lsr r0
 290:	87080e41 	strhi	r0, [r8, -r1, asr #28]
 294:	41018e02 	tstmi	r1, r2, lsl #28
 298:	0d41180e 	stcleq	8, cr1, [r1, #-56]	; 0xffffffc8
 29c:	00000007 	andeq	r0, r0, r7
 2a0:	0000001c 	andeq	r0, r0, ip, lsl r0
 2a4:	000001e8 	andeq	r0, r0, r8, ror #3
 2a8:	20000614 	andcs	r0, r0, r4, lsl r6
 2ac:	0000001e 	andeq	r0, r0, lr, lsl r0
 2b0:	87080e41 	strhi	r0, [r8, -r1, asr #28]
 2b4:	41018e02 	tstmi	r1, r2, lsl #28
 2b8:	0d41100e 	stcleq	0, cr1, [r1, #-56]	; 0xffffffc8
 2bc:	00000007 	andeq	r0, r0, r7
 2c0:	0000001c 	andeq	r0, r0, ip, lsl r0
 2c4:	000001e8 	andeq	r0, r0, r8, ror #3
 2c8:	20000632 	andcs	r0, r0, r2, lsr r6
 2cc:	00000030 	andeq	r0, r0, r0, lsr r0
 2d0:	87080e41 	strhi	r0, [r8, -r1, asr #28]
 2d4:	41018e02 	tstmi	r1, r2, lsl #28
 2d8:	0d41180e 	stcleq	8, cr1, [r1, #-56]	; 0xffffffc8
 2dc:	00000007 	andeq	r0, r0, r7
 2e0:	0000001c 	andeq	r0, r0, ip, lsl r0
 2e4:	000001e8 	andeq	r0, r0, r8, ror #3
 2e8:	20000662 	andcs	r0, r0, r2, ror #12
 2ec:	0000001c 	andeq	r0, r0, ip, lsl r0
 2f0:	87080e41 	strhi	r0, [r8, -r1, asr #28]
 2f4:	41018e02 	tstmi	r1, r2, lsl #28
 2f8:	0d41180e 	stcleq	8, cr1, [r1, #-56]	; 0xffffffc8
 2fc:	00000007 	andeq	r0, r0, r7
 300:	0000001c 	andeq	r0, r0, ip, lsl r0
 304:	000001e8 	andeq	r0, r0, r8, ror #3
 308:	2000067e 	andcs	r0, r0, lr, ror r6
 30c:	00000030 	andeq	r0, r0, r0, lsr r0
 310:	87080e41 	strhi	r0, [r8, -r1, asr #28]
 314:	41018e02 	tstmi	r1, r2, lsl #28
 318:	0d41180e 	stcleq	8, cr1, [r1, #-56]	; 0xffffffc8
 31c:	00000007 	andeq	r0, r0, r7
 320:	0000001c 	andeq	r0, r0, ip, lsl r0
 324:	000001e8 	andeq	r0, r0, r8, ror #3
 328:	200006ae 	andcs	r0, r0, lr, lsr #13
 32c:	00000036 	andeq	r0, r0, r6, lsr r0
 330:	87080e41 	strhi	r0, [r8, -r1, asr #28]
 334:	41018e02 	tstmi	r1, r2, lsl #28
 338:	0d41180e 	stcleq	8, cr1, [r1, #-56]	; 0xffffffc8
 33c:	00000007 	andeq	r0, r0, r7
 340:	0000001c 	andeq	r0, r0, ip, lsl r0
 344:	000001e8 	andeq	r0, r0, r8, ror #3
 348:	200006e4 	andcs	r0, r0, r4, ror #13
 34c:	00000036 	andeq	r0, r0, r6, lsr r0
 350:	87080e41 	strhi	r0, [r8, -r1, asr #28]
 354:	41018e02 	tstmi	r1, r2, lsl #28
 358:	0d41180e 	stcleq	8, cr1, [r1, #-56]	; 0xffffffc8
 35c:	00000007 	andeq	r0, r0, r7
 360:	0000001c 	andeq	r0, r0, ip, lsl r0
 364:	000001e8 	andeq	r0, r0, r8, ror #3
 368:	2000071a 	andcs	r0, r0, sl, lsl r7
 36c:	00000032 	andeq	r0, r0, r2, lsr r0
 370:	87080e41 	strhi	r0, [r8, -r1, asr #28]
 374:	41018e02 	tstmi	r1, r2, lsl #28
 378:	0d41100e 	stcleq	0, cr1, [r1, #-56]	; 0xffffffc8
 37c:	00000007 	andeq	r0, r0, r7
 380:	0000001c 	andeq	r0, r0, ip, lsl r0
 384:	000001e8 	andeq	r0, r0, r8, ror #3
 388:	2000074c 	andcs	r0, r0, ip, asr #14
 38c:	00000046 	andeq	r0, r0, r6, asr #32
 390:	87080e41 	strhi	r0, [r8, -r1, asr #28]
 394:	41018e02 	tstmi	r1, r2, lsl #28
 398:	0d41180e 	stcleq	8, cr1, [r1, #-56]	; 0xffffffc8
 39c:	00000007 	andeq	r0, r0, r7
 3a0:	0000001c 	andeq	r0, r0, ip, lsl r0
 3a4:	000001e8 	andeq	r0, r0, r8, ror #3
 3a8:	20000792 	mulcs	r0, r2, r7
 3ac:	0000009a 	muleq	r0, sl, r0
 3b0:	840c0e41 	strhi	r0, [ip], #-3649	; 0xfffff1bf
 3b4:	8e028703 	cdphi	7, 0, cr8, cr2, cr3, {0}
 3b8:	280e4101 	stmdacs	lr, {r0, r8, lr}
 3bc:	00070d41 	andeq	r0, r7, r1, asr #26
 3c0:	0000001c 	andeq	r0, r0, ip, lsl r0
 3c4:	000001e8 	andeq	r0, r0, r8, ror #3
 3c8:	2000082c 	andcs	r0, r0, ip, lsr #16
 3cc:	000001ac 	andeq	r0, r0, ip, lsr #3
 3d0:	840c0e41 	strhi	r0, [ip], #-3649	; 0xfffff1bf
 3d4:	8e028703 	cdphi	7, 0, cr8, cr2, cr3, {0}
 3d8:	300e4101 	andcc	r4, lr, r1, lsl #2
 3dc:	20070c41 	andcs	r0, r7, r1, asr #24
 3e0:	0000001c 	andeq	r0, r0, ip, lsl r0
 3e4:	000001e8 	andeq	r0, r0, r8, ror #3
 3e8:	200009d8 	ldrdcs	r0, [r0], -r8
 3ec:	000000d6 	ldrdeq	r0, [r0], -r6
 3f0:	840c0e41 	strhi	r0, [ip], #-3649	; 0xfffff1bf
 3f4:	8e028703 	cdphi	7, 0, cr8, cr2, cr3, {0}
 3f8:	680e4101 	stmdavs	lr, {r0, r8, lr}
 3fc:	48070c41 	stmdami	r7, {r0, r6, sl, fp}
 400:	00000020 	andeq	r0, r0, r0, lsr #32
 404:	000001e8 	andeq	r0, r0, r8, ror #3
 408:	20000aae 	andcs	r0, r0, lr, lsr #21
 40c:	0000060c 	andeq	r0, r0, ip, lsl #12
 410:	84140e41 	ldrhi	r0, [r4], #-3649	; 0xfffff1bf
 414:	86048505 	strhi	r8, [r4], -r5, lsl #10
 418:	8e028703 	cdphi	7, 0, cr8, cr2, cr3, {0}
 41c:	780e4101 	stmdavc	lr, {r0, r8, lr}
 420:	60070c41 	andvs	r0, r7, r1, asr #24
 424:	00000020 	andeq	r0, r0, r0, lsr #32
 428:	000001e8 	andeq	r0, r0, r8, ror #3
 42c:	200010ba 	strhcs	r1, [r0], -sl
 430:	0000003a 	andeq	r0, r0, sl, lsr r0
 434:	41100e41 	tstmi	r0, r1, asr #28
 438:	07841c0e 	streq	r1, [r4, lr, lsl #24]
 43c:	058e0687 	streq	r0, [lr, #1671]	; 0x687
 440:	41380e41 	teqmi	r8, r1, asr #28
 444:	0030070c 	eorseq	r0, r0, ip, lsl #14
 448:	00000020 	andeq	r0, r0, r0, lsr #32
 44c:	000001e8 	andeq	r0, r0, r8, ror #3
 450:	200010f4 	strdcs	r1, [r0], -r4
 454:	0000003c 	andeq	r0, r0, ip, lsr r0
 458:	410c0e41 	tstmi	ip, r1, asr #28
 45c:	0684180e 	streq	r1, [r4], lr, lsl #16
 460:	048e0587 	streq	r0, [lr], #1415	; 0x587
 464:	41300e41 	teqmi	r0, r1, asr #28
 468:	0028070c 	eoreq	r0, r8, ip, lsl #14
 46c:	00000020 	andeq	r0, r0, r0, lsr #32
 470:	000001e8 	andeq	r0, r0, r8, ror #3
 474:	20001130 	andcs	r1, r0, r0, lsr r1
 478:	0000003c 	andeq	r0, r0, ip, lsr r0
 47c:	41080e41 	tstmi	r8, r1, asr #28
 480:	0584140e 	streq	r1, [r4, #1038]	; 0x40e
 484:	038e0487 	orreq	r0, lr, #-2030043136	; 0x87000000
 488:	41300e41 	teqmi	r0, r1, asr #28
 48c:	0028070c 	eoreq	r0, r8, ip, lsl #14
 490:	0000001c 	andeq	r0, r0, ip, lsl r0
 494:	000001e8 	andeq	r0, r0, r8, ror #3
 498:	2000116c 	andcs	r1, r0, ip, ror #2
 49c:	00000030 	andeq	r0, r0, r0, lsr r0
 4a0:	840c0e41 	strhi	r0, [ip], #-3649	; 0xfffff1bf
 4a4:	8e028703 	cdphi	7, 0, cr8, cr2, cr3, {0}
 4a8:	280e4101 	stmdacs	lr, {r0, r8, lr}
 4ac:	20070c41 	andcs	r0, r7, r1, asr #24
 4b0:	0000001c 	andeq	r0, r0, ip, lsl r0
 4b4:	000001e8 	andeq	r0, r0, r8, ror #3
 4b8:	2000119c 	mulcs	r0, ip, r1
 4bc:	00000030 	andeq	r0, r0, r0, lsr r0
 4c0:	840c0e41 	strhi	r0, [ip], #-3649	; 0xfffff1bf
 4c4:	8e028703 	cdphi	7, 0, cr8, cr2, cr3, {0}
 4c8:	280e4101 	stmdacs	lr, {r0, r8, lr}
 4cc:	20070c41 	andcs	r0, r7, r1, asr #24
 4d0:	00000020 	andeq	r0, r0, r0, lsr #32
 4d4:	000001e8 	andeq	r0, r0, r8, ror #3
 4d8:	200011cc 	andcs	r1, r0, ip, asr #3
 4dc:	0000004c 	andeq	r0, r0, ip, asr #32
 4e0:	41080e41 	tstmi	r8, r1, asr #28
 4e4:	0584140e 	streq	r1, [r4, #1038]	; 0x40e
 4e8:	038e0487 	orreq	r0, lr, #-2030043136	; 0x87000000
 4ec:	41380e41 	teqmi	r8, r1, asr #28
 4f0:	0030070c 	eorseq	r0, r0, ip, lsl #14
 4f4:	0000000c 	andeq	r0, r0, ip
 4f8:	ffffffff 			; <UNDEFINED> instruction: 0xffffffff
 4fc:	7c020001 	stcvc	0, cr0, [r2], {1}
 500:	000d0c0e 	andeq	r0, sp, lr, lsl #24
 504:	00000020 	andeq	r0, r0, r0, lsr #32
 508:	000004f4 	strdeq	r0, [r0], -r4
 50c:	20001218 	andcs	r1, r0, r8, lsl r2
 510:	0000006e 	andeq	r0, r0, lr, rrx
 514:	84100e41 	ldrhi	r0, [r0], #-3649	; 0xfffff1bf
 518:	87038504 	strhi	r8, [r3, -r4, lsl #10]
 51c:	41018e02 	tstmi	r1, r2, lsl #28
 520:	0d41380e 	stcleq	8, cr3, [r1, #-56]	; 0xffffffc8
 524:	00000007 	andeq	r0, r0, r7
 528:	00000020 	andeq	r0, r0, r0, lsr #32
 52c:	000004f4 	strdeq	r0, [r0], -r4
 530:	20001286 	andcs	r1, r0, r6, lsl #5
 534:	00000028 	andeq	r0, r0, r8, lsr #32
 538:	84100e41 	ldrhi	r0, [r0], #-3649	; 0xfffff1bf
 53c:	87038504 	strhi	r8, [r3, -r4, lsl #10]
 540:	41018e02 	tstmi	r1, r2, lsl #28
 544:	0d41180e 	stcleq	8, cr1, [r1, #-56]	; 0xffffffc8
 548:	00000007 	andeq	r0, r0, r7
 54c:	0000001c 	andeq	r0, r0, ip, lsl r0
 550:	000004f4 	strdeq	r0, [r0], -r4
 554:	200012ae 	andcs	r1, r0, lr, lsr #5
 558:	00000122 	andeq	r0, r0, r2, lsr #2
 55c:	87080e41 	strhi	r0, [r8, -r1, asr #28]
 560:	41018e02 	tstmi	r1, r2, lsl #28
 564:	0d41200e 	stcleq	0, cr2, [r1, #-56]	; 0xffffffc8
 568:	00000007 	andeq	r0, r0, r7
 56c:	00000018 	andeq	r0, r0, r8, lsl r0
 570:	000004f4 	strdeq	r0, [r0], -r4
 574:	200013d0 	ldrdcs	r1, [r0], -r0
 578:	0000000c 	andeq	r0, r0, ip
 57c:	87080e41 	strhi	r0, [r8, -r1, asr #28]
 580:	41018e02 	tstmi	r1, r2, lsl #28
 584:	0000070d 	andeq	r0, r0, sp, lsl #14
 588:	00000018 	andeq	r0, r0, r8, lsl r0
 58c:	000004f4 	strdeq	r0, [r0], -r4
 590:	200013dc 	ldrdcs	r1, [r0], -ip
 594:	0000000c 	andeq	r0, r0, ip
 598:	87080e41 	strhi	r0, [r8, -r1, asr #28]
 59c:	41018e02 	tstmi	r1, r2, lsl #28
 5a0:	0000070d 	andeq	r0, r0, sp, lsl #14
 5a4:	00000018 	andeq	r0, r0, r8, lsl r0
 5a8:	000004f4 	strdeq	r0, [r0], -r4
 5ac:	200013e8 	andcs	r1, r0, r8, ror #7
 5b0:	00000028 	andeq	r0, r0, r8, lsr #32
 5b4:	87080e41 	strhi	r0, [r8, -r1, asr #28]
 5b8:	41018e02 	tstmi	r1, r2, lsl #28
 5bc:	0000070d 	andeq	r0, r0, sp, lsl #14
 5c0:	0000001c 	andeq	r0, r0, ip, lsl r0
 5c4:	000004f4 	strdeq	r0, [r0], -r4
 5c8:	20001410 	andcs	r1, r0, r0, lsl r4
 5cc:	00000034 	andeq	r0, r0, r4, lsr r0
 5d0:	87080e41 	strhi	r0, [r8, -r1, asr #28]
 5d4:	41018e02 	tstmi	r1, r2, lsl #28
 5d8:	0d41100e 	stcleq	0, cr1, [r1, #-56]	; 0xffffffc8
 5dc:	00000007 	andeq	r0, r0, r7
 5e0:	00000018 	andeq	r0, r0, r8, lsl r0
 5e4:	000004f4 	strdeq	r0, [r0], -r4
 5e8:	20001444 	andcs	r1, r0, r4, asr #8
 5ec:	00000010 	andeq	r0, r0, r0, lsl r0
 5f0:	87080e41 	strhi	r0, [r8, -r1, asr #28]
 5f4:	41018e02 	tstmi	r1, r2, lsl #28
 5f8:	0000070d 	andeq	r0, r0, sp, lsl #14
 5fc:	00000018 	andeq	r0, r0, r8, lsl r0
 600:	000004f4 	strdeq	r0, [r0], -r4
 604:	20001454 	andcs	r1, r0, r4, asr r4
 608:	0000001e 	andeq	r0, r0, lr, lsl r0
 60c:	87080e41 	strhi	r0, [r8, -r1, asr #28]
 610:	41018e02 	tstmi	r1, r2, lsl #28
 614:	0000070d 	andeq	r0, r0, sp, lsl #14
 618:	0000000c 	andeq	r0, r0, ip
 61c:	ffffffff 			; <UNDEFINED> instruction: 0xffffffff
 620:	7c020001 	stcvc	0, cr0, [r2], {1}
 624:	000d0c0e 	andeq	r0, sp, lr, lsl #24
 628:	00000018 	andeq	r0, r0, r8, lsl r0
 62c:	00000618 	andeq	r0, r0, r8, lsl r6
 630:	20001474 	andcs	r1, r0, r4, ror r4
 634:	00000058 	andeq	r0, r0, r8, asr r0
 638:	87080e41 	strhi	r0, [r8, -r1, asr #28]
 63c:	41018e02 	tstmi	r1, r2, lsl #28
 640:	0000070d 	andeq	r0, r0, sp, lsl #14
 644:	0000000c 	andeq	r0, r0, ip
 648:	ffffffff 			; <UNDEFINED> instruction: 0xffffffff
 64c:	7c020001 	stcvc	0, cr0, [r2], {1}
 650:	000d0c0e 	andeq	r0, sp, lr, lsl #24
 654:	0000001c 	andeq	r0, r0, ip, lsl r0
 658:	00000644 	andeq	r0, r0, r4, asr #12
 65c:	200014cc 	andcs	r1, r0, ip, asr #9
 660:	00000034 	andeq	r0, r0, r4, lsr r0
 664:	87080e41 	strhi	r0, [r8, -r1, asr #28]
 668:	41018e02 	tstmi	r1, r2, lsl #28
 66c:	0d41180e 	stcleq	8, cr1, [r1, #-56]	; 0xffffffc8
 670:	00000007 	andeq	r0, r0, r7
 674:	0000001c 	andeq	r0, r0, ip, lsl r0
 678:	00000644 	andeq	r0, r0, r4, asr #12
 67c:	20001500 	andcs	r1, r0, r0, lsl #10
 680:	00000066 	andeq	r0, r0, r6, rrx
 684:	87080e41 	strhi	r0, [r8, -r1, asr #28]
 688:	41018e02 	tstmi	r1, r2, lsl #28
 68c:	0d41180e 	stcleq	8, cr1, [r1, #-56]	; 0xffffffc8
 690:	00000007 	andeq	r0, r0, r7
 694:	0000001c 	andeq	r0, r0, ip, lsl r0
 698:	00000644 	andeq	r0, r0, r4, asr #12
 69c:	20001566 	andcs	r1, r0, r6, ror #10
 6a0:	0000003e 	andeq	r0, r0, lr, lsr r0
 6a4:	87080e41 	strhi	r0, [r8, -r1, asr #28]
 6a8:	41018e02 	tstmi	r1, r2, lsl #28
 6ac:	0d41180e 	stcleq	8, cr1, [r1, #-56]	; 0xffffffc8
 6b0:	00000007 	andeq	r0, r0, r7
 6b4:	0000001c 	andeq	r0, r0, ip, lsl r0
 6b8:	00000644 	andeq	r0, r0, r4, asr #12
 6bc:	200015a4 	andcs	r1, r0, r4, lsr #11
 6c0:	00000038 	andeq	r0, r0, r8, lsr r0
 6c4:	840c0e41 	strhi	r0, [ip], #-3649	; 0xfffff1bf
 6c8:	8e028703 	cdphi	7, 0, cr8, cr2, cr3, {0}
 6cc:	200e4101 	andcs	r4, lr, r1, lsl #2
 6d0:	00070d41 	andeq	r0, r7, r1, asr #26

Disassembly of section .debug_ranges:

00000000 <.debug_ranges>:
   0:	ffffffff 			; <UNDEFINED> instruction: 0xffffffff
   4:	00000000 	andeq	r0, r0, r0
   8:	20000000 	andcs	r0, r0, r0
   c:	20000074 	andcs	r0, r0, r4, ror r0
  10:	20000100 	andcs	r0, r0, r0, lsl #2
  14:	2000011c 	andcs	r0, r0, ip, lsl r1
	...
