
./build/mymain.elf:     file format elf32-littlearm


Disassembly of section .text:

20000000 <__boot_start__>:
20000000:	480e      	ldr	r0, [pc, #56]	; (2000003c <_boot_start_loop+0x12>)
20000002:	490f      	ldr	r1, [pc, #60]	; (20000040 <_boot_start_loop+0x16>)
20000004:	6001      	str	r1, [r0, #0]
20000006:	480f      	ldr	r0, [pc, #60]	; (20000044 <_boot_start_loop+0x1a>)
20000008:	490f      	ldr	r1, [pc, #60]	; (20000048 <_boot_start_loop+0x1e>)
2000000a:	6001      	str	r1, [r0, #0]
2000000c:	480f      	ldr	r0, [pc, #60]	; (2000004c <_boot_start_loop+0x22>)
2000000e:	4910      	ldr	r1, [pc, #64]	; (20000050 <_boot_start_loop+0x26>)
20000010:	6001      	str	r1, [r0, #0]
20000012:	4810      	ldr	r0, [pc, #64]	; (20000054 <_boot_start_loop+0x2a>)
20000014:	4910      	ldr	r1, [pc, #64]	; (20000058 <_boot_start_loop+0x2e>)
20000016:	6001      	str	r1, [r0, #0]
20000018:	4810      	ldr	r0, [pc, #64]	; (2000005c <_boot_start_loop+0x32>)
2000001a:	4809      	ldr	r0, [pc, #36]	; (20000040 <_boot_start_loop+0x16>)
2000001c:	6001      	str	r1, [r0, #0]
2000001e:	4807      	ldr	r0, [pc, #28]	; (2000003c <_boot_start_loop+0x12>)
20000020:	490f      	ldr	r1, [pc, #60]	; (20000060 <_boot_start_loop+0x36>)
20000022:	6001      	str	r1, [r0, #0]
20000024:	480f      	ldr	r0, [pc, #60]	; (20000064 <_boot_start_loop+0x3a>)
20000026:	4910      	ldr	r1, [pc, #64]	; (20000068 <_boot_start_loop+0x3e>)
20000028:	4a10      	ldr	r2, [pc, #64]	; (2000006c <_boot_start_loop+0x42>)

2000002a <_boot_start_loop>:
2000002a:	6803      	ldr	r3, [r0, #0]
2000002c:	600b      	str	r3, [r1, #0]
2000002e:	3004      	adds	r0, #4
20000030:	3104      	adds	r1, #4
20000032:	4291      	cmp	r1, r2
20000034:	d1f9      	bne.n	2000002a <_boot_start_loop>
20000036:	480e      	ldr	r0, [pc, #56]	; (20000070 <_boot_start_loop+0x46>)
20000038:	4700      	bx	r0
2000003a:	00080000 	andeq	r0, r8, r0
2000003e:	00001800 	andeq	r1, r0, r0, lsl #16
20000042:	00140000 	andseq	r0, r4, r0
20000046:	00081800 	andeq	r1, r8, r0, lsl #16
2000004a:	00000000 	andeq	r0, r0, r0
2000004e:	03001800 	movweq	r1, #2048	; 0x800
20000052:	00f4001f 	rscseq	r0, r4, pc, lsl r0
20000056:	02181800 	andseq	r1, r8, #0, 16
2000005a:	00040300 	andeq	r0, r4, r0, lsl #6
2000005e:	00011800 	andeq	r1, r1, r0, lsl #16
20000062:	00000000 	andeq	r0, r0, r0
20000066:	00001000 	andeq	r1, r0, r0
2000006a:	f0002000 			; <UNDEFINED> instruction: 0xf0002000
2000006e:	01012000 	mrseq	r2, (UNDEF: 1)
20000072:	00002000 	andeq	r2, r0, r0
	...

20000100 <_start>:
20000100:	4805      	ldr	r0, [pc, #20]	; (20000118 <DELAY+0x6>)
20000102:	4685      	mov	sp, r0
20000104:	f000 f82a 	bl	2000015c <cstart>
20000108:	e7fe      	b.n	20000108 <_start+0x8>

2000010a <PUT32>:
2000010a:	6001      	str	r1, [r0, #0]
2000010c:	4770      	bx	lr

2000010e <GET32>:
2000010e:	6800      	ldr	r0, [r0, #0]
20000110:	4770      	bx	lr

20000112 <DELAY>:
20000112:	3801      	subs	r0, #1
20000114:	d1fd      	bne.n	20000112 <DELAY>
20000116:	4770      	bx	lr
20000118:	20010000 	andcs	r0, r1, r0

2000011c <mymain>:
2000011c:	b580      	push	{r7, lr}
2000011e:	b082      	sub	sp, #8
20000120:	af00      	add	r7, sp, #0
20000122:	200f      	movs	r0, #15
20000124:	f000 f8e6 	bl	200002f4 <gpio_set_output>
20000128:	2300      	movs	r3, #0
2000012a:	607b      	str	r3, [r7, #4]
2000012c:	200f      	movs	r0, #15
2000012e:	f000 f91f 	bl	20000370 <gpio_set_on>
20000132:	4b08      	ldr	r3, [pc, #32]	; (20000154 <mymain+0x38>)
20000134:	0018      	movs	r0, r3
20000136:	f000 f9a7 	bl	20000488 <delay_us>
2000013a:	4b07      	ldr	r3, [pc, #28]	; (20000158 <mymain+0x3c>)
2000013c:	0018      	movs	r0, r3
2000013e:	f001 f88a 	bl	20001256 <printf_>
20000142:	200f      	movs	r0, #15
20000144:	f000 f92c 	bl	200003a0 <gpio_set_off>
20000148:	4b02      	ldr	r3, [pc, #8]	; (20000154 <mymain+0x38>)
2000014a:	0018      	movs	r0, r3
2000014c:	f000 f99c 	bl	20000488 <delay_us>
20000150:	e7ec      	b.n	2000012c <mymain+0x10>
20000152:	46c0      	nop			; (mov r8, r8)
20000154:	000f4240 	andeq	r4, pc, r0, asr #4
20000158:	10001610 	andne	r1, r0, r0, lsl r6

2000015c <cstart>:
2000015c:	b580      	push	{r7, lr}
2000015e:	b082      	sub	sp, #8
20000160:	af00      	add	r7, sp, #0
20000162:	4b1b      	ldr	r3, [pc, #108]	; (200001d0 <cstart+0x74>)
20000164:	603b      	str	r3, [r7, #0]
20000166:	4b1b      	ldr	r3, [pc, #108]	; (200001d4 <cstart+0x78>)
20000168:	607b      	str	r3, [r7, #4]
2000016a:	e004      	b.n	20000176 <cstart+0x1a>
2000016c:	687b      	ldr	r3, [r7, #4]
2000016e:	1c5a      	adds	r2, r3, #1
20000170:	607a      	str	r2, [r7, #4]
20000172:	2200      	movs	r2, #0
20000174:	701a      	strb	r2, [r3, #0]
20000176:	687a      	ldr	r2, [r7, #4]
20000178:	683b      	ldr	r3, [r7, #0]
2000017a:	429a      	cmp	r2, r3
2000017c:	d3f6      	bcc.n	2000016c <cstart+0x10>
2000017e:	f000 f955 	bl	2000042c <enable_clock>
20000182:	2388      	movs	r3, #136	; 0x88
20000184:	011b      	lsls	r3, r3, #4
20000186:	4a14      	ldr	r2, [pc, #80]	; (200001d8 <cstart+0x7c>)
20000188:	0019      	movs	r1, r3
2000018a:	0010      	movs	r0, r2
2000018c:	f7ff ffbd 	bl	2000010a <PUT32>
20000190:	f000 f84e 	bl	20000230 <gpio_reset>
20000194:	f000 fa50 	bl	20000638 <init_uart_printing>
20000198:	4b10      	ldr	r3, [pc, #64]	; (200001dc <cstart+0x80>)
2000019a:	220c      	movs	r2, #12
2000019c:	601a      	str	r2, [r3, #0]
2000019e:	4b0f      	ldr	r3, [pc, #60]	; (200001dc <cstart+0x80>)
200001a0:	220d      	movs	r2, #13
200001a2:	605a      	str	r2, [r3, #4]
200001a4:	4b0d      	ldr	r3, [pc, #52]	; (200001dc <cstart+0x80>)
200001a6:	22e1      	movs	r2, #225	; 0xe1
200001a8:	0252      	lsls	r2, r2, #9
200001aa:	609a      	str	r2, [r3, #8]
200001ac:	4b0b      	ldr	r3, [pc, #44]	; (200001dc <cstart+0x80>)
200001ae:	4a0c      	ldr	r2, [pc, #48]	; (200001e0 <cstart+0x84>)
200001b0:	60da      	str	r2, [r3, #12]
200001b2:	4b0a      	ldr	r3, [pc, #40]	; (200001dc <cstart+0x80>)
200001b4:	0018      	movs	r0, r3
200001b6:	f001 f948 	bl	2000144a <uart_init>
200001ba:	4b0a      	ldr	r3, [pc, #40]	; (200001e4 <cstart+0x88>)
200001bc:	0018      	movs	r0, r3
200001be:	f001 f84a 	bl	20001256 <printf_>
200001c2:	f7ff ffab 	bl	2000011c <mymain>
200001c6:	46c0      	nop			; (mov r8, r8)
200001c8:	46bd      	mov	sp, r7
200001ca:	b002      	add	sp, #8
200001cc:	bd80      	pop	{r7, pc}
200001ce:	46c0      	nop			; (mov r8, r8)
200001d0:	2000f020 	andcs	pc, r0, r0, lsr #32
200001d4:	2000f000 	andcs	pc, r0, r0
200001d8:	40008048 	andmi	r8, r0, r8, asr #32
200001dc:	2000f000 	andcs	pc, r0, r0
200001e0:	40034000 	andmi	r4, r3, r0
200001e4:	10001620 	andne	r1, r0, r0, lsr #12

200001e8 <reset_periph>:
200001e8:	b580      	push	{r7, lr}
200001ea:	b082      	sub	sp, #8
200001ec:	af00      	add	r7, sp, #0
200001ee:	6078      	str	r0, [r7, #4]
200001f0:	2201      	movs	r2, #1
200001f2:	687b      	ldr	r3, [r7, #4]
200001f4:	409a      	lsls	r2, r3
200001f6:	0013      	movs	r3, r2
200001f8:	001a      	movs	r2, r3
200001fa:	4b0b      	ldr	r3, [pc, #44]	; (20000228 <reset_periph+0x40>)
200001fc:	0011      	movs	r1, r2
200001fe:	0018      	movs	r0, r3
20000200:	f7ff ff83 	bl	2000010a <PUT32>
20000204:	46c0      	nop			; (mov r8, r8)
20000206:	4b09      	ldr	r3, [pc, #36]	; (2000022c <reset_periph+0x44>)
20000208:	0018      	movs	r0, r3
2000020a:	f7ff ff80 	bl	2000010e <GET32>
2000020e:	0002      	movs	r2, r0
20000210:	687b      	ldr	r3, [r7, #4]
20000212:	40da      	lsrs	r2, r3
20000214:	0013      	movs	r3, r2
20000216:	2201      	movs	r2, #1
20000218:	4013      	ands	r3, r2
2000021a:	d0f4      	beq.n	20000206 <reset_periph+0x1e>
2000021c:	46c0      	nop			; (mov r8, r8)
2000021e:	46c0      	nop			; (mov r8, r8)
20000220:	46bd      	mov	sp, r7
20000222:	b002      	add	sp, #8
20000224:	bd80      	pop	{r7, pc}
20000226:	46c0      	nop			; (mov r8, r8)
20000228:	4000f000 	andmi	pc, r0, r0
2000022c:	4000c008 	andmi	ip, r0, r8

20000230 <gpio_reset>:
20000230:	b580      	push	{r7, lr}
20000232:	af00      	add	r7, sp, #0
20000234:	2005      	movs	r0, #5
20000236:	f7ff ffd7 	bl	200001e8 <reset_periph>
2000023a:	46c0      	nop			; (mov r8, r8)
2000023c:	46bd      	mov	sp, r7
2000023e:	bd80      	pop	{r7, pc}

20000240 <gpio_set_function>:
20000240:	b580      	push	{r7, lr}
20000242:	b084      	sub	sp, #16
20000244:	af00      	add	r7, sp, #0
20000246:	6078      	str	r0, [r7, #4]
20000248:	6039      	str	r1, [r7, #0]
2000024a:	687b      	ldr	r3, [r7, #4]
2000024c:	2b1d      	cmp	r3, #29
2000024e:	d80f      	bhi.n	20000270 <gpio_set_function+0x30>
20000250:	683b      	ldr	r3, [r7, #0]
20000252:	2b07      	cmp	r3, #7
20000254:	d80e      	bhi.n	20000274 <gpio_set_function+0x34>
20000256:	687b      	ldr	r3, [r7, #4]
20000258:	00db      	lsls	r3, r3, #3
2000025a:	60fb      	str	r3, [r7, #12]
2000025c:	68fb      	ldr	r3, [r7, #12]
2000025e:	4a07      	ldr	r2, [pc, #28]	; (2000027c <gpio_set_function+0x3c>)
20000260:	4694      	mov	ip, r2
20000262:	4463      	add	r3, ip
20000264:	683a      	ldr	r2, [r7, #0]
20000266:	0011      	movs	r1, r2
20000268:	0018      	movs	r0, r3
2000026a:	f7ff ff4e 	bl	2000010a <PUT32>
2000026e:	e002      	b.n	20000276 <gpio_set_function+0x36>
20000270:	46c0      	nop			; (mov r8, r8)
20000272:	e000      	b.n	20000276 <gpio_set_function+0x36>
20000274:	46c0      	nop			; (mov r8, r8)
20000276:	46bd      	mov	sp, r7
20000278:	b004      	add	sp, #16
2000027a:	bd80      	pop	{r7, pc}
2000027c:	40014004 	andmi	r4, r1, r4

20000280 <gpio_set_input>:
20000280:	b580      	push	{r7, lr}
20000282:	b084      	sub	sp, #16
20000284:	af00      	add	r7, sp, #0
20000286:	6078      	str	r0, [r7, #4]
20000288:	687b      	ldr	r3, [r7, #4]
2000028a:	2b1d      	cmp	r3, #29
2000028c:	d810      	bhi.n	200002b0 <gpio_set_input+0x30>
2000028e:	687b      	ldr	r3, [r7, #4]
20000290:	00db      	lsls	r3, r3, #3
20000292:	60fb      	str	r3, [r7, #12]
20000294:	68fb      	ldr	r3, [r7, #12]
20000296:	4a08      	ldr	r2, [pc, #32]	; (200002b8 <gpio_set_input+0x38>)
20000298:	4694      	mov	ip, r2
2000029a:	4463      	add	r3, ip
2000029c:	2105      	movs	r1, #5
2000029e:	0018      	movs	r0, r3
200002a0:	f7ff ff33 	bl	2000010a <PUT32>
200002a4:	4b05      	ldr	r3, [pc, #20]	; (200002bc <gpio_set_input+0x3c>)
200002a6:	2100      	movs	r1, #0
200002a8:	0018      	movs	r0, r3
200002aa:	f7ff ff2e 	bl	2000010a <PUT32>
200002ae:	e000      	b.n	200002b2 <gpio_set_input+0x32>
200002b0:	46c0      	nop			; (mov r8, r8)
200002b2:	46bd      	mov	sp, r7
200002b4:	b004      	add	sp, #16
200002b6:	bd80      	pop	{r7, pc}
200002b8:	40014004 	andmi	r4, r1, r4
200002bc:	d0002020 	andle	r2, r0, r0, lsr #32

200002c0 <gpio_read>:
200002c0:	b580      	push	{r7, lr}
200002c2:	b082      	sub	sp, #8
200002c4:	af00      	add	r7, sp, #0
200002c6:	6078      	str	r0, [r7, #4]
200002c8:	687b      	ldr	r3, [r7, #4]
200002ca:	2b1d      	cmp	r3, #29
200002cc:	d901      	bls.n	200002d2 <gpio_read+0x12>
200002ce:	2300      	movs	r3, #0
200002d0:	e009      	b.n	200002e6 <gpio_read+0x26>
200002d2:	4b07      	ldr	r3, [pc, #28]	; (200002f0 <gpio_read+0x30>)
200002d4:	0018      	movs	r0, r3
200002d6:	f7ff ff1a 	bl	2000010e <GET32>
200002da:	0002      	movs	r2, r0
200002dc:	687b      	ldr	r3, [r7, #4]
200002de:	40da      	lsrs	r2, r3
200002e0:	0013      	movs	r3, r2
200002e2:	2201      	movs	r2, #1
200002e4:	4013      	ands	r3, r2
200002e6:	0018      	movs	r0, r3
200002e8:	46bd      	mov	sp, r7
200002ea:	b002      	add	sp, #8
200002ec:	bd80      	pop	{r7, pc}
200002ee:	46c0      	nop			; (mov r8, r8)
200002f0:	d0000004 	andle	r0, r0, r4

200002f4 <gpio_set_output>:
200002f4:	b580      	push	{r7, lr}
200002f6:	b084      	sub	sp, #16
200002f8:	af00      	add	r7, sp, #0
200002fa:	6078      	str	r0, [r7, #4]
200002fc:	687b      	ldr	r3, [r7, #4]
200002fe:	2b1d      	cmp	r3, #29
20000300:	d829      	bhi.n	20000356 <gpio_set_output+0x62>
20000302:	687b      	ldr	r3, [r7, #4]
20000304:	00db      	lsls	r3, r3, #3
20000306:	60fb      	str	r3, [r7, #12]
20000308:	2201      	movs	r2, #1
2000030a:	687b      	ldr	r3, [r7, #4]
2000030c:	409a      	lsls	r2, r3
2000030e:	0013      	movs	r3, r2
20000310:	001a      	movs	r2, r3
20000312:	4b13      	ldr	r3, [pc, #76]	; (20000360 <gpio_set_output+0x6c>)
20000314:	0011      	movs	r1, r2
20000316:	0018      	movs	r0, r3
20000318:	f7ff fef7 	bl	2000010a <PUT32>
2000031c:	2201      	movs	r2, #1
2000031e:	687b      	ldr	r3, [r7, #4]
20000320:	409a      	lsls	r2, r3
20000322:	0013      	movs	r3, r2
20000324:	001a      	movs	r2, r3
20000326:	4b0f      	ldr	r3, [pc, #60]	; (20000364 <gpio_set_output+0x70>)
20000328:	0011      	movs	r1, r2
2000032a:	0018      	movs	r0, r3
2000032c:	f7ff feed 	bl	2000010a <PUT32>
20000330:	68fb      	ldr	r3, [r7, #12]
20000332:	4a0d      	ldr	r2, [pc, #52]	; (20000368 <gpio_set_output+0x74>)
20000334:	4694      	mov	ip, r2
20000336:	4463      	add	r3, ip
20000338:	2105      	movs	r1, #5
2000033a:	0018      	movs	r0, r3
2000033c:	f7ff fee5 	bl	2000010a <PUT32>
20000340:	2201      	movs	r2, #1
20000342:	687b      	ldr	r3, [r7, #4]
20000344:	409a      	lsls	r2, r3
20000346:	0013      	movs	r3, r2
20000348:	001a      	movs	r2, r3
2000034a:	4b08      	ldr	r3, [pc, #32]	; (2000036c <gpio_set_output+0x78>)
2000034c:	0011      	movs	r1, r2
2000034e:	0018      	movs	r0, r3
20000350:	f7ff fedb 	bl	2000010a <PUT32>
20000354:	e000      	b.n	20000358 <gpio_set_output+0x64>
20000356:	46c0      	nop			; (mov r8, r8)
20000358:	46bd      	mov	sp, r7
2000035a:	b004      	add	sp, #16
2000035c:	bd80      	pop	{r7, pc}
2000035e:	46c0      	nop			; (mov r8, r8)
20000360:	d0000028 	andle	r0, r0, r8, lsr #32
20000364:	d0000018 	andle	r0, r0, r8, lsl r0
20000368:	40014004 	andmi	r4, r1, r4
2000036c:	d0000024 	andle	r0, r0, r4, lsr #32

20000370 <gpio_set_on>:
20000370:	b580      	push	{r7, lr}
20000372:	b082      	sub	sp, #8
20000374:	af00      	add	r7, sp, #0
20000376:	6078      	str	r0, [r7, #4]
20000378:	687b      	ldr	r3, [r7, #4]
2000037a:	2b1d      	cmp	r3, #29
2000037c:	d80a      	bhi.n	20000394 <gpio_set_on+0x24>
2000037e:	2201      	movs	r2, #1
20000380:	687b      	ldr	r3, [r7, #4]
20000382:	409a      	lsls	r2, r3
20000384:	0013      	movs	r3, r2
20000386:	001a      	movs	r2, r3
20000388:	4b04      	ldr	r3, [pc, #16]	; (2000039c <gpio_set_on+0x2c>)
2000038a:	0011      	movs	r1, r2
2000038c:	0018      	movs	r0, r3
2000038e:	f7ff febc 	bl	2000010a <PUT32>
20000392:	e000      	b.n	20000396 <gpio_set_on+0x26>
20000394:	46c0      	nop			; (mov r8, r8)
20000396:	46bd      	mov	sp, r7
20000398:	b002      	add	sp, #8
2000039a:	bd80      	pop	{r7, pc}
2000039c:	d0000014 	andle	r0, r0, r4, lsl r0

200003a0 <gpio_set_off>:
200003a0:	b580      	push	{r7, lr}
200003a2:	b082      	sub	sp, #8
200003a4:	af00      	add	r7, sp, #0
200003a6:	6078      	str	r0, [r7, #4]
200003a8:	687b      	ldr	r3, [r7, #4]
200003aa:	2b1d      	cmp	r3, #29
200003ac:	d80a      	bhi.n	200003c4 <gpio_set_off+0x24>
200003ae:	2201      	movs	r2, #1
200003b0:	687b      	ldr	r3, [r7, #4]
200003b2:	409a      	lsls	r2, r3
200003b4:	0013      	movs	r3, r2
200003b6:	001a      	movs	r2, r3
200003b8:	4b04      	ldr	r3, [pc, #16]	; (200003cc <gpio_set_off+0x2c>)
200003ba:	0011      	movs	r1, r2
200003bc:	0018      	movs	r0, r3
200003be:	f7ff fea4 	bl	2000010a <PUT32>
200003c2:	e000      	b.n	200003c6 <gpio_set_off+0x26>
200003c4:	46c0      	nop			; (mov r8, r8)
200003c6:	46bd      	mov	sp, r7
200003c8:	b002      	add	sp, #8
200003ca:	bd80      	pop	{r7, pc}
200003cc:	d0000018 	andle	r0, r0, r8, lsl r0

200003d0 <seconds_start>:
200003d0:	b580      	push	{r7, lr}
200003d2:	af00      	add	r7, sp, #0
200003d4:	4b11      	ldr	r3, [pc, #68]	; (2000041c <seconds_start+0x4c>)
200003d6:	2104      	movs	r1, #4
200003d8:	0018      	movs	r0, r3
200003da:	f7ff fe96 	bl	2000010a <PUT32>
200003de:	4a10      	ldr	r2, [pc, #64]	; (20000420 <seconds_start+0x50>)
200003e0:	4b10      	ldr	r3, [pc, #64]	; (20000424 <seconds_start+0x54>)
200003e2:	0011      	movs	r1, r2
200003e4:	0018      	movs	r0, r3
200003e6:	f7ff fe90 	bl	2000010a <PUT32>
200003ea:	4b0f      	ldr	r3, [pc, #60]	; (20000428 <seconds_start+0x58>)
200003ec:	2100      	movs	r1, #0
200003ee:	0018      	movs	r0, r3
200003f0:	f7ff fe8b 	bl	2000010a <PUT32>
200003f4:	4b09      	ldr	r3, [pc, #36]	; (2000041c <seconds_start+0x4c>)
200003f6:	2105      	movs	r1, #5
200003f8:	0018      	movs	r0, r3
200003fa:	f7ff fe86 	bl	2000010a <PUT32>
200003fe:	46c0      	nop			; (mov r8, r8)
20000400:	4b06      	ldr	r3, [pc, #24]	; (2000041c <seconds_start+0x4c>)
20000402:	0018      	movs	r0, r3
20000404:	f7ff fe83 	bl	2000010e <GET32>
20000408:	0003      	movs	r3, r0
2000040a:	0c1b      	lsrs	r3, r3, #16
2000040c:	2201      	movs	r2, #1
2000040e:	4013      	ands	r3, r2
20000410:	d0f6      	beq.n	20000400 <seconds_start+0x30>
20000412:	46c0      	nop			; (mov r8, r8)
20000414:	46c0      	nop			; (mov r8, r8)
20000416:	46bd      	mov	sp, r7
20000418:	bd80      	pop	{r7, pc}
2000041a:	46c0      	nop			; (mov r8, r8)
2000041c:	e000e010 	and	lr, r0, r0, lsl r0
20000420:	00b71aff 	ldrshteq	r1, [r7], pc
20000424:	e000e014 	and	lr, r0, r4, lsl r0
20000428:	e000e018 	and	lr, r0, r8, lsl r0

2000042c <enable_clock>:
2000042c:	b580      	push	{r7, lr}
2000042e:	b082      	sub	sp, #8
20000430:	af00      	add	r7, sp, #0
20000432:	232f      	movs	r3, #47	; 0x2f
20000434:	607b      	str	r3, [r7, #4]
20000436:	23aa      	movs	r3, #170	; 0xaa
20000438:	011b      	lsls	r3, r3, #4
2000043a:	4a0e      	ldr	r2, [pc, #56]	; (20000474 <enable_clock+0x48>)
2000043c:	0019      	movs	r1, r3
2000043e:	0010      	movs	r0, r2
20000440:	f7ff fe63 	bl	2000010a <PUT32>
20000444:	687b      	ldr	r3, [r7, #4]
20000446:	4a0c      	ldr	r2, [pc, #48]	; (20000478 <enable_clock+0x4c>)
20000448:	0019      	movs	r1, r3
2000044a:	0010      	movs	r0, r2
2000044c:	f7ff fe5d 	bl	2000010a <PUT32>
20000450:	4a0a      	ldr	r2, [pc, #40]	; (2000047c <enable_clock+0x50>)
20000452:	4b0b      	ldr	r3, [pc, #44]	; (20000480 <enable_clock+0x54>)
20000454:	0011      	movs	r1, r2
20000456:	0018      	movs	r0, r3
20000458:	f7ff fe57 	bl	2000010a <PUT32>
2000045c:	46c0      	nop			; (mov r8, r8)
2000045e:	4b09      	ldr	r3, [pc, #36]	; (20000484 <enable_clock+0x58>)
20000460:	0018      	movs	r0, r3
20000462:	f7ff fe54 	bl	2000010e <GET32>
20000466:	1e03      	subs	r3, r0, #0
20000468:	daf9      	bge.n	2000045e <enable_clock+0x32>
2000046a:	46c0      	nop			; (mov r8, r8)
2000046c:	46c0      	nop			; (mov r8, r8)
2000046e:	46bd      	mov	sp, r7
20000470:	b002      	add	sp, #8
20000472:	bd80      	pop	{r7, pc}
20000474:	40024000 	andmi	r4, r2, r0
20000478:	4002400c 	andmi	r4, r2, ip
2000047c:	00fab000 	rscseq	fp, sl, r0
20000480:	40026000 	andmi	r6, r2, r0
20000484:	40024004 	andmi	r4, r2, r4

20000488 <delay_us>:
20000488:	b580      	push	{r7, lr}
2000048a:	b084      	sub	sp, #16
2000048c:	af00      	add	r7, sp, #0
2000048e:	6078      	str	r0, [r7, #4]
20000490:	687a      	ldr	r2, [r7, #4]
20000492:	0013      	movs	r3, r2
20000494:	005b      	lsls	r3, r3, #1
20000496:	189b      	adds	r3, r3, r2
20000498:	009b      	lsls	r3, r3, #2
2000049a:	0a1b      	lsrs	r3, r3, #8
2000049c:	60bb      	str	r3, [r7, #8]
2000049e:	2300      	movs	r3, #0
200004a0:	60fb      	str	r3, [r7, #12]
200004a2:	e010      	b.n	200004c6 <delay_us+0x3e>
200004a4:	4b0c      	ldr	r3, [pc, #48]	; (200004d8 <delay_us+0x50>)
200004a6:	21a9      	movs	r1, #169	; 0xa9
200004a8:	0018      	movs	r0, r3
200004aa:	f7ff fe2e 	bl	2000010a <PUT32>
200004ae:	46c0      	nop			; (mov r8, r8)
200004b0:	4b0a      	ldr	r3, [pc, #40]	; (200004dc <delay_us+0x54>)
200004b2:	0018      	movs	r0, r3
200004b4:	f7ff fe2b 	bl	2000010e <GET32>
200004b8:	0003      	movs	r3, r0
200004ba:	22ff      	movs	r2, #255	; 0xff
200004bc:	4013      	ands	r3, r2
200004be:	d1f7      	bne.n	200004b0 <delay_us+0x28>
200004c0:	68fb      	ldr	r3, [r7, #12]
200004c2:	3301      	adds	r3, #1
200004c4:	60fb      	str	r3, [r7, #12]
200004c6:	68fb      	ldr	r3, [r7, #12]
200004c8:	68ba      	ldr	r2, [r7, #8]
200004ca:	429a      	cmp	r2, r3
200004cc:	d8ea      	bhi.n	200004a4 <delay_us+0x1c>
200004ce:	46c0      	nop			; (mov r8, r8)
200004d0:	46c0      	nop			; (mov r8, r8)
200004d2:	46bd      	mov	sp, r7
200004d4:	b004      	add	sp, #16
200004d6:	bd80      	pop	{r7, pc}
200004d8:	4002601c 	andmi	r6, r2, ip, lsl r0
200004dc:	4002401c 	andmi	r4, r2, ip, lsl r0

200004e0 <micro_seconds_start>:
200004e0:	b580      	push	{r7, lr}
200004e2:	b082      	sub	sp, #8
200004e4:	af00      	add	r7, sp, #0
200004e6:	6078      	str	r0, [r7, #4]
200004e8:	4b0c      	ldr	r3, [pc, #48]	; (2000051c <micro_seconds_start+0x3c>)
200004ea:	2100      	movs	r1, #0
200004ec:	0018      	movs	r0, r3
200004ee:	f7ff fe0c 	bl	2000010a <PUT32>
200004f2:	687b      	ldr	r3, [r7, #4]
200004f4:	4a0a      	ldr	r2, [pc, #40]	; (20000520 <micro_seconds_start+0x40>)
200004f6:	0019      	movs	r1, r3
200004f8:	0010      	movs	r0, r2
200004fa:	f7ff fe06 	bl	2000010a <PUT32>
200004fe:	4b09      	ldr	r3, [pc, #36]	; (20000524 <micro_seconds_start+0x44>)
20000500:	2100      	movs	r1, #0
20000502:	0018      	movs	r0, r3
20000504:	f7ff fe01 	bl	2000010a <PUT32>
20000508:	4b04      	ldr	r3, [pc, #16]	; (2000051c <micro_seconds_start+0x3c>)
2000050a:	2101      	movs	r1, #1
2000050c:	0018      	movs	r0, r3
2000050e:	f7ff fdfc 	bl	2000010a <PUT32>
20000512:	46c0      	nop			; (mov r8, r8)
20000514:	46bd      	mov	sp, r7
20000516:	b002      	add	sp, #8
20000518:	bd80      	pop	{r7, pc}
2000051a:	46c0      	nop			; (mov r8, r8)
2000051c:	e000e010 	and	lr, r0, r0, lsl r0
20000520:	e000e014 	and	lr, r0, r4, lsl r0
20000524:	e000e018 	and	lr, r0, r8, lsl r0

20000528 <enable_clk_peri>:
20000528:	b580      	push	{r7, lr}
2000052a:	b082      	sub	sp, #8
2000052c:	af00      	add	r7, sp, #0
2000052e:	6078      	str	r0, [r7, #4]
20000530:	687b      	ldr	r3, [r7, #4]
20000532:	2b06      	cmp	r3, #6
20000534:	d80e      	bhi.n	20000554 <enable_clk_peri+0x2c>
20000536:	2380      	movs	r3, #128	; 0x80
20000538:	011b      	lsls	r3, r3, #4
2000053a:	4a08      	ldr	r2, [pc, #32]	; (2000055c <enable_clk_peri+0x34>)
2000053c:	0019      	movs	r1, r3
2000053e:	0010      	movs	r0, r2
20000540:	f7ff fde3 	bl	2000010a <PUT32>
20000544:	687b      	ldr	r3, [r7, #4]
20000546:	015b      	lsls	r3, r3, #5
20000548:	4a04      	ldr	r2, [pc, #16]	; (2000055c <enable_clk_peri+0x34>)
2000054a:	0019      	movs	r1, r3
2000054c:	0010      	movs	r0, r2
2000054e:	f7ff fddc 	bl	2000010a <PUT32>
20000552:	e000      	b.n	20000556 <enable_clk_peri+0x2e>
20000554:	46c0      	nop			; (mov r8, r8)
20000556:	46bd      	mov	sp, r7
20000558:	b002      	add	sp, #8
2000055a:	bd80      	pop	{r7, pc}
2000055c:	4000a048 	andmi	sl, r0, r8, asr #32

20000560 <timed_write>:
20000560:	b580      	push	{r7, lr}
20000562:	b084      	sub	sp, #16
20000564:	af00      	add	r7, sp, #0
20000566:	60f8      	str	r0, [r7, #12]
20000568:	60b9      	str	r1, [r7, #8]
2000056a:	607a      	str	r2, [r7, #4]
2000056c:	68bb      	ldr	r3, [r7, #8]
2000056e:	2b00      	cmp	r3, #0
20000570:	d004      	beq.n	2000057c <timed_write+0x1c>
20000572:	68fb      	ldr	r3, [r7, #12]
20000574:	0018      	movs	r0, r3
20000576:	f7ff fefb 	bl	20000370 <gpio_set_on>
2000057a:	e003      	b.n	20000584 <timed_write+0x24>
2000057c:	68fb      	ldr	r3, [r7, #12]
2000057e:	0018      	movs	r0, r3
20000580:	f7ff ff0e 	bl	200003a0 <gpio_set_off>
20000584:	687b      	ldr	r3, [r7, #4]
20000586:	0018      	movs	r0, r3
20000588:	f7ff ff7e 	bl	20000488 <delay_us>
2000058c:	46c0      	nop			; (mov r8, r8)
2000058e:	46bd      	mov	sp, r7
20000590:	b004      	add	sp, #16
20000592:	bd80      	pop	{r7, pc}

20000594 <sw_uart_putc>:
20000594:	b580      	push	{r7, lr}
20000596:	b084      	sub	sp, #16
20000598:	af00      	add	r7, sp, #0
2000059a:	6078      	str	r0, [r7, #4]
2000059c:	000a      	movs	r2, r1
2000059e:	1cfb      	adds	r3, r7, #3
200005a0:	701a      	strb	r2, [r3, #0]
200005a2:	687b      	ldr	r3, [r7, #4]
200005a4:	6818      	ldr	r0, [r3, #0]
200005a6:	687b      	ldr	r3, [r7, #4]
200005a8:	68db      	ldr	r3, [r3, #12]
200005aa:	001a      	movs	r2, r3
200005ac:	2100      	movs	r1, #0
200005ae:	f7ff ffd7 	bl	20000560 <timed_write>
200005b2:	2300      	movs	r3, #0
200005b4:	60fb      	str	r3, [r7, #12]
200005b6:	e011      	b.n	200005dc <sw_uart_putc+0x48>
200005b8:	687b      	ldr	r3, [r7, #4]
200005ba:	6818      	ldr	r0, [r3, #0]
200005bc:	1cfb      	adds	r3, r7, #3
200005be:	781a      	ldrb	r2, [r3, #0]
200005c0:	68fb      	ldr	r3, [r7, #12]
200005c2:	411a      	asrs	r2, r3
200005c4:	0013      	movs	r3, r2
200005c6:	2201      	movs	r2, #1
200005c8:	4013      	ands	r3, r2
200005ca:	0019      	movs	r1, r3
200005cc:	687b      	ldr	r3, [r7, #4]
200005ce:	68db      	ldr	r3, [r3, #12]
200005d0:	001a      	movs	r2, r3
200005d2:	f7ff ffc5 	bl	20000560 <timed_write>
200005d6:	68fb      	ldr	r3, [r7, #12]
200005d8:	3301      	adds	r3, #1
200005da:	60fb      	str	r3, [r7, #12]
200005dc:	68fb      	ldr	r3, [r7, #12]
200005de:	2b07      	cmp	r3, #7
200005e0:	ddea      	ble.n	200005b8 <sw_uart_putc+0x24>
200005e2:	687b      	ldr	r3, [r7, #4]
200005e4:	6818      	ldr	r0, [r3, #0]
200005e6:	687b      	ldr	r3, [r7, #4]
200005e8:	68db      	ldr	r3, [r3, #12]
200005ea:	001a      	movs	r2, r3
200005ec:	2101      	movs	r1, #1
200005ee:	f7ff ffb7 	bl	20000560 <timed_write>
200005f2:	46c0      	nop			; (mov r8, r8)
200005f4:	46bd      	mov	sp, r7
200005f6:	b004      	add	sp, #16
200005f8:	bd80      	pop	{r7, pc}

200005fa <sw_uart_putk>:
200005fa:	b580      	push	{r7, lr}
200005fc:	b084      	sub	sp, #16
200005fe:	af00      	add	r7, sp, #0
20000600:	6078      	str	r0, [r7, #4]
20000602:	6039      	str	r1, [r7, #0]
20000604:	2300      	movs	r3, #0
20000606:	60fb      	str	r3, [r7, #12]
20000608:	e00b      	b.n	20000622 <sw_uart_putk+0x28>
2000060a:	68fb      	ldr	r3, [r7, #12]
2000060c:	683a      	ldr	r2, [r7, #0]
2000060e:	18d3      	adds	r3, r2, r3
20000610:	781a      	ldrb	r2, [r3, #0]
20000612:	687b      	ldr	r3, [r7, #4]
20000614:	0011      	movs	r1, r2
20000616:	0018      	movs	r0, r3
20000618:	f7ff ffbc 	bl	20000594 <sw_uart_putc>
2000061c:	68fb      	ldr	r3, [r7, #12]
2000061e:	3301      	adds	r3, #1
20000620:	60fb      	str	r3, [r7, #12]
20000622:	68fb      	ldr	r3, [r7, #12]
20000624:	683a      	ldr	r2, [r7, #0]
20000626:	18d3      	adds	r3, r2, r3
20000628:	781b      	ldrb	r3, [r3, #0]
2000062a:	2b00      	cmp	r3, #0
2000062c:	d1ed      	bne.n	2000060a <sw_uart_putk+0x10>
2000062e:	46c0      	nop			; (mov r8, r8)
20000630:	46c0      	nop			; (mov r8, r8)
20000632:	46bd      	mov	sp, r7
20000634:	b004      	add	sp, #16
20000636:	bd80      	pop	{r7, pc}

20000638 <init_uart_printing>:
20000638:	b590      	push	{r4, r7, lr}
2000063a:	b085      	sub	sp, #20
2000063c:	af00      	add	r7, sp, #0
2000063e:	2000      	movs	r0, #0
20000640:	f7ff fe58 	bl	200002f4 <gpio_set_output>
20000644:	2000      	movs	r0, #0
20000646:	f7ff fe93 	bl	20000370 <gpio_set_on>
2000064a:	2001      	movs	r0, #1
2000064c:	f7ff fe18 	bl	20000280 <gpio_set_input>
20000650:	4b05      	ldr	r3, [pc, #20]	; (20000668 <init_uart_printing+0x30>)
20000652:	4a06      	ldr	r2, [pc, #24]	; (2000066c <init_uart_printing+0x34>)
20000654:	ca13      	ldmia	r2!, {r0, r1, r4}
20000656:	c313      	stmia	r3!, {r0, r1, r4}
20000658:	6812      	ldr	r2, [r2, #0]
2000065a:	601a      	str	r2, [r3, #0]
2000065c:	2301      	movs	r3, #1
2000065e:	0018      	movs	r0, r3
20000660:	46bd      	mov	sp, r7
20000662:	b005      	add	sp, #20
20000664:	bd90      	pop	{r4, r7, pc}
20000666:	46c0      	nop			; (mov r8, r8)
20000668:	2000f010 	andcs	pc, r0, r0, lsl r0	; <UNPREDICTABLE>
2000066c:	1000163c 	andne	r1, r0, ip, lsr r6

20000670 <iabs>:
20000670:	b580      	push	{r7, lr}
20000672:	b082      	sub	sp, #8
20000674:	af00      	add	r7, sp, #0
20000676:	6078      	str	r0, [r7, #4]
20000678:	687b      	ldr	r3, [r7, #4]
2000067a:	17da      	asrs	r2, r3, #31
2000067c:	189b      	adds	r3, r3, r2
2000067e:	4053      	eors	r3, r2
20000680:	0018      	movs	r0, r3
20000682:	46bd      	mov	sp, r7
20000684:	b002      	add	sp, #8
20000686:	bd80      	pop	{r7, pc}

20000688 <divlu>:
20000688:	b5b0      	push	{r4, r5, r7, lr}
2000068a:	b08a      	sub	sp, #40	; 0x28
2000068c:	af00      	add	r7, sp, #0
2000068e:	60b8      	str	r0, [r7, #8]
20000690:	60f9      	str	r1, [r7, #12]
20000692:	607a      	str	r2, [r7, #4]
20000694:	68fb      	ldr	r3, [r7, #12]
20000696:	001c      	movs	r4, r3
20000698:	2300      	movs	r3, #0
2000069a:	001d      	movs	r5, r3
2000069c:	0023      	movs	r3, r4
2000069e:	623b      	str	r3, [r7, #32]
200006a0:	68bb      	ldr	r3, [r7, #8]
200006a2:	61fb      	str	r3, [r7, #28]
200006a4:	687b      	ldr	r3, [r7, #4]
200006a6:	61bb      	str	r3, [r7, #24]
200006a8:	2301      	movs	r3, #1
200006aa:	627b      	str	r3, [r7, #36]	; 0x24
200006ac:	e01b      	b.n	200006e6 <divlu+0x5e>
200006ae:	6a3b      	ldr	r3, [r7, #32]
200006b0:	17db      	asrs	r3, r3, #31
200006b2:	617b      	str	r3, [r7, #20]
200006b4:	6a3b      	ldr	r3, [r7, #32]
200006b6:	005a      	lsls	r2, r3, #1
200006b8:	69fb      	ldr	r3, [r7, #28]
200006ba:	0fdb      	lsrs	r3, r3, #31
200006bc:	4313      	orrs	r3, r2
200006be:	623b      	str	r3, [r7, #32]
200006c0:	69fb      	ldr	r3, [r7, #28]
200006c2:	005b      	lsls	r3, r3, #1
200006c4:	61fb      	str	r3, [r7, #28]
200006c6:	6a3a      	ldr	r2, [r7, #32]
200006c8:	697b      	ldr	r3, [r7, #20]
200006ca:	4313      	orrs	r3, r2
200006cc:	69ba      	ldr	r2, [r7, #24]
200006ce:	429a      	cmp	r2, r3
200006d0:	d806      	bhi.n	200006e0 <divlu+0x58>
200006d2:	6a3a      	ldr	r2, [r7, #32]
200006d4:	69bb      	ldr	r3, [r7, #24]
200006d6:	1ad3      	subs	r3, r2, r3
200006d8:	623b      	str	r3, [r7, #32]
200006da:	69fb      	ldr	r3, [r7, #28]
200006dc:	3301      	adds	r3, #1
200006de:	61fb      	str	r3, [r7, #28]
200006e0:	6a7b      	ldr	r3, [r7, #36]	; 0x24
200006e2:	3301      	adds	r3, #1
200006e4:	627b      	str	r3, [r7, #36]	; 0x24
200006e6:	6a7b      	ldr	r3, [r7, #36]	; 0x24
200006e8:	2b20      	cmp	r3, #32
200006ea:	dde0      	ble.n	200006ae <divlu+0x26>
200006ec:	69fb      	ldr	r3, [r7, #28]
200006ee:	0018      	movs	r0, r3
200006f0:	46bd      	mov	sp, r7
200006f2:	b00a      	add	sp, #40	; 0x28
200006f4:	bdb0      	pop	{r4, r5, r7, pc}

200006f6 <udiv>:
200006f6:	b5b0      	push	{r4, r5, r7, lr}
200006f8:	b082      	sub	sp, #8
200006fa:	af00      	add	r7, sp, #0
200006fc:	6078      	str	r0, [r7, #4]
200006fe:	6039      	str	r1, [r7, #0]
20000700:	687b      	ldr	r3, [r7, #4]
20000702:	001c      	movs	r4, r3
20000704:	2300      	movs	r3, #0
20000706:	001d      	movs	r5, r3
20000708:	683b      	ldr	r3, [r7, #0]
2000070a:	001a      	movs	r2, r3
2000070c:	0020      	movs	r0, r4
2000070e:	0029      	movs	r1, r5
20000710:	f7ff ffba 	bl	20000688 <divlu>
20000714:	0003      	movs	r3, r0
20000716:	0018      	movs	r0, r3
20000718:	46bd      	mov	sp, r7
2000071a:	b002      	add	sp, #8
2000071c:	bdb0      	pop	{r4, r5, r7, pc}

2000071e <idiv>:
2000071e:	b590      	push	{r4, r7, lr}
20000720:	b085      	sub	sp, #20
20000722:	af00      	add	r7, sp, #0
20000724:	6078      	str	r0, [r7, #4]
20000726:	6039      	str	r1, [r7, #0]
20000728:	687b      	ldr	r3, [r7, #4]
2000072a:	2b00      	cmp	r3, #0
2000072c:	d101      	bne.n	20000732 <idiv+0x14>
2000072e:	2300      	movs	r3, #0
20000730:	e01f      	b.n	20000772 <idiv+0x54>
20000732:	687b      	ldr	r3, [r7, #4]
20000734:	0018      	movs	r0, r3
20000736:	f7ff ff9b 	bl	20000670 <iabs>
2000073a:	0004      	movs	r4, r0
2000073c:	683b      	ldr	r3, [r7, #0]
2000073e:	0018      	movs	r0, r3
20000740:	f7ff ff96 	bl	20000670 <iabs>
20000744:	0003      	movs	r3, r0
20000746:	0019      	movs	r1, r3
20000748:	0020      	movs	r0, r4
2000074a:	f7ff ffd4 	bl	200006f6 <udiv>
2000074e:	0003      	movs	r3, r0
20000750:	60fb      	str	r3, [r7, #12]
20000752:	687b      	ldr	r3, [r7, #4]
20000754:	2b00      	cmp	r3, #0
20000756:	da02      	bge.n	2000075e <idiv+0x40>
20000758:	683b      	ldr	r3, [r7, #0]
2000075a:	2b00      	cmp	r3, #0
2000075c:	db05      	blt.n	2000076a <idiv+0x4c>
2000075e:	687b      	ldr	r3, [r7, #4]
20000760:	2b00      	cmp	r3, #0
20000762:	dd04      	ble.n	2000076e <idiv+0x50>
20000764:	683b      	ldr	r3, [r7, #0]
20000766:	2b00      	cmp	r3, #0
20000768:	dd01      	ble.n	2000076e <idiv+0x50>
2000076a:	68fb      	ldr	r3, [r7, #12]
2000076c:	e001      	b.n	20000772 <idiv+0x54>
2000076e:	68fb      	ldr	r3, [r7, #12]
20000770:	425b      	negs	r3, r3
20000772:	0018      	movs	r0, r3
20000774:	46bd      	mov	sp, r7
20000776:	b005      	add	sp, #20
20000778:	bd90      	pop	{r4, r7, pc}

2000077a <imod>:
2000077a:	b580      	push	{r7, lr}
2000077c:	b084      	sub	sp, #16
2000077e:	af00      	add	r7, sp, #0
20000780:	6078      	str	r0, [r7, #4]
20000782:	6039      	str	r1, [r7, #0]
20000784:	683b      	ldr	r3, [r7, #0]
20000786:	2b00      	cmp	r3, #0
20000788:	d101      	bne.n	2000078e <imod+0x14>
2000078a:	687b      	ldr	r3, [r7, #4]
2000078c:	e00c      	b.n	200007a8 <imod+0x2e>
2000078e:	683a      	ldr	r2, [r7, #0]
20000790:	687b      	ldr	r3, [r7, #4]
20000792:	0011      	movs	r1, r2
20000794:	0018      	movs	r0, r3
20000796:	f7ff ffc2 	bl	2000071e <idiv>
2000079a:	0003      	movs	r3, r0
2000079c:	60fb      	str	r3, [r7, #12]
2000079e:	683b      	ldr	r3, [r7, #0]
200007a0:	68fa      	ldr	r2, [r7, #12]
200007a2:	4353      	muls	r3, r2
200007a4:	687a      	ldr	r2, [r7, #4]
200007a6:	1ad3      	subs	r3, r2, r3
200007a8:	0018      	movs	r0, r3
200007aa:	46bd      	mov	sp, r7
200007ac:	b004      	add	sp, #16
200007ae:	bd80      	pop	{r7, pc}

200007b0 <_putchar>:
200007b0:	b580      	push	{r7, lr}
200007b2:	b082      	sub	sp, #8
200007b4:	af00      	add	r7, sp, #0
200007b6:	0002      	movs	r2, r0
200007b8:	1dfb      	adds	r3, r7, #7
200007ba:	701a      	strb	r2, [r3, #0]
200007bc:	1dfb      	adds	r3, r7, #7
200007be:	781b      	ldrb	r3, [r3, #0]
200007c0:	0018      	movs	r0, r3
200007c2:	f000 fef3 	bl	200015ac <uart_putc>
200007c6:	46c0      	nop			; (mov r8, r8)
200007c8:	46bd      	mov	sp, r7
200007ca:	b002      	add	sp, #8
200007cc:	bd80      	pop	{r7, pc}

200007ce <_out_buffer>:
200007ce:	b580      	push	{r7, lr}
200007d0:	b084      	sub	sp, #16
200007d2:	af00      	add	r7, sp, #0
200007d4:	60b9      	str	r1, [r7, #8]
200007d6:	607a      	str	r2, [r7, #4]
200007d8:	603b      	str	r3, [r7, #0]
200007da:	210f      	movs	r1, #15
200007dc:	187b      	adds	r3, r7, r1
200007de:	1c02      	adds	r2, r0, #0
200007e0:	701a      	strb	r2, [r3, #0]
200007e2:	687a      	ldr	r2, [r7, #4]
200007e4:	683b      	ldr	r3, [r7, #0]
200007e6:	429a      	cmp	r2, r3
200007e8:	d205      	bcs.n	200007f6 <_out_buffer+0x28>
200007ea:	68ba      	ldr	r2, [r7, #8]
200007ec:	687b      	ldr	r3, [r7, #4]
200007ee:	18d3      	adds	r3, r2, r3
200007f0:	187a      	adds	r2, r7, r1
200007f2:	7812      	ldrb	r2, [r2, #0]
200007f4:	701a      	strb	r2, [r3, #0]
200007f6:	46c0      	nop			; (mov r8, r8)
200007f8:	46bd      	mov	sp, r7
200007fa:	b004      	add	sp, #16
200007fc:	bd80      	pop	{r7, pc}

200007fe <_out_null>:
200007fe:	b580      	push	{r7, lr}
20000800:	b084      	sub	sp, #16
20000802:	af00      	add	r7, sp, #0
20000804:	60b9      	str	r1, [r7, #8]
20000806:	607a      	str	r2, [r7, #4]
20000808:	603b      	str	r3, [r7, #0]
2000080a:	230f      	movs	r3, #15
2000080c:	18fb      	adds	r3, r7, r3
2000080e:	1c02      	adds	r2, r0, #0
20000810:	701a      	strb	r2, [r3, #0]
20000812:	46c0      	nop			; (mov r8, r8)
20000814:	46bd      	mov	sp, r7
20000816:	b004      	add	sp, #16
20000818:	bd80      	pop	{r7, pc}

2000081a <_out_char>:
2000081a:	b580      	push	{r7, lr}
2000081c:	b084      	sub	sp, #16
2000081e:	af00      	add	r7, sp, #0
20000820:	60b9      	str	r1, [r7, #8]
20000822:	607a      	str	r2, [r7, #4]
20000824:	603b      	str	r3, [r7, #0]
20000826:	210f      	movs	r1, #15
20000828:	187b      	adds	r3, r7, r1
2000082a:	1c02      	adds	r2, r0, #0
2000082c:	701a      	strb	r2, [r3, #0]
2000082e:	000a      	movs	r2, r1
20000830:	18bb      	adds	r3, r7, r2
20000832:	781b      	ldrb	r3, [r3, #0]
20000834:	2b00      	cmp	r3, #0
20000836:	d004      	beq.n	20000842 <_out_char+0x28>
20000838:	18bb      	adds	r3, r7, r2
2000083a:	781b      	ldrb	r3, [r3, #0]
2000083c:	0018      	movs	r0, r3
2000083e:	f7ff ffb7 	bl	200007b0 <_putchar>
20000842:	46c0      	nop			; (mov r8, r8)
20000844:	46bd      	mov	sp, r7
20000846:	b004      	add	sp, #16
20000848:	bd80      	pop	{r7, pc}

2000084a <_out_fct>:
2000084a:	b580      	push	{r7, lr}
2000084c:	b084      	sub	sp, #16
2000084e:	af00      	add	r7, sp, #0
20000850:	60b9      	str	r1, [r7, #8]
20000852:	607a      	str	r2, [r7, #4]
20000854:	603b      	str	r3, [r7, #0]
20000856:	210f      	movs	r1, #15
20000858:	187b      	adds	r3, r7, r1
2000085a:	1c02      	adds	r2, r0, #0
2000085c:	701a      	strb	r2, [r3, #0]
2000085e:	0008      	movs	r0, r1
20000860:	187b      	adds	r3, r7, r1
20000862:	781b      	ldrb	r3, [r3, #0]
20000864:	2b00      	cmp	r3, #0
20000866:	d007      	beq.n	20000878 <_out_fct+0x2e>
20000868:	68bb      	ldr	r3, [r7, #8]
2000086a:	681a      	ldr	r2, [r3, #0]
2000086c:	68bb      	ldr	r3, [r7, #8]
2000086e:	6859      	ldr	r1, [r3, #4]
20000870:	183b      	adds	r3, r7, r0
20000872:	781b      	ldrb	r3, [r3, #0]
20000874:	0018      	movs	r0, r3
20000876:	4790      	blx	r2
20000878:	46c0      	nop			; (mov r8, r8)
2000087a:	46bd      	mov	sp, r7
2000087c:	b004      	add	sp, #16
2000087e:	bd80      	pop	{r7, pc}

20000880 <_strnlen_s>:
20000880:	b580      	push	{r7, lr}
20000882:	b084      	sub	sp, #16
20000884:	af00      	add	r7, sp, #0
20000886:	6078      	str	r0, [r7, #4]
20000888:	6039      	str	r1, [r7, #0]
2000088a:	687b      	ldr	r3, [r7, #4]
2000088c:	60fb      	str	r3, [r7, #12]
2000088e:	e002      	b.n	20000896 <_strnlen_s+0x16>
20000890:	68fb      	ldr	r3, [r7, #12]
20000892:	3301      	adds	r3, #1
20000894:	60fb      	str	r3, [r7, #12]
20000896:	68fb      	ldr	r3, [r7, #12]
20000898:	781b      	ldrb	r3, [r3, #0]
2000089a:	2b00      	cmp	r3, #0
2000089c:	d004      	beq.n	200008a8 <_strnlen_s+0x28>
2000089e:	683b      	ldr	r3, [r7, #0]
200008a0:	1e5a      	subs	r2, r3, #1
200008a2:	603a      	str	r2, [r7, #0]
200008a4:	2b00      	cmp	r3, #0
200008a6:	d1f3      	bne.n	20000890 <_strnlen_s+0x10>
200008a8:	68fa      	ldr	r2, [r7, #12]
200008aa:	687b      	ldr	r3, [r7, #4]
200008ac:	1ad3      	subs	r3, r2, r3
200008ae:	0018      	movs	r0, r3
200008b0:	46bd      	mov	sp, r7
200008b2:	b004      	add	sp, #16
200008b4:	bd80      	pop	{r7, pc}

200008b6 <_is_digit>:
200008b6:	b580      	push	{r7, lr}
200008b8:	b082      	sub	sp, #8
200008ba:	af00      	add	r7, sp, #0
200008bc:	0002      	movs	r2, r0
200008be:	1dfb      	adds	r3, r7, #7
200008c0:	701a      	strb	r2, [r3, #0]
200008c2:	1dfb      	adds	r3, r7, #7
200008c4:	781b      	ldrb	r3, [r3, #0]
200008c6:	2b2f      	cmp	r3, #47	; 0x2f
200008c8:	d905      	bls.n	200008d6 <_is_digit+0x20>
200008ca:	1dfb      	adds	r3, r7, #7
200008cc:	781b      	ldrb	r3, [r3, #0]
200008ce:	2b39      	cmp	r3, #57	; 0x39
200008d0:	d801      	bhi.n	200008d6 <_is_digit+0x20>
200008d2:	2301      	movs	r3, #1
200008d4:	e000      	b.n	200008d8 <_is_digit+0x22>
200008d6:	2300      	movs	r3, #0
200008d8:	1c1a      	adds	r2, r3, #0
200008da:	2301      	movs	r3, #1
200008dc:	4013      	ands	r3, r2
200008de:	b2db      	uxtb	r3, r3
200008e0:	0018      	movs	r0, r3
200008e2:	46bd      	mov	sp, r7
200008e4:	b002      	add	sp, #8
200008e6:	bd80      	pop	{r7, pc}

200008e8 <_atoi>:
200008e8:	b580      	push	{r7, lr}
200008ea:	b084      	sub	sp, #16
200008ec:	af00      	add	r7, sp, #0
200008ee:	6078      	str	r0, [r7, #4]
200008f0:	2300      	movs	r3, #0
200008f2:	60fb      	str	r3, [r7, #12]
200008f4:	e00e      	b.n	20000914 <_atoi+0x2c>
200008f6:	68fa      	ldr	r2, [r7, #12]
200008f8:	0013      	movs	r3, r2
200008fa:	009b      	lsls	r3, r3, #2
200008fc:	189b      	adds	r3, r3, r2
200008fe:	005b      	lsls	r3, r3, #1
20000900:	0018      	movs	r0, r3
20000902:	687b      	ldr	r3, [r7, #4]
20000904:	681b      	ldr	r3, [r3, #0]
20000906:	1c59      	adds	r1, r3, #1
20000908:	687a      	ldr	r2, [r7, #4]
2000090a:	6011      	str	r1, [r2, #0]
2000090c:	781b      	ldrb	r3, [r3, #0]
2000090e:	18c3      	adds	r3, r0, r3
20000910:	3b30      	subs	r3, #48	; 0x30
20000912:	60fb      	str	r3, [r7, #12]
20000914:	687b      	ldr	r3, [r7, #4]
20000916:	681b      	ldr	r3, [r3, #0]
20000918:	781b      	ldrb	r3, [r3, #0]
2000091a:	0018      	movs	r0, r3
2000091c:	f7ff ffcb 	bl	200008b6 <_is_digit>
20000920:	1e03      	subs	r3, r0, #0
20000922:	d1e8      	bne.n	200008f6 <_atoi+0xe>
20000924:	68fb      	ldr	r3, [r7, #12]
20000926:	0018      	movs	r0, r3
20000928:	46bd      	mov	sp, r7
2000092a:	b004      	add	sp, #16
2000092c:	bd80      	pop	{r7, pc}

2000092e <_out_rev>:
2000092e:	b590      	push	{r4, r7, lr}
20000930:	b087      	sub	sp, #28
20000932:	af00      	add	r7, sp, #0
20000934:	60f8      	str	r0, [r7, #12]
20000936:	60b9      	str	r1, [r7, #8]
20000938:	607a      	str	r2, [r7, #4]
2000093a:	603b      	str	r3, [r7, #0]
2000093c:	687b      	ldr	r3, [r7, #4]
2000093e:	613b      	str	r3, [r7, #16]
20000940:	6b7b      	ldr	r3, [r7, #52]	; 0x34
20000942:	2202      	movs	r2, #2
20000944:	4013      	ands	r3, r2
20000946:	d124      	bne.n	20000992 <_out_rev+0x64>
20000948:	6b7b      	ldr	r3, [r7, #52]	; 0x34
2000094a:	2201      	movs	r2, #1
2000094c:	4013      	ands	r3, r2
2000094e:	d120      	bne.n	20000992 <_out_rev+0x64>
20000950:	6afb      	ldr	r3, [r7, #44]	; 0x2c
20000952:	617b      	str	r3, [r7, #20]
20000954:	e00a      	b.n	2000096c <_out_rev+0x3e>
20000956:	687a      	ldr	r2, [r7, #4]
20000958:	1c53      	adds	r3, r2, #1
2000095a:	607b      	str	r3, [r7, #4]
2000095c:	683b      	ldr	r3, [r7, #0]
2000095e:	68b9      	ldr	r1, [r7, #8]
20000960:	68fc      	ldr	r4, [r7, #12]
20000962:	2020      	movs	r0, #32
20000964:	47a0      	blx	r4
20000966:	697b      	ldr	r3, [r7, #20]
20000968:	3301      	adds	r3, #1
2000096a:	617b      	str	r3, [r7, #20]
2000096c:	697a      	ldr	r2, [r7, #20]
2000096e:	6b3b      	ldr	r3, [r7, #48]	; 0x30
20000970:	429a      	cmp	r2, r3
20000972:	d3f0      	bcc.n	20000956 <_out_rev+0x28>
20000974:	e00d      	b.n	20000992 <_out_rev+0x64>
20000976:	6afb      	ldr	r3, [r7, #44]	; 0x2c
20000978:	3b01      	subs	r3, #1
2000097a:	62fb      	str	r3, [r7, #44]	; 0x2c
2000097c:	6aba      	ldr	r2, [r7, #40]	; 0x28
2000097e:	6afb      	ldr	r3, [r7, #44]	; 0x2c
20000980:	18d3      	adds	r3, r2, r3
20000982:	7818      	ldrb	r0, [r3, #0]
20000984:	687a      	ldr	r2, [r7, #4]
20000986:	1c53      	adds	r3, r2, #1
20000988:	607b      	str	r3, [r7, #4]
2000098a:	683b      	ldr	r3, [r7, #0]
2000098c:	68b9      	ldr	r1, [r7, #8]
2000098e:	68fc      	ldr	r4, [r7, #12]
20000990:	47a0      	blx	r4
20000992:	6afb      	ldr	r3, [r7, #44]	; 0x2c
20000994:	2b00      	cmp	r3, #0
20000996:	d1ee      	bne.n	20000976 <_out_rev+0x48>
20000998:	6b7b      	ldr	r3, [r7, #52]	; 0x34
2000099a:	2202      	movs	r2, #2
2000099c:	4013      	ands	r3, r2
2000099e:	d00e      	beq.n	200009be <_out_rev+0x90>
200009a0:	e007      	b.n	200009b2 <_out_rev+0x84>
200009a2:	687a      	ldr	r2, [r7, #4]
200009a4:	1c53      	adds	r3, r2, #1
200009a6:	607b      	str	r3, [r7, #4]
200009a8:	683b      	ldr	r3, [r7, #0]
200009aa:	68b9      	ldr	r1, [r7, #8]
200009ac:	68fc      	ldr	r4, [r7, #12]
200009ae:	2020      	movs	r0, #32
200009b0:	47a0      	blx	r4
200009b2:	687a      	ldr	r2, [r7, #4]
200009b4:	693b      	ldr	r3, [r7, #16]
200009b6:	1ad3      	subs	r3, r2, r3
200009b8:	6b3a      	ldr	r2, [r7, #48]	; 0x30
200009ba:	429a      	cmp	r2, r3
200009bc:	d8f1      	bhi.n	200009a2 <_out_rev+0x74>
200009be:	687b      	ldr	r3, [r7, #4]
200009c0:	0018      	movs	r0, r3
200009c2:	46bd      	mov	sp, r7
200009c4:	b007      	add	sp, #28
200009c6:	bd90      	pop	{r4, r7, pc}

200009c8 <_ntoa_format>:
200009c8:	b590      	push	{r4, r7, lr}
200009ca:	b089      	sub	sp, #36	; 0x24
200009cc:	af04      	add	r7, sp, #16
200009ce:	60f8      	str	r0, [r7, #12]
200009d0:	60b9      	str	r1, [r7, #8]
200009d2:	607a      	str	r2, [r7, #4]
200009d4:	603b      	str	r3, [r7, #0]
200009d6:	6bbb      	ldr	r3, [r7, #56]	; 0x38
200009d8:	2202      	movs	r2, #2
200009da:	4013      	ands	r3, r2
200009dc:	d134      	bne.n	20000a48 <_ntoa_format+0x80>
200009de:	6b7b      	ldr	r3, [r7, #52]	; 0x34
200009e0:	2b00      	cmp	r3, #0
200009e2:	d017      	beq.n	20000a14 <_ntoa_format+0x4c>
200009e4:	6bbb      	ldr	r3, [r7, #56]	; 0x38
200009e6:	2201      	movs	r2, #1
200009e8:	4013      	ands	r3, r2
200009ea:	d013      	beq.n	20000a14 <_ntoa_format+0x4c>
200009ec:	2328      	movs	r3, #40	; 0x28
200009ee:	18fb      	adds	r3, r7, r3
200009f0:	781b      	ldrb	r3, [r3, #0]
200009f2:	2b00      	cmp	r3, #0
200009f4:	d103      	bne.n	200009fe <_ntoa_format+0x36>
200009f6:	6bbb      	ldr	r3, [r7, #56]	; 0x38
200009f8:	220c      	movs	r2, #12
200009fa:	4013      	ands	r3, r2
200009fc:	d00a      	beq.n	20000a14 <_ntoa_format+0x4c>
200009fe:	6b7b      	ldr	r3, [r7, #52]	; 0x34
20000a00:	3b01      	subs	r3, #1
20000a02:	637b      	str	r3, [r7, #52]	; 0x34
20000a04:	e006      	b.n	20000a14 <_ntoa_format+0x4c>
20000a06:	6a7b      	ldr	r3, [r7, #36]	; 0x24
20000a08:	1c5a      	adds	r2, r3, #1
20000a0a:	627a      	str	r2, [r7, #36]	; 0x24
20000a0c:	6a3a      	ldr	r2, [r7, #32]
20000a0e:	18d3      	adds	r3, r2, r3
20000a10:	2230      	movs	r2, #48	; 0x30
20000a12:	701a      	strb	r2, [r3, #0]
20000a14:	6a7a      	ldr	r2, [r7, #36]	; 0x24
20000a16:	6b3b      	ldr	r3, [r7, #48]	; 0x30
20000a18:	429a      	cmp	r2, r3
20000a1a:	d20a      	bcs.n	20000a32 <_ntoa_format+0x6a>
20000a1c:	6a7b      	ldr	r3, [r7, #36]	; 0x24
20000a1e:	2b1f      	cmp	r3, #31
20000a20:	d9f1      	bls.n	20000a06 <_ntoa_format+0x3e>
20000a22:	e006      	b.n	20000a32 <_ntoa_format+0x6a>
20000a24:	6a7b      	ldr	r3, [r7, #36]	; 0x24
20000a26:	1c5a      	adds	r2, r3, #1
20000a28:	627a      	str	r2, [r7, #36]	; 0x24
20000a2a:	6a3a      	ldr	r2, [r7, #32]
20000a2c:	18d3      	adds	r3, r2, r3
20000a2e:	2230      	movs	r2, #48	; 0x30
20000a30:	701a      	strb	r2, [r3, #0]
20000a32:	6bbb      	ldr	r3, [r7, #56]	; 0x38
20000a34:	2201      	movs	r2, #1
20000a36:	4013      	ands	r3, r2
20000a38:	d006      	beq.n	20000a48 <_ntoa_format+0x80>
20000a3a:	6a7a      	ldr	r2, [r7, #36]	; 0x24
20000a3c:	6b7b      	ldr	r3, [r7, #52]	; 0x34
20000a3e:	429a      	cmp	r2, r3
20000a40:	d202      	bcs.n	20000a48 <_ntoa_format+0x80>
20000a42:	6a7b      	ldr	r3, [r7, #36]	; 0x24
20000a44:	2b1f      	cmp	r3, #31
20000a46:	d9ed      	bls.n	20000a24 <_ntoa_format+0x5c>
20000a48:	6bbb      	ldr	r3, [r7, #56]	; 0x38
20000a4a:	2210      	movs	r2, #16
20000a4c:	4013      	ands	r3, r2
20000a4e:	d056      	beq.n	20000afe <_ntoa_format+0x136>
20000a50:	6bba      	ldr	r2, [r7, #56]	; 0x38
20000a52:	2380      	movs	r3, #128	; 0x80
20000a54:	00db      	lsls	r3, r3, #3
20000a56:	4013      	ands	r3, r2
20000a58:	d116      	bne.n	20000a88 <_ntoa_format+0xc0>
20000a5a:	6a7b      	ldr	r3, [r7, #36]	; 0x24
20000a5c:	2b00      	cmp	r3, #0
20000a5e:	d013      	beq.n	20000a88 <_ntoa_format+0xc0>
20000a60:	6a7a      	ldr	r2, [r7, #36]	; 0x24
20000a62:	6b3b      	ldr	r3, [r7, #48]	; 0x30
20000a64:	429a      	cmp	r2, r3
20000a66:	d003      	beq.n	20000a70 <_ntoa_format+0xa8>
20000a68:	6a7a      	ldr	r2, [r7, #36]	; 0x24
20000a6a:	6b7b      	ldr	r3, [r7, #52]	; 0x34
20000a6c:	429a      	cmp	r2, r3
20000a6e:	d10b      	bne.n	20000a88 <_ntoa_format+0xc0>
20000a70:	6a7b      	ldr	r3, [r7, #36]	; 0x24
20000a72:	3b01      	subs	r3, #1
20000a74:	627b      	str	r3, [r7, #36]	; 0x24
20000a76:	6a7b      	ldr	r3, [r7, #36]	; 0x24
20000a78:	2b00      	cmp	r3, #0
20000a7a:	d005      	beq.n	20000a88 <_ntoa_format+0xc0>
20000a7c:	6afb      	ldr	r3, [r7, #44]	; 0x2c
20000a7e:	2b10      	cmp	r3, #16
20000a80:	d102      	bne.n	20000a88 <_ntoa_format+0xc0>
20000a82:	6a7b      	ldr	r3, [r7, #36]	; 0x24
20000a84:	3b01      	subs	r3, #1
20000a86:	627b      	str	r3, [r7, #36]	; 0x24
20000a88:	6afb      	ldr	r3, [r7, #44]	; 0x2c
20000a8a:	2b10      	cmp	r3, #16
20000a8c:	d10e      	bne.n	20000aac <_ntoa_format+0xe4>
20000a8e:	6bbb      	ldr	r3, [r7, #56]	; 0x38
20000a90:	2220      	movs	r2, #32
20000a92:	4013      	ands	r3, r2
20000a94:	d10a      	bne.n	20000aac <_ntoa_format+0xe4>
20000a96:	6a7b      	ldr	r3, [r7, #36]	; 0x24
20000a98:	2b1f      	cmp	r3, #31
20000a9a:	d807      	bhi.n	20000aac <_ntoa_format+0xe4>
20000a9c:	6a7b      	ldr	r3, [r7, #36]	; 0x24
20000a9e:	1c5a      	adds	r2, r3, #1
20000aa0:	627a      	str	r2, [r7, #36]	; 0x24
20000aa2:	6a3a      	ldr	r2, [r7, #32]
20000aa4:	18d3      	adds	r3, r2, r3
20000aa6:	2278      	movs	r2, #120	; 0x78
20000aa8:	701a      	strb	r2, [r3, #0]
20000aaa:	e01e      	b.n	20000aea <_ntoa_format+0x122>
20000aac:	6afb      	ldr	r3, [r7, #44]	; 0x2c
20000aae:	2b10      	cmp	r3, #16
20000ab0:	d10e      	bne.n	20000ad0 <_ntoa_format+0x108>
20000ab2:	6bbb      	ldr	r3, [r7, #56]	; 0x38
20000ab4:	2220      	movs	r2, #32
20000ab6:	4013      	ands	r3, r2
20000ab8:	d00a      	beq.n	20000ad0 <_ntoa_format+0x108>
20000aba:	6a7b      	ldr	r3, [r7, #36]	; 0x24
20000abc:	2b1f      	cmp	r3, #31
20000abe:	d807      	bhi.n	20000ad0 <_ntoa_format+0x108>
20000ac0:	6a7b      	ldr	r3, [r7, #36]	; 0x24
20000ac2:	1c5a      	adds	r2, r3, #1
20000ac4:	627a      	str	r2, [r7, #36]	; 0x24
20000ac6:	6a3a      	ldr	r2, [r7, #32]
20000ac8:	18d3      	adds	r3, r2, r3
20000aca:	2258      	movs	r2, #88	; 0x58
20000acc:	701a      	strb	r2, [r3, #0]
20000ace:	e00c      	b.n	20000aea <_ntoa_format+0x122>
20000ad0:	6afb      	ldr	r3, [r7, #44]	; 0x2c
20000ad2:	2b02      	cmp	r3, #2
20000ad4:	d109      	bne.n	20000aea <_ntoa_format+0x122>
20000ad6:	6a7b      	ldr	r3, [r7, #36]	; 0x24
20000ad8:	2b1f      	cmp	r3, #31
20000ada:	d806      	bhi.n	20000aea <_ntoa_format+0x122>
20000adc:	6a7b      	ldr	r3, [r7, #36]	; 0x24
20000ade:	1c5a      	adds	r2, r3, #1
20000ae0:	627a      	str	r2, [r7, #36]	; 0x24
20000ae2:	6a3a      	ldr	r2, [r7, #32]
20000ae4:	18d3      	adds	r3, r2, r3
20000ae6:	2262      	movs	r2, #98	; 0x62
20000ae8:	701a      	strb	r2, [r3, #0]
20000aea:	6a7b      	ldr	r3, [r7, #36]	; 0x24
20000aec:	2b1f      	cmp	r3, #31
20000aee:	d806      	bhi.n	20000afe <_ntoa_format+0x136>
20000af0:	6a7b      	ldr	r3, [r7, #36]	; 0x24
20000af2:	1c5a      	adds	r2, r3, #1
20000af4:	627a      	str	r2, [r7, #36]	; 0x24
20000af6:	6a3a      	ldr	r2, [r7, #32]
20000af8:	18d3      	adds	r3, r2, r3
20000afa:	2230      	movs	r2, #48	; 0x30
20000afc:	701a      	strb	r2, [r3, #0]
20000afe:	6a7b      	ldr	r3, [r7, #36]	; 0x24
20000b00:	2b1f      	cmp	r3, #31
20000b02:	d823      	bhi.n	20000b4c <_ntoa_format+0x184>
20000b04:	2328      	movs	r3, #40	; 0x28
20000b06:	18fb      	adds	r3, r7, r3
20000b08:	781b      	ldrb	r3, [r3, #0]
20000b0a:	2b00      	cmp	r3, #0
20000b0c:	d007      	beq.n	20000b1e <_ntoa_format+0x156>
20000b0e:	6a7b      	ldr	r3, [r7, #36]	; 0x24
20000b10:	1c5a      	adds	r2, r3, #1
20000b12:	627a      	str	r2, [r7, #36]	; 0x24
20000b14:	6a3a      	ldr	r2, [r7, #32]
20000b16:	18d3      	adds	r3, r2, r3
20000b18:	222d      	movs	r2, #45	; 0x2d
20000b1a:	701a      	strb	r2, [r3, #0]
20000b1c:	e016      	b.n	20000b4c <_ntoa_format+0x184>
20000b1e:	6bbb      	ldr	r3, [r7, #56]	; 0x38
20000b20:	2204      	movs	r2, #4
20000b22:	4013      	ands	r3, r2
20000b24:	d007      	beq.n	20000b36 <_ntoa_format+0x16e>
20000b26:	6a7b      	ldr	r3, [r7, #36]	; 0x24
20000b28:	1c5a      	adds	r2, r3, #1
20000b2a:	627a      	str	r2, [r7, #36]	; 0x24
20000b2c:	6a3a      	ldr	r2, [r7, #32]
20000b2e:	18d3      	adds	r3, r2, r3
20000b30:	222b      	movs	r2, #43	; 0x2b
20000b32:	701a      	strb	r2, [r3, #0]
20000b34:	e00a      	b.n	20000b4c <_ntoa_format+0x184>
20000b36:	6bbb      	ldr	r3, [r7, #56]	; 0x38
20000b38:	2208      	movs	r2, #8
20000b3a:	4013      	ands	r3, r2
20000b3c:	d006      	beq.n	20000b4c <_ntoa_format+0x184>
20000b3e:	6a7b      	ldr	r3, [r7, #36]	; 0x24
20000b40:	1c5a      	adds	r2, r3, #1
20000b42:	627a      	str	r2, [r7, #36]	; 0x24
20000b44:	6a3a      	ldr	r2, [r7, #32]
20000b46:	18d3      	adds	r3, r2, r3
20000b48:	2220      	movs	r2, #32
20000b4a:	701a      	strb	r2, [r3, #0]
20000b4c:	683c      	ldr	r4, [r7, #0]
20000b4e:	687a      	ldr	r2, [r7, #4]
20000b50:	68b9      	ldr	r1, [r7, #8]
20000b52:	68f8      	ldr	r0, [r7, #12]
20000b54:	6bbb      	ldr	r3, [r7, #56]	; 0x38
20000b56:	9303      	str	r3, [sp, #12]
20000b58:	6b7b      	ldr	r3, [r7, #52]	; 0x34
20000b5a:	9302      	str	r3, [sp, #8]
20000b5c:	6a7b      	ldr	r3, [r7, #36]	; 0x24
20000b5e:	9301      	str	r3, [sp, #4]
20000b60:	6a3b      	ldr	r3, [r7, #32]
20000b62:	9300      	str	r3, [sp, #0]
20000b64:	0023      	movs	r3, r4
20000b66:	f7ff fee2 	bl	2000092e <_out_rev>
20000b6a:	0003      	movs	r3, r0
20000b6c:	0018      	movs	r0, r3
20000b6e:	46bd      	mov	sp, r7
20000b70:	b005      	add	sp, #20
20000b72:	bd90      	pop	{r4, r7, pc}

20000b74 <_ntoa_long>:
20000b74:	b590      	push	{r4, r7, lr}
20000b76:	b097      	sub	sp, #92	; 0x5c
20000b78:	af08      	add	r7, sp, #32
20000b7a:	60f8      	str	r0, [r7, #12]
20000b7c:	60b9      	str	r1, [r7, #8]
20000b7e:	607a      	str	r2, [r7, #4]
20000b80:	603b      	str	r3, [r7, #0]
20000b82:	2300      	movs	r3, #0
20000b84:	637b      	str	r3, [r7, #52]	; 0x34
20000b86:	6cbb      	ldr	r3, [r7, #72]	; 0x48
20000b88:	2b00      	cmp	r3, #0
20000b8a:	d103      	bne.n	20000b94 <_ntoa_long+0x20>
20000b8c:	6dfb      	ldr	r3, [r7, #92]	; 0x5c
20000b8e:	2210      	movs	r2, #16
20000b90:	4393      	bics	r3, r2
20000b92:	65fb      	str	r3, [r7, #92]	; 0x5c
20000b94:	6dfa      	ldr	r2, [r7, #92]	; 0x5c
20000b96:	2380      	movs	r3, #128	; 0x80
20000b98:	00db      	lsls	r3, r3, #3
20000b9a:	4013      	ands	r3, r2
20000b9c:	d002      	beq.n	20000ba4 <_ntoa_long+0x30>
20000b9e:	6cbb      	ldr	r3, [r7, #72]	; 0x48
20000ba0:	2b00      	cmp	r3, #0
20000ba2:	d035      	beq.n	20000c10 <_ntoa_long+0x9c>
20000ba4:	6cbb      	ldr	r3, [r7, #72]	; 0x48
20000ba6:	6d3a      	ldr	r2, [r7, #80]	; 0x50
20000ba8:	0011      	movs	r1, r2
20000baa:	0018      	movs	r0, r3
20000bac:	f7ff fde5 	bl	2000077a <imod>
20000bb0:	0002      	movs	r2, r0
20000bb2:	2133      	movs	r1, #51	; 0x33
20000bb4:	187b      	adds	r3, r7, r1
20000bb6:	701a      	strb	r2, [r3, #0]
20000bb8:	000a      	movs	r2, r1
20000bba:	18bb      	adds	r3, r7, r2
20000bbc:	781b      	ldrb	r3, [r3, #0]
20000bbe:	2b09      	cmp	r3, #9
20000bc0:	d804      	bhi.n	20000bcc <_ntoa_long+0x58>
20000bc2:	18bb      	adds	r3, r7, r2
20000bc4:	781b      	ldrb	r3, [r3, #0]
20000bc6:	3330      	adds	r3, #48	; 0x30
20000bc8:	b2da      	uxtb	r2, r3
20000bca:	e00d      	b.n	20000be8 <_ntoa_long+0x74>
20000bcc:	6dfb      	ldr	r3, [r7, #92]	; 0x5c
20000bce:	2220      	movs	r2, #32
20000bd0:	4013      	ands	r3, r2
20000bd2:	d001      	beq.n	20000bd8 <_ntoa_long+0x64>
20000bd4:	2341      	movs	r3, #65	; 0x41
20000bd6:	e000      	b.n	20000bda <_ntoa_long+0x66>
20000bd8:	2361      	movs	r3, #97	; 0x61
20000bda:	2233      	movs	r2, #51	; 0x33
20000bdc:	18ba      	adds	r2, r7, r2
20000bde:	7812      	ldrb	r2, [r2, #0]
20000be0:	189b      	adds	r3, r3, r2
20000be2:	b2db      	uxtb	r3, r3
20000be4:	3b0a      	subs	r3, #10
20000be6:	b2da      	uxtb	r2, r3
20000be8:	6b7b      	ldr	r3, [r7, #52]	; 0x34
20000bea:	1c59      	adds	r1, r3, #1
20000bec:	6379      	str	r1, [r7, #52]	; 0x34
20000bee:	2110      	movs	r1, #16
20000bf0:	1879      	adds	r1, r7, r1
20000bf2:	54ca      	strb	r2, [r1, r3]
20000bf4:	6d3a      	ldr	r2, [r7, #80]	; 0x50
20000bf6:	6cbb      	ldr	r3, [r7, #72]	; 0x48
20000bf8:	0011      	movs	r1, r2
20000bfa:	0018      	movs	r0, r3
20000bfc:	f7ff fd7b 	bl	200006f6 <udiv>
20000c00:	0003      	movs	r3, r0
20000c02:	64bb      	str	r3, [r7, #72]	; 0x48
20000c04:	6cbb      	ldr	r3, [r7, #72]	; 0x48
20000c06:	2b00      	cmp	r3, #0
20000c08:	d002      	beq.n	20000c10 <_ntoa_long+0x9c>
20000c0a:	6b7b      	ldr	r3, [r7, #52]	; 0x34
20000c0c:	2b1f      	cmp	r3, #31
20000c0e:	d9c9      	bls.n	20000ba4 <_ntoa_long+0x30>
20000c10:	683c      	ldr	r4, [r7, #0]
20000c12:	687a      	ldr	r2, [r7, #4]
20000c14:	68b9      	ldr	r1, [r7, #8]
20000c16:	68f8      	ldr	r0, [r7, #12]
20000c18:	6dfb      	ldr	r3, [r7, #92]	; 0x5c
20000c1a:	9306      	str	r3, [sp, #24]
20000c1c:	6dbb      	ldr	r3, [r7, #88]	; 0x58
20000c1e:	9305      	str	r3, [sp, #20]
20000c20:	6d7b      	ldr	r3, [r7, #84]	; 0x54
20000c22:	9304      	str	r3, [sp, #16]
20000c24:	6d3b      	ldr	r3, [r7, #80]	; 0x50
20000c26:	9303      	str	r3, [sp, #12]
20000c28:	234c      	movs	r3, #76	; 0x4c
20000c2a:	18fb      	adds	r3, r7, r3
20000c2c:	781b      	ldrb	r3, [r3, #0]
20000c2e:	9302      	str	r3, [sp, #8]
20000c30:	6b7b      	ldr	r3, [r7, #52]	; 0x34
20000c32:	9301      	str	r3, [sp, #4]
20000c34:	2310      	movs	r3, #16
20000c36:	18fb      	adds	r3, r7, r3
20000c38:	9300      	str	r3, [sp, #0]
20000c3a:	0023      	movs	r3, r4
20000c3c:	f7ff fec4 	bl	200009c8 <_ntoa_format>
20000c40:	0003      	movs	r3, r0
20000c42:	0018      	movs	r0, r3
20000c44:	46bd      	mov	sp, r7
20000c46:	b00f      	add	sp, #60	; 0x3c
20000c48:	bd90      	pop	{r4, r7, pc}

20000c4a <_vsnprintf>:
20000c4a:	b5f0      	push	{r4, r5, r6, r7, lr}
20000c4c:	b099      	sub	sp, #100	; 0x64
20000c4e:	af06      	add	r7, sp, #24
20000c50:	60f8      	str	r0, [r7, #12]
20000c52:	60b9      	str	r1, [r7, #8]
20000c54:	607a      	str	r2, [r7, #4]
20000c56:	603b      	str	r3, [r7, #0]
20000c58:	2300      	movs	r3, #0
20000c5a:	637b      	str	r3, [r7, #52]	; 0x34
20000c5c:	68bb      	ldr	r3, [r7, #8]
20000c5e:	2b00      	cmp	r3, #0
20000c60:	d000      	beq.n	20000c64 <_vsnprintf+0x1a>
20000c62:	e2e1      	b.n	20001228 <_vsnprintf+0x5de>
20000c64:	4bc6      	ldr	r3, [pc, #792]	; (20000f80 <_vsnprintf+0x336>)
20000c66:	60fb      	str	r3, [r7, #12]
20000c68:	e2de      	b.n	20001228 <_vsnprintf+0x5de>
20000c6a:	683b      	ldr	r3, [r7, #0]
20000c6c:	781b      	ldrb	r3, [r3, #0]
20000c6e:	2b25      	cmp	r3, #37	; 0x25
20000c70:	d00c      	beq.n	20000c8c <_vsnprintf+0x42>
20000c72:	683b      	ldr	r3, [r7, #0]
20000c74:	7818      	ldrb	r0, [r3, #0]
20000c76:	6b7a      	ldr	r2, [r7, #52]	; 0x34
20000c78:	1c53      	adds	r3, r2, #1
20000c7a:	637b      	str	r3, [r7, #52]	; 0x34
20000c7c:	687b      	ldr	r3, [r7, #4]
20000c7e:	68b9      	ldr	r1, [r7, #8]
20000c80:	68fc      	ldr	r4, [r7, #12]
20000c82:	47a0      	blx	r4
20000c84:	683b      	ldr	r3, [r7, #0]
20000c86:	3301      	adds	r3, #1
20000c88:	603b      	str	r3, [r7, #0]
20000c8a:	e2cd      	b.n	20001228 <_vsnprintf+0x5de>
20000c8c:	683b      	ldr	r3, [r7, #0]
20000c8e:	3301      	adds	r3, #1
20000c90:	603b      	str	r3, [r7, #0]
20000c92:	2300      	movs	r3, #0
20000c94:	647b      	str	r3, [r7, #68]	; 0x44
20000c96:	683b      	ldr	r3, [r7, #0]
20000c98:	781b      	ldrb	r3, [r3, #0]
20000c9a:	3b20      	subs	r3, #32
20000c9c:	2b10      	cmp	r3, #16
20000c9e:	d836      	bhi.n	20000d0e <_vsnprintf+0xc4>
20000ca0:	009a      	lsls	r2, r3, #2
20000ca2:	4bb8      	ldr	r3, [pc, #736]	; (20000f84 <_vsnprintf+0x33a>)
20000ca4:	18d3      	adds	r3, r2, r3
20000ca6:	681b      	ldr	r3, [r3, #0]
20000ca8:	469f      	mov	pc, r3
20000caa:	6c7b      	ldr	r3, [r7, #68]	; 0x44
20000cac:	2201      	movs	r2, #1
20000cae:	4313      	orrs	r3, r2
20000cb0:	647b      	str	r3, [r7, #68]	; 0x44
20000cb2:	683b      	ldr	r3, [r7, #0]
20000cb4:	3301      	adds	r3, #1
20000cb6:	603b      	str	r3, [r7, #0]
20000cb8:	2301      	movs	r3, #1
20000cba:	63bb      	str	r3, [r7, #56]	; 0x38
20000cbc:	e02a      	b.n	20000d14 <_vsnprintf+0xca>
20000cbe:	6c7b      	ldr	r3, [r7, #68]	; 0x44
20000cc0:	2202      	movs	r2, #2
20000cc2:	4313      	orrs	r3, r2
20000cc4:	647b      	str	r3, [r7, #68]	; 0x44
20000cc6:	683b      	ldr	r3, [r7, #0]
20000cc8:	3301      	adds	r3, #1
20000cca:	603b      	str	r3, [r7, #0]
20000ccc:	2301      	movs	r3, #1
20000cce:	63bb      	str	r3, [r7, #56]	; 0x38
20000cd0:	e020      	b.n	20000d14 <_vsnprintf+0xca>
20000cd2:	6c7b      	ldr	r3, [r7, #68]	; 0x44
20000cd4:	2204      	movs	r2, #4
20000cd6:	4313      	orrs	r3, r2
20000cd8:	647b      	str	r3, [r7, #68]	; 0x44
20000cda:	683b      	ldr	r3, [r7, #0]
20000cdc:	3301      	adds	r3, #1
20000cde:	603b      	str	r3, [r7, #0]
20000ce0:	2301      	movs	r3, #1
20000ce2:	63bb      	str	r3, [r7, #56]	; 0x38
20000ce4:	e016      	b.n	20000d14 <_vsnprintf+0xca>
20000ce6:	6c7b      	ldr	r3, [r7, #68]	; 0x44
20000ce8:	2208      	movs	r2, #8
20000cea:	4313      	orrs	r3, r2
20000cec:	647b      	str	r3, [r7, #68]	; 0x44
20000cee:	683b      	ldr	r3, [r7, #0]
20000cf0:	3301      	adds	r3, #1
20000cf2:	603b      	str	r3, [r7, #0]
20000cf4:	2301      	movs	r3, #1
20000cf6:	63bb      	str	r3, [r7, #56]	; 0x38
20000cf8:	e00c      	b.n	20000d14 <_vsnprintf+0xca>
20000cfa:	6c7b      	ldr	r3, [r7, #68]	; 0x44
20000cfc:	2210      	movs	r2, #16
20000cfe:	4313      	orrs	r3, r2
20000d00:	647b      	str	r3, [r7, #68]	; 0x44
20000d02:	683b      	ldr	r3, [r7, #0]
20000d04:	3301      	adds	r3, #1
20000d06:	603b      	str	r3, [r7, #0]
20000d08:	2301      	movs	r3, #1
20000d0a:	63bb      	str	r3, [r7, #56]	; 0x38
20000d0c:	e002      	b.n	20000d14 <_vsnprintf+0xca>
20000d0e:	2300      	movs	r3, #0
20000d10:	63bb      	str	r3, [r7, #56]	; 0x38
20000d12:	46c0      	nop			; (mov r8, r8)
20000d14:	6bbb      	ldr	r3, [r7, #56]	; 0x38
20000d16:	2b00      	cmp	r3, #0
20000d18:	d1bd      	bne.n	20000c96 <_vsnprintf+0x4c>
20000d1a:	2300      	movs	r3, #0
20000d1c:	643b      	str	r3, [r7, #64]	; 0x40
20000d1e:	683b      	ldr	r3, [r7, #0]
20000d20:	781b      	ldrb	r3, [r3, #0]
20000d22:	0018      	movs	r0, r3
20000d24:	f7ff fdc7 	bl	200008b6 <_is_digit>
20000d28:	1e03      	subs	r3, r0, #0
20000d2a:	d006      	beq.n	20000d3a <_vsnprintf+0xf0>
20000d2c:	003b      	movs	r3, r7
20000d2e:	0018      	movs	r0, r3
20000d30:	f7ff fdda 	bl	200008e8 <_atoi>
20000d34:	0003      	movs	r3, r0
20000d36:	643b      	str	r3, [r7, #64]	; 0x40
20000d38:	e018      	b.n	20000d6c <_vsnprintf+0x122>
20000d3a:	683b      	ldr	r3, [r7, #0]
20000d3c:	781b      	ldrb	r3, [r3, #0]
20000d3e:	2b2a      	cmp	r3, #42	; 0x2a
20000d40:	d114      	bne.n	20000d6c <_vsnprintf+0x122>
20000d42:	6e3b      	ldr	r3, [r7, #96]	; 0x60
20000d44:	1d1a      	adds	r2, r3, #4
20000d46:	663a      	str	r2, [r7, #96]	; 0x60
20000d48:	681b      	ldr	r3, [r3, #0]
20000d4a:	623b      	str	r3, [r7, #32]
20000d4c:	6a3b      	ldr	r3, [r7, #32]
20000d4e:	2b00      	cmp	r3, #0
20000d50:	da07      	bge.n	20000d62 <_vsnprintf+0x118>
20000d52:	6c7b      	ldr	r3, [r7, #68]	; 0x44
20000d54:	2202      	movs	r2, #2
20000d56:	4313      	orrs	r3, r2
20000d58:	647b      	str	r3, [r7, #68]	; 0x44
20000d5a:	6a3b      	ldr	r3, [r7, #32]
20000d5c:	425b      	negs	r3, r3
20000d5e:	643b      	str	r3, [r7, #64]	; 0x40
20000d60:	e001      	b.n	20000d66 <_vsnprintf+0x11c>
20000d62:	6a3b      	ldr	r3, [r7, #32]
20000d64:	643b      	str	r3, [r7, #64]	; 0x40
20000d66:	683b      	ldr	r3, [r7, #0]
20000d68:	3301      	adds	r3, #1
20000d6a:	603b      	str	r3, [r7, #0]
20000d6c:	2300      	movs	r3, #0
20000d6e:	63fb      	str	r3, [r7, #60]	; 0x3c
20000d70:	683b      	ldr	r3, [r7, #0]
20000d72:	781b      	ldrb	r3, [r3, #0]
20000d74:	2b2e      	cmp	r3, #46	; 0x2e
20000d76:	d126      	bne.n	20000dc6 <_vsnprintf+0x17c>
20000d78:	6c7b      	ldr	r3, [r7, #68]	; 0x44
20000d7a:	2280      	movs	r2, #128	; 0x80
20000d7c:	00d2      	lsls	r2, r2, #3
20000d7e:	4313      	orrs	r3, r2
20000d80:	647b      	str	r3, [r7, #68]	; 0x44
20000d82:	683b      	ldr	r3, [r7, #0]
20000d84:	3301      	adds	r3, #1
20000d86:	603b      	str	r3, [r7, #0]
20000d88:	683b      	ldr	r3, [r7, #0]
20000d8a:	781b      	ldrb	r3, [r3, #0]
20000d8c:	0018      	movs	r0, r3
20000d8e:	f7ff fd92 	bl	200008b6 <_is_digit>
20000d92:	1e03      	subs	r3, r0, #0
20000d94:	d006      	beq.n	20000da4 <_vsnprintf+0x15a>
20000d96:	003b      	movs	r3, r7
20000d98:	0018      	movs	r0, r3
20000d9a:	f7ff fda5 	bl	200008e8 <_atoi>
20000d9e:	0003      	movs	r3, r0
20000da0:	63fb      	str	r3, [r7, #60]	; 0x3c
20000da2:	e010      	b.n	20000dc6 <_vsnprintf+0x17c>
20000da4:	683b      	ldr	r3, [r7, #0]
20000da6:	781b      	ldrb	r3, [r3, #0]
20000da8:	2b2a      	cmp	r3, #42	; 0x2a
20000daa:	d10c      	bne.n	20000dc6 <_vsnprintf+0x17c>
20000dac:	6e3b      	ldr	r3, [r7, #96]	; 0x60
20000dae:	1d1a      	adds	r2, r3, #4
20000db0:	663a      	str	r2, [r7, #96]	; 0x60
20000db2:	681b      	ldr	r3, [r3, #0]
20000db4:	61fb      	str	r3, [r7, #28]
20000db6:	69fb      	ldr	r3, [r7, #28]
20000db8:	2b00      	cmp	r3, #0
20000dba:	da00      	bge.n	20000dbe <_vsnprintf+0x174>
20000dbc:	2300      	movs	r3, #0
20000dbe:	63fb      	str	r3, [r7, #60]	; 0x3c
20000dc0:	683b      	ldr	r3, [r7, #0]
20000dc2:	3301      	adds	r3, #1
20000dc4:	603b      	str	r3, [r7, #0]
20000dc6:	683b      	ldr	r3, [r7, #0]
20000dc8:	781b      	ldrb	r3, [r3, #0]
20000dca:	2b7a      	cmp	r3, #122	; 0x7a
20000dcc:	d039      	beq.n	20000e42 <_vsnprintf+0x1f8>
20000dce:	dc41      	bgt.n	20000e54 <_vsnprintf+0x20a>
20000dd0:	2b6c      	cmp	r3, #108	; 0x6c
20000dd2:	d005      	beq.n	20000de0 <_vsnprintf+0x196>
20000dd4:	dc3e      	bgt.n	20000e54 <_vsnprintf+0x20a>
20000dd6:	2b68      	cmp	r3, #104	; 0x68
20000dd8:	d017      	beq.n	20000e0a <_vsnprintf+0x1c0>
20000dda:	2b6a      	cmp	r3, #106	; 0x6a
20000ddc:	d028      	beq.n	20000e30 <_vsnprintf+0x1e6>
20000dde:	e039      	b.n	20000e54 <_vsnprintf+0x20a>
20000de0:	6c7b      	ldr	r3, [r7, #68]	; 0x44
20000de2:	2280      	movs	r2, #128	; 0x80
20000de4:	0052      	lsls	r2, r2, #1
20000de6:	4313      	orrs	r3, r2
20000de8:	647b      	str	r3, [r7, #68]	; 0x44
20000dea:	683b      	ldr	r3, [r7, #0]
20000dec:	3301      	adds	r3, #1
20000dee:	603b      	str	r3, [r7, #0]
20000df0:	683b      	ldr	r3, [r7, #0]
20000df2:	781b      	ldrb	r3, [r3, #0]
20000df4:	2b6c      	cmp	r3, #108	; 0x6c
20000df6:	d12f      	bne.n	20000e58 <_vsnprintf+0x20e>
20000df8:	6c7b      	ldr	r3, [r7, #68]	; 0x44
20000dfa:	2280      	movs	r2, #128	; 0x80
20000dfc:	0092      	lsls	r2, r2, #2
20000dfe:	4313      	orrs	r3, r2
20000e00:	647b      	str	r3, [r7, #68]	; 0x44
20000e02:	683b      	ldr	r3, [r7, #0]
20000e04:	3301      	adds	r3, #1
20000e06:	603b      	str	r3, [r7, #0]
20000e08:	e026      	b.n	20000e58 <_vsnprintf+0x20e>
20000e0a:	6c7b      	ldr	r3, [r7, #68]	; 0x44
20000e0c:	2280      	movs	r2, #128	; 0x80
20000e0e:	4313      	orrs	r3, r2
20000e10:	647b      	str	r3, [r7, #68]	; 0x44
20000e12:	683b      	ldr	r3, [r7, #0]
20000e14:	3301      	adds	r3, #1
20000e16:	603b      	str	r3, [r7, #0]
20000e18:	683b      	ldr	r3, [r7, #0]
20000e1a:	781b      	ldrb	r3, [r3, #0]
20000e1c:	2b68      	cmp	r3, #104	; 0x68
20000e1e:	d11d      	bne.n	20000e5c <_vsnprintf+0x212>
20000e20:	6c7b      	ldr	r3, [r7, #68]	; 0x44
20000e22:	2240      	movs	r2, #64	; 0x40
20000e24:	4313      	orrs	r3, r2
20000e26:	647b      	str	r3, [r7, #68]	; 0x44
20000e28:	683b      	ldr	r3, [r7, #0]
20000e2a:	3301      	adds	r3, #1
20000e2c:	603b      	str	r3, [r7, #0]
20000e2e:	e015      	b.n	20000e5c <_vsnprintf+0x212>
20000e30:	6c7b      	ldr	r3, [r7, #68]	; 0x44
20000e32:	2280      	movs	r2, #128	; 0x80
20000e34:	0092      	lsls	r2, r2, #2
20000e36:	4313      	orrs	r3, r2
20000e38:	647b      	str	r3, [r7, #68]	; 0x44
20000e3a:	683b      	ldr	r3, [r7, #0]
20000e3c:	3301      	adds	r3, #1
20000e3e:	603b      	str	r3, [r7, #0]
20000e40:	e00d      	b.n	20000e5e <_vsnprintf+0x214>
20000e42:	6c7b      	ldr	r3, [r7, #68]	; 0x44
20000e44:	2280      	movs	r2, #128	; 0x80
20000e46:	0052      	lsls	r2, r2, #1
20000e48:	4313      	orrs	r3, r2
20000e4a:	647b      	str	r3, [r7, #68]	; 0x44
20000e4c:	683b      	ldr	r3, [r7, #0]
20000e4e:	3301      	adds	r3, #1
20000e50:	603b      	str	r3, [r7, #0]
20000e52:	e004      	b.n	20000e5e <_vsnprintf+0x214>
20000e54:	46c0      	nop			; (mov r8, r8)
20000e56:	e002      	b.n	20000e5e <_vsnprintf+0x214>
20000e58:	46c0      	nop			; (mov r8, r8)
20000e5a:	e000      	b.n	20000e5e <_vsnprintf+0x214>
20000e5c:	46c0      	nop			; (mov r8, r8)
20000e5e:	683b      	ldr	r3, [r7, #0]
20000e60:	781b      	ldrb	r3, [r3, #0]
20000e62:	3b25      	subs	r3, #37	; 0x25
20000e64:	2b53      	cmp	r3, #83	; 0x53
20000e66:	d900      	bls.n	20000e6a <_vsnprintf+0x220>
20000e68:	e1d1      	b.n	2000120e <_vsnprintf+0x5c4>
20000e6a:	009a      	lsls	r2, r3, #2
20000e6c:	4b46      	ldr	r3, [pc, #280]	; (20000f88 <_vsnprintf+0x33e>)
20000e6e:	18d3      	adds	r3, r2, r3
20000e70:	681b      	ldr	r3, [r3, #0]
20000e72:	469f      	mov	pc, r3
20000e74:	683b      	ldr	r3, [r7, #0]
20000e76:	781b      	ldrb	r3, [r3, #0]
20000e78:	2b78      	cmp	r3, #120	; 0x78
20000e7a:	d003      	beq.n	20000e84 <_vsnprintf+0x23a>
20000e7c:	683b      	ldr	r3, [r7, #0]
20000e7e:	781b      	ldrb	r3, [r3, #0]
20000e80:	2b58      	cmp	r3, #88	; 0x58
20000e82:	d102      	bne.n	20000e8a <_vsnprintf+0x240>
20000e84:	2310      	movs	r3, #16
20000e86:	633b      	str	r3, [r7, #48]	; 0x30
20000e88:	e013      	b.n	20000eb2 <_vsnprintf+0x268>
20000e8a:	683b      	ldr	r3, [r7, #0]
20000e8c:	781b      	ldrb	r3, [r3, #0]
20000e8e:	2b6f      	cmp	r3, #111	; 0x6f
20000e90:	d102      	bne.n	20000e98 <_vsnprintf+0x24e>
20000e92:	2308      	movs	r3, #8
20000e94:	633b      	str	r3, [r7, #48]	; 0x30
20000e96:	e00c      	b.n	20000eb2 <_vsnprintf+0x268>
20000e98:	683b      	ldr	r3, [r7, #0]
20000e9a:	781b      	ldrb	r3, [r3, #0]
20000e9c:	2b62      	cmp	r3, #98	; 0x62
20000e9e:	d102      	bne.n	20000ea6 <_vsnprintf+0x25c>
20000ea0:	2302      	movs	r3, #2
20000ea2:	633b      	str	r3, [r7, #48]	; 0x30
20000ea4:	e005      	b.n	20000eb2 <_vsnprintf+0x268>
20000ea6:	230a      	movs	r3, #10
20000ea8:	633b      	str	r3, [r7, #48]	; 0x30
20000eaa:	6c7b      	ldr	r3, [r7, #68]	; 0x44
20000eac:	2210      	movs	r2, #16
20000eae:	4393      	bics	r3, r2
20000eb0:	647b      	str	r3, [r7, #68]	; 0x44
20000eb2:	683b      	ldr	r3, [r7, #0]
20000eb4:	781b      	ldrb	r3, [r3, #0]
20000eb6:	2b58      	cmp	r3, #88	; 0x58
20000eb8:	d103      	bne.n	20000ec2 <_vsnprintf+0x278>
20000eba:	6c7b      	ldr	r3, [r7, #68]	; 0x44
20000ebc:	2220      	movs	r2, #32
20000ebe:	4313      	orrs	r3, r2
20000ec0:	647b      	str	r3, [r7, #68]	; 0x44
20000ec2:	683b      	ldr	r3, [r7, #0]
20000ec4:	781b      	ldrb	r3, [r3, #0]
20000ec6:	2b69      	cmp	r3, #105	; 0x69
20000ec8:	d007      	beq.n	20000eda <_vsnprintf+0x290>
20000eca:	683b      	ldr	r3, [r7, #0]
20000ecc:	781b      	ldrb	r3, [r3, #0]
20000ece:	2b64      	cmp	r3, #100	; 0x64
20000ed0:	d003      	beq.n	20000eda <_vsnprintf+0x290>
20000ed2:	6c7b      	ldr	r3, [r7, #68]	; 0x44
20000ed4:	220c      	movs	r2, #12
20000ed6:	4393      	bics	r3, r2
20000ed8:	647b      	str	r3, [r7, #68]	; 0x44
20000eda:	6c7a      	ldr	r2, [r7, #68]	; 0x44
20000edc:	2380      	movs	r3, #128	; 0x80
20000ede:	00db      	lsls	r3, r3, #3
20000ee0:	4013      	ands	r3, r2
20000ee2:	d003      	beq.n	20000eec <_vsnprintf+0x2a2>
20000ee4:	6c7b      	ldr	r3, [r7, #68]	; 0x44
20000ee6:	2201      	movs	r2, #1
20000ee8:	4393      	bics	r3, r2
20000eea:	647b      	str	r3, [r7, #68]	; 0x44
20000eec:	683b      	ldr	r3, [r7, #0]
20000eee:	781b      	ldrb	r3, [r3, #0]
20000ef0:	2b69      	cmp	r3, #105	; 0x69
20000ef2:	d003      	beq.n	20000efc <_vsnprintf+0x2b2>
20000ef4:	683b      	ldr	r3, [r7, #0]
20000ef6:	781b      	ldrb	r3, [r3, #0]
20000ef8:	2b64      	cmp	r3, #100	; 0x64
20000efa:	d169      	bne.n	20000fd0 <_vsnprintf+0x386>
20000efc:	6c7a      	ldr	r2, [r7, #68]	; 0x44
20000efe:	2380      	movs	r3, #128	; 0x80
20000f00:	009b      	lsls	r3, r3, #2
20000f02:	4013      	ands	r3, r2
20000f04:	d000      	beq.n	20000f08 <_vsnprintf+0x2be>
20000f06:	e0b5      	b.n	20001074 <_vsnprintf+0x42a>
20000f08:	6c7a      	ldr	r2, [r7, #68]	; 0x44
20000f0a:	2380      	movs	r3, #128	; 0x80
20000f0c:	005b      	lsls	r3, r3, #1
20000f0e:	4013      	ands	r3, r2
20000f10:	d021      	beq.n	20000f56 <_vsnprintf+0x30c>
20000f12:	6e3b      	ldr	r3, [r7, #96]	; 0x60
20000f14:	1d1a      	adds	r2, r3, #4
20000f16:	663a      	str	r2, [r7, #96]	; 0x60
20000f18:	681b      	ldr	r3, [r3, #0]
20000f1a:	613b      	str	r3, [r7, #16]
20000f1c:	693b      	ldr	r3, [r7, #16]
20000f1e:	17da      	asrs	r2, r3, #31
20000f20:	189b      	adds	r3, r3, r2
20000f22:	4053      	eors	r3, r2
20000f24:	001e      	movs	r6, r3
20000f26:	693b      	ldr	r3, [r7, #16]
20000f28:	0fdb      	lsrs	r3, r3, #31
20000f2a:	b2db      	uxtb	r3, r3
20000f2c:	687d      	ldr	r5, [r7, #4]
20000f2e:	6b7c      	ldr	r4, [r7, #52]	; 0x34
20000f30:	68b9      	ldr	r1, [r7, #8]
20000f32:	68f8      	ldr	r0, [r7, #12]
20000f34:	6c7a      	ldr	r2, [r7, #68]	; 0x44
20000f36:	9205      	str	r2, [sp, #20]
20000f38:	6c3a      	ldr	r2, [r7, #64]	; 0x40
20000f3a:	9204      	str	r2, [sp, #16]
20000f3c:	6bfa      	ldr	r2, [r7, #60]	; 0x3c
20000f3e:	9203      	str	r2, [sp, #12]
20000f40:	6b3a      	ldr	r2, [r7, #48]	; 0x30
20000f42:	9202      	str	r2, [sp, #8]
20000f44:	9301      	str	r3, [sp, #4]
20000f46:	9600      	str	r6, [sp, #0]
20000f48:	002b      	movs	r3, r5
20000f4a:	0022      	movs	r2, r4
20000f4c:	f7ff fe12 	bl	20000b74 <_ntoa_long>
20000f50:	0003      	movs	r3, r0
20000f52:	637b      	str	r3, [r7, #52]	; 0x34
20000f54:	e08e      	b.n	20001074 <_vsnprintf+0x42a>
20000f56:	6c7b      	ldr	r3, [r7, #68]	; 0x44
20000f58:	2240      	movs	r2, #64	; 0x40
20000f5a:	4013      	ands	r3, r2
20000f5c:	d005      	beq.n	20000f6a <_vsnprintf+0x320>
20000f5e:	6e3b      	ldr	r3, [r7, #96]	; 0x60
20000f60:	1d1a      	adds	r2, r3, #4
20000f62:	663a      	str	r2, [r7, #96]	; 0x60
20000f64:	681b      	ldr	r3, [r3, #0]
20000f66:	b2db      	uxtb	r3, r3
20000f68:	e014      	b.n	20000f94 <_vsnprintf+0x34a>
20000f6a:	6c7b      	ldr	r3, [r7, #68]	; 0x44
20000f6c:	2280      	movs	r2, #128	; 0x80
20000f6e:	4013      	ands	r3, r2
20000f70:	d00c      	beq.n	20000f8c <_vsnprintf+0x342>
20000f72:	6e3b      	ldr	r3, [r7, #96]	; 0x60
20000f74:	1d1a      	adds	r2, r3, #4
20000f76:	663a      	str	r2, [r7, #96]	; 0x60
20000f78:	681b      	ldr	r3, [r3, #0]
20000f7a:	b21b      	sxth	r3, r3
20000f7c:	e00a      	b.n	20000f94 <_vsnprintf+0x34a>
20000f7e:	46c0      	nop			; (mov r8, r8)
20000f80:	200007ff 	strdcs	r0, [r0], -pc	; <UNPREDICTABLE>
20000f84:	1000164c 	andne	r1, r0, ip, asr #12
20000f88:	10001690 	mulne	r0, r0, r6
20000f8c:	6e3b      	ldr	r3, [r7, #96]	; 0x60
20000f8e:	1d1a      	adds	r2, r3, #4
20000f90:	663a      	str	r2, [r7, #96]	; 0x60
20000f92:	681b      	ldr	r3, [r3, #0]
20000f94:	617b      	str	r3, [r7, #20]
20000f96:	697b      	ldr	r3, [r7, #20]
20000f98:	17da      	asrs	r2, r3, #31
20000f9a:	189b      	adds	r3, r3, r2
20000f9c:	4053      	eors	r3, r2
20000f9e:	001e      	movs	r6, r3
20000fa0:	697b      	ldr	r3, [r7, #20]
20000fa2:	0fdb      	lsrs	r3, r3, #31
20000fa4:	b2db      	uxtb	r3, r3
20000fa6:	687d      	ldr	r5, [r7, #4]
20000fa8:	6b7c      	ldr	r4, [r7, #52]	; 0x34
20000faa:	68b9      	ldr	r1, [r7, #8]
20000fac:	68f8      	ldr	r0, [r7, #12]
20000fae:	6c7a      	ldr	r2, [r7, #68]	; 0x44
20000fb0:	9205      	str	r2, [sp, #20]
20000fb2:	6c3a      	ldr	r2, [r7, #64]	; 0x40
20000fb4:	9204      	str	r2, [sp, #16]
20000fb6:	6bfa      	ldr	r2, [r7, #60]	; 0x3c
20000fb8:	9203      	str	r2, [sp, #12]
20000fba:	6b3a      	ldr	r2, [r7, #48]	; 0x30
20000fbc:	9202      	str	r2, [sp, #8]
20000fbe:	9301      	str	r3, [sp, #4]
20000fc0:	9600      	str	r6, [sp, #0]
20000fc2:	002b      	movs	r3, r5
20000fc4:	0022      	movs	r2, r4
20000fc6:	f7ff fdd5 	bl	20000b74 <_ntoa_long>
20000fca:	0003      	movs	r3, r0
20000fcc:	637b      	str	r3, [r7, #52]	; 0x34
20000fce:	e051      	b.n	20001074 <_vsnprintf+0x42a>
20000fd0:	6c7a      	ldr	r2, [r7, #68]	; 0x44
20000fd2:	2380      	movs	r3, #128	; 0x80
20000fd4:	009b      	lsls	r3, r3, #2
20000fd6:	4013      	ands	r3, r2
20000fd8:	d14c      	bne.n	20001074 <_vsnprintf+0x42a>
20000fda:	6c7a      	ldr	r2, [r7, #68]	; 0x44
20000fdc:	2380      	movs	r3, #128	; 0x80
20000fde:	005b      	lsls	r3, r3, #1
20000fe0:	4013      	ands	r3, r2
20000fe2:	d019      	beq.n	20001018 <_vsnprintf+0x3ce>
20000fe4:	6e3b      	ldr	r3, [r7, #96]	; 0x60
20000fe6:	1d1a      	adds	r2, r3, #4
20000fe8:	663a      	str	r2, [r7, #96]	; 0x60
20000fea:	681b      	ldr	r3, [r3, #0]
20000fec:	687d      	ldr	r5, [r7, #4]
20000fee:	6b7c      	ldr	r4, [r7, #52]	; 0x34
20000ff0:	68b9      	ldr	r1, [r7, #8]
20000ff2:	68f8      	ldr	r0, [r7, #12]
20000ff4:	6c7a      	ldr	r2, [r7, #68]	; 0x44
20000ff6:	9205      	str	r2, [sp, #20]
20000ff8:	6c3a      	ldr	r2, [r7, #64]	; 0x40
20000ffa:	9204      	str	r2, [sp, #16]
20000ffc:	6bfa      	ldr	r2, [r7, #60]	; 0x3c
20000ffe:	9203      	str	r2, [sp, #12]
20001000:	6b3a      	ldr	r2, [r7, #48]	; 0x30
20001002:	9202      	str	r2, [sp, #8]
20001004:	2200      	movs	r2, #0
20001006:	9201      	str	r2, [sp, #4]
20001008:	9300      	str	r3, [sp, #0]
2000100a:	002b      	movs	r3, r5
2000100c:	0022      	movs	r2, r4
2000100e:	f7ff fdb1 	bl	20000b74 <_ntoa_long>
20001012:	0003      	movs	r3, r0
20001014:	637b      	str	r3, [r7, #52]	; 0x34
20001016:	e02d      	b.n	20001074 <_vsnprintf+0x42a>
20001018:	6c7b      	ldr	r3, [r7, #68]	; 0x44
2000101a:	2240      	movs	r2, #64	; 0x40
2000101c:	4013      	ands	r3, r2
2000101e:	d005      	beq.n	2000102c <_vsnprintf+0x3e2>
20001020:	6e3b      	ldr	r3, [r7, #96]	; 0x60
20001022:	1d1a      	adds	r2, r3, #4
20001024:	663a      	str	r2, [r7, #96]	; 0x60
20001026:	681b      	ldr	r3, [r3, #0]
20001028:	b2db      	uxtb	r3, r3
2000102a:	e00d      	b.n	20001048 <_vsnprintf+0x3fe>
2000102c:	6c7b      	ldr	r3, [r7, #68]	; 0x44
2000102e:	2280      	movs	r2, #128	; 0x80
20001030:	4013      	ands	r3, r2
20001032:	d005      	beq.n	20001040 <_vsnprintf+0x3f6>
20001034:	6e3b      	ldr	r3, [r7, #96]	; 0x60
20001036:	1d1a      	adds	r2, r3, #4
20001038:	663a      	str	r2, [r7, #96]	; 0x60
2000103a:	681b      	ldr	r3, [r3, #0]
2000103c:	b29b      	uxth	r3, r3
2000103e:	e003      	b.n	20001048 <_vsnprintf+0x3fe>
20001040:	6e3b      	ldr	r3, [r7, #96]	; 0x60
20001042:	1d1a      	adds	r2, r3, #4
20001044:	663a      	str	r2, [r7, #96]	; 0x60
20001046:	681b      	ldr	r3, [r3, #0]
20001048:	61bb      	str	r3, [r7, #24]
2000104a:	687c      	ldr	r4, [r7, #4]
2000104c:	6b7a      	ldr	r2, [r7, #52]	; 0x34
2000104e:	68b9      	ldr	r1, [r7, #8]
20001050:	68f8      	ldr	r0, [r7, #12]
20001052:	6c7b      	ldr	r3, [r7, #68]	; 0x44
20001054:	9305      	str	r3, [sp, #20]
20001056:	6c3b      	ldr	r3, [r7, #64]	; 0x40
20001058:	9304      	str	r3, [sp, #16]
2000105a:	6bfb      	ldr	r3, [r7, #60]	; 0x3c
2000105c:	9303      	str	r3, [sp, #12]
2000105e:	6b3b      	ldr	r3, [r7, #48]	; 0x30
20001060:	9302      	str	r3, [sp, #8]
20001062:	2300      	movs	r3, #0
20001064:	9301      	str	r3, [sp, #4]
20001066:	69bb      	ldr	r3, [r7, #24]
20001068:	9300      	str	r3, [sp, #0]
2000106a:	0023      	movs	r3, r4
2000106c:	f7ff fd82 	bl	20000b74 <_ntoa_long>
20001070:	0003      	movs	r3, r0
20001072:	637b      	str	r3, [r7, #52]	; 0x34
20001074:	683b      	ldr	r3, [r7, #0]
20001076:	3301      	adds	r3, #1
20001078:	603b      	str	r3, [r7, #0]
2000107a:	e0d5      	b.n	20001228 <_vsnprintf+0x5de>
2000107c:	2301      	movs	r3, #1
2000107e:	62fb      	str	r3, [r7, #44]	; 0x2c
20001080:	6c7b      	ldr	r3, [r7, #68]	; 0x44
20001082:	2202      	movs	r2, #2
20001084:	4013      	ands	r3, r2
20001086:	d10e      	bne.n	200010a6 <_vsnprintf+0x45c>
20001088:	e007      	b.n	2000109a <_vsnprintf+0x450>
2000108a:	6b7a      	ldr	r2, [r7, #52]	; 0x34
2000108c:	1c53      	adds	r3, r2, #1
2000108e:	637b      	str	r3, [r7, #52]	; 0x34
20001090:	687b      	ldr	r3, [r7, #4]
20001092:	68b9      	ldr	r1, [r7, #8]
20001094:	68fc      	ldr	r4, [r7, #12]
20001096:	2020      	movs	r0, #32
20001098:	47a0      	blx	r4
2000109a:	6afb      	ldr	r3, [r7, #44]	; 0x2c
2000109c:	1c5a      	adds	r2, r3, #1
2000109e:	62fa      	str	r2, [r7, #44]	; 0x2c
200010a0:	6c3a      	ldr	r2, [r7, #64]	; 0x40
200010a2:	429a      	cmp	r2, r3
200010a4:	d8f1      	bhi.n	2000108a <_vsnprintf+0x440>
200010a6:	6e3b      	ldr	r3, [r7, #96]	; 0x60
200010a8:	1d1a      	adds	r2, r3, #4
200010aa:	663a      	str	r2, [r7, #96]	; 0x60
200010ac:	681b      	ldr	r3, [r3, #0]
200010ae:	b2d8      	uxtb	r0, r3
200010b0:	6b7a      	ldr	r2, [r7, #52]	; 0x34
200010b2:	1c53      	adds	r3, r2, #1
200010b4:	637b      	str	r3, [r7, #52]	; 0x34
200010b6:	687b      	ldr	r3, [r7, #4]
200010b8:	68b9      	ldr	r1, [r7, #8]
200010ba:	68fc      	ldr	r4, [r7, #12]
200010bc:	47a0      	blx	r4
200010be:	6c7b      	ldr	r3, [r7, #68]	; 0x44
200010c0:	2202      	movs	r2, #2
200010c2:	4013      	ands	r3, r2
200010c4:	d00e      	beq.n	200010e4 <_vsnprintf+0x49a>
200010c6:	e007      	b.n	200010d8 <_vsnprintf+0x48e>
200010c8:	6b7a      	ldr	r2, [r7, #52]	; 0x34
200010ca:	1c53      	adds	r3, r2, #1
200010cc:	637b      	str	r3, [r7, #52]	; 0x34
200010ce:	687b      	ldr	r3, [r7, #4]
200010d0:	68b9      	ldr	r1, [r7, #8]
200010d2:	68fc      	ldr	r4, [r7, #12]
200010d4:	2020      	movs	r0, #32
200010d6:	47a0      	blx	r4
200010d8:	6afb      	ldr	r3, [r7, #44]	; 0x2c
200010da:	1c5a      	adds	r2, r3, #1
200010dc:	62fa      	str	r2, [r7, #44]	; 0x2c
200010de:	6c3a      	ldr	r2, [r7, #64]	; 0x40
200010e0:	429a      	cmp	r2, r3
200010e2:	d8f1      	bhi.n	200010c8 <_vsnprintf+0x47e>
200010e4:	683b      	ldr	r3, [r7, #0]
200010e6:	3301      	adds	r3, #1
200010e8:	603b      	str	r3, [r7, #0]
200010ea:	e09d      	b.n	20001228 <_vsnprintf+0x5de>
200010ec:	6e3b      	ldr	r3, [r7, #96]	; 0x60
200010ee:	1d1a      	adds	r2, r3, #4
200010f0:	663a      	str	r2, [r7, #96]	; 0x60
200010f2:	681b      	ldr	r3, [r3, #0]
200010f4:	62bb      	str	r3, [r7, #40]	; 0x28
200010f6:	6bfb      	ldr	r3, [r7, #60]	; 0x3c
200010f8:	2b00      	cmp	r3, #0
200010fa:	d001      	beq.n	20001100 <_vsnprintf+0x4b6>
200010fc:	6bfb      	ldr	r3, [r7, #60]	; 0x3c
200010fe:	e001      	b.n	20001104 <_vsnprintf+0x4ba>
20001100:	2301      	movs	r3, #1
20001102:	425b      	negs	r3, r3
20001104:	6aba      	ldr	r2, [r7, #40]	; 0x28
20001106:	0019      	movs	r1, r3
20001108:	0010      	movs	r0, r2
2000110a:	f7ff fbb9 	bl	20000880 <_strnlen_s>
2000110e:	0003      	movs	r3, r0
20001110:	627b      	str	r3, [r7, #36]	; 0x24
20001112:	6c7a      	ldr	r2, [r7, #68]	; 0x44
20001114:	2380      	movs	r3, #128	; 0x80
20001116:	00db      	lsls	r3, r3, #3
20001118:	4013      	ands	r3, r2
2000111a:	d005      	beq.n	20001128 <_vsnprintf+0x4de>
2000111c:	6a7a      	ldr	r2, [r7, #36]	; 0x24
2000111e:	6bfb      	ldr	r3, [r7, #60]	; 0x3c
20001120:	4293      	cmp	r3, r2
20001122:	d900      	bls.n	20001126 <_vsnprintf+0x4dc>
20001124:	0013      	movs	r3, r2
20001126:	627b      	str	r3, [r7, #36]	; 0x24
20001128:	6c7b      	ldr	r3, [r7, #68]	; 0x44
2000112a:	2202      	movs	r2, #2
2000112c:	4013      	ands	r3, r2
2000112e:	d11a      	bne.n	20001166 <_vsnprintf+0x51c>
20001130:	e007      	b.n	20001142 <_vsnprintf+0x4f8>
20001132:	6b7a      	ldr	r2, [r7, #52]	; 0x34
20001134:	1c53      	adds	r3, r2, #1
20001136:	637b      	str	r3, [r7, #52]	; 0x34
20001138:	687b      	ldr	r3, [r7, #4]
2000113a:	68b9      	ldr	r1, [r7, #8]
2000113c:	68fc      	ldr	r4, [r7, #12]
2000113e:	2020      	movs	r0, #32
20001140:	47a0      	blx	r4
20001142:	6a7b      	ldr	r3, [r7, #36]	; 0x24
20001144:	1c5a      	adds	r2, r3, #1
20001146:	627a      	str	r2, [r7, #36]	; 0x24
20001148:	6c3a      	ldr	r2, [r7, #64]	; 0x40
2000114a:	429a      	cmp	r2, r3
2000114c:	d8f1      	bhi.n	20001132 <_vsnprintf+0x4e8>
2000114e:	e00a      	b.n	20001166 <_vsnprintf+0x51c>
20001150:	6abb      	ldr	r3, [r7, #40]	; 0x28
20001152:	1c5a      	adds	r2, r3, #1
20001154:	62ba      	str	r2, [r7, #40]	; 0x28
20001156:	7818      	ldrb	r0, [r3, #0]
20001158:	6b7a      	ldr	r2, [r7, #52]	; 0x34
2000115a:	1c53      	adds	r3, r2, #1
2000115c:	637b      	str	r3, [r7, #52]	; 0x34
2000115e:	687b      	ldr	r3, [r7, #4]
20001160:	68b9      	ldr	r1, [r7, #8]
20001162:	68fc      	ldr	r4, [r7, #12]
20001164:	47a0      	blx	r4
20001166:	6abb      	ldr	r3, [r7, #40]	; 0x28
20001168:	781b      	ldrb	r3, [r3, #0]
2000116a:	2b00      	cmp	r3, #0
2000116c:	d009      	beq.n	20001182 <_vsnprintf+0x538>
2000116e:	6c7a      	ldr	r2, [r7, #68]	; 0x44
20001170:	2380      	movs	r3, #128	; 0x80
20001172:	00db      	lsls	r3, r3, #3
20001174:	4013      	ands	r3, r2
20001176:	d0eb      	beq.n	20001150 <_vsnprintf+0x506>
20001178:	6bfb      	ldr	r3, [r7, #60]	; 0x3c
2000117a:	1e5a      	subs	r2, r3, #1
2000117c:	63fa      	str	r2, [r7, #60]	; 0x3c
2000117e:	2b00      	cmp	r3, #0
20001180:	d1e6      	bne.n	20001150 <_vsnprintf+0x506>
20001182:	6c7b      	ldr	r3, [r7, #68]	; 0x44
20001184:	2202      	movs	r2, #2
20001186:	4013      	ands	r3, r2
20001188:	d00e      	beq.n	200011a8 <_vsnprintf+0x55e>
2000118a:	e007      	b.n	2000119c <_vsnprintf+0x552>
2000118c:	6b7a      	ldr	r2, [r7, #52]	; 0x34
2000118e:	1c53      	adds	r3, r2, #1
20001190:	637b      	str	r3, [r7, #52]	; 0x34
20001192:	687b      	ldr	r3, [r7, #4]
20001194:	68b9      	ldr	r1, [r7, #8]
20001196:	68fc      	ldr	r4, [r7, #12]
20001198:	2020      	movs	r0, #32
2000119a:	47a0      	blx	r4
2000119c:	6a7b      	ldr	r3, [r7, #36]	; 0x24
2000119e:	1c5a      	adds	r2, r3, #1
200011a0:	627a      	str	r2, [r7, #36]	; 0x24
200011a2:	6c3a      	ldr	r2, [r7, #64]	; 0x40
200011a4:	429a      	cmp	r2, r3
200011a6:	d8f1      	bhi.n	2000118c <_vsnprintf+0x542>
200011a8:	683b      	ldr	r3, [r7, #0]
200011aa:	3301      	adds	r3, #1
200011ac:	603b      	str	r3, [r7, #0]
200011ae:	e03b      	b.n	20001228 <_vsnprintf+0x5de>
200011b0:	2308      	movs	r3, #8
200011b2:	643b      	str	r3, [r7, #64]	; 0x40
200011b4:	6c7b      	ldr	r3, [r7, #68]	; 0x44
200011b6:	2221      	movs	r2, #33	; 0x21
200011b8:	4313      	orrs	r3, r2
200011ba:	647b      	str	r3, [r7, #68]	; 0x44
200011bc:	6e3b      	ldr	r3, [r7, #96]	; 0x60
200011be:	1d1a      	adds	r2, r3, #4
200011c0:	663a      	str	r2, [r7, #96]	; 0x60
200011c2:	681b      	ldr	r3, [r3, #0]
200011c4:	001d      	movs	r5, r3
200011c6:	687c      	ldr	r4, [r7, #4]
200011c8:	6b7a      	ldr	r2, [r7, #52]	; 0x34
200011ca:	68b9      	ldr	r1, [r7, #8]
200011cc:	68f8      	ldr	r0, [r7, #12]
200011ce:	6c7b      	ldr	r3, [r7, #68]	; 0x44
200011d0:	9305      	str	r3, [sp, #20]
200011d2:	6c3b      	ldr	r3, [r7, #64]	; 0x40
200011d4:	9304      	str	r3, [sp, #16]
200011d6:	6bfb      	ldr	r3, [r7, #60]	; 0x3c
200011d8:	9303      	str	r3, [sp, #12]
200011da:	2310      	movs	r3, #16
200011dc:	9302      	str	r3, [sp, #8]
200011de:	2300      	movs	r3, #0
200011e0:	9301      	str	r3, [sp, #4]
200011e2:	9500      	str	r5, [sp, #0]
200011e4:	0023      	movs	r3, r4
200011e6:	f7ff fcc5 	bl	20000b74 <_ntoa_long>
200011ea:	0003      	movs	r3, r0
200011ec:	637b      	str	r3, [r7, #52]	; 0x34
200011ee:	683b      	ldr	r3, [r7, #0]
200011f0:	3301      	adds	r3, #1
200011f2:	603b      	str	r3, [r7, #0]
200011f4:	e018      	b.n	20001228 <_vsnprintf+0x5de>
200011f6:	6b7a      	ldr	r2, [r7, #52]	; 0x34
200011f8:	1c53      	adds	r3, r2, #1
200011fa:	637b      	str	r3, [r7, #52]	; 0x34
200011fc:	687b      	ldr	r3, [r7, #4]
200011fe:	68b9      	ldr	r1, [r7, #8]
20001200:	68fc      	ldr	r4, [r7, #12]
20001202:	2025      	movs	r0, #37	; 0x25
20001204:	47a0      	blx	r4
20001206:	683b      	ldr	r3, [r7, #0]
20001208:	3301      	adds	r3, #1
2000120a:	603b      	str	r3, [r7, #0]
2000120c:	e00c      	b.n	20001228 <_vsnprintf+0x5de>
2000120e:	683b      	ldr	r3, [r7, #0]
20001210:	7818      	ldrb	r0, [r3, #0]
20001212:	6b7a      	ldr	r2, [r7, #52]	; 0x34
20001214:	1c53      	adds	r3, r2, #1
20001216:	637b      	str	r3, [r7, #52]	; 0x34
20001218:	687b      	ldr	r3, [r7, #4]
2000121a:	68b9      	ldr	r1, [r7, #8]
2000121c:	68fc      	ldr	r4, [r7, #12]
2000121e:	47a0      	blx	r4
20001220:	683b      	ldr	r3, [r7, #0]
20001222:	3301      	adds	r3, #1
20001224:	603b      	str	r3, [r7, #0]
20001226:	46c0      	nop			; (mov r8, r8)
20001228:	683b      	ldr	r3, [r7, #0]
2000122a:	781b      	ldrb	r3, [r3, #0]
2000122c:	2b00      	cmp	r3, #0
2000122e:	d000      	beq.n	20001232 <_vsnprintf+0x5e8>
20001230:	e51b      	b.n	20000c6a <_vsnprintf+0x20>
20001232:	6b7a      	ldr	r2, [r7, #52]	; 0x34
20001234:	687b      	ldr	r3, [r7, #4]
20001236:	429a      	cmp	r2, r3
20001238:	d302      	bcc.n	20001240 <_vsnprintf+0x5f6>
2000123a:	687b      	ldr	r3, [r7, #4]
2000123c:	1e5a      	subs	r2, r3, #1
2000123e:	e000      	b.n	20001242 <_vsnprintf+0x5f8>
20001240:	6b7a      	ldr	r2, [r7, #52]	; 0x34
20001242:	687b      	ldr	r3, [r7, #4]
20001244:	68b9      	ldr	r1, [r7, #8]
20001246:	68fc      	ldr	r4, [r7, #12]
20001248:	2000      	movs	r0, #0
2000124a:	47a0      	blx	r4
2000124c:	6b7b      	ldr	r3, [r7, #52]	; 0x34
2000124e:	0018      	movs	r0, r3
20001250:	46bd      	mov	sp, r7
20001252:	b013      	add	sp, #76	; 0x4c
20001254:	bdf0      	pop	{r4, r5, r6, r7, pc}

20001256 <printf_>:
20001256:	b40f      	push	{r0, r1, r2, r3}
20001258:	b590      	push	{r4, r7, lr}
2000125a:	b087      	sub	sp, #28
2000125c:	af02      	add	r7, sp, #8
2000125e:	2324      	movs	r3, #36	; 0x24
20001260:	18fb      	adds	r3, r7, r3
20001262:	60bb      	str	r3, [r7, #8]
20001264:	6a3c      	ldr	r4, [r7, #32]
20001266:	2301      	movs	r3, #1
20001268:	425a      	negs	r2, r3
2000126a:	1d39      	adds	r1, r7, #4
2000126c:	4807      	ldr	r0, [pc, #28]	; (2000128c <printf_+0x36>)
2000126e:	68bb      	ldr	r3, [r7, #8]
20001270:	9300      	str	r3, [sp, #0]
20001272:	0023      	movs	r3, r4
20001274:	f7ff fce9 	bl	20000c4a <_vsnprintf>
20001278:	0003      	movs	r3, r0
2000127a:	60fb      	str	r3, [r7, #12]
2000127c:	68fb      	ldr	r3, [r7, #12]
2000127e:	0018      	movs	r0, r3
20001280:	46bd      	mov	sp, r7
20001282:	b005      	add	sp, #20
20001284:	bc90      	pop	{r4, r7}
20001286:	bc08      	pop	{r3}
20001288:	b004      	add	sp, #16
2000128a:	4718      	bx	r3
2000128c:	2000081b 	andcs	r0, r0, fp, lsl r8

20001290 <sprintf_>:
20001290:	b40e      	push	{r1, r2, r3}
20001292:	b590      	push	{r4, r7, lr}
20001294:	b086      	sub	sp, #24
20001296:	af02      	add	r7, sp, #8
20001298:	6078      	str	r0, [r7, #4]
2000129a:	2320      	movs	r3, #32
2000129c:	18fb      	adds	r3, r7, r3
2000129e:	60bb      	str	r3, [r7, #8]
200012a0:	69fc      	ldr	r4, [r7, #28]
200012a2:	2301      	movs	r3, #1
200012a4:	425a      	negs	r2, r3
200012a6:	6879      	ldr	r1, [r7, #4]
200012a8:	4807      	ldr	r0, [pc, #28]	; (200012c8 <sprintf_+0x38>)
200012aa:	68bb      	ldr	r3, [r7, #8]
200012ac:	9300      	str	r3, [sp, #0]
200012ae:	0023      	movs	r3, r4
200012b0:	f7ff fccb 	bl	20000c4a <_vsnprintf>
200012b4:	0003      	movs	r3, r0
200012b6:	60fb      	str	r3, [r7, #12]
200012b8:	68fb      	ldr	r3, [r7, #12]
200012ba:	0018      	movs	r0, r3
200012bc:	46bd      	mov	sp, r7
200012be:	b004      	add	sp, #16
200012c0:	bc90      	pop	{r4, r7}
200012c2:	bc08      	pop	{r3}
200012c4:	b003      	add	sp, #12
200012c6:	4718      	bx	r3
200012c8:	200007cf 	andcs	r0, r0, pc, asr #15

200012cc <snprintf_>:
200012cc:	b40c      	push	{r2, r3}
200012ce:	b590      	push	{r4, r7, lr}
200012d0:	b087      	sub	sp, #28
200012d2:	af02      	add	r7, sp, #8
200012d4:	6078      	str	r0, [r7, #4]
200012d6:	6039      	str	r1, [r7, #0]
200012d8:	2324      	movs	r3, #36	; 0x24
200012da:	18fb      	adds	r3, r7, r3
200012dc:	60bb      	str	r3, [r7, #8]
200012de:	6a3c      	ldr	r4, [r7, #32]
200012e0:	683a      	ldr	r2, [r7, #0]
200012e2:	6879      	ldr	r1, [r7, #4]
200012e4:	4807      	ldr	r0, [pc, #28]	; (20001304 <snprintf_+0x38>)
200012e6:	68bb      	ldr	r3, [r7, #8]
200012e8:	9300      	str	r3, [sp, #0]
200012ea:	0023      	movs	r3, r4
200012ec:	f7ff fcad 	bl	20000c4a <_vsnprintf>
200012f0:	0003      	movs	r3, r0
200012f2:	60fb      	str	r3, [r7, #12]
200012f4:	68fb      	ldr	r3, [r7, #12]
200012f6:	0018      	movs	r0, r3
200012f8:	46bd      	mov	sp, r7
200012fa:	b005      	add	sp, #20
200012fc:	bc90      	pop	{r4, r7}
200012fe:	bc08      	pop	{r3}
20001300:	b002      	add	sp, #8
20001302:	4718      	bx	r3
20001304:	200007cf 	andcs	r0, r0, pc, asr #15

20001308 <vprintf_>:
20001308:	b590      	push	{r4, r7, lr}
2000130a:	b087      	sub	sp, #28
2000130c:	af02      	add	r7, sp, #8
2000130e:	6078      	str	r0, [r7, #4]
20001310:	6039      	str	r1, [r7, #0]
20001312:	687c      	ldr	r4, [r7, #4]
20001314:	2301      	movs	r3, #1
20001316:	425a      	negs	r2, r3
20001318:	230c      	movs	r3, #12
2000131a:	18f9      	adds	r1, r7, r3
2000131c:	4805      	ldr	r0, [pc, #20]	; (20001334 <vprintf_+0x2c>)
2000131e:	683b      	ldr	r3, [r7, #0]
20001320:	9300      	str	r3, [sp, #0]
20001322:	0023      	movs	r3, r4
20001324:	f7ff fc91 	bl	20000c4a <_vsnprintf>
20001328:	0003      	movs	r3, r0
2000132a:	0018      	movs	r0, r3
2000132c:	46bd      	mov	sp, r7
2000132e:	b005      	add	sp, #20
20001330:	bd90      	pop	{r4, r7, pc}
20001332:	46c0      	nop			; (mov r8, r8)
20001334:	2000081b 	andcs	r0, r0, fp, lsl r8

20001338 <vsnprintf_>:
20001338:	b590      	push	{r4, r7, lr}
2000133a:	b087      	sub	sp, #28
2000133c:	af02      	add	r7, sp, #8
2000133e:	60f8      	str	r0, [r7, #12]
20001340:	60b9      	str	r1, [r7, #8]
20001342:	607a      	str	r2, [r7, #4]
20001344:	603b      	str	r3, [r7, #0]
20001346:	687c      	ldr	r4, [r7, #4]
20001348:	68ba      	ldr	r2, [r7, #8]
2000134a:	68f9      	ldr	r1, [r7, #12]
2000134c:	4805      	ldr	r0, [pc, #20]	; (20001364 <vsnprintf_+0x2c>)
2000134e:	683b      	ldr	r3, [r7, #0]
20001350:	9300      	str	r3, [sp, #0]
20001352:	0023      	movs	r3, r4
20001354:	f7ff fc79 	bl	20000c4a <_vsnprintf>
20001358:	0003      	movs	r3, r0
2000135a:	0018      	movs	r0, r3
2000135c:	46bd      	mov	sp, r7
2000135e:	b005      	add	sp, #20
20001360:	bd90      	pop	{r4, r7, pc}
20001362:	46c0      	nop			; (mov r8, r8)
20001364:	200007cf 	andcs	r0, r0, pc, asr #15

20001368 <fctprintf>:
20001368:	b40c      	push	{r2, r3}
2000136a:	b590      	push	{r4, r7, lr}
2000136c:	b089      	sub	sp, #36	; 0x24
2000136e:	af02      	add	r7, sp, #8
20001370:	6078      	str	r0, [r7, #4]
20001372:	6039      	str	r1, [r7, #0]
20001374:	232c      	movs	r3, #44	; 0x2c
20001376:	18fb      	adds	r3, r7, r3
20001378:	613b      	str	r3, [r7, #16]
2000137a:	2108      	movs	r1, #8
2000137c:	187b      	adds	r3, r7, r1
2000137e:	687a      	ldr	r2, [r7, #4]
20001380:	601a      	str	r2, [r3, #0]
20001382:	187b      	adds	r3, r7, r1
20001384:	683a      	ldr	r2, [r7, #0]
20001386:	605a      	str	r2, [r3, #4]
20001388:	6abc      	ldr	r4, [r7, #40]	; 0x28
2000138a:	2301      	movs	r3, #1
2000138c:	425a      	negs	r2, r3
2000138e:	1879      	adds	r1, r7, r1
20001390:	4807      	ldr	r0, [pc, #28]	; (200013b0 <fctprintf+0x48>)
20001392:	693b      	ldr	r3, [r7, #16]
20001394:	9300      	str	r3, [sp, #0]
20001396:	0023      	movs	r3, r4
20001398:	f7ff fc57 	bl	20000c4a <_vsnprintf>
2000139c:	0003      	movs	r3, r0
2000139e:	617b      	str	r3, [r7, #20]
200013a0:	697b      	ldr	r3, [r7, #20]
200013a2:	0018      	movs	r0, r3
200013a4:	46bd      	mov	sp, r7
200013a6:	b007      	add	sp, #28
200013a8:	bc90      	pop	{r4, r7}
200013aa:	bc08      	pop	{r3}
200013ac:	b002      	add	sp, #8
200013ae:	4718      	bx	r3
200013b0:	2000084b 	andcs	r0, r0, fp, asr #16

200013b4 <divlu>:
200013b4:	b5b0      	push	{r4, r5, r7, lr}
200013b6:	b08a      	sub	sp, #40	; 0x28
200013b8:	af00      	add	r7, sp, #0
200013ba:	60b8      	str	r0, [r7, #8]
200013bc:	60f9      	str	r1, [r7, #12]
200013be:	607a      	str	r2, [r7, #4]
200013c0:	68fb      	ldr	r3, [r7, #12]
200013c2:	001c      	movs	r4, r3
200013c4:	2300      	movs	r3, #0
200013c6:	001d      	movs	r5, r3
200013c8:	0023      	movs	r3, r4
200013ca:	623b      	str	r3, [r7, #32]
200013cc:	68bb      	ldr	r3, [r7, #8]
200013ce:	61fb      	str	r3, [r7, #28]
200013d0:	687b      	ldr	r3, [r7, #4]
200013d2:	61bb      	str	r3, [r7, #24]
200013d4:	2301      	movs	r3, #1
200013d6:	627b      	str	r3, [r7, #36]	; 0x24
200013d8:	e01b      	b.n	20001412 <divlu+0x5e>
200013da:	6a3b      	ldr	r3, [r7, #32]
200013dc:	17db      	asrs	r3, r3, #31
200013de:	617b      	str	r3, [r7, #20]
200013e0:	6a3b      	ldr	r3, [r7, #32]
200013e2:	005a      	lsls	r2, r3, #1
200013e4:	69fb      	ldr	r3, [r7, #28]
200013e6:	0fdb      	lsrs	r3, r3, #31
200013e8:	4313      	orrs	r3, r2
200013ea:	623b      	str	r3, [r7, #32]
200013ec:	69fb      	ldr	r3, [r7, #28]
200013ee:	005b      	lsls	r3, r3, #1
200013f0:	61fb      	str	r3, [r7, #28]
200013f2:	6a3a      	ldr	r2, [r7, #32]
200013f4:	697b      	ldr	r3, [r7, #20]
200013f6:	4313      	orrs	r3, r2
200013f8:	69ba      	ldr	r2, [r7, #24]
200013fa:	429a      	cmp	r2, r3
200013fc:	d806      	bhi.n	2000140c <divlu+0x58>
200013fe:	6a3a      	ldr	r2, [r7, #32]
20001400:	69bb      	ldr	r3, [r7, #24]
20001402:	1ad3      	subs	r3, r2, r3
20001404:	623b      	str	r3, [r7, #32]
20001406:	69fb      	ldr	r3, [r7, #28]
20001408:	3301      	adds	r3, #1
2000140a:	61fb      	str	r3, [r7, #28]
2000140c:	6a7b      	ldr	r3, [r7, #36]	; 0x24
2000140e:	3301      	adds	r3, #1
20001410:	627b      	str	r3, [r7, #36]	; 0x24
20001412:	6a7b      	ldr	r3, [r7, #36]	; 0x24
20001414:	2b20      	cmp	r3, #32
20001416:	dde0      	ble.n	200013da <divlu+0x26>
20001418:	69fb      	ldr	r3, [r7, #28]
2000141a:	0018      	movs	r0, r3
2000141c:	46bd      	mov	sp, r7
2000141e:	b00a      	add	sp, #40	; 0x28
20001420:	bdb0      	pop	{r4, r5, r7, pc}

20001422 <udiv>:
20001422:	b5b0      	push	{r4, r5, r7, lr}
20001424:	b082      	sub	sp, #8
20001426:	af00      	add	r7, sp, #0
20001428:	6078      	str	r0, [r7, #4]
2000142a:	6039      	str	r1, [r7, #0]
2000142c:	687b      	ldr	r3, [r7, #4]
2000142e:	001c      	movs	r4, r3
20001430:	2300      	movs	r3, #0
20001432:	001d      	movs	r5, r3
20001434:	683b      	ldr	r3, [r7, #0]
20001436:	001a      	movs	r2, r3
20001438:	0020      	movs	r0, r4
2000143a:	0029      	movs	r1, r5
2000143c:	f7ff ffba 	bl	200013b4 <divlu>
20001440:	0003      	movs	r3, r0
20001442:	0018      	movs	r0, r3
20001444:	46bd      	mov	sp, r7
20001446:	b002      	add	sp, #8
20001448:	bdb0      	pop	{r4, r5, r7, pc}

2000144a <uart_init>:
2000144a:	b580      	push	{r7, lr}
2000144c:	b086      	sub	sp, #24
2000144e:	af00      	add	r7, sp, #0
20001450:	6078      	str	r0, [r7, #4]
20001452:	687b      	ldr	r3, [r7, #4]
20001454:	681b      	ldr	r3, [r3, #0]
20001456:	2102      	movs	r1, #2
20001458:	0018      	movs	r0, r3
2000145a:	f7fe fef1 	bl	20000240 <gpio_set_function>
2000145e:	687b      	ldr	r3, [r7, #4]
20001460:	685b      	ldr	r3, [r3, #4]
20001462:	2102      	movs	r1, #2
20001464:	0018      	movs	r0, r3
20001466:	f7fe feeb 	bl	20000240 <gpio_set_function>
2000146a:	687b      	ldr	r3, [r7, #4]
2000146c:	68db      	ldr	r3, [r3, #12]
2000146e:	4a39      	ldr	r2, [pc, #228]	; (20001554 <uart_init+0x10a>)
20001470:	4293      	cmp	r3, r2
20001472:	d004      	beq.n	2000147e <uart_init+0x34>
20001474:	687b      	ldr	r3, [r7, #4]
20001476:	68db      	ldr	r3, [r3, #12]
20001478:	4a37      	ldr	r2, [pc, #220]	; (20001558 <uart_init+0x10e>)
2000147a:	4293      	cmp	r3, r2
2000147c:	d165      	bne.n	2000154a <uart_init+0x100>
2000147e:	2016      	movs	r0, #22
20001480:	f7fe feb2 	bl	200001e8 <reset_periph>
20001484:	687b      	ldr	r3, [r7, #4]
20001486:	689b      	ldr	r3, [r3, #8]
20001488:	011b      	lsls	r3, r3, #4
2000148a:	4a34      	ldr	r2, [pc, #208]	; (2000155c <uart_init+0x112>)
2000148c:	0019      	movs	r1, r3
2000148e:	0010      	movs	r0, r2
20001490:	f7ff ffc7 	bl	20001422 <udiv>
20001494:	0003      	movs	r3, r0
20001496:	617b      	str	r3, [r7, #20]
20001498:	687b      	ldr	r3, [r7, #4]
2000149a:	689b      	ldr	r3, [r3, #8]
2000149c:	011b      	lsls	r3, r3, #4
2000149e:	4a30      	ldr	r2, [pc, #192]	; (20001560 <uart_init+0x116>)
200014a0:	0019      	movs	r1, r3
200014a2:	0010      	movs	r0, r2
200014a4:	f7ff ffbd 	bl	20001422 <udiv>
200014a8:	0003      	movs	r3, r0
200014aa:	0019      	movs	r1, r3
200014ac:	697b      	ldr	r3, [r7, #20]
200014ae:	2264      	movs	r2, #100	; 0x64
200014b0:	4353      	muls	r3, r2
200014b2:	1acb      	subs	r3, r1, r3
200014b4:	613b      	str	r3, [r7, #16]
200014b6:	693b      	ldr	r3, [r7, #16]
200014b8:	019b      	lsls	r3, r3, #6
200014ba:	2164      	movs	r1, #100	; 0x64
200014bc:	0018      	movs	r0, r3
200014be:	f7ff ffb0 	bl	20001422 <udiv>
200014c2:	0003      	movs	r3, r0
200014c4:	60fb      	str	r3, [r7, #12]
200014c6:	687b      	ldr	r3, [r7, #4]
200014c8:	68db      	ldr	r3, [r3, #12]
200014ca:	3324      	adds	r3, #36	; 0x24
200014cc:	697a      	ldr	r2, [r7, #20]
200014ce:	0011      	movs	r1, r2
200014d0:	0018      	movs	r0, r3
200014d2:	f7fe fe1a 	bl	2000010a <PUT32>
200014d6:	687b      	ldr	r3, [r7, #4]
200014d8:	68db      	ldr	r3, [r3, #12]
200014da:	3328      	adds	r3, #40	; 0x28
200014dc:	68fa      	ldr	r2, [r7, #12]
200014de:	0011      	movs	r1, r2
200014e0:	0018      	movs	r0, r3
200014e2:	f7fe fe12 	bl	2000010a <PUT32>
200014e6:	687b      	ldr	r3, [r7, #4]
200014e8:	68db      	ldr	r3, [r3, #12]
200014ea:	4a1e      	ldr	r2, [pc, #120]	; (20001564 <uart_init+0x11a>)
200014ec:	4694      	mov	ip, r2
200014ee:	4463      	add	r3, ip
200014f0:	2160      	movs	r1, #96	; 0x60
200014f2:	0018      	movs	r0, r3
200014f4:	f7fe fe09 	bl	2000010a <PUT32>
200014f8:	687b      	ldr	r3, [r7, #4]
200014fa:	68db      	ldr	r3, [r3, #12]
200014fc:	4a19      	ldr	r2, [pc, #100]	; (20001564 <uart_init+0x11a>)
200014fe:	4694      	mov	ip, r2
20001500:	4463      	add	r3, ip
20001502:	2110      	movs	r1, #16
20001504:	0018      	movs	r0, r3
20001506:	f7fe fe00 	bl	2000010a <PUT32>
2000150a:	687b      	ldr	r3, [r7, #4]
2000150c:	68db      	ldr	r3, [r3, #12]
2000150e:	4a16      	ldr	r2, [pc, #88]	; (20001568 <uart_init+0x11e>)
20001510:	4694      	mov	ip, r2
20001512:	4463      	add	r3, ip
20001514:	2280      	movs	r2, #128	; 0x80
20001516:	0052      	lsls	r2, r2, #1
20001518:	0011      	movs	r1, r2
2000151a:	0018      	movs	r0, r3
2000151c:	f7fe fdf5 	bl	2000010a <PUT32>
20001520:	687b      	ldr	r3, [r7, #4]
20001522:	68db      	ldr	r3, [r3, #12]
20001524:	4a10      	ldr	r2, [pc, #64]	; (20001568 <uart_init+0x11e>)
20001526:	4694      	mov	ip, r2
20001528:	4463      	add	r3, ip
2000152a:	2280      	movs	r2, #128	; 0x80
2000152c:	0092      	lsls	r2, r2, #2
2000152e:	0011      	movs	r1, r2
20001530:	0018      	movs	r0, r3
20001532:	f7fe fdea 	bl	2000010a <PUT32>
20001536:	687b      	ldr	r3, [r7, #4]
20001538:	68db      	ldr	r3, [r3, #12]
2000153a:	4a0b      	ldr	r2, [pc, #44]	; (20001568 <uart_init+0x11e>)
2000153c:	4694      	mov	ip, r2
2000153e:	4463      	add	r3, ip
20001540:	2101      	movs	r1, #1
20001542:	0018      	movs	r0, r3
20001544:	f7fe fde1 	bl	2000010a <PUT32>
20001548:	e000      	b.n	2000154c <uart_init+0x102>
2000154a:	46c0      	nop			; (mov r8, r8)
2000154c:	46bd      	mov	sp, r7
2000154e:	b006      	add	sp, #24
20001550:	bd80      	pop	{r7, pc}
20001552:	46c0      	nop			; (mov r8, r8)
20001554:	40034000 	andmi	r4, r3, r0
20001558:	40038000 	andmi	r8, r3, r0
2000155c:	00b71b00 	adcseq	r1, r7, r0, lsl #22
20001560:	47868c00 	strmi	r8, [r6, r0, lsl #24]
20001564:	0000202c 	andeq	r2, r0, ip, lsr #32
20001568:	00002030 	andeq	r2, r0, r0, lsr r0

2000156c <uart_can_getc>:
2000156c:	b580      	push	{r7, lr}
2000156e:	af00      	add	r7, sp, #0
20001570:	2300      	movs	r3, #0
20001572:	0018      	movs	r0, r3
20001574:	46bd      	mov	sp, r7
20001576:	bd80      	pop	{r7, pc}

20001578 <uart_getc>:
20001578:	b580      	push	{r7, lr}
2000157a:	af00      	add	r7, sp, #0
2000157c:	2300      	movs	r3, #0
2000157e:	0018      	movs	r0, r3
20001580:	46bd      	mov	sp, r7
20001582:	bd80      	pop	{r7, pc}

20001584 <uart_can_putc>:
20001584:	b580      	push	{r7, lr}
20001586:	af00      	add	r7, sp, #0
20001588:	4b07      	ldr	r3, [pc, #28]	; (200015a8 <uart_can_putc+0x24>)
2000158a:	68db      	ldr	r3, [r3, #12]
2000158c:	3318      	adds	r3, #24
2000158e:	0018      	movs	r0, r3
20001590:	f7fe fdbd 	bl	2000010e <GET32>
20001594:	0003      	movs	r3, r0
20001596:	095b      	lsrs	r3, r3, #5
20001598:	2201      	movs	r2, #1
2000159a:	4013      	ands	r3, r2
2000159c:	425a      	negs	r2, r3
2000159e:	4153      	adcs	r3, r2
200015a0:	b2db      	uxtb	r3, r3
200015a2:	0018      	movs	r0, r3
200015a4:	46bd      	mov	sp, r7
200015a6:	bd80      	pop	{r7, pc}
200015a8:	2000f000 	andcs	pc, r0, r0

200015ac <uart_putc>:
200015ac:	b580      	push	{r7, lr}
200015ae:	b082      	sub	sp, #8
200015b0:	af00      	add	r7, sp, #0
200015b2:	0002      	movs	r2, r0
200015b4:	1dfb      	adds	r3, r7, #7
200015b6:	701a      	strb	r2, [r3, #0]
200015b8:	46c0      	nop			; (mov r8, r8)
200015ba:	f7ff ffe3 	bl	20001584 <uart_can_putc>
200015be:	1e03      	subs	r3, r0, #0
200015c0:	d0fb      	beq.n	200015ba <uart_putc+0xe>
200015c2:	4b06      	ldr	r3, [pc, #24]	; (200015dc <uart_putc+0x30>)
200015c4:	68da      	ldr	r2, [r3, #12]
200015c6:	1dfb      	adds	r3, r7, #7
200015c8:	781b      	ldrb	r3, [r3, #0]
200015ca:	0019      	movs	r1, r3
200015cc:	0010      	movs	r0, r2
200015ce:	f7fe fd9c 	bl	2000010a <PUT32>
200015d2:	46c0      	nop			; (mov r8, r8)
200015d4:	46bd      	mov	sp, r7
200015d6:	b002      	add	sp, #8
200015d8:	bd80      	pop	{r7, pc}
200015da:	46c0      	nop			; (mov r8, r8)
200015dc:	2000f000 	andcs	pc, r0, r0

200015e0 <uart_has_data>:
200015e0:	b580      	push	{r7, lr}
200015e2:	af00      	add	r7, sp, #0
200015e4:	f7ff ffc2 	bl	2000156c <uart_can_getc>
200015e8:	0003      	movs	r3, r0
200015ea:	0018      	movs	r0, r3
200015ec:	46bd      	mov	sp, r7
200015ee:	bd80      	pop	{r7, pc}

200015f0 <uart_getc_async>:
200015f0:	b580      	push	{r7, lr}
200015f2:	af00      	add	r7, sp, #0
200015f4:	f7ff fff4 	bl	200015e0 <uart_has_data>
200015f8:	1e03      	subs	r3, r0, #0
200015fa:	d102      	bne.n	20001602 <uart_getc_async+0x12>
200015fc:	2301      	movs	r3, #1
200015fe:	425b      	negs	r3, r3
20001600:	e002      	b.n	20001608 <uart_getc_async+0x18>
20001602:	f7ff ffb9 	bl	20001578 <uart_getc>
20001606:	0003      	movs	r3, r0
20001608:	0018      	movs	r0, r3
2000160a:	46bd      	mov	sp, r7
2000160c:	bd80      	pop	{r7, pc}
2000160e:	46c0      	nop			; (mov r8, r8)

Disassembly of section .rodata:

10001610 <FLASH_END>:
10001610:	6c6c6568 	cfstr64vs	mvdx6, [ip], #-416	; 0xfffffe60
10001614:	6f77206f 	svcvs	0x0077206f
10001618:	0a646c72 	beq	1191c7e8 <FLASH_END+0x191b1d8>
1000161c:	00000000 	andeq	r0, r0, r0
10001620:	6e696f47 	cdpvs	15, 6, cr6, cr9, cr7, {2}
10001624:	6f742067 	svcvs	0x00742067
10001628:	6d756a20 	vldmdbvs	r5!, {s13-s44}
1000162c:	6f742070 	svcvs	0x00742070
10001630:	6d796d20 	ldclvs	13, cr6, [r9, #-128]!	; 0xffffff80
10001634:	0a6e6961 	beq	11b9bbc0 <FLASH_END+0x1b9a5b0>
	...
10001640:	00000001 	andeq	r0, r0, r1
10001644:	00002580 	andeq	r2, r0, r0, lsl #11
10001648:	00000068 	andeq	r0, r0, r8, rrx
1000164c:	20000ce6 	andcs	r0, r0, r6, ror #25
10001650:	20000d0e 	andcs	r0, r0, lr, lsl #26
10001654:	20000d0e 	andcs	r0, r0, lr, lsl #26
10001658:	20000cfa 	strdcs	r0, [r0], -sl
1000165c:	20000d0e 	andcs	r0, r0, lr, lsl #26
10001660:	20000d0e 	andcs	r0, r0, lr, lsl #26
10001664:	20000d0e 	andcs	r0, r0, lr, lsl #26
10001668:	20000d0e 	andcs	r0, r0, lr, lsl #26
1000166c:	20000d0e 	andcs	r0, r0, lr, lsl #26
10001670:	20000d0e 	andcs	r0, r0, lr, lsl #26
10001674:	20000d0e 	andcs	r0, r0, lr, lsl #26
10001678:	20000cd2 	ldrdcs	r0, [r0], -r2
1000167c:	20000d0e 	andcs	r0, r0, lr, lsl #26
10001680:	20000cbe 			; <UNDEFINED> instruction: 0x20000cbe
10001684:	20000d0e 	andcs	r0, r0, lr, lsl #26
10001688:	20000d0e 	andcs	r0, r0, lr, lsl #26
1000168c:	20000caa 	andcs	r0, r0, sl, lsr #25
10001690:	200011f6 	strdcs	r1, [r0], -r6
10001694:	2000120e 	andcs	r1, r0, lr, lsl #4
10001698:	2000120e 	andcs	r1, r0, lr, lsl #4
1000169c:	2000120e 	andcs	r1, r0, lr, lsl #4
100016a0:	2000120e 	andcs	r1, r0, lr, lsl #4
100016a4:	2000120e 	andcs	r1, r0, lr, lsl #4
100016a8:	2000120e 	andcs	r1, r0, lr, lsl #4
100016ac:	2000120e 	andcs	r1, r0, lr, lsl #4
100016b0:	2000120e 	andcs	r1, r0, lr, lsl #4
100016b4:	2000120e 	andcs	r1, r0, lr, lsl #4
100016b8:	2000120e 	andcs	r1, r0, lr, lsl #4
100016bc:	2000120e 	andcs	r1, r0, lr, lsl #4
100016c0:	2000120e 	andcs	r1, r0, lr, lsl #4
100016c4:	2000120e 	andcs	r1, r0, lr, lsl #4
100016c8:	2000120e 	andcs	r1, r0, lr, lsl #4
100016cc:	2000120e 	andcs	r1, r0, lr, lsl #4
100016d0:	2000120e 	andcs	r1, r0, lr, lsl #4
100016d4:	2000120e 	andcs	r1, r0, lr, lsl #4
100016d8:	2000120e 	andcs	r1, r0, lr, lsl #4
100016dc:	2000120e 	andcs	r1, r0, lr, lsl #4
100016e0:	2000120e 	andcs	r1, r0, lr, lsl #4
100016e4:	2000120e 	andcs	r1, r0, lr, lsl #4
100016e8:	2000120e 	andcs	r1, r0, lr, lsl #4
100016ec:	2000120e 	andcs	r1, r0, lr, lsl #4
100016f0:	2000120e 	andcs	r1, r0, lr, lsl #4
100016f4:	2000120e 	andcs	r1, r0, lr, lsl #4
100016f8:	2000120e 	andcs	r1, r0, lr, lsl #4
100016fc:	2000120e 	andcs	r1, r0, lr, lsl #4
10001700:	2000120e 	andcs	r1, r0, lr, lsl #4
10001704:	2000120e 	andcs	r1, r0, lr, lsl #4
10001708:	2000120e 	andcs	r1, r0, lr, lsl #4
1000170c:	2000120e 	andcs	r1, r0, lr, lsl #4
10001710:	2000120e 	andcs	r1, r0, lr, lsl #4
10001714:	2000120e 	andcs	r1, r0, lr, lsl #4
10001718:	2000120e 	andcs	r1, r0, lr, lsl #4
1000171c:	2000120e 	andcs	r1, r0, lr, lsl #4
10001720:	2000120e 	andcs	r1, r0, lr, lsl #4
10001724:	2000120e 	andcs	r1, r0, lr, lsl #4
10001728:	2000120e 	andcs	r1, r0, lr, lsl #4
1000172c:	2000120e 	andcs	r1, r0, lr, lsl #4
10001730:	2000120e 	andcs	r1, r0, lr, lsl #4
10001734:	2000120e 	andcs	r1, r0, lr, lsl #4
10001738:	2000120e 	andcs	r1, r0, lr, lsl #4
1000173c:	2000120e 	andcs	r1, r0, lr, lsl #4
10001740:	2000120e 	andcs	r1, r0, lr, lsl #4
10001744:	2000120e 	andcs	r1, r0, lr, lsl #4
10001748:	2000120e 	andcs	r1, r0, lr, lsl #4
1000174c:	2000120e 	andcs	r1, r0, lr, lsl #4
10001750:	2000120e 	andcs	r1, r0, lr, lsl #4
10001754:	2000120e 	andcs	r1, r0, lr, lsl #4
10001758:	2000120e 	andcs	r1, r0, lr, lsl #4
1000175c:	20000e74 	andcs	r0, r0, r4, ror lr
10001760:	2000120e 	andcs	r1, r0, lr, lsl #4
10001764:	2000120e 	andcs	r1, r0, lr, lsl #4
10001768:	2000120e 	andcs	r1, r0, lr, lsl #4
1000176c:	2000120e 	andcs	r1, r0, lr, lsl #4
10001770:	2000120e 	andcs	r1, r0, lr, lsl #4
10001774:	2000120e 	andcs	r1, r0, lr, lsl #4
10001778:	2000120e 	andcs	r1, r0, lr, lsl #4
1000177c:	2000120e 	andcs	r1, r0, lr, lsl #4
10001780:	2000120e 	andcs	r1, r0, lr, lsl #4
10001784:	20000e74 	andcs	r0, r0, r4, ror lr
10001788:	2000107c 	andcs	r1, r0, ip, ror r0
1000178c:	20000e74 	andcs	r0, r0, r4, ror lr
10001790:	2000120e 	andcs	r1, r0, lr, lsl #4
10001794:	2000120e 	andcs	r1, r0, lr, lsl #4
10001798:	2000120e 	andcs	r1, r0, lr, lsl #4
1000179c:	2000120e 	andcs	r1, r0, lr, lsl #4
100017a0:	20000e74 	andcs	r0, r0, r4, ror lr
100017a4:	2000120e 	andcs	r1, r0, lr, lsl #4
100017a8:	2000120e 	andcs	r1, r0, lr, lsl #4
100017ac:	2000120e 	andcs	r1, r0, lr, lsl #4
100017b0:	2000120e 	andcs	r1, r0, lr, lsl #4
100017b4:	2000120e 	andcs	r1, r0, lr, lsl #4
100017b8:	20000e74 	andcs	r0, r0, r4, ror lr
100017bc:	200011b0 			; <UNDEFINED> instruction: 0x200011b0
100017c0:	2000120e 	andcs	r1, r0, lr, lsl #4
100017c4:	2000120e 	andcs	r1, r0, lr, lsl #4
100017c8:	200010ec 	andcs	r1, r0, ip, ror #1
100017cc:	2000120e 	andcs	r1, r0, lr, lsl #4
100017d0:	20000e74 	andcs	r0, r0, r4, ror lr
100017d4:	2000120e 	andcs	r1, r0, lr, lsl #4
100017d8:	2000120e 	andcs	r1, r0, lr, lsl #4
100017dc:	20000e74 	andcs	r0, r0, r4, ror lr

Disassembly of section .bss:

2000f000 <global_hw_uart>:
	...

2000f010 <global_uart>:
	...

Disassembly of section .ARM.attributes:

00000000 <.ARM.attributes>:
   0:	00002c41 	andeq	r2, r0, r1, asr #24
   4:	61656100 	cmnvs	r5, r0, lsl #2
   8:	01006962 	tsteq	r0, r2, ror #18
   c:	00000022 	andeq	r0, r0, r2, lsr #32
  10:	726f4305 	rsbvc	r4, pc, #335544320	; 0x14000000
  14:	2d786574 	cfldr64cs	mvdx6, [r8, #-464]!	; 0xfffffe30
  18:	0600304d 	streq	r3, [r0], -sp, asr #32
  1c:	094d070c 	stmdbeq	sp, {r2, r3, r8, r9, sl}^
  20:	14041201 	strne	r1, [r4], #-513	; 0xfffffdff
  24:	17011501 	strne	r1, [r1, -r1, lsl #10]
  28:	1a011803 	bne	4603c <STACK_SIZE+0x4392c>
  2c:	Address 0x000000000000002c is out of bounds.


Disassembly of section .comment:

00000000 <.comment>:
   0:	3a434347 	bcc	10d0d24 <STACK_SIZE+0x10ce614>
   4:	4e472820 	cdpmi	8, 4, cr2, cr7, cr0, {1}
   8:	6f542055 	svcvs	0x00542055
   c:	20736c6f 	rsbscs	r6, r3, pc, ror #24
  10:	20726f66 	rsbscs	r6, r2, r6, ror #30
  14:	206d7241 	rsbcs	r7, sp, r1, asr #4
  18:	65626d45 	strbvs	r6, [r2, #-3397]!	; 0xfffff2bb
  1c:	64656464 	strbtvs	r6, [r5], #-1124	; 0xfffffb9c
  20:	6f725020 	svcvs	0x00725020
  24:	73736563 	cmnvc	r3, #415236096	; 0x18c00000
  28:	2073726f 	rsbscs	r7, r3, pc, ror #4
  2c:	30322d39 	eorscc	r2, r2, r9, lsr sp
  30:	712d3931 			; <UNDEFINED> instruction: 0x712d3931
  34:	616d2d34 	cmnvs	sp, r4, lsr sp
  38:	29726f6a 	ldmdbcs	r2!, {r1, r3, r5, r6, r8, r9, sl, fp, sp, lr}^
  3c:	322e3920 	eorcc	r3, lr, #32, 18	; 0x80000
  40:	3220312e 	eorcc	r3, r0, #-2147483637	; 0x8000000b
  44:	31393130 	teqcc	r9, r0, lsr r1
  48:	20353230 	eorscs	r3, r5, r0, lsr r2
  4c:	6c657228 	sfmvs	f7, 2, [r5], #-160	; 0xffffff60
  50:	65736165 	ldrbvs	r6, [r3, #-357]!	; 0xfffffe9b
  54:	415b2029 	cmpmi	fp, r9, lsr #32
  58:	612f4d52 			; <UNDEFINED> instruction: 0x612f4d52
  5c:	392d6d72 	pushcc	{r1, r4, r5, r6, r8, sl, fp, sp, lr}
  60:	6172622d 	cmnvs	r2, sp, lsr #4
  64:	2068636e 	rsbcs	r6, r8, lr, ror #6
  68:	69766572 	ldmdbvs	r6!, {r1, r4, r5, r6, r8, sl, sp, lr}^
  6c:	6e6f6973 			; <UNDEFINED> instruction: 0x6e6f6973
  70:	37373220 	ldrcc	r3, [r7, -r0, lsr #4]!
  74:	5d393935 			; <UNDEFINED> instruction: 0x5d393935
	...

Disassembly of section .debug_line:

00000000 <.debug_line>:
   0:	0000007d 	andeq	r0, r0, sp, ror r0
   4:	001e0003 	andseq	r0, lr, r3
   8:	01020000 	mrseq	r0, (UNDEF: 2)
   c:	000d0efb 	strdeq	r0, [sp], -fp
  10:	01010101 	tsteq	r1, r1, lsl #2
  14:	01000000 	mrseq	r0, (UNDEF: 0)
  18:	00010000 	andeq	r0, r1, r0
  1c:	72617473 	rsbvc	r7, r1, #1929379840	; 0x73000000
  20:	00532e74 	subseq	r2, r3, r4, ror lr
  24:	00000000 	andeq	r0, r0, r0
  28:	00020500 	andeq	r0, r2, r0, lsl #10
  2c:	03200000 	nopeq	{0}	; <UNPREDICTABLE>
  30:	2121010c 			; <UNDEFINED> instruction: 0x2121010c
  34:	23212123 			; <UNDEFINED> instruction: 0x23212123
  38:	21232121 			; <UNDEFINED> instruction: 0x21232121
  3c:	21212321 			; <UNDEFINED> instruction: 0x21212321
  40:	22212123 	eorcs	r2, r1, #-1073741816	; 0xc0000008
  44:	21222221 			; <UNDEFINED> instruction: 0x21222221
  48:	21212121 			; <UNDEFINED> instruction: 0x21212121
  4c:	56032122 	strpl	r2, [r3], -r2, lsr #2
  50:	2f322f2e 	svccs	0x00322f2e
  54:	2f322f32 	svccs	0x00322f32
  58:	2f313432 	svccs	0x00313432
  5c:	2e090330 	mcrcs	3, 0, r0, cr9, cr0, {1}
  60:	01000202 	tsteq	r0, r2, lsl #4
  64:	02050001 	andeq	r0, r5, #1, 0
  68:	20000100 	andcs	r0, r0, r0, lsl #2
  6c:	21013f03 	tstcs	r1, r3, lsl #30
  70:	21252f21 			; <UNDEFINED> instruction: 0x21252f21
  74:	21252125 			; <UNDEFINED> instruction: 0x21252125
  78:	206a0321 	rsbcs	r0, sl, r1, lsr #6
  7c:	01000202 	tsteq	r0, r2, lsl #4
  80:	00011301 	andeq	r1, r1, r1, lsl #6
  84:	aa000300 	bge	c8c <STACK_SIZE-0x1a84>
  88:	02000000 	andeq	r0, r0, #0, 0
  8c:	0d0efb01 	vstreq	d15, [lr, #-4]
  90:	01010100 	mrseq	r0, (UNDEF: 17)
  94:	00000001 	andeq	r0, r0, r1
  98:	01000001 	tsteq	r0, r1
  9c:	7273752f 	rsbsvc	r7, r3, #197132288	; 0xbc00000
  a0:	636f6c2f 	cmnvs	pc, #12032	; 0x2f00
  a4:	432f6c61 			; <UNDEFINED> instruction: 0x432f6c61
  a8:	616c6c65 	cmnvs	ip, r5, ror #24
  ac:	72612f72 	rsbvc	r2, r1, #456	; 0x1c8
  b0:	6f6e2d6d 	svcvs	0x006e2d6d
  b4:	652d656e 	strvs	r6, [sp, #-1390]!	; 0xfffffa92
  b8:	2d696261 	sfmcs	f6, 2, [r9, #-388]!	; 0xfffffe7c
  bc:	74736574 	ldrbtvc	r6, [r3], #-1396	; 0xfffffa8c
  c0:	322d392f 	eorcc	r3, sp, #770048	; 0xbc000
  c4:	71393130 	teqvc	r9, r0, lsr r1
  c8:	73632d34 	cmnvc	r3, #52, 26	; 0xd00
  cc:	65373031 	ldrvs	r3, [r7, #-49]!	; 0xffffffcf
  d0:	62696c2f 	rsbvs	r6, r9, #12032	; 0x2f00
  d4:	6363672f 	cmnvs	r3, #12320768	; 0xbc0000
  d8:	6d72612f 	ldfvse	f6, [r2, #-188]!	; 0xffffff44
  dc:	6e6f6e2d 	cdpvs	14, 6, cr6, cr15, cr13, {1}
  e0:	61652d65 	cmnvs	r5, r5, ror #26
  e4:	392f6962 	stmdbcc	pc!, {r1, r5, r6, r8, fp, sp, lr}	; <UNPREDICTABLE>
  e8:	312e322e 			; <UNDEFINED> instruction: 0x312e322e
  ec:	636e692f 	cmnvs	lr, #770048	; 0xbc000
  f0:	6564756c 	strbvs	r7, [r4, #-1388]!	; 0xfffffa94
  f4:	73630000 	cmnvc	r3, #0, 0
  f8:	74726174 	ldrbtvc	r6, [r2], #-372	; 0xfffffe8c
  fc:	0000632e 	andeq	r6, r0, lr, lsr #6
 100:	74730000 	ldrbtvc	r0, [r3], #-0
 104:	746e6964 	strbtvc	r6, [lr], #-2404	; 0xfffff69c
 108:	6363672d 	cmnvs	r3, #11796480	; 0xb40000
 10c:	0100682e 	tsteq	r0, lr, lsr #16
 110:	77730000 	ldrbvc	r0, [r3, -r0]!
 114:	7261752d 	rsbvc	r7, r1, #188743680	; 0xb400000
 118:	00682e74 	rsbeq	r2, r8, r4, ror lr
 11c:	75000000 	strvc	r0, [r0, #-0]
 120:	2e747261 	cdpcs	2, 7, cr7, cr4, cr1, {3}
 124:	00000068 	andeq	r0, r0, r8, rrx
 128:	6f6c6300 	svcvs	0x006c6300
 12c:	682e6b63 	stmdavs	lr!, {r0, r1, r5, r6, r8, r9, fp, sp, lr}
 130:	00000000 	andeq	r0, r0, r0
 134:	000e0500 	andeq	r0, lr, r0, lsl #10
 138:	011c0205 	tsteq	ip, r5, lsl #4
 13c:	0a032000 	beq	c8144 <STACK_SIZE+0xc5a34>
 140:	3e050501 	cfsh32cc	mvfx0, mvfx5, #1
 144:	053d0e05 	ldreq	r0, [sp, #-3589]!	; 0xfffff1fb
 148:	04020009 	streq	r0, [r2], #-9
 14c:	02003001 	andeq	r3, r0, #1, 0
 150:	003d0104 	eorseq	r0, sp, r4, lsl #2
 154:	4b010402 	blmi	41164 <STACK_SIZE+0x3ea54>
 158:	01040200 	mrseq	r0, R12_usr
 15c:	0402004b 	streq	r0, [r2], #-75	; 0xffffffb5
 160:	02003d01 	andeq	r3, r0, #64	; 0x40
 164:	05460104 	strbeq	r0, [r6, #-260]	; 0xfffffefc
 168:	6609030f 	strvs	r0, [r9], -pc, lsl #6
 16c:	2f3f0e05 	svccs	0x003f0e05
 170:	052f0b05 	streq	r0, [pc, #-2821]!	; fffff673 <__bss_end__+0xdfff0653>
 174:	1005210d 	andne	r2, r5, sp, lsl #2
 178:	2d0b053c 	cfstr32cs	mvfx0, [fp, #-240]	; 0xffffff10
 17c:	2f4d0505 	svccs	0x004d0505
 180:	17052f76 	smlsdxne	r5, r6, pc, r2	; <UNPREDICTABLE>
 184:	1e053d2f 	cdpne	13, 0, cr3, cr5, cr15, {1}
 188:	4b1a053d 	blmi	681684 <STACK_SIZE+0x67ef74>
 18c:	4d3d0505 	cfldr32mi	mvfx0, [sp, #-20]!	; 0xffffffec
 190:	2f01054b 	svccs	0x0001054b
 194:	01010008 	tsteq	r1, r8
 198:	0000015c 	andeq	r0, r0, ip, asr r1
 19c:	00900003 	addseq	r0, r0, r3
 1a0:	01020000 	mrseq	r0, (UNDEF: 2)
 1a4:	000d0efb 	strdeq	r0, [sp], -fp
 1a8:	01010101 	tsteq	r1, r1, lsl #2
 1ac:	01000000 	mrseq	r0, (UNDEF: 0)
 1b0:	2f010000 	svccs	0x00010000
 1b4:	2f727375 	svccs	0x00727375
 1b8:	61636f6c 	cmnvs	r3, ip, ror #30
 1bc:	65432f6c 	strbvs	r2, [r3, #-3948]	; 0xfffff094
 1c0:	72616c6c 	rsbvc	r6, r1, #108, 24	; 0x6c00
 1c4:	6d72612f 	ldfvse	f6, [r2, #-188]!	; 0xffffff44
 1c8:	6e6f6e2d 	cdpvs	14, 6, cr6, cr15, cr13, {1}
 1cc:	61652d65 	cmnvs	r5, r5, ror #26
 1d0:	742d6962 	strtvc	r6, [sp], #-2402	; 0xfffff69e
 1d4:	2f747365 	svccs	0x00747365
 1d8:	30322d39 	eorscc	r2, r2, r9, lsr sp
 1dc:	34713931 	ldrbtcc	r3, [r1], #-2353	; 0xfffff6cf
 1e0:	3173632d 	cmncc	r3, sp, lsr #6
 1e4:	2f653730 	svccs	0x00653730
 1e8:	2f62696c 	svccs	0x0062696c
 1ec:	2f636367 	svccs	0x00636367
 1f0:	2d6d7261 	sfmcs	f7, 2, [sp, #-388]!	; 0xfffffe7c
 1f4:	656e6f6e 	strbvs	r6, [lr, #-3950]!	; 0xfffff092
 1f8:	6261652d 	rsbvs	r6, r1, #188743680	; 0xb400000
 1fc:	2e392f69 	cdpcs	15, 3, cr2, cr9, cr9, {3}
 200:	2f312e32 	svccs	0x00312e32
 204:	6c636e69 	stclvs	14, cr6, [r3], #-420	; 0xfffffe5c
 208:	00656475 	rsbeq	r6, r5, r5, ror r4
 20c:	69706700 	ldmdbvs	r0!, {r8, r9, sl, sp, lr}^
 210:	00632e6f 	rsbeq	r2, r3, pc, ror #28
 214:	67000000 	strvs	r0, [r0, -r0]
 218:	2e6f6970 			; <UNDEFINED> instruction: 0x2e6f6970
 21c:	00000068 	andeq	r0, r0, r8, rrx
 220:	64747300 	ldrbtvs	r7, [r4], #-768	; 0xfffffd00
 224:	2d746e69 	ldclcs	14, cr6, [r4, #-420]!	; 0xfffffe5c
 228:	2e636367 	cdpcs	3, 6, cr6, cr3, cr7, {3}
 22c:	00010068 	andeq	r0, r1, r8, rrx
 230:	21050000 	mrscs	r0, (UNDEF: 5)
 234:	e8020500 	stmda	r2, {r8, sl}
 238:	1a200001 	bne	800244 <STACK_SIZE+0x7fdb34>
 23c:	4a05054b 	bmi	141770 <STACK_SIZE+0x13f060>
 240:	05670a05 	strbeq	r0, [r7, #-2565]!	; 0xfffff5fb
 244:	0402000e 	streq	r0, [r2], #-14
 248:	20052001 	andcs	r2, r5, r1
 24c:	01040200 	mrseq	r0, R12_usr
 250:	00280558 	eoreq	r0, r8, r8, asr r5
 254:	3c010402 	cfstrscc	mvf0, [r1], {2}
 258:	02000a05 	andeq	r0, r0, #20480	; 0x5000
 25c:	052e0104 	streq	r0, [lr, #-260]!	; 0xfffffefc
 260:	13052101 	movwne	r2, #20737	; 0x5101
 264:	2f0505a0 	svccs	0x000505a0
 268:	053d0105 	ldreq	r0, [sp, #-261]!	; 0xfffffefb
 26c:	08053e39 	stmdaeq	r5, {r0, r3, r4, r5, r9, sl, fp, ip, sp}
 270:	0e053f59 	mcreq	15, 0, r3, cr5, cr9, {2}
 274:	3d05053f 	cfstr32cc	mvfx0, [r5, #-252]	; 0xffffff04
 278:	7a030905 	bvc	c2694 <STACK_SIZE+0xbff84>
 27c:	0105319e 			; <UNDEFINED> instruction: 0x0105319e
 280:	03230524 			; <UNDEFINED> instruction: 0x03230524
 284:	08055810 	stmdaeq	r5, {r4, fp, ip, lr}
 288:	3f0e054b 	svccc	0x000e054b
 28c:	833d0505 	teqhi	sp, #20971520	; 0x1400000
 290:	05620905 	strbeq	r0, [r2, #-2309]!	; 0xfffff6fb
 294:	22052501 	andcs	r2, r5, #4194304	; 0x400000
 298:	4b080576 	blmi	201878 <STACK_SIZE+0x1ff168>
 29c:	053d1005 	ldreq	r1, [sp, #-5]!
 2a0:	1c05300d 	stcne	0, cr3, [r5], {13}
 2a4:	3c240558 	cfstr32cc	mvfx0, [r4], #-352	; 0xfffffea0
 2a8:	052f0105 	streq	r0, [pc, #-261]!	; 1ab <STACK_SIZE-0x2565>
 2ac:	08057624 	stmdaeq	r5, {r2, r5, r9, sl, ip, sp, lr}
 2b0:	3f0e054c 	svccc	0x000e054c
 2b4:	053d1a05 	ldreq	r1, [sp, #-2565]!	; 0xfffff5fb
 2b8:	1b054a05 	blne	152ad4 <STACK_SIZE+0x1503c4>
 2bc:	4a050567 	bmi	141860 <STACK_SIZE+0x13f150>
 2c0:	831a0567 	tsthi	sl, #432013312	; 0x19c00000
 2c4:	054a0505 	strbeq	r0, [sl, #-1285]	; 0xfffffafb
 2c8:	747a0309 	ldrbtvc	r0, [sl], #-777	; 0xfffffcf7
 2cc:	05270105 	streq	r0, [r7, #-261]!	; 0xfffffefb
 2d0:	0805bd20 	stmdaeq	r5, {r5, r8, sl, fp, ip, sp, pc}
 2d4:	3f1b054b 	svccc	0x001b054b
 2d8:	054a0505 	strbeq	r0, [sl, #-1285]	; 0xfffffafb
 2dc:	01057209 	tsteq	r5, r9, lsl #4
 2e0:	5a210523 	bpl	841774 <STACK_SIZE+0x83f064>
 2e4:	054b0805 	strbeq	r0, [fp, #-2053]	; 0xfffff7fb
 2e8:	05053f1b 	streq	r3, [r5, #-3867]	; 0xfffff0e5
 2ec:	7209054a 	andvc	r0, r9, #310378496	; 0x12800000
 2f0:	02230105 	eoreq	r0, r3, #1073741825	; 0x40000001
 2f4:	01010005 	tsteq	r1, r5
 2f8:	0000014e 	andeq	r0, r0, lr, asr #2
 2fc:	00920003 	addseq	r0, r2, r3
 300:	01020000 	mrseq	r0, (UNDEF: 2)
 304:	000d0efb 	strdeq	r0, [sp], -fp
 308:	01010101 	tsteq	r1, r1, lsl #2
 30c:	01000000 	mrseq	r0, (UNDEF: 0)
 310:	2f010000 	svccs	0x00010000
 314:	2f727375 	svccs	0x00727375
 318:	61636f6c 	cmnvs	r3, ip, ror #30
 31c:	65432f6c 	strbvs	r2, [r3, #-3948]	; 0xfffff094
 320:	72616c6c 	rsbvc	r6, r1, #108, 24	; 0x6c00
 324:	6d72612f 	ldfvse	f6, [r2, #-188]!	; 0xffffff44
 328:	6e6f6e2d 	cdpvs	14, 6, cr6, cr15, cr13, {1}
 32c:	61652d65 	cmnvs	r5, r5, ror #26
 330:	742d6962 	strtvc	r6, [sp], #-2402	; 0xfffff69e
 334:	2f747365 	svccs	0x00747365
 338:	30322d39 	eorscc	r2, r2, r9, lsr sp
 33c:	34713931 	ldrbtcc	r3, [r1], #-2353	; 0xfffff6cf
 340:	3173632d 	cmncc	r3, sp, lsr #6
 344:	2f653730 	svccs	0x00653730
 348:	2f62696c 	svccs	0x0062696c
 34c:	2f636367 	svccs	0x00636367
 350:	2d6d7261 	sfmcs	f7, 2, [sp, #-388]!	; 0xfffffe7c
 354:	656e6f6e 	strbvs	r6, [lr, #-3950]!	; 0xfffff092
 358:	6261652d 	rsbvs	r6, r1, #188743680	; 0xb400000
 35c:	2e392f69 	cdpcs	15, 3, cr2, cr9, cr9, {3}
 360:	2f312e32 	svccs	0x00312e32
 364:	6c636e69 	stclvs	14, cr6, [r3], #-420	; 0xfffffe5c
 368:	00656475 	rsbeq	r6, r5, r5, ror r4
 36c:	6f6c6300 	svcvs	0x006c6300
 370:	632e6b63 			; <UNDEFINED> instruction: 0x632e6b63
 374:	00000000 	andeq	r0, r0, r0
 378:	636f6c63 	cmnvs	pc, #25344	; 0x6300
 37c:	00682e6b 	rsbeq	r2, r8, fp, ror #28
 380:	73000000 	movwvc	r0, #0
 384:	6e696474 	mcrvs	4, 3, r6, cr9, cr4, {3}
 388:	63672d74 	cmnvs	r7, #116, 26	; 0x1d00
 38c:	00682e63 	rsbeq	r2, r8, r3, ror #28
 390:	00000001 	andeq	r0, r0, r1
 394:	05001605 	streq	r1, [r0, #-1541]	; 0xfffff9fb
 398:	0003d002 	andeq	sp, r3, r2
 39c:	010a0320 	tsteq	sl, r0, lsr #6
 3a0:	592f0505 	stmdbpl	pc!, {r0, r2, r8, sl}	; <UNPREDICTABLE>
 3a4:	0a055968 	beq	15694c <STACK_SIZE+0x15423c>
 3a8:	000e0559 	andeq	r0, lr, r9, asr r5
 3ac:	20010402 	andcs	r0, r1, r2, lsl #8
 3b0:	02001d05 	andeq	r1, r0, #320	; 0x140
 3b4:	05580104 	ldrbeq	r0, [r8, #-260]	; 0xfffffefc
 3b8:	04020024 	streq	r0, [r2], #-36	; 0xffffffdc
 3bc:	0a052001 	beq	1483c8 <STACK_SIZE+0x145cb8>
 3c0:	01040200 	mrseq	r0, R12_usr
 3c4:	2101052e 	tstcs	r1, lr, lsr #10
 3c8:	05cc1505 	strbeq	r1, [ip, #1285]	; 0x505
 3cc:	05053e0e 	streq	r3, [r5, #-3598]	; 0xfffff1f2
 3d0:	0567752f 	strbeq	r7, [r7, #-1327]!	; 0xfffffad1
 3d4:	0e05690b 	vmlaeq.f16	s12, s10, s22	; <UNPREDICTABLE>
 3d8:	01040200 	mrseq	r0, R12_usr
 3dc:	000b0520 	andeq	r0, fp, r0, lsr #10
 3e0:	58010402 	stmdapl	r1, {r1, sl}
 3e4:	05240105 	streq	r0, [r4, #-261]!	; 0xfffffefb
 3e8:	e40f031c 	str	r0, [pc], #-796	; 3f0 <STACK_SIZE-0x2320>
 3ec:	054b1e05 	strbeq	r1, [fp, #-3589]	; 0xfffff1fb
 3f0:	052f580e 	streq	r5, [pc, #-2062]!	; fffffbea <__bss_end__+0xdfff0bca>
 3f4:	09052e05 	stmdbeq	r5, {r0, r2, r9, sl, fp, sp}
 3f8:	590f0521 	stmdbpl	pc, {r0, r5, r8, sl}	; <UNPREDICTABLE>
 3fc:	02001105 	andeq	r1, r0, #1073741825	; 0x40000001
 400:	05200104 	streq	r0, [r0, #-260]!	; 0xfffffefc
 404:	04020023 	streq	r0, [r2], #-35	; 0xffffffdd
 408:	0f055801 	svceq	0x00055801
 40c:	01040200 	mrseq	r0, R12_usr
 410:	0025052e 	eoreq	r0, r5, lr, lsr #10
 414:	1e020402 	cdpne	4, 0, cr0, cr2, cr2, {0}
 418:	02001705 	andeq	r1, r0, #1310720	; 0x140000
 41c:	053c0104 	ldreq	r0, [ip, #-260]!	; 0xfffffefc
 420:	04020005 	streq	r0, [r2], #-5
 424:	01052001 	tsteq	r5, r1
 428:	932a0540 			; <UNDEFINED> instruction: 0x932a0540
 42c:	594b0505 	stmdbpl	fp, {r0, r2, r8, sl}^
 430:	01055968 	tsteq	r5, r8, ror #18
 434:	af270559 	svcge	0x00270559
 438:	054b0805 	strbeq	r0, [fp, #-2053]	; 0xfffff7fb
 43c:	05753f05 	ldrbeq	r3, [r5, #-3845]!	; 0xfffff0fb
 440:	01057f09 	tsteq	r5, r9, lsl #30
 444:	00050224 	andeq	r0, r5, r4, lsr #4
 448:	00c80101 	sbceq	r0, r8, r1, lsl #2
 44c:	00030000 	andeq	r0, r3, r0
 450:	0000002d 	andeq	r0, r0, sp, lsr #32
 454:	0efb0102 	cdpeq	1, 15, cr0, cr11, cr2, {0}
 458:	0101000d 	tsteq	r1, sp
 45c:	00000101 	andeq	r0, r0, r1, lsl #2
 460:	00000100 	andeq	r0, r0, r0, lsl #2
 464:	77730001 	ldrbvc	r0, [r3, -r1]!
 468:	7261752d 	rsbvc	r7, r1, #188743680	; 0xb400000
 46c:	00632e74 	rsbeq	r2, r3, r4, ror lr
 470:	73000000 	movwvc	r0, #0
 474:	61752d77 	cmnvs	r5, r7, ror sp
 478:	682e7472 	stmdavs	lr!, {r1, r4, r5, r6, sl, ip, sp, lr}
 47c:	00000000 	andeq	r0, r0, r0
 480:	003f0500 	eorseq	r0, pc, r0, lsl #10
 484:	05600205 	strbeq	r0, [r0, #-517]!	; 0xfffffdfb
 488:	05162000 	ldreq	r2, [r6, #-0]
 48c:	0c056708 	stceq	7, cr6, [r5], {8}
 490:	01040200 	mrseq	r0, R12_usr
 494:	590a053c 	stmdbpl	sl, {r2, r3, r4, r5, r8, sl}
 498:	054b0505 	strbeq	r0, [fp, #-1285]	; 0xfffffafb
 49c:	35054b01 	strcc	r4, [r5, #-2817]	; 0xfffff4ff
 4a0:	7605054c 	strvc	r0, [r5], -ip, asr #10
 4a4:	05830e05 	streq	r0, [r3, #3589]	; 0xe05
 4a8:	09052e05 	stmdbeq	r5, {r0, r2, r9, sl, fp, sp}
 4ac:	03040200 	movweq	r0, #16896	; 0x4200
 4b0:	00220521 	eoreq	r0, r2, r1, lsr #10
 4b4:	2e030402 	cdpcs	4, 0, cr0, cr3, cr2, {0}
 4b8:	02000905 	andeq	r0, r0, #81920	; 0x14000
 4bc:	05580304 	ldrbeq	r0, [r8, #-772]	; 0xfffffcfc
 4c0:	0402001d 	streq	r0, [r2], #-29	; 0xffffffe3
 4c4:	05058103 	streq	r8, [r5, #-259]	; 0xfffffefd
 4c8:	01040200 	mrseq	r0, R12_usr
 4cc:	0105403c 	tsteq	r5, ip, lsr r0
 4d0:	4c350583 	cfldr32mi	mvfx0, [r5], #-524	; 0xfffffdf4
 4d4:	05590d05 	ldrbeq	r0, [r9, #-3333]	; 0xfffff2fb
 4d8:	1f052e05 	svcne	0x00052e05
 4dc:	03040200 	movweq	r0, #16896	; 0x4200
 4e0:	00090521 	andeq	r0, r9, r1, lsr #10
 4e4:	3c030402 	cfstrscc	mvf0, [r3], {2}
 4e8:	02002505 	andeq	r2, r0, #20971520	; 0x1400000
 4ec:	05650304 	strbeq	r0, [r5, #-772]!	; 0xfffffcfc
 4f0:	04020017 	streq	r0, [r2], #-23	; 0xffffffe9
 4f4:	05053c01 	streq	r3, [r5, #-3073]	; 0xfffff3ff
 4f8:	01040200 	mrseq	r0, R12_usr
 4fc:	3101054a 	tstcc	r1, sl, asr #10
 500:	055a1a05 	ldrbeq	r1, [sl, #-2565]	; 0xfffff5fb
 504:	3d3d3d05 	ldccc	13, cr3, [sp, #-20]!	; 0xffffffec
 508:	053d1105 	ldreq	r1, [sp, #-261]!	; 0xfffffefb
 50c:	0105670c 	tsteq	r5, ip, lsl #14
 510:	00090221 	andeq	r0, r9, r1, lsr #4
 514:	078c0101 	streq	r0, [ip, r1, lsl #2]
 518:	00030000 	andeq	r0, r3, r0
 51c:	000000ca 	andeq	r0, r0, sl, asr #1
 520:	0efb0102 	cdpeq	1, 15, cr0, cr11, cr2, {0}
 524:	0101000d 	tsteq	r1, sp
 528:	00000101 	andeq	r0, r0, r1, lsl #2
 52c:	00000100 	andeq	r0, r0, r0, lsl #2
 530:	73752f01 	cmnvc	r5, #1, 30
 534:	6f6c2f72 	svcvs	0x006c2f72
 538:	2f6c6163 	svccs	0x006c6163
 53c:	6c6c6543 	cfstr64vs	mvdx6, [ip], #-268	; 0xfffffef4
 540:	612f7261 			; <UNDEFINED> instruction: 0x612f7261
 544:	6e2d6d72 	mcrvs	13, 1, r6, cr13, cr2, {3}
 548:	2d656e6f 	stclcs	14, cr6, [r5, #-444]!	; 0xfffffe44
 54c:	69626165 	stmdbvs	r2!, {r0, r2, r5, r6, r8, sp, lr}^
 550:	7365742d 	cmnvc	r5, #754974720	; 0x2d000000
 554:	2d392f74 	ldccs	15, cr2, [r9, #-464]!	; 0xfffffe30
 558:	39313032 	ldmdbcc	r1!, {r1, r4, r5, ip, sp}
 55c:	632d3471 			; <UNDEFINED> instruction: 0x632d3471
 560:	37303173 			; <UNDEFINED> instruction: 0x37303173
 564:	696c2f65 	stmdbvs	ip!, {r0, r2, r5, r6, r8, r9, sl, fp, sp}^
 568:	63672f62 	cmnvs	r7, #392	; 0x188
 56c:	72612f63 	rsbvc	r2, r1, #396	; 0x18c
 570:	6f6e2d6d 	svcvs	0x006e2d6d
 574:	652d656e 	strvs	r6, [sp, #-1390]!	; 0xfffffa92
 578:	2f696261 	svccs	0x00696261
 57c:	2e322e39 	mrccs	14, 1, r2, cr2, cr9, {1}
 580:	6e692f31 	mcrvs	15, 3, r2, cr9, cr1, {1}
 584:	64756c63 	ldrbtvs	r6, [r5], #-3171	; 0xfffff39d
 588:	69000065 	stmdbvs	r0, {r0, r2, r5, r6}
 58c:	6765746e 	strbvs	r7, [r5, -lr, ror #8]!
 590:	6d2d7265 	sfmvs	f7, 4, [sp, #-404]!	; 0xfffffe6c
 594:	2e687461 	cdpcs	4, 6, cr7, cr8, cr1, {3}
 598:	00000068 	andeq	r0, r0, r8, rrx
 59c:	69727000 	ldmdbvs	r2!, {ip, sp, lr}^
 5a0:	2e66746e 	cdpcs	4, 6, cr7, cr6, cr14, {3}
 5a4:	00000063 	andeq	r0, r0, r3, rrx
 5a8:	64747300 	ldrbtvs	r7, [r4], #-768	; 0xfffffd00
 5ac:	2d746e69 	ldclcs	14, cr6, [r4, #-420]!	; 0xfffffe5c
 5b0:	2e636367 	cdpcs	3, 6, cr6, cr3, cr7, {3}
 5b4:	00010068 	andeq	r0, r1, r8, rrx
 5b8:	72617500 	rsbvc	r7, r1, #0, 10
 5bc:	00682e74 	rsbeq	r2, r8, r4, ror lr
 5c0:	73000000 	movwvc	r0, #0
 5c4:	72616474 	rsbvc	r6, r1, #116, 8	; 0x74000000
 5c8:	00682e67 	rsbeq	r2, r8, r7, ror #28
 5cc:	73000001 	movwvc	r0, #1
 5d0:	65646474 	strbvs	r6, [r4, #-1140]!	; 0xfffffb8c
 5d4:	00682e66 	rsbeq	r2, r8, r6, ror #28
 5d8:	3c000001 	stccc	0, cr0, [r0], {1}
 5dc:	6c697562 	cfstr64vs	mvdx7, [r9], #-392	; 0xfffffe78
 5e0:	6e692d74 	mcrvs	13, 3, r2, cr9, cr4, {3}
 5e4:	0000003e 	andeq	r0, r0, lr, lsr r0
 5e8:	24050000 	strcs	r0, [r5], #-0
 5ec:	70020500 	andvc	r0, r2, r0, lsl #10
 5f0:	03200006 			; <UNDEFINED> instruction: 0x03200006
 5f4:	0a05010f 	beq	140a38 <STACK_SIZE+0x13e328>
 5f8:	4b01054b 	blmi	41b2c <STACK_SIZE+0x3f41c>
 5fc:	0e033605 	cfmadd32eq	mvax0, mvfx3, mvfx3, mvfx5
 600:	6a18054a 	bvs	601b30 <STACK_SIZE+0x5ff420>
 604:	2f4a0c05 	svccs	0x004a0c05
 608:	310a052f 	tstcc	sl, pc, lsr #10
 60c:	052e0305 	streq	r0, [lr, #-773]!	; 0xfffffcfb
 610:	10052109 	andne	r2, r5, r9, lsl #2
 614:	20070520 	andcs	r0, r7, r0, lsr #10
 618:	05210c05 	streq	r0, [r1, #-3077]!	; 0xfffff3fb
 61c:	07052e17 	smladeq	r5, r7, lr, r2
 620:	0c052f2e 	stceq	15, cr2, [r5], {46}	; 0x2e
 624:	3c08053d 	cfstr32cc	mvfx0, [r8], {61}	; 0x3d
 628:	4b3d0905 	blmi	f42a44 <STACK_SIZE+0xf40334>
 62c:	02001905 	andeq	r1, r0, #81920	; 0x14000
 630:	7a030204 	bvc	c0e48 <STACK_SIZE+0xbe738>
 634:	0003053c 	andeq	r0, r3, ip, lsr r5
 638:	3c010402 	cfstrscc	mvf0, [r1], {2}
 63c:	09030a05 	stmdbeq	r3, {r0, r2, r9, fp}
 640:	2101053c 	tstcs	r1, ip, lsr r5
 644:	05503005 	ldrbeq	r3, [r0, #-5]
 648:	0105590a 	tsteq	r5, sl, lsl #18
 64c:	512e05ad 	smulwbpl	lr, sp, r5
 650:	05590605 	ldrbeq	r0, [r9, #-1541]	; 0xfffff9fb
 654:	04020016 	streq	r0, [r2], #-22	; 0xffffffea
 658:	1a053c01 	bne	14f664 <STACK_SIZE+0x14cf54>
 65c:	5823052f 	stmdapl	r3!, {r0, r1, r2, r3, r5, r8, sl}
 660:	05581505 	ldrbeq	r1, [r8, #-1285]	; 0xfffffafb
 664:	0605580c 	streq	r5, [r5], -ip, lsl #16
 668:	000e0521 	andeq	r0, lr, r1, lsr #10
 66c:	3c010402 	cfstrscc	mvf0, [r1], {2}
 670:	02001805 	andeq	r1, r0, #327680	; 0x50000
 674:	053c0304 	ldreq	r0, [ip, #-772]!	; 0xfffffcfc
 678:	04020022 	streq	r0, [r2], #-34	; 0xffffffde
 67c:	0c053c04 	stceq	12, cr3, [r5], {4}
 680:	0105303d 	tsteq	r5, sp, lsr r0
 684:	4c320530 	cfldr32mi	mvfx0, [r2], #-192	; 0xffffff40
 688:	05590605 	ldrbeq	r0, [r9, #-1541]	; 0xfffff9fb
 68c:	04020016 	streq	r0, [r2], #-22	; 0xffffffea
 690:	11053c01 	tstne	r5, r1, lsl #24
 694:	0c05832f 	stceq	3, cr8, [r5], {47}	; 0x2f
 698:	2f01053c 	svccs	0x0001053c
 69c:	1e050204 	cdpne	2, 0, cr0, cr5, cr4, {0}
 6a0:	054a2e03 	strbeq	r2, [sl, #-3587]	; 0xfffff1fd
 6a4:	01056d05 	tsteq	r5, r5, lsl #26
 6a8:	4a0f0359 	bmi	3c1414 <STACK_SIZE+0x3bed04>
 6ac:	059f0605 	ldreq	r0, [pc, #1541]	; cb9 <STACK_SIZE-0x1a57>
 6b0:	1a054b14 	bne	153308 <STACK_SIZE+0x150bf8>
 6b4:	3e01053c 	mcrcc	5, 0, r0, cr1, cr12, {1}
 6b8:	054fa04f 	strbeq	sl, [pc, #-79]	; 671 <STACK_SIZE-0x209f>
 6bc:	0505a006 	streq	sl, [r5, #-6]
 6c0:	5a010559 	bpl	41c2c <STACK_SIZE+0x3f51c>
 6c4:	a006054f 	andge	r0, r6, pc, asr #10
 6c8:	055a2105 	ldrbeq	r2, [sl, #-261]	; 0xfffffefb
 6cc:	01052e06 	tsteq	r5, r6, lsl #28
 6d0:	0a055068 	beq	154878 <STACK_SIZE+0x152168>
 6d4:	2e03055a 	cfrshl32cs	mvfx3, mvfx10, r0
 6d8:	02002205 	andeq	r2, r0, #1342177280	; 0x50000000
 6dc:	05200404 	streq	r0, [r0, #-1028]!	; 0xfffffbfc
 6e0:	04020011 	streq	r0, [r2], #-17	; 0xffffffef
 6e4:	03053c01 	movweq	r3, #23553	; 0x5c01
 6e8:	01040200 	mrseq	r0, R12_usr
 6ec:	001e052e 	andseq	r0, lr, lr, lsr #10
 6f0:	2e030402 	cdpcs	4, 0, cr0, cr3, cr2, {0}
 6f4:	02001405 	andeq	r1, r0, #83886080	; 0x5000000
 6f8:	053c0304 	ldreq	r0, [ip, #-772]!	; 0xfffffcfc
 6fc:	01052f1b 	tsteq	r5, fp, lsl pc
 700:	1605503d 			; <UNDEFINED> instruction: 0x1605503d
 704:	04020067 	streq	r0, [r2], #-103	; 0xffffff99
 708:	004a0601 	subeq	r0, sl, r1, lsl #12
 70c:	4a030402 	bmi	c171c <STACK_SIZE+0xbf00c>
 710:	04040200 	streq	r0, [r4], #-512	; 0xfffffe00
 714:	0402002e 	streq	r0, [r2], #-46	; 0xffffffd2
 718:	01052006 	tsteq	r5, r6
 71c:	06040200 	streq	r0, [r4], -r0, lsl #4
 720:	054f4b06 	strbeq	r4, [pc, #-2822]	; fffffc22 <__bss_end__+0xdfff0c02>
 724:	09054b10 	stmdbeq	r5, {r4, r8, r9, fp, lr}
 728:	210b052f 	tstcs	fp, pc, lsr #10
 72c:	05662505 	strbeq	r2, [r6, #-1285]!	; 0xfffffafb
 730:	22052e2a 	andcs	r2, r5, #672	; 0x2a0
 734:	2011053c 	andscs	r0, r1, ip, lsr r5
 738:	05200705 	streq	r0, [r0, #-1797]!	; 0xfffff8fb
 73c:	0a052d15 	beq	14bb98 <STACK_SIZE+0x149488>
 740:	5809052e 	stmdapl	r9, {r1, r2, r3, r5, r8, sl}
 744:	05230a05 	streq	r0, [r3, #-2565]!	; 0xfffff5fb
 748:	054f2101 	strbeq	r2, [pc, #-257]	; 64f <STACK_SIZE-0x20c1>
 74c:	0f057510 	svceq	0x00057510
 750:	3c060531 	cfstr32cc	mvfx0, [r6], {49}	; 0x31
 754:	02002805 	andeq	r2, r0, #327680	; 0x50000
 758:	05200104 	streq	r0, [r0, #-260]!	; 0xfffffefc
 75c:	0402001d 	streq	r0, [r2], #-29	; 0xffffffe3
 760:	11053c01 	tstne	r5, r1, lsl #24
 764:	2e050521 	cfsh32cs	mvfx0, mvfx5, #17
 768:	02000705 	andeq	r0, r0, #1310720	; 0x140000
 76c:	05210304 	streq	r0, [r1, #-772]!	; 0xfffffcfc
 770:	04020026 	streq	r0, [r2], #-38	; 0xffffffda
 774:	05058103 	streq	r8, [r5, #-259]	; 0xfffffefd
 778:	01040200 	mrseq	r0, R12_usr
 77c:	5009053c 	andpl	r0, r9, ip, lsr r5
 780:	05210505 	streq	r0, [r1, #-1285]!	; 0xfffffafb
 784:	05053c0c 	streq	r3, [r5, #-3084]	; 0xfffff3f4
 788:	8109053c 	tsthi	r9, ip, lsr r5
 78c:	05410d05 	strbeq	r0, [r1, #-3333]	; 0xfffff2fb
 790:	0b053c06 	bleq	14f7b0 <STACK_SIZE+0x14d0a0>
 794:	21070521 	tstcs	r7, r1, lsr #10
 798:	05811005 	streq	r1, [r1, #5]
 79c:	0a053c0b 	beq	14f7d0 <STACK_SIZE+0x14d0c0>
 7a0:	21010541 	tstcs	r1, r1, asr #10
 7a4:	760f054f 	strvc	r0, [pc], -pc, asr #10
 7a8:	053c0605 	ldreq	r0, [ip, #-1541]!	; 0xfffff9fb
 7ac:	19052108 	stmdbne	r5, {r3, r8, sp}
 7b0:	01040200 	mrseq	r0, R12_usr
 7b4:	000f053c 	andeq	r0, pc, ip, lsr r5	; <UNPREDICTABLE>
 7b8:	3c010402 	cfstrscc	mvf0, [r1], {2}
 7bc:	02002a05 	andeq	r2, r0, #20480	; 0x5000
 7c0:	05200204 	streq	r0, [r0, #-516]!	; 0xfffffdfc
 7c4:	04020041 	streq	r0, [r2], #-65	; 0xffffffbf
 7c8:	37055803 	strcc	r5, [r5, -r3, lsl #16]
 7cc:	03040200 	movweq	r0, #16896	; 0x4200
 7d0:	210c053c 	tstcs	ip, ip, lsr r5
 7d4:	053e0b05 	ldreq	r0, [lr, #-2821]!	; 0xfffff4fb
 7d8:	0a05210e 	beq	148c18 <STACK_SIZE+0x146508>
 7dc:	2e12053c 	mrccs	5, 0, r0, cr2, cr12, {1}
 7e0:	052d0b05 	streq	r0, [sp, #-2821]!	; 0xfffff4fb
 7e4:	04020019 	streq	r0, [r2], #-25	; 0xffffffe7
 7e8:	0b054a01 	bleq	152ff4 <STACK_SIZE+0x1508e4>
 7ec:	210e053f 	tstcs	lr, pc, lsr r5
 7f0:	053c0a05 	ldreq	r0, [ip, #-2565]!	; 0xfffff5fb
 7f4:	13052e12 	movwne	r2, #24082	; 0x5e12
 7f8:	3c0b052d 	cfstr32cc	mvfx0, [fp], {45}	; 0x2d
 7fc:	02002405 	andeq	r2, r0, #83886080	; 0x5000000
 800:	05200104 	streq	r0, [r0, #-260]!	; 0xfffffefc
 804:	04020035 	streq	r0, [r2], #-53	; 0xffffffcb
 808:	0d054a02 	vstreq	s8, [r5, #-8]
 80c:	3c060542 	cfstr32cc	mvfx0, [r6], {66}	; 0x42
 810:	05211105 	streq	r1, [r1, #-261]!	; 0xfffffefb
 814:	24054a08 	strcs	r4, [r5], #-2568	; 0xfffff5f8
 818:	01040200 	mrseq	r0, R12_usr
 81c:	002b0520 	eoreq	r0, fp, r0, lsr #10
 820:	3c020402 	cfstrscc	mvf0, [r2], {2}
 824:	02003d05 	andeq	r3, r0, #320	; 0x140
 828:	054a0304 	strbeq	r0, [sl, #-772]	; 0xfffffcfc
 82c:	053d4b0a 	ldreq	r4, [sp, #-2826]!	; 0xfffff4f6
 830:	0402000f 	streq	r0, [r2], #-15
 834:	0c053c01 	stceq	12, cr3, [r5], {1}
 838:	3f08053d 	svccc	0x0008053d
 83c:	02002205 	andeq	r2, r0, #1342177280	; 0x50000000
 840:	053c0104 	ldreq	r0, [ip, #-260]!	; 0xfffffefc
 844:	04020017 	streq	r0, [r2], #-23	; 0xffffffe9
 848:	35053c01 	strcc	r3, [r5, #-3073]	; 0xfffff3ff
 84c:	02040200 	andeq	r0, r4, #0, 4
 850:	3d0e0520 	cfstr32cc	mvfx0, [lr, #-128]	; 0xffffff80
 854:	053c0a05 	ldreq	r0, [ip, #-2565]!	; 0xfffff5fb
 858:	0d052e12 	stceq	14, cr2, [r5, #-72]	; 0xffffffb8
 85c:	0026053e 	eoreq	r0, r6, lr, lsr r5
 860:	3c010402 	cfstrscc	mvf0, [r1], {2}
 864:	02001c05 	andeq	r1, r0, #1280	; 0x500
 868:	053c0104 	ldreq	r0, [ip, #-260]!	; 0xfffffefc
 86c:	04020039 	streq	r0, [r2], #-57	; 0xffffffc7
 870:	0e052002 	cdpeq	0, 0, cr2, cr5, cr2, {0}
 874:	3c0a053d 	cfstr32cc	mvfx0, [sl], {61}	; 0x3d
 878:	052e1205 	streq	r1, [lr, #-517]!	; 0xfffffdfb
 87c:	1b053e0d 	blne	1500b8 <STACK_SIZE+0x14d9a8>
 880:	01040200 	mrseq	r0, R12_usr
 884:	3d0e053c 	cfstr32cc	mvfx0, [lr, #-240]	; 0xffffff10
 888:	053c0a05 	ldreq	r0, [ip, #-2565]!	; 0xfffff5fb
 88c:	08052e12 	stmdaeq	r5, {r1, r4, r9, sl, fp, sp}
 890:	3d0e0530 	cfstr32cc	mvfx0, [lr, #-192]	; 0xffffff40
 894:	053c0a05 	ldreq	r0, [ip, #-2565]!	; 0xfffff5fb
 898:	06052e12 			; <UNDEFINED> instruction: 0x06052e12
 89c:	3d080532 	cfstr32cc	mvfx0, [r8, #-200]	; 0xffffff38
 8a0:	05590e05 	ldrbeq	r0, [r9, #-3589]	; 0xfffff1fb
 8a4:	12053c0a 	andne	r3, r5, #2560	; 0xa00
 8a8:	3e14052e 	cfmul64cc	mvdx0, mvdx4, mvdx14
 8ac:	053c0d05 	ldreq	r0, [ip, #-3333]!	; 0xfffff2fb
 8b0:	0a05210e 	beq	148cf0 <STACK_SIZE+0x1465e0>
 8b4:	2e12053c 	mrccs	5, 0, r0, cr2, cr12, {1}
 8b8:	053e1405 	ldreq	r1, [lr, #-1029]!	; 0xfffffbfb
 8bc:	0e053c0d 	cdpeq	12, 0, cr3, cr5, cr13, {0}
 8c0:	3c0a0521 	cfstr32cc	mvfx0, [sl], {33}	; 0x21
 8c4:	052e1205 	streq	r1, [lr, #-517]!	; 0xfffffdfb
 8c8:	0105320a 	tsteq	r5, sl, lsl #4
 8cc:	0a054ff3 	beq	1548a0 <STACK_SIZE+0x152190>
 8d0:	31060576 	tstcc	r6, r6, ror r5
 8d4:	053d0b05 	ldreq	r0, [sp, #-2821]!	; 0xfffff4fb
 8d8:	06054e0f 	streq	r4, [r5], -pc, lsl #28
 8dc:	0022054a 	eoreq	r0, r2, sl, asr #10
 8e0:	20010402 	andcs	r0, r1, r2, lsl #8
 8e4:	053e2105 	ldreq	r2, [lr, #-261]!	; 0xfffffefb
 8e8:	003d7412 	eorseq	r7, sp, r2, lsl r4
 8ec:	06010402 	streq	r0, [r1], -r2, lsl #8
 8f0:	00360558 	eorseq	r0, r6, r8, asr r5
 8f4:	06020402 	streq	r0, [r2], -r2, lsl #8
 8f8:	00550558 	subseq	r0, r5, r8, asr r5
 8fc:	3c020402 	cfstrscc	mvf0, [r2], {2}
 900:	04040200 	streq	r0, [r4], #-512	; 0xfffffe00
 904:	02002006 	andeq	r2, r0, #6, 0
 908:	002e0504 	eoreq	r0, lr, r4, lsl #10
 90c:	20070402 	andcs	r0, r7, r2, lsl #8
 910:	02001205 	andeq	r1, r0, #1342177280	; 0x50000000
 914:	58060704 	stmdapl	r6, {r2, r8, r9, sl}
 918:	02000e05 	andeq	r0, r0, #80	; 0x50
 91c:	052e0804 	streq	r0, [lr, #-2052]!	; 0xfffff7fc
 920:	04020012 	streq	r0, [r2], #-18	; 0xffffffee
 924:	0f053c08 	svceq	0x00053c08
 928:	08040200 	stmdaeq	r4, {r9}
 92c:	000d053d 	andeq	r0, sp, sp, lsr r5
 930:	74080402 	strvc	r0, [r8], #-1026	; 0xfffffbfe
 934:	02000505 	andeq	r0, r0, #20971520	; 0x1400000
 938:	05210804 	streq	r0, [r1, #-2052]!	; 0xfffff7fc
 93c:	04020014 	streq	r0, [r2], #-20	; 0xffffffec
 940:	0a053c01 	beq	14f94c <STACK_SIZE+0x14d23c>
 944:	0801053f 	stmdaeq	r1, {r0, r1, r2, r3, r4, r5, r8, sl}
 948:	02950383 	addseq	r0, r5, #201326594	; 0xc000002
 94c:	760a054a 	strvc	r0, [sl], -sl, asr #10
 950:	05300605 	ldreq	r0, [r0, #-1541]!	; 0xfffff9fb
 954:	23314c09 	teqcs	r1, #2304	; 0x900
 958:	052e0805 	streq	r0, [lr, #-2053]!	; 0xfffff7fb
 95c:	0d053007 	stceq	0, cr3, [r5, #-28]	; 0xffffffe4
 960:	3d070591 	cfstr32cc	mvfx0, [r7, #-580]	; 0xfffffdbc
 964:	05240d05 	streq	r0, [r4, #-3333]!	; 0xfffff2fb
 968:	0f05400b 	svceq	0x0005400b
 96c:	9f190530 	svcls	0x00190530
 970:	054a3105 	strbeq	r3, [sl, #-261]	; 0xfffffefb
 974:	09053c37 	stmdbeq	r5, {r0, r1, r2, r4, r5, sl, fp, ip, sp}
 978:	2119052e 	tstcs	r9, lr, lsr #10
 97c:	054a3105 	strbeq	r3, [sl, #-261]	; 0xfffffefb
 980:	09053c37 	stmdbeq	r5, {r0, r1, r2, r4, r5, sl, fp, ip, sp}
 984:	2119052e 	tstcs	r9, lr, lsr #10
 988:	054a3105 	strbeq	r3, [sl, #-261]	; 0xfffffefb
 98c:	09053c37 	stmdbeq	r5, {r0, r1, r2, r4, r5, sl, fp, ip, sp}
 990:	2119052e 	tstcs	r9, lr, lsr #10
 994:	054a3105 	strbeq	r3, [sl, #-261]	; 0xfffffefb
 998:	09053c37 	stmdbeq	r5, {r0, r1, r2, r4, r5, sl, fp, ip, sp}
 99c:	2119052e 	tstcs	r9, lr, lsr #10
 9a0:	054a3105 	strbeq	r3, [sl, #-261]	; 0xfffffefb
 9a4:	09053c37 	stmdbeq	r5, {r0, r1, r2, r4, r5, sl, fp, ip, sp}
 9a8:	2137052e 	teqcs	r7, lr, lsr #10
 9ac:	052e0905 	streq	r0, [lr, #-2309]!	; 0xfffff6fb
 9b0:	0b052205 	bleq	1491cc <STACK_SIZE+0x146abc>
 9b4:	2f09053f 	svccs	0x0009053f
 9b8:	05660805 	strbeq	r0, [r6, #-2053]!	; 0xfffff7fb
 9bc:	0e05210f 	adfeqs	f2, f5, #10.0
 9c0:	2e0d0576 	cfrshl64cs	mvdx13, mvdx6, r0
 9c4:	052f1105 	streq	r1, [pc, #-261]!	; 8c7 <STACK_SIZE-0x1e49>
 9c8:	0f05590a 	svceq	0x0005590a
 9cc:	4b1f053d 	blmi	7c1ec8 <STACK_SIZE+0x7bf7b8>
 9d0:	312e0f05 			; <UNDEFINED> instruction: 0x312e0f05
 9d4:	05300d05 	ldreq	r0, [r0, #-3333]!	; 0xfffff2fb
 9d8:	0905400f 	stmdbeq	r5, {r0, r1, r2, r3, lr}
 9dc:	2e08052f 	cfsh32cs	mvfx0, mvfx8, #31
 9e0:	592f0d05 	stmdbpl	pc!, {r0, r2, r8, sl, fp}	; <UNPREDICTABLE>
 9e4:	053d0b05 	ldreq	r0, [sp, #-2821]!	; 0xfffff4fb
 9e8:	1505660a 	strne	r6, [r5, #-1546]	; 0xfffff9f6
 9ec:	76100521 	ldrvc	r0, [r0], -r1, lsr #10
 9f0:	052e0f05 	streq	r0, [lr, #-3845]!	; 0xfffff0fb
 9f4:	33052f13 	movwcc	r2, #24339	; 0x5f13
 9f8:	4a130559 	bmi	4c1f64 <STACK_SIZE+0x4bf854>
 9fc:	05210f05 	streq	r0, [r1, #-3845]!	; 0xfffff0fb
 a00:	0505410d 	streq	r4, [r5, #-269]	; 0xfffffef3
 a04:	0309052e 	movweq	r0, #38190	; 0x952e
 a08:	0f059e20 	svceq	0x00059e20
 a0c:	59206203 	stmdbpl	r0!, {r0, r1, r9, sp, lr}
 a10:	053d0d05 	ldreq	r0, [sp, #-3333]!	; 0xfffff2fb
 a14:	11052e0c 	tstne	r5, ip, lsl #28
 a18:	0905592f 	stmdbeq	r5, {r0, r1, r2, r3, r5, r8, fp, ip, lr}
 a1c:	220f053e 	andcs	r0, pc, #260046848	; 0xf800000
 a20:	3d0d054b 	cfstr32cc	mvfx0, [sp, #-300]	; 0xfffffed4
 a24:	052e0c05 	streq	r0, [lr, #-3077]!	; 0xfffff3fb
 a28:	054b2f11 	strbeq	r2, [fp, #-3857]	; 0xfffff0ef
 a2c:	0f053e09 	svceq	0x00053e09
 a30:	09055928 	stmdbeq	r5, {r3, r5, r8, fp, ip, lr}
 a34:	220f053d 	andcs	r0, pc, #255852544	; 0xf400000
 a38:	3d090559 	cfstr32cc	mvfx0, [r9, #-356]	; 0xfffffe9c
 a3c:	2e680322 	cdpcs	3, 6, cr0, cr8, cr2, {1}
 a40:	030d0536 	movweq	r0, #54582	; 0xd536
 a44:	0a032014 	beq	c8a9c <STACK_SIZE+0xc638c>
 a48:	2e0c05ac 	cfsh32cs	mvfx0, mvfx12, #-36
 a4c:	02001f05 	andeq	r1, r0, #5, 30
 a50:	052e0104 	streq	r0, [lr, #-260]!	; 0xfffffefc
 a54:	0402001c 	streq	r0, [r2], #-28	; 0xffffffe4
 a58:	10052e01 	andne	r2, r5, r1, lsl #28
 a5c:	3e12052f 	cfmul64cc	mvdx0, mvdx2, mvdx15
 a60:	052e1105 	streq	r1, [lr, #-261]!	; 0xfffffefb
 a64:	12052f10 	andne	r2, r5, #16, 30	; 0x40
 a68:	2e11053e 	mrccs	5, 0, r0, cr1, cr14, {1}
 a6c:	3f2f1005 	svccc	0x002f1005
 a70:	052f1105 	streq	r1, [pc, #-261]!	; 973 <STACK_SIZE-0x1d9d>
 a74:	0c054d0d 	stceq	13, cr4, [r5], {13}
 a78:	2f11052e 	svccs	0x0011052e
 a7c:	054e0e05 	strbeq	r0, [lr, #-3589]	; 0xfffff1fb
 a80:	22052e0c 	andcs	r2, r5, #12, 28	; 0xc0
 a84:	01040200 	mrseq	r0, R12_usr
 a88:	001e052e 	andseq	r0, lr, lr, lsr #10
 a8c:	2e010402 	cdpcs	4, 0, cr0, cr1, cr2, {0}
 a90:	052f1105 	streq	r1, [pc, #-261]!	; 993 <STACK_SIZE-0x1d7d>
 a94:	0c054e13 	stceq	14, cr4, [r5], {19}
 a98:	2111054a 	tstcs	r1, sl, asr #10
 a9c:	054e0e05 	strbeq	r0, [lr, #-3589]	; 0xfffff1fb
 aa0:	22052e0c 	andcs	r2, r5, #12, 28	; 0xc0
 aa4:	01040200 	mrseq	r0, R12_usr
 aa8:	001e052e 	andseq	r0, lr, lr, lsr #10
 aac:	2e010402 	cdpcs	4, 0, cr0, cr1, cr2, {0}
 ab0:	05301505 	ldreq	r1, [r0, #-1285]!	; 0xfffffafb
 ab4:	1a054a0e 	bne	1532f4 <STACK_SIZE+0x150be4>
 ab8:	4a130534 	bmi	4c1f90 <STACK_SIZE+0x4bf880>
 abc:	05211805 	streq	r1, [r1, #-2053]!	; 0xfffff7fb
 ac0:	13055938 	movwne	r5, #22840	; 0x5938
 ac4:	030e054a 	movweq	r0, #58698	; 0xe54a
 ac8:	05740878 	ldrbeq	r0, [r4, #-2168]!	; 0xfffff788
 acc:	200b0326 	andcs	r0, fp, r6, lsr #6
 ad0:	053c4c05 	ldreq	r4, [ip, #-3077]!	; 0xfffff3fb
 ad4:	3605203c 			; <UNDEFINED> instruction: 0x3605203c
 ad8:	0055054a 	subseq	r0, r5, sl, asr #10
 adc:	2e020402 	cdpcs	4, 0, cr0, cr2, cr2, {0}
 ae0:	00018105 	andeq	r8, r1, r5, lsl #2
 ae4:	3c020402 	cfstrscc	mvf0, [r2], {2}
 ae8:	05207105 	streq	r7, [r0, #-261]!	; 0xfffffefb
 aec:	81054a66 	tsthi	r5, r6, ror #20
 af0:	17059001 	strne	r9, [r5, -r1]
 af4:	08040200 	stmdaeq	r4, {r9}
 af8:	0038054a 	eorseq	r0, r8, sl, asr #10
 afc:	21080402 	tstcs	r8, r2, lsl #8
 b00:	02001305 	andeq	r1, r0, #335544320	; 0x14000000
 b04:	054a0804 	strbeq	r0, [sl, #-2052]	; 0xfffff7fc
 b08:	0402000e 	streq	r0, [r2], #-14
 b0c:	08740308 	ldmdaeq	r4!, {r3, r8, r9}^
 b10:	03150574 	tsteq	r5, #116, 10	; 0x1d000000
 b14:	0e052011 	mcreq	0, 0, r2, cr5, cr1, {0}
 b18:	251a054a 	ldrcs	r0, [sl, #-1354]	; 0xfffffab6
 b1c:	214a1305 	cmpcs	sl, r5, lsl #6
 b20:	93082f05 	movwls	r2, #36613	; 0x8f05
 b24:	053c6705 	ldreq	r6, [ip, #-1797]!	; 0xfffff8fb
 b28:	3f05204e 	svccc	0x0005204e
 b2c:	0070054a 	rsbseq	r0, r0, sl, asr #10
 b30:	2e020402 	cdpcs	4, 0, cr0, cr2, cr2, {0}
 b34:	0001ae05 	andeq	sl, r1, r5, lsl #28
 b38:	3c020402 	cfstrscc	mvf0, [r2], {2}
 b3c:	20019505 	andcs	r9, r1, r5, lsl #10
 b40:	4a018105 	bmi	60f5c <STACK_SIZE+0x5e84c>
 b44:	2e01ae05 	cdpcs	14, 0, cr10, cr1, cr5, {0}
 b48:	02002005 	andeq	r2, r0, #5, 0
 b4c:	054a0804 	strbeq	r0, [sl, #-2052]	; 0xfffff7fc
 b50:	04020013 	streq	r0, [r2], #-19	; 0xffffffed
 b54:	0f052108 	svceq	0x00052108
 b58:	09054d08 	stmdbeq	r5, {r3, r8, sl, fp, lr}
 b5c:	0316053d 	tsteq	r6, #255852544	; 0xf400000
 b60:	15052016 	strne	r2, [r5, #-22]	; 0xffffffea
 b64:	3c0c0530 	cfstr32cc	mvfx0, [ip], {48}	; 0x30
 b68:	05211105 	streq	r1, [r1, #-261]!	; 0xfffffefb
 b6c:	1305210d 	movwne	r2, #20749	; 0x510d
 b70:	3c110581 	cfldr32cc	mvfx0, [r1], {129}	; 0x81
 b74:	05411305 	strbeq	r1, [r1, #-773]	; 0xfffffcfb
 b78:	13054a09 	movwne	r4, #23049	; 0x5a09
 b7c:	3c0c0584 	cfstr32cc	mvfx0, [ip], {132}	; 0x84
 b80:	05211105 	streq	r1, [r1, #-261]!	; 0xfffffefb
 b84:	1305210d 	movwne	r2, #20749	; 0x510d
 b88:	3c110581 	cfldr32cc	mvfx0, [r1], {129}	; 0x81
 b8c:	05400f05 	strbeq	r0, [r0, #-3845]	; 0xfffff0fb
 b90:	15053d09 	strne	r3, [r5, #-3337]	; 0xfffff2f7
 b94:	591a0524 	ldmdbpl	sl, {r2, r5, r8, sl}
 b98:	01040200 	mrseq	r0, R12_usr
 b9c:	02003c06 	andeq	r3, r0, #1536	; 0x600
 ba0:	002e0204 	eoreq	r0, lr, r4, lsl #4
 ba4:	2e040402 	cdpcs	4, 0, cr0, cr4, cr2, {0}
 ba8:	02001305 	andeq	r1, r0, #335544320	; 0x14000000
 bac:	76060404 	strvc	r0, [r6], -r4, lsl #8
 bb0:	02000c05 	andeq	r0, r0, #1280	; 0x500
 bb4:	054a0404 	strbeq	r0, [sl, #-1028]	; 0xfffffbfc
 bb8:	1505210d 	strne	r2, [r5, #-269]	; 0xfffffef3
 bbc:	3c0c0568 	cfstr32cc	mvfx0, [ip], {104}	; 0x68
 bc0:	05211105 	streq	r1, [r1, #-261]!	; 0xfffffefb
 bc4:	1305210d 	movwne	r2, #20749	; 0x510d
 bc8:	3c110581 	cfldr32cc	mvfx0, [r1], {129}	; 0x81
 bcc:	05410f05 	strbeq	r0, [r1, #-3845]	; 0xfffff0fb
 bd0:	0b052112 	bleq	149020 <STACK_SIZE+0x146910>
 bd4:	8111053c 	tsthi	r1, ip, lsr r5
 bd8:	052e0f05 	streq	r0, [lr, #-3845]!	; 0xfffff0fb
 bdc:	04020026 	streq	r0, [r2], #-38	; 0xffffffda
 be0:	1a052e01 	bne	14c3ec <STACK_SIZE+0x149cdc>
 be4:	01040200 	mrseq	r0, R12_usr
 be8:	0045054a 	subeq	r0, r5, sl, asr #10
 bec:	20020402 	andcs	r0, r2, r2, lsl #8
 bf0:	02003905 	andeq	r3, r0, #81920	; 0x14000
 bf4:	053c0204 	ldreq	r0, [ip, #-516]!	; 0xfffffdfc
 bf8:	0c053213 	sfmeq	f3, 4, [r5], {19}
 bfc:	2111053c 	tstcs	r1, ip, lsr r5
 c00:	05210d05 	streq	r0, [r1, #-3333]!	; 0xfffff2fb
 c04:	11058113 	tstne	r5, r3, lsl r1
 c08:	400f053c 	andmi	r0, pc, ip, lsr r5	; <UNPREDICTABLE>
 c0c:	053d0905 	ldreq	r0, [sp, #-2309]!	; 0xfffff6fb
 c10:	052f240f 	streq	r2, [pc, #-1039]!	; 809 <STACK_SIZE-0x1f07>
 c14:	11055251 	tstne	r5, r1, asr r2
 c18:	080f054a 	stmdaeq	pc, {r1, r3, r6, r8, sl}	; <UNPREDICTABLE>
 c1c:	3d09054e 	cfstr32cc	mvfx0, [r9, #-312]	; 0xfffffec8
 c20:	830f0524 	movwhi	r0, #62756	; 0xf524
 c24:	233d0905 	teqcs	sp, #81920	; 0x14000
 c28:	05910f05 	ldreq	r0, [r1, #3845]	; 0xf05
 c2c:	0a053d09 	beq	150058 <STACK_SIZE+0x14d948>
 c30:	207dfb03 	rsbscs	pc, sp, r3, lsl #22
 c34:	052e0905 	streq	r0, [lr, #-2309]!	; 0xfffff6fb
 c38:	028a0303 	addeq	r0, sl, #201326592	; 0xc000000
 c3c:	0402003c 	streq	r0, [r2], #-60	; 0xffffffc4
 c40:	004a0601 	subeq	r0, sl, r1, lsl #12
 c44:	3c020402 	cfstrscc	mvf0, [r2], {2}
 c48:	04040200 	streq	r0, [r4], #-512	; 0xfffffe00
 c4c:	000a0520 	andeq	r0, sl, r0, lsr #10
 c50:	06040402 	streq	r0, [r4], -r2, lsl #8
 c54:	0001055b 	andeq	r0, r1, fp, asr r5
 c58:	21040402 	tstcs	r4, r2, lsl #8
 c5c:	4c030550 	cfstr32mi	mvfx0, [r3], {80}	; 0x50
 c60:	053e1305 	ldreq	r1, [lr, #-773]!	; 0xfffffcfb
 c64:	0105bc0a 	tsteq	r5, sl, lsl #24
 c68:	03059421 	movweq	r9, #21537	; 0x5421
 c6c:	3d13055a 	cfldr32cc	mvfx0, [r3, #-360]	; 0xfffffe98
 c70:	05bc0a05 	ldreq	r0, [ip, #2565]!	; 0xa05
 c74:	05942101 	ldreq	r2, [r4, #257]	; 0x101
 c78:	13056803 	movwne	r6, #22531	; 0x5803
 c7c:	ae0a053d 	mcrge	5, 0, r0, cr10, cr13, {1}
 c80:	94210105 	strtls	r0, [r1], #-261	; 0xfffffefb
 c84:	055a0a05 	ldrbeq	r0, [sl, #-2565]	; 0xfffff5fb
 c88:	0578bb01 	ldrbeq	fp, [r8, #-2817]!	; 0xfffff4ff
 c8c:	0105750a 	tsteq	r5, sl, lsl #10
 c90:	0305789f 	movweq	r7, #22687	; 0x589f
 c94:	3d1b0568 	cfldr32cc	mvfx0, [fp, #-416]	; 0xfffffe60
 c98:	05751305 	ldrbeq	r1, [r5, #-773]!	; 0xfffffcfb
 c9c:	0105bc0a 	tsteq	r5, sl, lsl #24
 ca0:	00090221 	andeq	r0, r9, r1, lsr #4
 ca4:	01df0101 	bicseq	r0, pc, r1, lsl #2
 ca8:	00030000 	andeq	r0, r3, r0
 cac:	000000ac 	andeq	r0, r0, ip, lsr #1
 cb0:	0efb0102 	cdpeq	1, 15, cr0, cr11, cr2, {0}
 cb4:	0101000d 	tsteq	r1, sp
 cb8:	00000101 	andeq	r0, r0, r1, lsl #2
 cbc:	00000100 	andeq	r0, r0, r0, lsl #2
 cc0:	73752f01 	cmnvc	r5, #1, 30
 cc4:	6f6c2f72 	svcvs	0x006c2f72
 cc8:	2f6c6163 	svccs	0x006c6163
 ccc:	6c6c6543 	cfstr64vs	mvdx6, [ip], #-268	; 0xfffffef4
 cd0:	612f7261 			; <UNDEFINED> instruction: 0x612f7261
 cd4:	6e2d6d72 	mcrvs	13, 1, r6, cr13, cr2, {3}
 cd8:	2d656e6f 	stclcs	14, cr6, [r5, #-444]!	; 0xfffffe44
 cdc:	69626165 	stmdbvs	r2!, {r0, r2, r5, r6, r8, sp, lr}^
 ce0:	7365742d 	cmnvc	r5, #754974720	; 0x2d000000
 ce4:	2d392f74 	ldccs	15, cr2, [r9, #-464]!	; 0xfffffe30
 ce8:	39313032 	ldmdbcc	r1!, {r1, r4, r5, ip, sp}
 cec:	632d3471 			; <UNDEFINED> instruction: 0x632d3471
 cf0:	37303173 			; <UNDEFINED> instruction: 0x37303173
 cf4:	696c2f65 	stmdbvs	ip!, {r0, r2, r5, r6, r8, r9, sl, fp, sp}^
 cf8:	63672f62 	cmnvs	r7, #392	; 0x188
 cfc:	72612f63 	rsbvc	r2, r1, #396	; 0x18c
 d00:	6f6e2d6d 	svcvs	0x006e2d6d
 d04:	652d656e 	strvs	r6, [sp, #-1390]!	; 0xfffffa92
 d08:	2f696261 	svccs	0x00696261
 d0c:	2e322e39 	mrccs	14, 1, r2, cr2, cr9, {1}
 d10:	6e692f31 	mcrvs	15, 3, r2, cr9, cr1, {1}
 d14:	64756c63 	ldrbtvs	r6, [r5], #-3171	; 0xfffff39d
 d18:	69000065 	stmdbvs	r0, {r0, r2, r5, r6}
 d1c:	6765746e 	strbvs	r7, [r5, -lr, ror #8]!
 d20:	6d2d7265 	sfmvs	f7, 4, [sp, #-404]!	; 0xfffffe6c
 d24:	2e687461 	cdpcs	4, 6, cr7, cr8, cr1, {3}
 d28:	00000068 	andeq	r0, r0, r8, rrx
 d2c:	72617500 	rsbvc	r7, r1, #0, 10
 d30:	00632e74 	rsbeq	r2, r3, r4, ror lr
 d34:	73000000 	movwvc	r0, #0
 d38:	6e696474 	mcrvs	4, 3, r6, cr9, cr4, {3}
 d3c:	63672d74 	cmnvs	r7, #116, 26	; 0x1d00
 d40:	00682e63 	rsbeq	r2, r8, r3, ror #28
 d44:	67000001 	strvs	r0, [r0, -r1]
 d48:	2e6f6970 			; <UNDEFINED> instruction: 0x2e6f6970
 d4c:	00000068 	andeq	r0, r0, r8, rrx
 d50:	72617500 	rsbvc	r7, r1, #0, 10
 d54:	00682e74 	rsbeq	r2, r8, r4, ror lr
 d58:	00000000 	andeq	r0, r0, r0
 d5c:	05003605 	streq	r3, [r0, #-1541]	; 0xfffff9fb
 d60:	0013b402 	andseq	fp, r3, r2, lsl #8
 d64:	011f0320 	tsteq	pc, r0, lsr #6
 d68:	056a1805 	strbeq	r1, [sl, #-2053]!	; 0xfffff7fb
 d6c:	2f2f4a0c 	svccs	0x002f4a0c
 d70:	05310a05 	ldreq	r0, [r1, #-2565]!	; 0xfffff5fb
 d74:	09052e03 	stmdbeq	r5, {r0, r1, r9, sl, fp, sp}
 d78:	20100521 	andscs	r0, r0, r1, lsr #10
 d7c:	05200705 	streq	r0, [r0, #-1797]!	; 0xfffff8fb
 d80:	1705210c 	strne	r2, [r5, -ip, lsl #2]
 d84:	2e07052e 	cfsh32cs	mvfx0, mvfx7, #30
 d88:	3d0c052f 	cfstr32cc	mvfx0, [ip, #-188]	; 0xffffff44
 d8c:	053c0805 	ldreq	r0, [ip, #-2053]!	; 0xfffff7fb
 d90:	054b3d09 	strbeq	r3, [fp, #-3337]	; 0xfffff2f7
 d94:	04020019 	streq	r0, [r2], #-25	; 0xffffffe7
 d98:	3c7a0302 	ldclcc	3, cr0, [sl], #-8
 d9c:	02000305 	andeq	r0, r0, #335544320	; 0x14000000
 da0:	053c0104 	ldreq	r0, [ip, #-260]!	; 0xfffffefc
 da4:	3c09030a 	stccc	3, cr0, [r9], {10}
 da8:	05210105 	streq	r0, [r1, #-261]!	; 0xfffffefb
 dac:	0a055030 	beq	154e74 <STACK_SIZE+0x152764>
 db0:	ad010559 	cfstr32ge	mvfx0, [r1, #-356]	; 0xfffffe9c
 db4:	21050204 	tstcs	r5, r4, lsl #4
 db8:	054a4d03 	strbeq	r4, [sl, #-3331]	; 0xfffff2fd
 dbc:	05674b05 	strbeq	r4, [r7, #-2821]!	; 0xfffff4fb
 dc0:	0805670d 	stmdaeq	r5, {r0, r2, r3, r8, r9, sl, sp, lr}
 dc4:	0025052e 	eoreq	r0, r5, lr, lsr #10
 dc8:	3c010402 	cfstrscc	mvf0, [r1], {2}
 dcc:	02001e05 	andeq	r1, r0, #80	; 0x50
 dd0:	052e0104 	streq	r0, [lr, #-260]!	; 0xfffffefc
 dd4:	48053f05 	stmdami	r5, {r0, r2, r8, r9, sl, fp, ip, sp}
 dd8:	2e22053e 	mcrcs	5, 1, r0, cr2, cr14, {1}
 ddc:	05740e05 	ldrbeq	r0, [r4, #-3589]!	; 0xfffff1fb
 de0:	1f05224b 	svcne	0x0005224b
 de4:	826d052e 	rsbhi	r0, sp, #192937984	; 0xb800000
 de8:	053c0e05 	ldreq	r0, [ip, #-3589]!	; 0xfffff1fb
 dec:	0e052f15 	mcreq	15, 0, r2, cr5, cr5, {0}
 df0:	230f0574 	movwcs	r0, #62836	; 0xf574
 df4:	052e0505 	streq	r0, [lr, #-1285]!	; 0xfffffafb
 df8:	0505670f 	streq	r6, [r5, #-1807]	; 0xfffff8f1
 dfc:	680f052e 	stmdavs	pc, {r1, r2, r3, r5, r8, sl}	; <UNPREDICTABLE>
 e00:	052e0505 	streq	r0, [lr, #-1285]!	; 0xfffffafb
 e04:	0505760f 	streq	r7, [r5, #-1551]	; 0xfffff9f1
 e08:	760f052e 	strvc	r0, [pc], -lr, lsr #10
 e0c:	052e0505 	streq	r0, [lr, #-1285]!	; 0xfffffafb
 e10:	0505910f 	streq	r9, [r5, #-271]	; 0xfffffef1
 e14:	910f052e 	tstls	pc, lr, lsr #10
 e18:	052e0505 	streq	r0, [lr, #-1285]!	; 0xfffffafb
 e1c:	826d0309 	rsbhi	r0, sp, #603979776	; 0x24000000
 e20:	14030105 	strne	r0, [r3], #-261	; 0xfffffefb
 e24:	f5200520 			; <UNDEFINED> instruction: 0xf5200520
 e28:	052f0c05 	streq	r0, [pc, #-3077]!	; 22b <STACK_SIZE-0x24e5>
 e2c:	15052101 	strne	r2, [r5, #-257]	; 0xfffffeff
 e30:	2f090540 	svccs	0x00090540
 e34:	05210105 	streq	r0, [r1, #-261]!	; 0xfffffefb
 e38:	23053f19 	movwcs	r3, #24345	; 0x5f19
 e3c:	2e0f052f 	cfsh32cs	mvfx0, mvfx15, #31
 e40:	05583c05 	ldrbeq	r3, [r8, #-3077]	; 0xfffff3fb
 e44:	0c052042 	stceq	0, cr2, [r5], {66}	; 0x42
 e48:	3d01052e 	cfstr32cc	mvfx0, [r1, #-184]	; 0xffffff48
 e4c:	055c2105 	ldrbeq	r2, [ip, #-261]	; 0xfffffefb
 e50:	0c05670a 	stceq	7, cr6, [r5], {10}
 e54:	01040200 	mrseq	r0, R12_usr
 e58:	000a0520 	andeq	r0, sl, r0, lsr #10
 e5c:	3c010402 	cfstrscc	mvf0, [r1], {2}
 e60:	05211905 	streq	r1, [r1, #-2309]!	; 0xfffff6fb
 e64:	01052e05 	tsteq	r5, r5, lsl #28
 e68:	79190567 	ldmdbvc	r9, {r0, r1, r2, r5, r6, r8, sl}
 e6c:	052f0c05 	streq	r0, [pc, #-3077]!	; 26f <STACK_SIZE-0x24a1>
 e70:	1b053d01 	blne	15027c <STACK_SIZE+0x14db6c>
 e74:	2f09053e 	svccs	0x0009053e
 e78:	053c0705 	ldreq	r0, [ip, #-1797]!	; 0xfffff8fb
 e7c:	0c052110 	stfeqs	f2, [r5], {16}
 e80:	3d01053d 	cfstr32cc	mvfx0, [r1, #-244]	; 0xffffff0c
 e84:	01000302 	tsteq	r0, r2, lsl #6
 e88:	Address 0x0000000000000e88 is out of bounds.


Disassembly of section .debug_info:

00000000 <.debug_info>:
       0:	0000001e 	andeq	r0, r0, lr, lsl r0
       4:	00000002 	andeq	r0, r0, r2
       8:	01040000 	mrseq	r0, (UNDEF: 4)
	...
      18:	00000008 	andeq	r0, r0, r8
      1c:	00000044 	andeq	r0, r0, r4, asr #32
      20:	01cc8001 	biceq	r8, ip, r1
      24:	00040000 	andeq	r0, r4, r0
      28:	00000012 	andeq	r0, r0, r2, lsl r0
      2c:	00520104 	subseq	r0, r2, r4, lsl #2
      30:	b10c0000 	mrslt	r0, (UNDEF: 12)
      34:	08000001 	stmdaeq	r0, {r0}
      38:	1c000000 	stcne	0, cr0, [r0], {-0}
      3c:	cc200001 	stcgt	0, cr0, [r0], #-4
      40:	81000000 	mrshi	r0, (UNDEF: 0)
      44:	02000000 	andeq	r0, r0, #0, 0
      48:	016a0601 	cmneq	sl, r1, lsl #12
      4c:	02020000 	andeq	r0, r2, #0, 0
      50:	0000e705 	andeq	lr, r0, r5, lsl #14
      54:	05040200 	streq	r0, [r4, #-512]	; 0xfffffe00
      58:	00000138 	andeq	r0, r0, r8, lsr r1
      5c:	33050802 	movwcc	r0, #22530	; 0x5802
      60:	03000001 	movweq	r0, #1
      64:	00000106 	andeq	r0, r0, r6, lsl #2
      68:	4d182e02 	ldcmi	14, cr2, [r8, #-8]
      6c:	02000000 	andeq	r0, r0, #0, 0
      70:	01680801 	cmneq	r8, r1, lsl #16
      74:	02020000 	andeq	r0, r2, #0, 0
      78:	0001c907 	andeq	ip, r1, r7, lsl #18
      7c:	01a80300 			; <UNDEFINED> instruction: 0x01a80300
      80:	34020000 	strcc	r0, [r2], #-0
      84:	00006719 	andeq	r6, r0, r9, lsl r7
      88:	07040200 	streq	r0, [r4, -r0, lsl #4]
      8c:	00000196 	muleq	r0, r6, r1
      90:	91070802 	tstls	r7, r2, lsl #16
      94:	04000001 	streq	r0, [r0], #-1
      98:	6e690504 	cdpvs	5, 6, cr0, cr9, cr4, {0}
      9c:	04020074 	streq	r0, [r2], #-116	; 0xffffff8c
      a0:	00019b07 	andeq	r9, r1, r7, lsl #22
      a4:	04070500 	streq	r0, [r7], #-1280	; 0xfffffb00
      a8:	0000007c 	andeq	r0, r0, ip, ror r0
      ac:	9b061e05 	blls	1878c8 <STACK_SIZE+0x1851b8>
      b0:	06000000 	streq	r0, [r0], -r0
      b4:	00000125 	andeq	r0, r0, r5, lsr #2
      b8:	40008048 	andmi	r8, r0, r8, asr #32
      bc:	03100700 	tsteq	r0, #0, 14
      c0:	00d7090c 	sbcseq	r0, r7, ip, lsl #18
      c4:	74080000 	strvc	r0, [r8], #-0
      c8:	0d030078 	stceq	0, cr0, [r3, #-480]	; 0xfffffe20
      cc:	00007509 	andeq	r7, r0, r9, lsl #10
      d0:	72080000 	andvc	r0, r8, #0, 0
      d4:	0d030078 	stceq	0, cr0, [r3, #-480]	; 0xfffffe20
      d8:	0000750c 	andeq	r7, r0, ip, lsl #10
      dc:	63090400 	movwvs	r0, #37888	; 0x9400
      e0:	03000001 	movweq	r0, #1
      e4:	007c0e0e 	rsbseq	r0, ip, lr, lsl #28
      e8:	09080000 	stmdbeq	r8, {}	; <UNPREDICTABLE>
      ec:	0000010e 	andeq	r0, r0, lr, lsl #2
      f0:	7c0e0f03 	stcvc	15, cr0, [lr], {3}
      f4:	0c000000 	stceq	0, cr0, [r0], {-0}
      f8:	01dc0300 	bicseq	r0, ip, r0, lsl #6
      fc:	10030000 	andne	r0, r3, r0
     100:	00009b03 	andeq	r9, r0, r3, lsl #22
     104:	01410a00 	cmpeq	r1, r0, lsl #20
     108:	12030000 	andne	r0, r3, #0, 0
     10c:	0000d70b 	andeq	sp, r0, fp, lsl #14
     110:	10030500 	andne	r0, r3, r0, lsl #10
     114:	022000f0 	eoreq	r0, r0, #240, 0	; 0xf0
     118:	01570408 	cmpeq	r7, r8, lsl #8
     11c:	10070000 	andne	r0, r7, r0
     120:	38091204 	stmdacc	r9, {r2, r9, ip}
     124:	08000001 	stmdaeq	r0, {r0}
     128:	04007874 	streq	r7, [r0], #-2164	; 0xfffff78c
     12c:	005b0e13 	subseq	r0, fp, r3, lsl lr
     130:	08000000 	stmdaeq	r0, {}	; <UNPREDICTABLE>
     134:	04007872 	streq	r7, [r0], #-2162	; 0xfffff78e
     138:	005b1113 	subseq	r1, fp, r3, lsl r1
     13c:	09040000 	stmdbeq	r4, {}	; <UNPREDICTABLE>
     140:	0000011b 	andeq	r0, r0, fp, lsl r1
     144:	5b0e1404 	blpl	38515c <STACK_SIZE+0x382a4c>
     148:	08000000 	stmdaeq	r0, {}	; <UNPREDICTABLE>
     14c:	0000e109 	andeq	lr, r0, r9, lsl #2
     150:	0e150400 	cfmulseq	mvf0, mvf5, mvf0
     154:	0000005b 	andeq	r0, r0, fp, asr r0
     158:	4d03000c 	stcmi	0, cr0, [r3, #-48]	; 0xffffffd0
     15c:	04000001 	streq	r0, [r0], #-1
     160:	00fc0316 	rscseq	r0, ip, r6, lsl r3
     164:	ba0a0000 	blt	28016c <STACK_SIZE+0x27da5c>
     168:	04000001 	streq	r0, [r0], #-1
     16c:	01380b18 	teqeq	r8, r8, lsl fp
     170:	03050000 	movweq	r0, #20480	; 0x5000
     174:	2000f000 	andcs	pc, r0, r0
     178:	0000f10b 	andeq	pc, r0, fp, lsl #2
     17c:	06190100 	ldreq	r0, [r9], -r0, lsl #2
     180:	2000015c 	andcs	r0, r0, ip, asr r1
     184:	0000008c 	andeq	r0, r0, ip, lsl #1
     188:	01a39c01 			; <UNDEFINED> instruction: 0x01a39c01
     18c:	f80c0000 			; <UNDEFINED> instruction: 0xf80c0000
     190:	01000000 	mrseq	r0, (UNDEF: 0)
     194:	005b151b 	subseq	r1, fp, fp, lsl r5
     198:	850c0000 	strhi	r0, [ip, #-0]
     19c:	01000001 	tsteq	r0, r1
     1a0:	005b231b 	subseq	r2, fp, fp, lsl r3
     1a4:	e60d0000 	str	r0, [sp], -r0
     1a8:	01000001 	tsteq	r0, r1
     1ac:	01a30e1c 			; <UNDEFINED> instruction: 0x01a30e1c
     1b0:	91020000 	mrsls	r0, (UNDEF: 2)
     1b4:	73620e70 	cmnvc	r2, #112, 28	; 0x700
     1b8:	1d010073 	stcne	0, cr0, [r1, #-460]	; 0xfffffe34
     1bc:	0001a30e 	andeq	sl, r1, lr, lsl #6
     1c0:	74910200 	ldrvc	r0, [r1], #512	; 0x200
     1c4:	41040f00 	tstmi	r4, r0, lsl #30
     1c8:	10000000 	andne	r0, r0, r0
     1cc:	00000176 	andeq	r0, r0, r6, ror r1
     1d0:	75050b01 	strvc	r0, [r5, #-2817]	; 0xfffff4ff
     1d4:	1c000000 	stcne	0, cr0, [r0], {-0}
     1d8:	40200001 	eormi	r0, r0, r1
     1dc:	01000000 	mrseq	r0, (UNDEF: 0)
     1e0:	017d0d9c 			; <UNDEFINED> instruction: 0x017d0d9c
     1e4:	0e010000 	cdpeq	0, 0, cr0, cr1, cr0, {0}
     1e8:	00005b0e 	andeq	r5, r0, lr, lsl #22
     1ec:	74910200 	ldrvc	r0, [r1], #512	; 0x200
     1f0:	02bd0000 	adcseq	r0, sp, #0, 0
     1f4:	00040000 	andeq	r0, r4, r0
     1f8:	0000011d 	andeq	r0, r0, sp, lsl r1
     1fc:	00520104 	subseq	r0, r2, r4, lsl #2
     200:	d80c0000 	stmdale	ip, {}	; <UNPREDICTABLE>
     204:	08000002 	stmdaeq	r0, {r1}
     208:	e8000000 	stmda	r0, {}	; <UNPREDICTABLE>
     20c:	e8200001 	stmda	r0!, {r0}
     210:	98000001 	stmdals	r0, {r0}
     214:	02000001 	andeq	r0, r0, #1, 0
     218:	016a0601 	cmneq	sl, r1, lsl #12
     21c:	02020000 	andeq	r0, r2, #0, 0
     220:	0000e705 	andeq	lr, r0, r5, lsl #14
     224:	05040200 	streq	r0, [r4, #-512]	; 0xfffffe00
     228:	00000138 	andeq	r0, r0, r8, lsr r1
     22c:	33050802 	movwcc	r0, #22530	; 0x5802
     230:	02000001 	andeq	r0, r0, #1, 0
     234:	01680801 	cmneq	r8, r1, lsl #16
     238:	02020000 	andeq	r0, r2, #0, 0
     23c:	0001c907 	andeq	ip, r1, r7, lsl #18
     240:	01a80300 			; <UNDEFINED> instruction: 0x01a80300
     244:	34030000 	strcc	r0, [r3], #-0
     248:	00005b19 	andeq	r5, r0, r9, lsl fp
     24c:	07040200 	streq	r0, [r4, -r0, lsl #4]
     250:	00000196 	muleq	r0, r6, r1
     254:	91070802 	tstls	r7, r2, lsl #16
     258:	04000001 	streq	r0, [r0], #-1
     25c:	6e690504 	cdpvs	5, 6, cr0, cr9, cr4, {0}
     260:	04020074 	streq	r0, [r2], #-116	; 0xffffff8c
     264:	00019b07 	andeq	r9, r1, r7, lsl #22
     268:	04070500 	streq	r0, [r7], #-1280	; 0xfffffb00
     26c:	00000070 	andeq	r0, r0, r0, ror r0
     270:	98060d02 	stmdals	r6, {r1, r8, sl, fp}
     274:	06000000 	streq	r0, [r0], -r0
     278:	000001fa 	strdeq	r0, [r0], -sl
     27c:	40014000 	andmi	r4, r1, r0
     280:	0002f806 	andeq	pc, r2, r6, lsl #16
     284:	01400400 	cmpeq	r0, r0, lsl #8
     288:	07050040 	streq	r0, [r5, -r0, asr #32]
     28c:	00007004 	andeq	r7, r0, r4
     290:	06140200 	ldreq	r0, [r4], -r0, lsl #4
     294:	000000e6 	andeq	r0, r0, r6, ror #1
     298:	00027d06 	andeq	r7, r2, r6, lsl #26
     29c:	00000400 	andeq	r0, r0, r0, lsl #8
     2a0:	032f06d0 			; <UNDEFINED> instruction: 0x032f06d0
     2a4:	00100000 	andseq	r0, r0, r0
     2a8:	0a06d000 	beq	1b42b0 <STACK_SIZE+0x1b1ba0>
     2ac:	14000003 	strne	r0, [r0], #-3
     2b0:	06d00000 	ldrbeq	r0, [r0], r0
     2b4:	0000020e 	andeq	r0, r0, lr, lsl #4
     2b8:	d0000018 	andle	r0, r0, r8, lsl r0
     2bc:	00029006 	andeq	r9, r2, r6
     2c0:	00002000 	andeq	r2, r0, r0
     2c4:	01ee06d0 	ldrdeq	r0, [lr, #96]!	; 0x60
     2c8:	00280000 	eoreq	r0, r8, r0
     2cc:	ec06d000 	stc	0, cr13, [r6], {-0}
     2d0:	24000002 	strcs	r0, [r0], #-2
     2d4:	00d00000 	sbcseq	r0, r0, r0
     2d8:	70040705 	andvc	r0, r4, r5, lsl #14
     2dc:	02000000 	andeq	r0, r0, #0, 0
     2e0:	01190622 	tsteq	r9, r2, lsr #12
     2e4:	29060000 	stmdbcs	r6, {}	; <UNPREDICTABLE>
     2e8:	00000003 	andeq	r0, r0, r3
     2ec:	064000c0 	strbeq	r0, [r0], -r0, asr #1
     2f0:	00000273 	andeq	r0, r0, r3, ror r2
     2f4:	4000c004 	andmi	ip, r0, r4
     2f8:	00028506 	andeq	r8, r2, r6, lsl #10
     2fc:	00c00800 	sbceq	r0, r0, r0, lsl #16
     300:	02b00640 	adcseq	r0, r0, #64, 12	; 0x4000000
     304:	f0000000 			; <UNDEFINED> instruction: 0xf0000000
     308:	05004000 	streq	r4, [r0, #-0]
     30c:	00410107 	subeq	r0, r1, r7, lsl #2
     310:	2a020000 	bcs	80318 <STACK_SIZE+0x7dc08>
     314:	00014006 	andeq	r4, r1, r6
     318:	02540700 	subseq	r0, r4, #0, 14
     31c:	07050000 	streq	r0, [r5, -r0]
     320:	00000220 	andeq	r0, r0, r0, lsr #4
     324:	02a40718 	adceq	r0, r4, #24, 14	; 0x600000
     328:	07170000 	ldreq	r0, [r7, -r0]
     32c:	00000298 	muleq	r0, r8, r2
     330:	07050016 	smladeq	r5, r6, r0, r0
     334:	00004101 	andeq	r4, r0, r1, lsl #2
     338:	0e320200 	cdpeq	2, 3, cr0, cr2, cr0, {0}
     33c:	00000161 	andeq	r0, r0, r1, ror #2
     340:	4f495308 	svcmi	0x00495308
     344:	1b070500 	blne	1c174c <STACK_SIZE+0x1bf03c>
     348:	06000002 	streq	r0, [r0], -r2
     34c:	0002d307 	andeq	sp, r2, r7, lsl #6
     350:	02000700 	andeq	r0, r0, #0, 14
     354:	01570408 	cmpeq	r7, r8, lsl #8
     358:	47090000 	strmi	r0, [r9, -r0]
     35c:	01000002 	tsteq	r0, r2
     360:	03a0064f 	moveq	r0, #82837504	; 0x4f00000
     364:	00302000 	eorseq	r2, r0, r0
     368:	9c010000 	stcls	0, cr0, [r1], {-0}
     36c:	0000018e 	andeq	r0, r0, lr, lsl #3
     370:	6e69700a 	cdpvs	0, 6, cr7, cr9, cr10, {0}
     374:	1c4f0100 	stfnee	f0, [pc], {-0}
     378:	0000004f 	andeq	r0, r0, pc, asr #32
     37c:	00749102 	rsbseq	r9, r4, r2, lsl #2
     380:	00033809 	andeq	r3, r3, r9, lsl #16
     384:	06480100 	strbeq	r0, [r8], -r0, lsl #2
     388:	20000370 	andcs	r0, r0, r0, ror r3
     38c:	00000030 	andeq	r0, r0, r0, lsr r0
     390:	01b49c01 			; <UNDEFINED> instruction: 0x01b49c01
     394:	700a0000 	andvc	r0, sl, r0
     398:	01006e69 	tsteq	r0, r9, ror #28
     39c:	004f1b48 	subeq	r1, pc, r8, asr #22
     3a0:	91020000 	mrsls	r0, (UNDEF: 2)
     3a4:	63090074 	movwvs	r0, #36980	; 0x9074
     3a8:	01000002 	tsteq	r0, r2
     3ac:	02f4063b 	rscseq	r0, r4, #61865984	; 0x3b00000
     3b0:	007c2000 	rsbseq	r2, ip, r0
     3b4:	9c010000 	stcls	0, cr0, [r1], {-0}
     3b8:	000001e9 	andeq	r0, r0, r9, ror #3
     3bc:	6e69700a 	cdpvs	0, 6, cr7, cr9, cr10, {0}
     3c0:	1f3b0100 	svcne	0x003b0100
     3c4:	0000004f 	andeq	r0, r0, pc, asr #32
     3c8:	0b6c9102 	bleq	1b247d8 <STACK_SIZE+0x1b220c8>
     3cc:	000002cc 	andeq	r0, r0, ip, asr #5
     3d0:	4f0e4001 	svcmi	0x000e4001
     3d4:	02000000 	andeq	r0, r0, #0, 0
     3d8:	0c007491 	cfstrseq	mvf7, [r0], {145}	; 0x91
     3dc:	0000023d 	andeq	r0, r0, sp, lsr r2
     3e0:	4f0a3401 	svcmi	0x000a3401
     3e4:	c0000000 	andgt	r0, r0, r0
     3e8:	34200002 	strtcc	r0, [r0], #-2
     3ec:	01000000 	mrseq	r0, (UNDEF: 0)
     3f0:	0002139c 	muleq	r2, ip, r3
     3f4:	69700a00 	ldmdbvs	r0!, {r9, fp}^
     3f8:	3401006e 	strcc	r0, [r1], #-110	; 0xffffff92
     3fc:	00004f1d 	andeq	r4, r0, sp, lsl pc
     400:	74910200 	ldrvc	r0, [r1], #512	; 0x200
     404:	022e0900 	eoreq	r0, lr, #0, 18
     408:	2b010000 	blcs	40410 <STACK_SIZE+0x3dd00>
     40c:	00028006 	andeq	r8, r2, r6
     410:	00004020 	andeq	r4, r0, r0, lsr #32
     414:	489c0100 	ldmmi	ip, {r8}
     418:	0a000002 	beq	428 <STACK_SIZE-0x22e8>
     41c:	006e6970 	rsbeq	r6, lr, r0, ror r9
     420:	4f1e2b01 	svcmi	0x001e2b01
     424:	02000000 	andeq	r0, r0, #0, 0
     428:	cc0b6c91 	stcgt	12, cr6, [fp], {145}	; 0x91
     42c:	01000002 	tsteq	r0, r2
     430:	004f0e2f 	subeq	r0, pc, pc, lsr #28
     434:	91020000 	mrsls	r0, (UNDEF: 2)
     438:	17090074 	smlsdxne	r9, r4, r0, r0
     43c:	01000003 	tsteq	r0, r3
     440:	02400612 	subeq	r0, r0, #18874368	; 0x1200000
     444:	00402000 	subeq	r2, r0, r0
     448:	9c010000 	stcls	0, cr0, [r1], {-0}
     44c:	0000028c 	andeq	r0, r0, ip, lsl #5
     450:	6e69700a 	cdpvs	0, 6, cr7, cr9, cr10, {0}
     454:	21120100 	tstcs	r2, r0, lsl #2
     458:	0000004f 	andeq	r0, r0, pc, asr #32
     45c:	0d6c9102 	stfeqp	f1, [ip, #-8]!
     460:	00000320 	andeq	r0, r0, r0, lsr #6
     464:	4f2f1201 	svcmi	0x002f1201
     468:	02000000 	andeq	r0, r0, #0, 0
     46c:	cc0b6891 	stcgt	8, cr6, [fp], {145}	; 0x91
     470:	01000002 	tsteq	r0, r2
     474:	004f0e19 	subeq	r0, pc, r9, lsl lr	; <UNPREDICTABLE>
     478:	91020000 	mrsls	r0, (UNDEF: 2)
     47c:	c10e0074 	tstgt	lr, r4, ror r0
     480:	01000002 	tsteq	r0, r2
     484:	0230060e 	eorseq	r0, r0, #14680064	; 0xe00000
     488:	00102000 	andseq	r2, r0, r0
     48c:	9c010000 	stcls	0, cr0, [r1], {-0}
     490:	0002df0f 	andeq	sp, r2, pc, lsl #30
     494:	06090100 	streq	r0, [r9], -r0, lsl #2
     498:	200001e8 	andcs	r0, r0, r8, ror #3
     49c:	00000048 	andeq	r0, r0, r8, asr #32
     4a0:	6c0a9c01 	stcvs	12, cr9, [sl], {1}
     4a4:	0100636f 	tsteq	r0, pc, ror #6
     4a8:	004f1c09 	subeq	r1, pc, r9, lsl #24
     4ac:	91020000 	mrsls	r0, (UNDEF: 2)
     4b0:	97000074 	smlsdxls	r0, r4, r0, r0
     4b4:	04000001 	streq	r0, [r0], #-1
     4b8:	00022300 	andeq	r2, r2, r0, lsl #6
     4bc:	52010400 	andpl	r0, r1, #0, 8
     4c0:	0c000000 	stceq	0, cr0, [r0], {-0}
     4c4:	00000380 	andeq	r0, r0, r0, lsl #7
     4c8:	00000008 	andeq	r0, r0, r8
     4cc:	200003d0 	ldrdcs	r0, [r0], -r0	; <UNPREDICTABLE>
     4d0:	00000190 	muleq	r0, r0, r1
     4d4:	000002f8 	strdeq	r0, [r0], -r8
     4d8:	6a060102 	bvs	1808e8 <STACK_SIZE+0x17e1d8>
     4dc:	02000001 	andeq	r0, r0, #1, 0
     4e0:	00e70502 	rsceq	r0, r7, r2, lsl #10
     4e4:	04020000 	streq	r0, [r2], #-0
     4e8:	00013805 	andeq	r3, r1, r5, lsl #16
     4ec:	05080200 	streq	r0, [r8, #-512]	; 0xfffffe00
     4f0:	00000133 	andeq	r0, r0, r3, lsr r1
     4f4:	68080102 	stmdavs	r8, {r1, r8}
     4f8:	02000001 	andeq	r0, r0, #1, 0
     4fc:	01c90702 	biceq	r0, r9, r2, lsl #14
     500:	a8030000 	stmdage	r3, {}	; <UNPREDICTABLE>
     504:	03000001 	movweq	r0, #1
     508:	005b1934 	subseq	r1, fp, r4, lsr r9
     50c:	04020000 	streq	r0, [r2], #-0
     510:	00019607 	andeq	r9, r1, r7, lsl #12
     514:	07080200 	streq	r0, [r8, -r0, lsl #4]
     518:	00000191 	muleq	r0, r1, r1
     51c:	69050404 	stmdbvs	r5, {r2, sl}
     520:	0200746e 	andeq	r7, r0, #1845493760	; 0x6e000000
     524:	019b0704 	orrseq	r0, fp, r4, lsl #14
     528:	07050000 	streq	r0, [r5, -r0]
     52c:	00007004 	andeq	r7, r0, r4
     530:	06130200 	ldreq	r0, [r3], -r0, lsl #4
     534:	000000b3 	strheq	r0, [r0], -r3
     538:	0003d406 	andeq	sp, r3, r6, lsl #8
     53c:	02400000 	subeq	r0, r0, #0, 0
     540:	03740640 	cmneq	r4, #64, 12	; 0x4000000
     544:	40040000 	andmi	r0, r4, r0
     548:	44064002 	strmi	r4, [r6], #-2
     54c:	08000003 	stmdaeq	r0, {r0, r1}
     550:	06400240 	strbeq	r0, [r0], -r0, asr #4
     554:	00000357 	andeq	r0, r0, r7, asr r3
     558:	4002400c 	andmi	r4, r2, ip
     55c:	00039e06 	andeq	r9, r3, r6, lsl #28
     560:	02401c00 	subeq	r1, r0, #0, 24
     564:	07050040 	streq	r0, [r5, -r0, asr #32]
     568:	00007004 	andeq	r7, r0, r4
     56c:	061e0200 	ldreq	r0, [lr], -r0, lsl #4
     570:	000000cb 	andeq	r0, r0, fp, asr #1
     574:	00012506 	andeq	r2, r1, r6, lsl #10
     578:	00804800 	addeq	r4, r0, r0, lsl #16
     57c:	64070040 	strvs	r0, [r7], #-64	; 0xffffffc0
     580:	01000003 	tsteq	r0, r3
     584:	05280643 	streq	r0, [r8, #-1603]!	; 0xfffff9bd
     588:	00382000 	eorseq	r2, r8, r0
     58c:	9c010000 	stcls	0, cr0, [r1], {-0}
     590:	000000f1 	strdeq	r0, [r0], -r1
     594:	00038e08 	andeq	r8, r3, r8, lsl #28
     598:	1f430100 	svcne	0x00430100
     59c:	0000004f 	andeq	r0, r0, pc, asr #32
     5a0:	00749102 	rsbseq	r9, r4, r2, lsl #2
     5a4:	0003a907 	andeq	sl, r3, r7, lsl #18
     5a8:	063a0100 	ldrteq	r0, [sl], -r0, lsl #2
     5ac:	200004e0 	andcs	r0, r0, r0, ror #9
     5b0:	00000048 	andeq	r0, r0, r8, asr #32
     5b4:	01179c01 	tsteq	r7, r1, lsl #24
     5b8:	51080000 	mrspl	r0, (UNDEF: 8)
     5bc:	01000003 	tsteq	r0, r3
     5c0:	004f233a 	subeq	r2, pc, sl, lsr r3	; <UNPREDICTABLE>
     5c4:	91020000 	mrsls	r0, (UNDEF: 2)
     5c8:	95070074 	strls	r0, [r7, #-116]	; 0xffffff8c
     5cc:	01000003 	tsteq	r0, r3
     5d0:	04880631 	streq	r0, [r8], #1585	; 0x631
     5d4:	00582000 	subseq	r2, r8, r0
     5d8:	9c010000 	stcls	0, cr0, [r1], {-0}
     5dc:	00000162 	andeq	r0, r0, r2, ror #2
     5e0:	00737509 	rsbseq	r7, r3, r9, lsl #10
     5e4:	4f183101 	svcmi	0x00183101
     5e8:	02000000 	andeq	r0, r0, #0, 0
     5ec:	ca0a6c91 	bgt	29b838 <STACK_SIZE+0x299128>
     5f0:	01000003 	tsteq	r0, r3
     5f4:	004f0e32 	subeq	r0, pc, r2, lsr lr	; <UNPREDICTABLE>
     5f8:	91020000 	mrsls	r0, (UNDEF: 2)
     5fc:	049e0b70 	ldreq	r0, [lr], #2928	; 0xb70
     600:	00302000 	eorseq	r2, r0, r0
     604:	690c0000 	stmdbvs	ip, {}	; <UNPREDICTABLE>
     608:	0e330100 	rsfeqs	f0, f3, f0
     60c:	00000069 	andeq	r0, r0, r9, rrx
     610:	00749102 	rsbseq	r9, r4, r2, lsl #2
     614:	03bd0d00 			; <UNDEFINED> instruction: 0x03bd0d00
     618:	16010000 	strne	r0, [r1], -r0
     61c:	00042c06 	andeq	r2, r4, r6, lsl #24
     620:	00005c20 	andeq	r5, r0, r0, lsr #24
     624:	889c0100 	ldmhi	ip, {r8}
     628:	0a000001 	beq	634 <STACK_SIZE-0x20dc>
     62c:	00000388 	andeq	r0, r0, r8, lsl #7
     630:	4f0e1801 	svcmi	0x000e1801
     634:	02000000 	andeq	r0, r0, #0, 0
     638:	0e007491 	mcreq	4, 0, r7, cr0, cr1, {4}
     63c:	000003af 	andeq	r0, r0, pc, lsr #7
     640:	d0060b01 	andle	r0, r6, r1, lsl #22
     644:	5c200003 	stcpl	0, cr0, [r0], #-12
     648:	01000000 	mrseq	r0, (UNDEF: 0)
     64c:	01c4009c 			; <UNDEFINED> instruction: 0x01c4009c
     650:	00040000 	andeq	r0, r4, r0
     654:	00000313 	andeq	r0, r0, r3, lsl r3
     658:	00520104 	subseq	r0, r2, r4, lsl #2
     65c:	1c0c0000 	stcne	0, cr0, [ip], {-0}
     660:	08000004 	stmdaeq	r0, {r2}
     664:	60000000 	andvs	r0, r0, r0
     668:	10200005 	eorne	r0, r0, r5
     66c:	4a000001 	bmi	678 <STACK_SIZE-0x2098>
     670:	02000004 	andeq	r0, r0, #4, 0
     674:	016a0601 	cmneq	sl, r1, lsl #12
     678:	02020000 	andeq	r0, r2, #0, 0
     67c:	0000e705 	andeq	lr, r0, r5, lsl #14
     680:	05040200 	streq	r0, [r4, #-512]	; 0xfffffe00
     684:	00000138 	andeq	r0, r0, r8, lsr r1
     688:	33050802 	movwcc	r0, #22530	; 0x5802
     68c:	02000001 	andeq	r0, r0, #1, 0
     690:	01680801 	cmneq	r8, r1, lsl #16
     694:	02020000 	andeq	r0, r2, #0, 0
     698:	0001c907 	andeq	ip, r1, r7, lsl #18
     69c:	07040200 	streq	r0, [r4, -r0, lsl #4]
     6a0:	00000196 	muleq	r0, r6, r1
     6a4:	91070802 	tstls	r7, r2, lsl #16
     6a8:	03000001 	movweq	r0, #1
     6ac:	6e690504 	cdpvs	5, 6, cr0, cr9, cr4, {0}
     6b0:	04020074 	streq	r0, [r2], #-116	; 0xffffff8c
     6b4:	00019b07 	andeq	r9, r1, r7, lsl #22
     6b8:	02100400 	andseq	r0, r0, #0, 8
     6bc:	00a7090c 	adceq	r0, r7, ip, lsl #18
     6c0:	74050000 	strvc	r0, [r5], #-0
     6c4:	0d020078 	stceq	0, cr0, [r2, #-480]	; 0xfffffe20
     6c8:	00005d09 	andeq	r5, r0, r9, lsl #26
     6cc:	72050000 	andvc	r0, r5, #0, 0
     6d0:	0d020078 	stceq	0, cr0, [r2, #-480]	; 0xfffffe20
     6d4:	00005d0c 	andeq	r5, r0, ip, lsl #26
     6d8:	63060400 	movwvs	r0, #25600	; 0x6400
     6dc:	02000001 	andeq	r0, r0, #1, 0
     6e0:	00640e0e 	rsbeq	r0, r4, lr, lsl #28
     6e4:	06080000 	streq	r0, [r8], -r0
     6e8:	0000010e 	andeq	r0, r0, lr, lsl #2
     6ec:	640e0f02 	strvs	r0, [lr], #-3842	; 0xfffff0fe
     6f0:	0c000000 	stceq	0, cr0, [r0], {-0}
     6f4:	01dc0700 	bicseq	r0, ip, r0, lsl #14
     6f8:	10020000 	andne	r0, r2, r0
     6fc:	00006b03 	andeq	r6, r0, r3, lsl #22
     700:	01410800 	cmpeq	r1, r0, lsl #16
     704:	12020000 	andne	r0, r2, #0, 0
     708:	0000a70b 	andeq	sl, r0, fp, lsl #14
     70c:	10030500 	andne	r0, r3, r0, lsl #10
     710:	092000f0 	stmdbeq	r0!, {r4, r5, r6, r7}
     714:	000003fc 	strdeq	r0, [r0], -ip
     718:	5d051b01 	vstrpl	d1, [r5, #-4]
     71c:	38000000 	stmdacc	r0, {}	; <UNPREDICTABLE>
     720:	38200006 	stmdacc	r0!, {r1, r2}
     724:	01000000 	mrseq	r0, (UNDEF: 0)
     728:	040f0a9c 	streq	r0, [pc], #-2716	; 730 <STACK_SIZE-0x1fe0>
     72c:	15010000 	strne	r0, [r1, #-0]
     730:	0005fa06 	andeq	pc, r5, r6, lsl #20
     734:	00003e20 	andeq	r3, r0, r0, lsr #28
     738:	279c0100 	ldrcs	r0, [ip, r0, lsl #2]
     73c:	0b000001 	bleq	748 <STACK_SIZE-0x1fc8>
     740:	00000148 	andeq	r0, r0, r8, asr #2
     744:	271e1501 	ldrcs	r1, [lr, -r1, lsl #10]
     748:	02000001 	andeq	r0, r0, #1, 0
     74c:	6d0c6c91 	stcvs	12, cr6, [ip, #-580]	; 0xfffffdbc
     750:	01006773 	tsteq	r0, r3, ror r7
     754:	012d3015 			; <UNDEFINED> instruction: 0x012d3015
     758:	91020000 	mrsls	r0, (UNDEF: 2)
     75c:	06040d68 	streq	r0, [r4], -r8, ror #26
     760:	002a2000 	eoreq	r2, sl, r0
     764:	690e0000 	stmdbvs	lr, {}	; <UNPREDICTABLE>
     768:	0d160100 	ldfeqs	f0, [r6, #-0]
     76c:	0000005d 	andeq	r0, r0, sp, asr r0
     770:	00749102 	rsbseq	r9, r4, r2, lsl #2
     774:	a7040f00 	strge	r0, [r4, -r0, lsl #30]
     778:	0f000000 	svceq	0x00000000
     77c:	00013a04 	andeq	r3, r1, r4, lsl #20
     780:	08010200 	stmdaeq	r1, {r9}
     784:	00000171 	andeq	r0, r0, r1, ror r1
     788:	00013310 	andeq	r3, r1, r0, lsl r3
     78c:	03ef0a00 	mvneq	r0, #0, 20
     790:	0b010000 	bleq	40798 <STACK_SIZE+0x3e088>
     794:	00059406 	andeq	r9, r5, r6, lsl #8
     798:	00006620 	andeq	r6, r0, r0, lsr #12
     79c:	899c0100 	ldmibhi	ip, {r8}
     7a0:	0b000001 	bleq	7ac <STACK_SIZE-0x1f64>
     7a4:	00000148 	andeq	r0, r0, r8, asr #2
     7a8:	271e0b01 	ldrcs	r0, [lr, -r1, lsl #22]
     7ac:	02000001 	andeq	r0, r0, #1, 0
     7b0:	630c6c91 	movwvs	r6, #52369	; 0xcc91
     7b4:	320b0100 	andcc	r0, fp, #0
     7b8:	00000041 	andeq	r0, r0, r1, asr #32
     7bc:	0d6b9102 	stfeqp	f1, [fp, #-8]!
     7c0:	200005b2 			; <UNDEFINED> instruction: 0x200005b2
     7c4:	00000030 	andeq	r0, r0, r0, lsr r0
     7c8:	0100690e 	tsteq	r0, lr, lsl #18
     7cc:	005d0e0e 	subseq	r0, sp, lr, lsl #28
     7d0:	91020000 	mrsls	r0, (UNDEF: 2)
     7d4:	11000074 	tstne	r0, r4, ror r0
     7d8:	000003e3 	andeq	r0, r0, r3, ror #7
     7dc:	60140501 	andsvs	r0, r4, r1, lsl #10
     7e0:	34200005 	strtcc	r0, [r0], #-5
     7e4:	01000000 	mrseq	r0, (UNDEF: 0)
     7e8:	69700c9c 	ldmdbvs	r0!, {r2, r3, r4, r7, sl, fp}^
     7ec:	0501006e 	streq	r0, [r1, #-110]	; 0xffffff92
     7f0:	00005d24 	andeq	r5, r0, r4, lsr #26
     7f4:	74910200 	ldrvc	r0, [r1], #512	; 0x200
     7f8:	0100760c 	tsteq	r0, ip, lsl #12
     7fc:	005d2d05 	subseq	r2, sp, r5, lsl #26
     800:	91020000 	mrsls	r0, (UNDEF: 2)
     804:	03de0b70 	bicseq	r0, lr, #112, 22	; 0x1c000
     808:	05010000 	streq	r0, [r1, #-0]
     80c:	00006439 	andeq	r6, r0, r9, lsr r4
     810:	6c910200 	lfmvs	f0, 4, [r1], {0}
     814:	0bdd0000 	bleq	ff74081c <__bss_end__+0xdf7317fc>
     818:	00040000 	andeq	r0, r4, r0
     81c:	0000042a 	andeq	r0, r0, sl, lsr #8
     820:	00520104 	subseq	r0, r2, r4, lsl #2
     824:	510c0000 	mrspl	r0, (UNDEF: 12)
     828:	08000005 	stmdaeq	r0, {r0, r2}
     82c:	70000000 	andvc	r0, r0, r0
     830:	44200006 	strtmi	r0, [r0], #-6
     834:	1600000d 	strne	r0, [r0], -sp
     838:	02000005 	andeq	r0, r0, #5, 0
     83c:	016a0601 	cmneq	sl, r1, lsl #12
     840:	02020000 	andeq	r0, r2, #0, 0
     844:	0000e705 	andeq	lr, r0, r5, lsl #14
     848:	01a90300 			; <UNDEFINED> instruction: 0x01a90300
     84c:	28030000 	stmdacs	r3, {}	; <UNPREDICTABLE>
     850:	00003f18 	andeq	r3, r0, r8, lsl pc
     854:	05040200 	streq	r0, [r4, #-512]	; 0xfffffe00
     858:	00000138 	andeq	r0, r0, r8, lsr r1
     85c:	00003f04 	andeq	r3, r0, r4, lsl #30
     860:	05080200 	streq	r0, [r8, #-512]	; 0xfffffe00
     864:	00000133 	andeq	r0, r0, r3, lsr r1
     868:	68080102 	stmdavs	r8, {r1, r8}
     86c:	02000001 	andeq	r0, r0, #1, 0
     870:	01c90702 	biceq	r0, r9, r2, lsl #14
     874:	a8030000 	stmdage	r3, {}	; <UNPREDICTABLE>
     878:	03000001 	movweq	r0, #1
     87c:	006c1934 	rsbeq	r1, ip, r4, lsr r9
     880:	04020000 	streq	r0, [r2], #-0
     884:	00019607 	andeq	r9, r1, r7, lsl #12
     888:	04460300 	strbeq	r0, [r6], #-768	; 0xfffffd00
     88c:	37030000 	strcc	r0, [r3, -r0]
     890:	00007f19 	andeq	r7, r0, r9, lsl pc
     894:	07080200 	streq	r0, [r8, -r0, lsl #4]
     898:	00000191 	muleq	r0, r1, r1
     89c:	69050405 	stmdbvs	r5, {r0, r2, sl}
     8a0:	0400746e 	streq	r7, [r0], #-1134	; 0xfffffb92
     8a4:	00000086 	andeq	r0, r0, r6, lsl #1
     8a8:	9b070402 	blls	1c18b8 <STACK_SIZE+0x1bf1a8>
     8ac:	04000001 	streq	r0, [r0], #-1
     8b0:	00000092 	muleq	r0, r2, r0
     8b4:	00047c03 	andeq	r7, r4, r3, lsl #24
     8b8:	1a560300 	bne	15814c0 <STACK_SIZE+0x157edb0>
     8bc:	00000092 	muleq	r0, r2, r0
     8c0:	12041006 	andne	r1, r4, #6, 0
     8c4:	0000e609 	andeq	lr, r0, r9, lsl #12
     8c8:	78740700 	ldmdavc	r4!, {r8, r9, sl}^
     8cc:	0e130400 	cfmulseq	mvf0, mvf3, mvf0
     8d0:	00000060 	andeq	r0, r0, r0, rrx
     8d4:	78720700 	ldmdavc	r2!, {r8, r9, sl}^
     8d8:	11130400 	tstne	r3, r0, lsl #8
     8dc:	00000060 	andeq	r0, r0, r0, rrx
     8e0:	011b0804 	tsteq	fp, r4, lsl #16
     8e4:	14040000 	strne	r0, [r4], #-0
     8e8:	0000600e 	andeq	r6, r0, lr
     8ec:	e1080800 	tst	r8, r0, lsl #16
     8f0:	04000000 	streq	r0, [r0], #-0
     8f4:	00600e15 	rsbeq	r0, r0, r5, lsl lr
     8f8:	000c0000 	andeq	r0, ip, r0
     8fc:	00014d03 	andeq	r4, r1, r3, lsl #26
     900:	03160400 	tsteq	r6, #0, 8
     904:	000000aa 	andeq	r0, r0, sl, lsr #1
     908:	0001ba09 	andeq	fp, r1, r9, lsl #20
     90c:	0b180400 	bleq	601914 <STACK_SIZE+0x5ff204>
     910:	000000e6 	andeq	r0, r0, r6, ror #1
     914:	f0000305 			; <UNDEFINED> instruction: 0xf0000305
     918:	7a032000 	bvc	c8920 <STACK_SIZE+0xc6210>
     91c:	05000005 	streq	r0, [r0, #-5]
     920:	01101b28 	tsteq	r0, r8, lsr #22
     924:	a90a0000 	stmdbge	sl, {}	; <UNPREDICTABLE>
     928:	04000004 	streq	r0, [r0], #-4
     92c:	01270007 			; <UNDEFINED> instruction: 0x01270007
     930:	fd0b0000 	stc2	0, cr0, [fp, #-0]
     934:	27000004 	strcs	r0, [r0, -r4]
     938:	00000001 	andeq	r0, r0, r1
     93c:	03040c00 	movweq	r0, #19456	; 0x4c00
     940:	000004ab 	andeq	r0, r0, fp, lsr #9
     944:	04186305 	ldreq	r6, [r8], #-773	; 0xfffffcfb
     948:	03000001 	movweq	r0, #1
     94c:	0000044f 	andeq	r0, r0, pc, asr #8
     950:	9217d106 	andsls	sp, r7, #-2147483647	; 0x80000001
     954:	04000000 	streq	r0, [r0], #-0
     958:	00000135 	andeq	r0, r0, r5, lsr r1
     95c:	57040802 	strpl	r0, [r4, -r2, lsl #16]
     960:	03000001 	movweq	r0, #1
     964:	000004df 	ldrdeq	r0, [r0], -pc	; <UNPREDICTABLE>
     968:	59108902 	ldmdbpl	r0, {r1, r8, fp, pc}
     96c:	0d000001 	stceq	0, cr0, [r0, #-4]
     970:	00015f04 	andeq	r5, r1, r4, lsl #30
     974:	01790e00 	cmneq	r9, r0, lsl #28
     978:	790f0000 	stmdbvc	pc, {}	; <UNPREDICTABLE>
     97c:	0f000001 	svceq	0x00000001
     980:	00000127 	andeq	r0, r0, r7, lsr #2
     984:	0001350f 	andeq	r3, r1, pc, lsl #10
     988:	01350f00 	teqeq	r5, r0, lsl #30
     98c:	02000000 	andeq	r0, r0, #0, 0
     990:	01710801 	cmneq	r1, r1, lsl #16
     994:	79040000 	stmdbvc	r4, {}	; <UNPREDICTABLE>
     998:	06000001 	streq	r0, [r0], -r1
     99c:	098d0208 	stmibeq	sp, {r3, r9}
     9a0:	000001a9 	andeq	r0, r0, r9, lsr #3
     9a4:	74636607 	strbtvc	r6, [r3], #-1543	; 0xfffff9f9
     9a8:	0b8e0200 	bleq	fe3811b0 <__bss_end__+0xde372190>
     9ac:	000001b9 			; <UNDEFINED> instruction: 0x000001b9
     9b0:	72610700 	rsbvc	r0, r1, #0, 14
     9b4:	8f020067 	svchi	0x00020067
     9b8:	00012709 	andeq	r2, r1, r9, lsl #14
     9bc:	0e000400 	cfcpyseq	mvf0, mvf0
     9c0:	000001b9 			; <UNDEFINED> instruction: 0x000001b9
     9c4:	0001790f 	andeq	r7, r1, pc, lsl #18
     9c8:	01270f00 			; <UNDEFINED> instruction: 0x01270f00
     9cc:	0d000000 	stceq	0, cr0, [r0, #-0]
     9d0:	0001a904 	andeq	sl, r1, r4, lsl #18
     9d4:	05630300 	strbeq	r0, [r3, #-768]!	; 0xfffffd00
     9d8:	90020000 	andls	r0, r2, r0
     9dc:	00018503 	andeq	r8, r1, r3, lsl #10
     9e0:	01bf0400 			; <UNDEFINED> instruction: 0x01bf0400
     9e4:	96100000 	ldrls	r0, [r0], -r0
     9e8:	02000004 	andeq	r0, r0, #4, 0
     9ec:	86050399 			; <UNDEFINED> instruction: 0x86050399
     9f0:	68000000 	stmdavs	r0, {}	; <UNPREDICTABLE>
     9f4:	4c200013 	stcmi	0, cr0, [r0], #-76	; 0xffffffb4
     9f8:	01000000 	mrseq	r0, (UNDEF: 0)
     9fc:	00024c9c 	muleq	r2, ip, ip
     a00:	756f1100 	strbvc	r1, [pc, #-256]!	; 908 <STACK_SIZE-0x1e08>
     a04:	99020074 	stmdbls	r2, {r2, r4, r5, r6}
     a08:	01b91603 			; <UNDEFINED> instruction: 0x01b91603
     a0c:	91020000 	mrsls	r0, (UNDEF: 2)
     a10:	72611154 	rsbvc	r1, r1, #21
     a14:	99020067 	stmdbls	r2, {r0, r1, r2, r5, r6}
     a18:	01273d03 			; <UNDEFINED> instruction: 0x01273d03
     a1c:	91020000 	mrsls	r0, (UNDEF: 2)
     a20:	04be1250 	ldrteq	r1, [lr], #592	; 0x250
     a24:	99020000 	stmdbls	r2, {}	; <UNPREDICTABLE>
     a28:	024c4e03 	subeq	r4, ip, #3, 28	; 0x30
     a2c:	91020000 	mrsls	r0, (UNDEF: 2)
     a30:	76141378 			; <UNDEFINED> instruction: 0x76141378
     a34:	9b020061 	blls	80bc0 <STACK_SIZE+0x7e4b0>
     a38:	01290b03 			; <UNDEFINED> instruction: 0x01290b03
     a3c:	91020000 	mrsls	r0, (UNDEF: 2)
     a40:	042d1560 	strteq	r1, [sp], #-1376	; 0xfffffaa0
     a44:	9d020000 	stcls	0, cr0, [r2, #-0]
     a48:	01cb1b03 	biceq	r1, fp, r3, lsl #22
     a4c:	91020000 	mrsls	r0, (UNDEF: 2)
     a50:	65721458 	ldrbvs	r1, [r2, #-1112]!	; 0xfffffba8
     a54:	9e020074 	mcrls	0, 0, r0, cr2, cr4, {3}
     a58:	008d0d03 	addeq	r0, sp, r3, lsl #26
     a5c:	91020000 	mrsls	r0, (UNDEF: 2)
     a60:	040d0064 	streq	r0, [sp], #-100	; 0xffffff9c
     a64:	00000180 	andeq	r0, r0, r0, lsl #3
     a68:	00050210 	andeq	r0, r5, r0, lsl r2
     a6c:	03930200 	orrseq	r0, r3, #0, 4
     a70:	00008605 	andeq	r8, r0, r5, lsl #12
     a74:	00133800 	andseq	r3, r3, r0, lsl #16
     a78:	00003020 	andeq	r3, r0, r0, lsr #32
     a7c:	ad9c0100 	ldfges	f0, [ip]
     a80:	12000002 	andne	r0, r0, #2, 0
     a84:	0000043f 	andeq	r0, r0, pc, lsr r4
     a88:	16039302 	strne	r9, [r3], -r2, lsl #6
     a8c:	000002ad 	andeq	r0, r0, sp, lsr #5
     a90:	126c9102 	rsbne	r9, ip, #-2147483648	; 0x80000000
     a94:	00000351 	andeq	r0, r0, r1, asr r3
     a98:	25039302 	strcs	r9, [r3, #-770]	; 0xfffffcfe
     a9c:	00000135 	andeq	r0, r0, r5, lsr r1
     aa0:	12689102 	rsbne	r9, r8, #-2147483648	; 0x80000000
     aa4:	000004be 			; <UNDEFINED> instruction: 0x000004be
     aa8:	38039302 	stmdacc	r3, {r1, r8, r9, ip, pc}
     aac:	0000024c 	andeq	r0, r0, ip, asr #4
     ab0:	11649102 	cmnne	r4, r2, lsl #2
     ab4:	02006176 	andeq	r6, r0, #-2147483619	; 0x8000001d
     ab8:	29480393 	stmdbcs	r8, {r0, r1, r4, r7, r8, r9}^
     abc:	02000001 	andeq	r0, r0, #1, 0
     ac0:	0d006091 	stceq	0, cr6, [r0, #-580]	; 0xfffffdbc
     ac4:	00017904 	andeq	r7, r1, r4, lsl #18
     ac8:	05a31000 	streq	r1, [r3, #0]!
     acc:	8c020000 	stchi	0, cr0, [r2], {-0}
     ad0:	00860503 	addeq	r0, r6, r3, lsl #10
     ad4:	13080000 	movwne	r0, #32768	; 0x8000
     ad8:	00302000 	eorseq	r2, r0, r0
     adc:	9c010000 	stcls	0, cr0, [r1], {-0}
     ae0:	000002fe 	strdeq	r0, [r0], -lr
     ae4:	0004be12 	andeq	fp, r4, r2, lsl lr
     ae8:	038c0200 	orreq	r0, ip, #0, 4
     aec:	00024c1a 	andeq	r4, r2, sl, lsl ip
     af0:	64910200 	ldrvs	r0, [r1], #512	; 0x200
     af4:	00617611 	rsbeq	r7, r1, r1, lsl r6
     af8:	2a038c02 	bcs	e3b08 <STACK_SIZE+0xe13f8>
     afc:	00000129 	andeq	r0, r0, r9, lsr #2
     b00:	15609102 	strbne	r9, [r0, #-258]!	; 0xfffffefe
     b04:	0000043f 	andeq	r0, r0, pc, lsr r4
     b08:	08038e02 	stmdaeq	r3, {r1, r9, sl, fp, pc}
     b0c:	000002fe 	strdeq	r0, [r0], -lr
     b10:	006c9102 	rsbeq	r9, ip, r2, lsl #2
     b14:	00017916 	andeq	r7, r1, r6, lsl r9
     b18:	00030e00 	andeq	r0, r3, r0, lsl #28
     b1c:	00921700 	addseq	r1, r2, r0, lsl #14
     b20:	00000000 	andeq	r0, r0, r0
     b24:	00050310 	andeq	r0, r5, r0, lsl r3
     b28:	03820200 	orreq	r0, r2, #0, 4
     b2c:	00008605 	andeq	r8, r0, r5, lsl #12
     b30:	0012cc00 	andseq	ip, r2, r0, lsl #24
     b34:	00003c20 	andeq	r3, r0, r0, lsr #24
     b38:	7a9c0100 	bvc	fe700f40 <__bss_end__+0xde6f1f20>
     b3c:	12000003 	andne	r0, r0, #3, 0
     b40:	0000043f 	andeq	r0, r0, pc, lsr r4
     b44:	15038202 	strne	r8, [r3, #-514]	; 0xfffffdfe
     b48:	000002ad 	andeq	r0, r0, sp, lsr #5
     b4c:	125c9102 	subsne	r9, ip, #-2147483648	; 0x80000000
     b50:	00000351 	andeq	r0, r0, r1, asr r3
     b54:	24038202 	strcs	r8, [r3], #-514	; 0xfffffdfe
     b58:	00000135 	andeq	r0, r0, r5, lsr r1
     b5c:	12589102 	subsne	r9, r8, #-2147483648	; 0x80000000
     b60:	000004be 			; <UNDEFINED> instruction: 0x000004be
     b64:	37038202 	strcc	r8, [r3, -r2, lsl #4]
     b68:	0000024c 	andeq	r0, r0, ip, asr #4
     b6c:	13789102 	cmnne	r8, #-2147483648	; 0x80000000
     b70:	00617614 	rsbeq	r7, r1, r4, lsl r6
     b74:	0b038402 	bleq	e1b84 <STACK_SIZE+0xdf474>
     b78:	00000129 	andeq	r0, r0, r9, lsr #2
     b7c:	14609102 	strbtne	r9, [r0], #-258	; 0xfffffefe
     b80:	00746572 	rsbseq	r6, r4, r2, ror r5
     b84:	0d038602 	stceq	6, cr8, [r3, #-8]
     b88:	0000008d 	andeq	r0, r0, sp, lsl #1
     b8c:	00649102 	rsbeq	r9, r4, r2, lsl #2
     b90:	00052b10 	andeq	r2, r5, r0, lsl fp
     b94:	03780200 	cmneq	r8, #0, 4
     b98:	00008605 	andeq	r8, r0, r5, lsl #12
     b9c:	00129000 	andseq	r9, r2, r0
     ba0:	00003c20 	andeq	r3, r0, r0, lsr #24
     ba4:	d69c0100 	ldrle	r0, [ip], r0, lsl #2
     ba8:	12000003 	andne	r0, r0, #3, 0
     bac:	0000043f 	andeq	r0, r0, pc, lsr r4
     bb0:	14037802 	strne	r7, [r3], #-2050	; 0xfffff7fe
     bb4:	000002ad 	andeq	r0, r0, sp, lsr #5
     bb8:	125c9102 	subsne	r9, ip, #-2147483648	; 0x80000000
     bbc:	000004be 			; <UNDEFINED> instruction: 0x000004be
     bc0:	28037802 	stmdacs	r3, {r1, fp, ip, sp, lr}
     bc4:	0000024c 	andeq	r0, r0, ip, asr #4
     bc8:	13749102 	cmnne	r4, #-2147483648	; 0x80000000
     bcc:	00617614 	rsbeq	r7, r1, r4, lsl r6
     bd0:	0b037a02 	bleq	df3e0 <STACK_SIZE+0xdccd0>
     bd4:	00000129 	andeq	r0, r0, r9, lsr #2
     bd8:	14609102 	strbtne	r9, [r0], #-258	; 0xfffffefe
     bdc:	00746572 	rsbseq	r6, r4, r2, ror r5
     be0:	0d037c02 	stceq	12, cr7, [r3, #-8]
     be4:	0000008d 	andeq	r0, r0, sp, lsl #1
     be8:	00649102 	rsbeq	r9, r4, r2, lsl #2
     bec:	00050510 	andeq	r0, r5, r0, lsl r5
     bf0:	036d0200 	cmneq	sp, #0, 4
     bf4:	00008605 	andeq	r8, r0, r5, lsl #12
     bf8:	00125600 	andseq	r5, r2, r0, lsl #12
     bfc:	00003a20 	andeq	r3, r0, r0, lsr #20
     c00:	329c0100 	addscc	r0, ip, #0
     c04:	12000004 	andne	r0, r0, #4, 0
     c08:	000004be 			; <UNDEFINED> instruction: 0x000004be
     c0c:	19036d02 	stmdbne	r3, {r1, r8, sl, fp, sp, lr}
     c10:	0000024c 	andeq	r0, r0, ip, asr #4
     c14:	13709102 	cmnne	r0, #-2147483648	; 0x80000000
     c18:	00617614 	rsbeq	r7, r1, r4, lsl r6
     c1c:	0b036f02 	bleq	dc82c <STACK_SIZE+0xda11c>
     c20:	00000129 	andeq	r0, r0, r9, lsr #2
     c24:	15589102 	ldrbne	r9, [r8, #-258]	; 0xfffffefe
     c28:	0000043f 	andeq	r0, r0, pc, lsr r4
     c2c:	08037102 	stmdaeq	r3, {r1, r8, ip, sp, lr}
     c30:	000002fe 	strdeq	r0, [r0], -lr
     c34:	14549102 	ldrbne	r9, [r4], #-258	; 0xfffffefe
     c38:	00746572 	rsbseq	r6, r4, r2, ror r5
     c3c:	0d037202 	sfmeq	f7, 4, [r3, #-8]
     c40:	0000008d 	andeq	r0, r0, sp, lsl #1
     c44:	005c9102 	subseq	r9, ip, r2, lsl #2
     c48:	0004c518 	andeq	ip, r4, r8, lsl r5
     c4c:	02500200 	subseq	r0, r0, #0, 4
     c50:	0000860c 	andeq	r8, r0, ip, lsl #12
     c54:	000c4a00 	andeq	r4, ip, r0, lsl #20
     c58:	00060c20 	andeq	r0, r6, r0, lsr #24
     c5c:	e39c0100 	orrs	r0, ip, #0
     c60:	11000005 	tstne	r0, r5
     c64:	0074756f 	rsbseq	r7, r4, pc, ror #10
     c68:	24025002 	strcs	r5, [r2], #-2
     c6c:	0000014d 	andeq	r0, r0, sp, asr #2
     c70:	7fac9103 	svcvc	0x00ac9103
     c74:	00043f12 	andeq	r3, r4, r2, lsl pc
     c78:	02500200 	subseq	r0, r0, #0, 4
     c7c:	0002ad2f 	andeq	sl, r2, pc, lsr #26
     c80:	a8910300 	ldmge	r1, {r8, r9}
     c84:	050d127f 	streq	r1, [sp, #-639]	; 0xfffffd81
     c88:	50020000 	andpl	r0, r2, r0
     c8c:	01414402 	cmpeq	r1, r2, lsl #8
     c90:	91030000 	mrsls	r0, (UNDEF: 3)
     c94:	be127fa4 	cdplt	15, 1, cr7, cr2, cr4, {5}
     c98:	02000004 	andeq	r0, r0, #4, 0
     c9c:	4c580250 	lfmmi	f0, 2, [r8], {80}	; 0x50
     ca0:	03000002 	movweq	r0, #2
     ca4:	117fa091 			; <UNDEFINED> instruction: 0x117fa091
     ca8:	02006176 	andeq	r6, r0, #-2147483619	; 0x8000001d
     cac:	29680250 	stmdbcs	r8!, {r4, r6, r9}^
     cb0:	02000001 	andeq	r0, r0, #1, 0
     cb4:	f7150091 			; <UNDEFINED> instruction: 0xf7150091
     cb8:	02000004 	andeq	r0, r0, #4, 0
     cbc:	92100252 	andsls	r0, r0, #536870917	; 0x20000005
     cc0:	02000000 	andeq	r0, r0, #0, 0
     cc4:	90156491 	mulsls	r5, r1, r4
     cc8:	02000004 	andeq	r0, r0, #4, 0
     ccc:	92170252 	andsls	r0, r7, #536870917	; 0x20000005
     cd0:	02000000 	andeq	r0, r0, #0, 0
     cd4:	99156091 	ldmdbls	r5, {r0, r4, r7, sp, lr}
     cd8:	02000005 	andeq	r0, r0, #5, 0
     cdc:	921e0252 	andsls	r0, lr, #536870917	; 0x20000005
     ce0:	02000000 	andeq	r0, r0, #0, 0
     ce4:	6e145c91 	mrcvs	12, 0, r5, cr4, cr1, {4}
     ce8:	02520200 	subseq	r0, r2, #0, 4
     cec:	00009229 	andeq	r9, r0, r9, lsr #4
     cf0:	58910200 	ldmpl	r1, {r9}
     cf4:	78646914 	stmdavc	r4!, {r2, r4, r8, fp, sp, lr}^
     cf8:	02530200 	subseq	r0, r3, #0, 4
     cfc:	0001350a 	andeq	r3, r1, sl, lsl #10
     d00:	54910200 	ldrpl	r0, [r1], #512	; 0x200
     d04:	000d4219 	andeq	r4, sp, r9, lsl r2
     d08:	00002a20 	andeq	r2, r0, r0, lsr #20
     d0c:	00050a00 	andeq	r0, r5, r0, lsl #20
     d10:	00771400 	rsbseq	r1, r7, r0, lsl #8
     d14:	11027b02 	tstne	r2, r2, lsl #22
     d18:	0000008d 	andeq	r0, r0, sp, lsl #1
     d1c:	00409102 	subeq	r9, r0, r2, lsl #2
     d20:	000dac19 	andeq	sl, sp, r9, lsl ip
     d24:	00001a20 	andeq	r1, r0, r0, lsr #20
     d28:	00052900 	andeq	r2, r5, r0, lsl #18
     d2c:	05751500 	ldrbeq	r1, [r5, #-1280]!	; 0xfffffb00
     d30:	8f020000 	svchi	0x00020000
     d34:	008d1302 	addeq	r1, sp, r2, lsl #6
     d38:	91030000 	mrsls	r0, (UNDEF: 3)
     d3c:	19007fbc 	stmdbne	r0, {r2, r3, r4, r5, r7, r8, r9, sl, fp, ip, sp, lr}
     d40:	20000e74 	andcs	r0, r0, r4, ror lr
     d44:	00000208 	andeq	r0, r0, r8, lsl #4
     d48:	000005a0 	andeq	r0, r0, r0, lsr #11
     d4c:	00058e15 	andeq	r8, r5, r5, lsl lr
     d50:	02c30200 	sbceq	r0, r3, #0, 4
     d54:	00009216 	andeq	r9, r0, r6, lsl r2
     d58:	50910200 	addspl	r0, r1, r0, lsl #4
     d5c:	000f1219 	andeq	r1, pc, r9, lsl r2	; <UNPREDICTABLE>
     d60:	00004220 	andeq	r4, r0, r0, lsr #4
     d64:	00056500 	andeq	r6, r5, r0, lsl #10
     d68:	046d1500 	strbteq	r1, [sp], #-1280	; 0xfffffb00
     d6c:	ea020000 	b	80d74 <STACK_SIZE+0x7e664>
     d70:	00461802 	subeq	r1, r6, r2, lsl #16
     d74:	91030000 	mrsls	r0, (UNDEF: 3)
     d78:	19007fb0 	stmdbne	r0, {r4, r5, r7, r8, r9, sl, fp, ip, sp, lr}
     d7c:	20000f56 	andcs	r0, r0, r6, asr pc
     d80:	00000078 	andeq	r0, r0, r8, ror r0
     d84:	00000584 	andeq	r0, r0, r4, lsl #11
     d88:	00046d15 	andeq	r6, r4, r5, lsl sp
     d8c:	02ee0200 	rsceq	r0, lr, #0, 4
     d90:	00008d17 	andeq	r8, r0, r7, lsl sp
     d94:	b4910300 	ldrlt	r0, [r1], #768	; 0x300
     d98:	181a007f 	ldmdane	sl, {r0, r1, r2, r3, r4, r5, r6}
     d9c:	5c200010 	stcpl	0, cr0, [r0], #-64	; 0xffffffc0
     da0:	15000000 	strne	r0, [r0, #-0]
     da4:	0000046d 	andeq	r0, r0, sp, ror #8
     da8:	2002fd02 	andcs	pc, r2, r2, lsl #26
     dac:	00000099 	muleq	r0, r9, r0
     db0:	7fb89103 	svcvc	0x00b89103
     db4:	7c190000 	ldcvc	0, cr0, [r9], {-0}
     db8:	70200010 	eorvc	r0, r0, r0, lsl r0
     dbc:	bc000000 	stclt	0, cr0, [r0], {-0}
     dc0:	14000005 	strne	r0, [r0], #-5
     dc4:	1802006c 	stmdane	r2, {r2, r3, r5, r6}
     dc8:	00921603 	addseq	r1, r2, r3, lsl #12
     dcc:	91020000 	mrsls	r0, (UNDEF: 2)
     dd0:	ec1a004c 	ldc	0, cr0, [sl], {76}	; 0x4c
     dd4:	c4200010 	strtgt	r0, [r0], #-16
     dd8:	14000000 	strne	r0, [r0], #-0
     ddc:	2c020070 	stccs	0, cr0, [r2], {112}	; 0x70
     de0:	024c1503 	subeq	r1, ip, #12582912	; 0xc00000
     de4:	91020000 	mrsls	r0, (UNDEF: 2)
     de8:	006c1448 	rsbeq	r1, ip, r8, asr #8
     dec:	16032d02 	strne	r2, [r3], -r2, lsl #26
     df0:	00000092 	muleq	r0, r2, r0
     df4:	00449102 	subeq	r9, r4, r2, lsl #2
     df8:	04ec1800 	strbteq	r1, [ip], #2048	; 0x800
     dfc:	28020000 	stmdacs	r2, {}	; <UNPREDICTABLE>
     e00:	01350f01 	teqeq	r5, r1, lsl #30
     e04:	0b740000 	bleq	1d00e0c <STACK_SIZE+0x1cfe6fc>
     e08:	00d62000 	sbcseq	r2, r6, r0
     e0c:	9c010000 	stcls	0, cr0, [r1], {-0}
     e10:	000006db 	ldrdeq	r0, [r0], -fp
     e14:	74756f11 	ldrbtvc	r6, [r5], #-3857	; 0xfffff0ef
     e18:	01280200 			; <UNDEFINED> instruction: 0x01280200
     e1c:	00014d27 	andeq	r4, r1, r7, lsr #26
     e20:	44910200 	ldrmi	r0, [r1], #512	; 0x200
     e24:	00043f12 	andeq	r3, r4, r2, lsl pc
     e28:	01280200 			; <UNDEFINED> instruction: 0x01280200
     e2c:	0002ad32 	andeq	sl, r2, r2, lsr sp
     e30:	40910200 	addsmi	r0, r1, r0, lsl #4
     e34:	78646911 	stmdavc	r4!, {r0, r4, r8, fp, sp, lr}^
     e38:	01280200 			; <UNDEFINED> instruction: 0x01280200
     e3c:	00013541 	andeq	r3, r1, r1, asr #10
     e40:	bc910300 	ldclt	3, cr0, [r1], {0}
     e44:	050d127f 	streq	r1, [sp, #-639]	; 0xfffffd81
     e48:	28020000 	stmdacs	r2, {}	; <UNPREDICTABLE>
     e4c:	01354d01 	teqeq	r5, r1, lsl #26
     e50:	91030000 	mrsls	r0, (UNDEF: 3)
     e54:	6d127fb8 	ldcvs	15, cr7, [r2, #-736]	; 0xfffffd20
     e58:	02000004 	andeq	r0, r0, #4, 0
     e5c:	6c630128 	stfvse	f0, [r3], #-160	; 0xffffff60
     e60:	02000000 	andeq	r0, r0, #0, 0
     e64:	a0120091 	mulsge	r2, r1, r0
     e68:	02000004 	andeq	r0, r0, #4, 0
     e6c:	db6f0128 	blle	1bc1314 <STACK_SIZE+0x1bbec04>
     e70:	02000006 	andeq	r0, r0, #6, 0
     e74:	8e120491 	cfcmpshi	r0, mvf2, mvf1
     e78:	02000005 	andeq	r0, r0, #5, 0
     e7c:	6c870128 	stfvss	f0, [r7], {40}	; 0x28
     e80:	02000000 	andeq	r0, r0, #0, 0
     e84:	75120891 	ldrvc	r0, [r2, #-2193]	; 0xfffff76f
     e88:	02000005 	andeq	r0, r0, #5, 0
     e8c:	929a0128 	addsls	r0, sl, #10
     e90:	02000000 	andeq	r0, r0, #0, 0
     e94:	90120c91 	mulsls	r2, r1, ip
     e98:	02000004 	andeq	r0, r0, #4, 0
     e9c:	92ad0128 	adcls	r0, sp, #10
     ea0:	02000000 	andeq	r0, r0, #0, 0
     ea4:	f7121091 			; <UNDEFINED> instruction: 0xf7121091
     ea8:	02000004 	andeq	r0, r0, #4, 0
     eac:	92c10128 	sbcls	r0, r1, #10
     eb0:	02000000 	andeq	r0, r0, #0, 0
     eb4:	62141491 	andsvs	r1, r4, #-1862270976	; 0x91000000
     eb8:	02006675 	andeq	r6, r0, #122683392	; 0x7500000
     ebc:	e208012a 	and	r0, r8, #-2147483638	; 0x8000000a
     ec0:	02000006 	andeq	r0, r0, #6, 0
     ec4:	6c144891 	ldcvs	8, cr4, [r4], {145}	; 0x91
     ec8:	02006e65 	andeq	r6, r0, #1616	; 0x650
     ecc:	350a012b 	strcc	r0, [sl, #-299]	; 0xfffffed5
     ed0:	02000001 	andeq	r0, r0, #1, 0
     ed4:	a41a6c91 	ldrge	r6, [sl], #-3217	; 0xfffff36f
     ed8:	6020000b 	eorvs	r0, r0, fp
     edc:	15000000 	strne	r0, [r0, #-0]
     ee0:	00000538 	andeq	r0, r0, r8, lsr r5
     ee4:	12013502 	andne	r3, r1, #8388608	; 0x800000
     ee8:	00000180 	andeq	r0, r0, r0, lsl #3
     eec:	006b9102 	rsbeq	r9, fp, r2, lsl #2
     ef0:	02010200 	andeq	r0, r1, #0, 4
     ef4:	00000525 	andeq	r0, r0, r5, lsr #10
     ef8:	00017916 	andeq	r7, r1, r6, lsl r9
     efc:	0006f200 	andeq	pc, r6, r0, lsl #4
     f00:	00921700 	addseq	r1, r2, r0, lsl #14
     f04:	001f0000 	andseq	r0, pc, r0
     f08:	0004b81b 	andeq	fp, r4, fp, lsl r8
     f0c:	0ff20200 	svceq	0x00f20200
     f10:	00000135 	andeq	r0, r0, r5, lsr r1
     f14:	200009c8 	andcs	r0, r0, r8, asr #19
     f18:	000001ac 	andeq	r0, r0, ip, lsr #3
     f1c:	07b29c01 	ldreq	r9, [r2, r1, lsl #24]!
     f20:	6f1c0000 	svcvs	0x001c0000
     f24:	02007475 	andeq	r7, r0, #1962934272	; 0x75000000
     f28:	014d29f2 	strdeq	r2, [sp, #-146]	; 0xffffff6e
     f2c:	91020000 	mrsls	r0, (UNDEF: 2)
     f30:	043f1d6c 	ldrteq	r1, [pc], #-3436	; f38 <STACK_SIZE-0x17d8>
     f34:	f2020000 	vhadd.s8	d0, d2, d0
     f38:	0002ad34 	andeq	sl, r2, r4, lsr sp
     f3c:	68910200 	ldmvs	r1, {r9}
     f40:	7864691c 	stmdavc	r4!, {r2, r3, r4, r8, fp, sp, lr}^
     f44:	43f20200 	mvnsmi	r0, #0, 4
     f48:	00000135 	andeq	r0, r0, r5, lsr r1
     f4c:	1d649102 	stfnep	f1, [r4, #-8]!
     f50:	0000050d 	andeq	r0, r0, sp, lsl #10
     f54:	354ff202 	strbcc	pc, [pc, #-514]	; d5a <STACK_SIZE-0x19b6>	; <UNPREDICTABLE>
     f58:	02000001 	andeq	r0, r0, #1, 0
     f5c:	621c6091 	andsvs	r6, ip, #145, 0	; 0x91
     f60:	02006675 	andeq	r6, r0, #122683392	; 0x7500000
     f64:	02ad5df2 	adceq	r5, sp, #15488	; 0x3c80
     f68:	91020000 	mrsls	r0, (UNDEF: 2)
     f6c:	656c1c00 	strbvs	r1, [ip, #-3072]!	; 0xfffff400
     f70:	f202006e 	vhadd.s8	q0, q1, q15
     f74:	00013569 	andeq	r3, r1, r9, ror #10
     f78:	04910200 	ldreq	r0, [r1], #512	; 0x200
     f7c:	0004a01d 	andeq	sl, r4, sp, lsl r0
     f80:	73f20200 	mvnsvc	r0, #0, 4
     f84:	000006db 	ldrdeq	r0, [r0], -fp
     f88:	1d089102 	stfned	f1, [r8, #-8]
     f8c:	0000058e 	andeq	r0, r0, lr, lsl #11
     f90:	928af202 	addls	pc, sl, #536870912	; 0x20000000
     f94:	02000000 	andeq	r0, r0, #0, 0
     f98:	751d0c91 	ldrvc	r0, [sp, #-3217]	; 0xfffff36f
     f9c:	02000005 	andeq	r0, r0, #5, 0
     fa0:	00929df2 			; <UNDEFINED> instruction: 0x00929df2
     fa4:	91020000 	mrsls	r0, (UNDEF: 2)
     fa8:	04901d10 	ldreq	r1, [r0], #3344	; 0xd10
     fac:	f2020000 	vhadd.s8	d0, d2, d0
     fb0:	000092b0 			; <UNDEFINED> instruction: 0x000092b0
     fb4:	14910200 	ldrne	r0, [r1], #512	; 0x200
     fb8:	0004f71d 	andeq	pc, r4, sp, lsl r7	; <UNPREDICTABLE>
     fbc:	c4f20200 	ldrbtgt	r0, [r2], #512	; 0x200
     fc0:	00000092 	muleq	r0, r2, r0
     fc4:	00189102 	andseq	r9, r8, r2, lsl #2
     fc8:	0005481b 	andeq	r4, r5, fp, lsl r8
     fcc:	0fd60200 	svceq	0x00d60200
     fd0:	00000135 	andeq	r0, r0, r5, lsr r1
     fd4:	2000092e 	andcs	r0, r0, lr, lsr #18
     fd8:	0000009a 	muleq	r0, sl, r0
     fdc:	086b9c01 	stmdaeq	fp!, {r0, sl, fp, ip, pc}^
     fe0:	6f1c0000 	svcvs	0x001c0000
     fe4:	02007475 	andeq	r7, r0, #1962934272	; 0x75000000
     fe8:	014d25d6 	ldrdeq	r2, [sp, #-86]	; 0xffffffaa
     fec:	91020000 	mrsls	r0, (UNDEF: 2)
     ff0:	043f1d64 	ldrteq	r1, [pc], #-3428	; ff8 <STACK_SIZE-0x1718>
     ff4:	d6020000 	strle	r0, [r2], -r0
     ff8:	0002ad30 	andeq	sl, r2, r0, lsr sp
     ffc:	60910200 	addsvs	r0, r1, r0, lsl #4
    1000:	7864691c 	stmdavc	r4!, {r2, r3, r4, r8, fp, sp, lr}^
    1004:	3fd60200 	svccc	0x00d60200
    1008:	00000135 	andeq	r0, r0, r5, lsr r1
    100c:	1d5c9102 	ldfnep	f1, [ip, #-8]
    1010:	0000050d 	andeq	r0, r0, sp, lsl #10
    1014:	354bd602 	strbcc	sp, [fp, #-1538]	; 0xfffff9fe
    1018:	02000001 	andeq	r0, r0, #1, 0
    101c:	621c5891 	andsvs	r5, ip, #9502720	; 0x910000
    1020:	02006675 	andeq	r6, r0, #122683392	; 0x7500000
    1024:	024c5fd6 	subeq	r5, ip, #856	; 0x358
    1028:	91020000 	mrsls	r0, (UNDEF: 2)
    102c:	656c1c00 	strbvs	r1, [ip, #-3072]!	; 0xfffff400
    1030:	d602006e 	strle	r0, [r2], -lr, rrx
    1034:	0001356b 	andeq	r3, r1, fp, ror #10
    1038:	04910200 	ldreq	r0, [r1], #512	; 0x200
    103c:	0004901d 	andeq	r9, r4, sp, lsl r0
    1040:	7dd60200 	lfmvc	f0, 2, [r6]
    1044:	00000092 	muleq	r0, r2, r0
    1048:	1d089102 	stfned	f1, [r8, #-8]
    104c:	000004f7 	strdeq	r0, [r0], -r7
    1050:	9291d602 	addsls	sp, r1, #2097152	; 0x200000
    1054:	02000000 	andeq	r0, r0, #0, 0
    1058:	861e0c91 			; <UNDEFINED> instruction: 0x861e0c91
    105c:	02000004 	andeq	r0, r0, #4, 0
    1060:	014110d8 	ldrdeq	r1, [r1, #-8]
    1064:	91020000 	mrsls	r0, (UNDEF: 2)
    1068:	09501a68 	ldmdbeq	r0, {r3, r5, r6, r9, fp, ip}^
    106c:	00242000 	eoreq	r2, r4, r0
    1070:	691f0000 	ldmdbvs	pc, {}	; <UNPREDICTABLE>
    1074:	11dc0200 	bicsne	r0, ip, r0, lsl #4
    1078:	00000135 	andeq	r0, r0, r5, lsr r1
    107c:	006c9102 	rsbeq	r9, ip, r2, lsl #2
    1080:	05141b00 	ldreq	r1, [r4, #-2816]	; 0xfffff500
    1084:	cb020000 	blgt	8108c <STACK_SIZE+0x7e97c>
    1088:	00009215 	andeq	r9, r0, r5, lsl r2
    108c:	0008e800 	andeq	lr, r8, r0, lsl #16
    1090:	00004620 	andeq	r4, r0, r0, lsr #12
    1094:	a29c0100 	addsge	r0, ip, #0
    1098:	1c000008 	stcne	0, cr0, [r0], {8}
    109c:	00727473 	rsbseq	r7, r2, r3, ror r4
    10a0:	a228cb02 	eorge	ip, r8, #2048	; 0x800
    10a4:	02000008 	andeq	r0, r0, #8, 0
    10a8:	691f6c91 	ldmdbvs	pc, {r0, r4, r7, sl, fp, sp, lr}	; <UNPREDICTABLE>
    10ac:	10cd0200 	sbcne	r0, sp, r0, lsl #4
    10b0:	00000092 	muleq	r0, r2, r0
    10b4:	00749102 	rsbseq	r9, r4, r2, lsl #2
    10b8:	024c040d 	subeq	r0, ip, #218103808	; 0xd000000
    10bc:	34200000 	strtcc	r0, [r0], #-0
    10c0:	02000005 	andeq	r0, r0, #5, 0
    10c4:	06db14c4 	ldrbeq	r1, [fp], r4, asr #9
    10c8:	08b60000 	ldmeq	r6!, {}	; <UNPREDICTABLE>
    10cc:	00322000 	eorseq	r2, r2, r0
    10d0:	9c010000 	stcls	0, cr0, [r1], {-0}
    10d4:	000008d1 	ldrdeq	r0, [r0], -r1
    10d8:	0068631c 	rsbeq	r6, r8, ip, lsl r3
    10dc:	7923c402 	stmdbvc	r3!, {r1, sl, lr, pc}
    10e0:	02000001 	andeq	r0, r0, #1, 0
    10e4:	20007791 	mulcs	r0, r1, r7
    10e8:	0000051a 	andeq	r0, r0, sl, lsl r5
    10ec:	921cba02 	andsls	fp, ip, #8192	; 0x2000
    10f0:	80000000 	andhi	r0, r0, r0
    10f4:	36200008 	strtcc	r0, [r0], -r8
    10f8:	01000000 	mrseq	r0, (UNDEF: 0)
    10fc:	0009179c 	muleq	r9, ip, r7
    1100:	74731c00 	ldrbtvc	r1, [r3], #-3072	; 0xfffff400
    1104:	ba020072 	blt	812d4 <STACK_SIZE+0x7ebc4>
    1108:	00024c33 	andeq	r4, r2, r3, lsr ip
    110c:	6c910200 	lfmvs	f0, 4, [r1], {0}
    1110:	0004601d 	andeq	r6, r4, sp, lsl r0
    1114:	3fba0200 	svccc	0x00ba0200
    1118:	00000135 	andeq	r0, r0, r5, lsr r1
    111c:	1f689102 	svcne	0x00689102
    1120:	bc020073 	stclt	0, cr0, [r2], {115}	; 0x73
    1124:	00024c0f 	andeq	r4, r2, pc, lsl #24
    1128:	74910200 	ldrvc	r0, [r1], #512	; 0x200
    112c:	04732100 	ldrbteq	r2, [r3], #-256	; 0xffffff00
    1130:	ae020000 	cdpge	0, 0, cr0, cr2, cr0, {0}
    1134:	00084a14 	andeq	r4, r8, r4, lsl sl
    1138:	00003620 	andeq	r3, r0, r0, lsr #12
    113c:	6a9c0100 	bvs	fe701544 <__bss_end__+0xde6f2524>
    1140:	1d000009 	stcne	0, cr0, [r0, #-36]	; 0xffffffdc
    1144:	0000053e 	andeq	r0, r0, lr, lsr r5
    1148:	7922ae02 	stmdbvc	r2!, {r1, r9, sl, fp, sp, pc}
    114c:	02000001 	andeq	r0, r0, #1, 0
    1150:	3f1d7791 	svccc	0x001d7791
    1154:	02000004 	andeq	r0, r0, #4, 0
    1158:	012733ae 			; <UNDEFINED> instruction: 0x012733ae
    115c:	91020000 	mrsls	r0, (UNDEF: 2)
    1160:	64691c70 	strbtvs	r1, [r9], #-3184	; 0xfffff390
    1164:	ae020078 	mcrge	0, 0, r0, cr2, cr8, {3}
    1168:	00013542 	andeq	r3, r1, r2, asr #10
    116c:	6c910200 	lfmvs	f0, 4, [r1], {0}
    1170:	00050d1d 	andeq	r0, r5, sp, lsl sp
    1174:	4eae0200 	cdpmi	2, 10, cr0, cr14, cr0, {0}
    1178:	00000135 	andeq	r0, r0, r5, lsr r1
    117c:	00689102 	rsbeq	r9, r8, r2, lsl #2
    1180:	00045621 	andeq	r5, r4, r1, lsr #12
    1184:	14a40200 	strtne	r0, [r4], #512	; 0x200
    1188:	2000081a 	andcs	r0, r0, sl, lsl r8
    118c:	00000030 	andeq	r0, r0, r0, lsr r0
    1190:	09bd9c01 	ldmibeq	sp!, {r0, sl, fp, ip, pc}
    1194:	3e1d0000 	cdpcc	0, 1, cr0, cr13, cr0, {0}
    1198:	02000005 	andeq	r0, r0, #5, 0
    119c:	017923a4 	cmneq	r9, r4, lsr #7
    11a0:	91020000 	mrsls	r0, (UNDEF: 2)
    11a4:	043f1d77 	ldrteq	r1, [pc], #-3447	; 11ac <STACK_SIZE-0x1564>
    11a8:	a4020000 	strge	r0, [r2], #-0
    11ac:	00012734 	andeq	r2, r1, r4, lsr r7
    11b0:	70910200 	addsvc	r0, r1, r0, lsl #4
    11b4:	7864691c 	stmdavc	r4!, {r2, r3, r4, r8, fp, sp, lr}^
    11b8:	43a40200 			; <UNDEFINED> instruction: 0x43a40200
    11bc:	00000135 	andeq	r0, r0, r5, lsr r1
    11c0:	1d6c9102 	stfnep	f1, [ip, #-8]!
    11c4:	0000050d 	andeq	r0, r0, sp, lsl #10
    11c8:	354fa402 	strbcc	sl, [pc, #-1026]	; dce <STACK_SIZE-0x1942>
    11cc:	02000001 	andeq	r0, r0, #1, 0
    11d0:	22006891 	andcs	r6, r0, #9502720	; 0x910000
    11d4:	000004d0 	ldrdeq	r0, [r0], -r0	; <UNPREDICTABLE>
    11d8:	fe149d02 	vsdot.s8	d9, d4, d2[0]
    11dc:	1c200007 	stcne	0, cr0, [r0], #-28	; 0xffffffe4
    11e0:	01000000 	mrseq	r0, (UNDEF: 0)
    11e4:	000a109c 	muleq	sl, ip, r0
    11e8:	053e1d00 	ldreq	r1, [lr, #-3328]!	; 0xfffff300
    11ec:	9d020000 	stcls	0, cr0, [r2, #-0]
    11f0:	00017923 	andeq	r7, r1, r3, lsr #18
    11f4:	77910200 	ldrvc	r0, [r1, r0, lsl #4]
    11f8:	00043f1d 	andeq	r3, r4, sp, lsl pc
    11fc:	349d0200 	ldrcc	r0, [sp], #512	; 0x200
    1200:	00000127 	andeq	r0, r0, r7, lsr #2
    1204:	1c709102 	ldfnep	f1, [r0], #-8
    1208:	00786469 	rsbseq	r6, r8, r9, ror #8
    120c:	35439d02 	strbcc	r9, [r3, #-3330]	; 0xfffff2fe
    1210:	02000001 	andeq	r0, r0, #1, 0
    1214:	0d1d6c91 	ldceq	12, cr6, [sp, #-580]	; 0xfffffdbc
    1218:	02000005 	andeq	r0, r0, #5, 0
    121c:	01354f9d 	teqeq	r5, sp	; <illegal shifter operand>
    1220:	91020000 	mrsls	r0, (UNDEF: 2)
    1224:	3a220068 	bcc	8813cc <STACK_SIZE+0x87ecbc>
    1228:	02000004 	andeq	r0, r0, #4, 0
    122c:	07ce1494 	bfieq	r1, r4, #9, #6
    1230:	00302000 	eorseq	r2, r0, r0
    1234:	9c010000 	stcls	0, cr0, [r1], {-0}
    1238:	00000a63 	andeq	r0, r0, r3, ror #20
    123c:	00053e1d 	andeq	r3, r5, sp, lsl lr
    1240:	25940200 	ldrcs	r0, [r4, #512]	; 0x200
    1244:	00000179 	andeq	r0, r0, r9, ror r1
    1248:	1d779102 	ldfnep	f1, [r7, #-8]!
    124c:	0000043f 	andeq	r0, r0, pc, lsr r4
    1250:	27369402 	ldrcs	r9, [r6, -r2, lsl #8]!
    1254:	02000001 	andeq	r0, r0, #1, 0
    1258:	691c7091 	ldmdbvs	ip, {r0, r4, r7, ip, sp, lr}
    125c:	02007864 	andeq	r7, r0, #100, 16	; 0x640000
    1260:	01354594 	teqeq	r5, r4	; <illegal shifter operand>
    1264:	91020000 	mrsls	r0, (UNDEF: 2)
    1268:	050d1d6c 	streq	r1, [sp, #-3436]	; 0xfffff294
    126c:	94020000 	strls	r0, [r2], #-0
    1270:	00013551 	andeq	r3, r1, r1, asr r5
    1274:	68910200 	ldmvs	r1, {r9}
    1278:	055a2300 	ldrbeq	r2, [sl, #-768]	; 0xfffffd00
    127c:	7e020000 	cdpvc	0, 0, cr0, cr2, cr0, {0}
    1280:	0007b006 	andeq	fp, r7, r6
    1284:	00001e20 	andeq	r1, r0, r0, lsr #28
    1288:	899c0100 	ldmibhi	ip, {r8}
    128c:	1d00000a 	stcne	0, cr0, [r0, #-40]	; 0xffffffd8
    1290:	0000053e 	andeq	r0, r0, lr, lsr r5
    1294:	79147e02 	ldmdbvc	r4, {r1, r9, sl, fp, ip, sp, lr}
    1298:	02000001 	andeq	r0, r0, #1, 0
    129c:	1b007791 	blne	1f0e8 <STACK_SIZE+0x1c9d8>
    12a0:	00000468 	andeq	r0, r0, r8, ror #8
    12a4:	33174c01 	tstcc	r7, #256	; 0x100
    12a8:	7a000000 	bvc	12b0 <STACK_SIZE-0x1460>
    12ac:	36200007 	strtcc	r0, [r0], -r7
    12b0:	01000000 	mrseq	r0, (UNDEF: 0)
    12b4:	000acd9c 	muleq	sl, ip, sp
    12b8:	00611c00 	rsbeq	r1, r1, r0, lsl #24
    12bc:	33244c01 			; <UNDEFINED> instruction: 0x33244c01
    12c0:	02000000 	andeq	r0, r0, #0, 0
    12c4:	621c6c91 	andsvs	r6, ip, #37120	; 0x9100
    12c8:	2f4c0100 	svccs	0x004c0100
    12cc:	00000033 	andeq	r0, r0, r3, lsr r0
    12d0:	1f689102 	svcne	0x00689102
    12d4:	006c756d 	rsbeq	r7, ip, sp, ror #10
    12d8:	330b4e01 	movwcc	r4, #48641	; 0xbe01
    12dc:	02000000 	andeq	r0, r0, #0, 0
    12e0:	1b007491 	blne	1e52c <STACK_SIZE+0x1be1c>
    12e4:	00000589 	andeq	r0, r0, r9, lsl #11
    12e8:	86134201 	ldrhi	r4, [r3], -r1, lsl #4
    12ec:	1e000000 	cdpne	0, 0, cr0, cr0, cr0, {0}
    12f0:	5c200007 	stcpl	0, cr0, [r0], #-28	; 0xffffffe4
    12f4:	01000000 	mrseq	r0, (UNDEF: 0)
    12f8:	000b119c 	muleq	fp, ip, r1
    12fc:	00611c00 	rsbeq	r1, r1, r0, lsl #24
    1300:	33204201 			; <UNDEFINED> instruction: 0x33204201
    1304:	02000000 	andeq	r0, r0, #0, 0
    1308:	621c6491 	andsvs	r6, ip, #-1862270976	; 0x91000000
    130c:	2b420100 	blcs	1081714 <STACK_SIZE+0x107f004>
    1310:	00000033 	andeq	r0, r0, r3, lsr r0
    1314:	1e609102 	lgnnes	f1, f2
    1318:	00000426 	andeq	r0, r0, r6, lsr #8
    131c:	600c4401 	andvs	r4, ip, r1, lsl #8
    1320:	02000000 	andeq	r0, r0, #0, 0
    1324:	1b006c91 	blne	1c570 <STACK_SIZE+0x19e60>
    1328:	000004da 	ldrdeq	r0, [r0], -sl
    132c:	86133901 	ldrhi	r3, [r3], -r1, lsl #18
    1330:	f6000000 			; <UNDEFINED> instruction: 0xf6000000
    1334:	28200006 	stmdacs	r0!, {r1, r2}
    1338:	01000000 	mrseq	r0, (UNDEF: 0)
    133c:	000b469c 	muleq	fp, ip, r6
    1340:	00611c00 	rsbeq	r1, r1, r0, lsl #24
    1344:	60213901 	eorvs	r3, r1, r1, lsl #18
    1348:	02000000 	andeq	r0, r0, #0, 0
    134c:	621c6c91 	andsvs	r6, ip, #37120	; 0x9100
    1350:	2d390100 	ldfcss	f0, [r9, #-0]
    1354:	00000060 	andeq	r0, r0, r0, rrx
    1358:	00689102 	rsbeq	r9, r8, r2, lsl #2
    135c:	00059320 	andeq	r9, r5, r0, lsr #6
    1360:	18200100 	stmdane	r0!, {r8}
    1364:	00000060 	andeq	r0, r0, r0, rrx
    1368:	20000688 	andcs	r0, r0, r8, lsl #13
    136c:	0000006e 	andeq	r0, r0, lr, rrx
    1370:	0bbc9c01 	bleq	fef2837c <__bss_end__+0xdef1935c>
    1374:	611c0000 	tstvs	ip, r0
    1378:	27200100 	strcs	r0, [r0, -r0, lsl #2]!
    137c:	00000073 	andeq	r0, r0, r3, ror r0
    1380:	1c509102 	ldfnep	f1, [r0], {2}
    1384:	20010062 	andcs	r0, r1, r2, rrx
    1388:	00006033 	andeq	r6, r0, r3, lsr r0
    138c:	4c910200 	lfmmi	f0, 4, [r1], {0}
    1390:	0100691f 	tsteq	r0, pc, lsl r9
    1394:	00860721 	addeq	r0, r6, r1, lsr #14
    1398:	91020000 	mrsls	r0, (UNDEF: 2)
    139c:	00781f6c 	rsbseq	r1, r8, ip, ror #30
    13a0:	600c2401 	andvs	r2, ip, r1, lsl #8
    13a4:	02000000 	andeq	r0, r0, #0, 0
    13a8:	791f6891 	ldmdbvc	pc, {r0, r4, r7, fp, sp, lr}	; <UNPREDICTABLE>
    13ac:	0c250100 	stfeqs	f0, [r5], #-0
    13b0:	00000060 	andeq	r0, r0, r0, rrx
    13b4:	1f649102 	svcne	0x00649102
    13b8:	2601007a 			; <UNDEFINED> instruction: 0x2601007a
    13bc:	0000600c 	andeq	r6, r0, ip
    13c0:	60910200 	addsvs	r0, r1, r0, lsl #4
    13c4:	0100741f 	tsteq	r0, pc, lsl r4
    13c8:	00600c27 	rsbeq	r0, r0, r7, lsr #24
    13cc:	91020000 	mrsls	r0, (UNDEF: 2)
    13d0:	b324005c 			; <UNDEFINED> instruction: 0xb324005c
    13d4:	01000004 	tsteq	r0, r4
    13d8:	00921810 	addseq	r1, r2, r0, lsl r8
    13dc:	06700000 	ldrbteq	r0, [r0], -r0
    13e0:	00182000 	andseq	r2, r8, r0
    13e4:	9c010000 	stcls	0, cr0, [r1], {-0}
    13e8:	0100781c 	tsteq	r0, ip, lsl r8
    13ec:	00862110 	addeq	r2, r6, r0, lsl r1
    13f0:	91020000 	mrsls	r0, (UNDEF: 2)
    13f4:	ed000074 	stc	0, cr0, [r0, #-464]	; 0xfffffe30
    13f8:	04000002 	streq	r0, [r0], #-2
    13fc:	00067900 	andeq	r7, r6, r0, lsl #18
    1400:	52010400 	andpl	r0, r1, #0, 8
    1404:	0c000000 	stceq	0, cr0, [r0], {-0}
    1408:	0000041f 	andeq	r0, r0, pc, lsl r4
    140c:	00000008 	andeq	r0, r0, r8
    1410:	200013b4 			; <UNDEFINED> instruction: 0x200013b4
    1414:	0000025a 	andeq	r0, r0, sl, asr r2
    1418:	00000ca6 	andeq	r0, r0, r6, lsr #25
    141c:	6a060102 	bvs	18182c <STACK_SIZE+0x17f11c>
    1420:	02000001 	andeq	r0, r0, #1, 0
    1424:	00e70502 	rsceq	r0, r7, r2, lsl #10
    1428:	04020000 	streq	r0, [r2], #-0
    142c:	00013805 	andeq	r3, r1, r5, lsl #16
    1430:	05080200 	streq	r0, [r8, #-512]	; 0xfffffe00
    1434:	00000133 	andeq	r0, r0, r3, lsr r1
    1438:	68080102 	stmdavs	r8, {r1, r8}
    143c:	02000001 	andeq	r0, r0, #1, 0
    1440:	01c90702 	biceq	r0, r9, r2, lsl #14
    1444:	a8030000 	stmdage	r3, {}	; <UNPREDICTABLE>
    1448:	03000001 	movweq	r0, #1
    144c:	005b1934 	subseq	r1, fp, r4, lsr r9
    1450:	04020000 	streq	r0, [r2], #-0
    1454:	00019607 	andeq	r9, r1, r7, lsl #12
    1458:	04460300 	strbeq	r0, [r6], #-768	; 0xfffffd00
    145c:	37030000 	strcc	r0, [r3, -r0]
    1460:	00006e19 	andeq	r6, r0, r9, lsl lr
    1464:	07080200 	streq	r0, [r8, -r0, lsl #4]
    1468:	00000191 	muleq	r0, r1, r1
    146c:	69050404 	stmdbvs	r5, {r2, sl}
    1470:	0200746e 	andeq	r7, r0, #1845493760	; 0x6e000000
    1474:	019b0704 	orrseq	r0, fp, r4, lsl #14
    1478:	07050000 	streq	r0, [r5, -r0]
    147c:	00004101 	andeq	r4, r0, r1, lsl #2
    1480:	062a0400 	strteq	r0, [sl], -r0, lsl #8
    1484:	000000aa 	andeq	r0, r0, sl, lsr #1
    1488:	00025406 	andeq	r5, r2, r6, lsl #8
    148c:	20060500 	andcs	r0, r6, r0, lsl #10
    1490:	18000002 	stmdane	r0, {r1}
    1494:	0002a406 	andeq	sl, r2, r6, lsl #8
    1498:	98061700 	stmdals	r6, {r8, r9, sl, ip}
    149c:	16000002 	strne	r0, [r0], -r2
    14a0:	01070500 	tsteq	r7, r0, lsl #10
    14a4:	00000041 	andeq	r0, r0, r1, asr #32
    14a8:	c4063904 	strgt	r3, [r6], #-2308	; 0xfffff6fc
    14ac:	06000000 	streq	r0, [r0], -r0
    14b0:	000005c6 	andeq	r0, r0, r6, asr #11
    14b4:	32460705 	subcc	r0, r6, #1310720	; 0x140000
    14b8:	05000200 	streq	r0, [r0, #-512]	; 0xfffffe00
    14bc:	00410107 	subeq	r0, r1, r7, lsl #2
    14c0:	08050000 	stmdaeq	r5, {}	; <UNPREDICTABLE>
    14c4:	0000fd06 	andeq	pc, r0, r6, lsl #26
    14c8:	061f0600 	ldreq	r0, [pc], -r0, lsl #12
    14cc:	06000000 	streq	r0, [r0], -r0
    14d0:	000005b6 			; <UNDEFINED> instruction: 0x000005b6
    14d4:	068d0604 	streq	r0, [sp], r4, lsl #12
    14d8:	06180000 	ldreq	r0, [r8], -r0
    14dc:	000005cf 	andeq	r0, r0, pc, asr #11
    14e0:	067c0624 	ldrbteq	r0, [ip], -r4, lsr #12
    14e4:	06280000 	strteq	r0, [r8], -r0
    14e8:	0000060f 	andeq	r0, r0, pc, lsl #12
    14ec:	05f0062c 	ldrbeq	r0, [r0, #1580]!	; 0x62c
    14f0:	00300000 	eorseq	r0, r0, r0
    14f4:	12051008 	andne	r1, r5, #8, 0
    14f8:	00013909 	andeq	r3, r1, r9, lsl #18
    14fc:	78740900 	ldmdavc	r4!, {r8, fp}^
    1500:	0e130500 	cfmul32eq	mvfx0, mvfx3, mvfx0
    1504:	0000004f 	andeq	r0, r0, pc, asr #32
    1508:	78720900 	ldmdavc	r2!, {r8, fp}^
    150c:	11130500 	tstne	r3, r0, lsl #10
    1510:	0000004f 	andeq	r0, r0, pc, asr #32
    1514:	011b0a04 	tsteq	fp, r4, lsl #20
    1518:	14050000 	strne	r0, [r5], #-0
    151c:	00004f0e 	andeq	r4, r0, lr, lsl #30
    1520:	e10a0800 	tst	sl, r0, lsl #16
    1524:	05000000 	streq	r0, [r0, #-0]
    1528:	004f0e15 	subeq	r0, pc, r5, lsl lr	; <UNPREDICTABLE>
    152c:	000c0000 	andeq	r0, ip, r0
    1530:	00014d03 	andeq	r4, r1, r3, lsl #26
    1534:	03160500 	tsteq	r6, #0, 10
    1538:	000000fd 	strdeq	r0, [r0], -sp
    153c:	0001ba0b 	andeq	fp, r1, fp, lsl #20
    1540:	0b180500 	bleq	602948 <STACK_SIZE+0x600238>
    1544:	00000139 	andeq	r0, r0, r9, lsr r1
    1548:	f0000305 			; <UNDEFINED> instruction: 0xf0000305
    154c:	08022000 	stmdaeq	r2, {sp}
    1550:	00015704 	andeq	r5, r1, r4, lsl #14
    1554:	05e00c00 	strbeq	r0, [r0, #3072]!	; 0xc00
    1558:	40020000 	andmi	r0, r2, r0
    155c:	00007505 	andeq	r7, r0, r5, lsl #10
    1560:	0015f000 	andseq	pc, r5, r0
    1564:	00001e20 	andeq	r1, r0, r0, lsr #28
    1568:	0c9c0100 	ldfeqs	f0, [ip], {0}
    156c:	00000651 	andeq	r0, r0, r1, asr r6
    1570:	75053c02 	strvc	r3, [r5, #-3074]	; 0xfffff3fe
    1574:	e0000000 	and	r0, r0, r0
    1578:	10200015 	eorne	r0, r0, r5, lsl r0
    157c:	01000000 	mrseq	r0, (UNDEF: 0)
    1580:	03f20d9c 	mvnseq	r0, #156, 26	; 0x2700
    1584:	34020000 	strcc	r0, [r2], #-0
    1588:	0015ac06 	andseq	sl, r5, r6, lsl #24
    158c:	00003420 	andeq	r3, r0, r0, lsr #8
    1590:	ae9c0100 	fmlgee	f0, f4, f0
    1594:	0e000001 	cdpeq	0, 0, cr0, cr0, cr1, {0}
    1598:	34020063 	strcc	r0, [r2], #-99	; 0xffffff9d
    159c:	0000411e 	andeq	r4, r0, lr, lsl r1
    15a0:	77910200 	ldrvc	r0, [r1, r0, lsl #4]
    15a4:	06010c00 	streq	r0, [r1], -r0, lsl #24
    15a8:	2e020000 	cdpcs	0, 0, cr0, cr2, cr0, {0}
    15ac:	00007505 	andeq	r7, r0, r5, lsl #10
    15b0:	00158400 	andseq	r8, r5, r0, lsl #8
    15b4:	00002820 	andeq	r2, r0, r0, lsr #16
    15b8:	0f9c0100 	svceq	0x009c0100
    15bc:	00000630 	andeq	r0, r0, r0, lsr r6
    15c0:	75052902 	strvc	r2, [r5, #-2306]	; 0xfffff6fe
    15c4:	78000000 	stmdavc	r0, {}	; <UNPREDICTABLE>
    15c8:	0c200015 	stceq	0, cr0, [r0], #-84	; 0xffffffac
    15cc:	01000000 	mrseq	r0, (UNDEF: 0)
    15d0:	066e109c 			; <UNDEFINED> instruction: 0x066e109c
    15d4:	23020000 	movwcs	r0, #8192	; 0x2000
    15d8:	0000750c 	andeq	r7, r0, ip, lsl #10
    15dc:	00156c00 	andseq	r6, r5, r0, lsl #24
    15e0:	00000c20 	andeq	r0, r0, r0, lsr #24
    15e4:	0d9c0100 	ldfeqs	f0, [ip]
    15e8:	000005ac 	andeq	r0, r0, ip, lsr #11
    15ec:	4a060802 	bmi	1835fc <STACK_SIZE+0x180eec>
    15f0:	22200014 	eorcs	r0, r0, #20, 0
    15f4:	01000001 	tsteq	r0, r1
    15f8:	0002439c 	muleq	r2, ip, r3
    15fc:	01481100 	mrseq	r1, (UNDEF: 88)
    1600:	08020000 	stmdaeq	r2, {}	; <UNPREDICTABLE>
    1604:	0002431b 	andeq	r4, r2, fp, lsl r3
    1608:	64910200 	ldrvs	r0, [r1], #512	; 0x200
    160c:	00063f12 	andeq	r3, r6, r2, lsl pc
    1610:	0e100200 	cdpeq	2, 1, cr0, cr0, cr0, {0}
    1614:	0000004f 	andeq	r0, r0, pc, asr #32
    1618:	12749102 	rsbsne	r9, r4, #-2147483648	; 0x80000000
    161c:	0000065f 	andeq	r0, r0, pc, asr r6
    1620:	4f0e1202 	svcmi	0x000e1202
    1624:	02000000 	andeq	r0, r0, #0, 0
    1628:	3a127091 	bcc	49d874 <STACK_SIZE+0x49b164>
    162c:	02000006 	andeq	r0, r0, #6, 0
    1630:	004f0e13 	subeq	r0, pc, r3, lsl lr	; <UNPREDICTABLE>
    1634:	91020000 	mrsls	r0, (UNDEF: 2)
    1638:	0413006c 	ldreq	r0, [r3], #-108	; 0xffffff94
    163c:	00000139 	andeq	r0, r0, r9, lsr r1
    1640:	0004da14 	andeq	sp, r4, r4, lsl sl
    1644:	13390100 	teqne	r9, #0
    1648:	00000075 	andeq	r0, r0, r5, ror r0
    164c:	20001422 	andcs	r1, r0, r2, lsr #8
    1650:	00000028 	andeq	r0, r0, r8, lsr #32
    1654:	027e9c01 	rsbseq	r9, lr, #256	; 0x100
    1658:	610e0000 	mrsvs	r0, (UNDEF: 14)
    165c:	21390100 	teqcs	r9, r0, lsl #2
    1660:	0000004f 	andeq	r0, r0, pc, asr #32
    1664:	0e6c9102 	lgneqe	f1, f2
    1668:	39010062 	stmdbcc	r1, {r1, r5, r6}
    166c:	00004f2d 	andeq	r4, r0, sp, lsr #30
    1670:	68910200 	ldmvs	r1, {r9}
    1674:	05931500 	ldreq	r1, [r3, #1280]	; 0x500
    1678:	20010000 	andcs	r0, r1, r0
    167c:	00004f18 	andeq	r4, r0, r8, lsl pc
    1680:	0013b400 	andseq	fp, r3, r0, lsl #8
    1684:	00006e20 	andeq	r6, r0, r0, lsr #28
    1688:	0e9c0100 	fmleqe	f0, f4, f0
    168c:	20010061 	andcs	r0, r1, r1, rrx
    1690:	00006227 	andeq	r6, r0, r7, lsr #4
    1694:	50910200 	addspl	r0, r1, r0, lsl #4
    1698:	0100620e 	tsteq	r0, lr, lsl #4
    169c:	004f3320 	subeq	r3, pc, r0, lsr #6
    16a0:	91020000 	mrsls	r0, (UNDEF: 2)
    16a4:	0069164c 	rsbeq	r1, r9, ip, asr #12
    16a8:	75072101 	strvc	r2, [r7, #-257]	; 0xfffffeff
    16ac:	02000000 	andeq	r0, r0, #0, 0
    16b0:	78166c91 	ldmdavc	r6, {r0, r4, r7, sl, fp, sp, lr}
    16b4:	0c240100 	stfeqs	f0, [r4], #-0
    16b8:	0000004f 	andeq	r0, r0, pc, asr #32
    16bc:	16689102 	strbtne	r9, [r8], -r2, lsl #2
    16c0:	25010079 	strcs	r0, [r1, #-121]	; 0xffffff87
    16c4:	00004f0c 	andeq	r4, r0, ip, lsl #30
    16c8:	64910200 	ldrvs	r0, [r1], #512	; 0x200
    16cc:	01007a16 	tsteq	r0, r6, lsl sl
    16d0:	004f0c26 	subeq	r0, pc, r6, lsr #24
    16d4:	91020000 	mrsls	r0, (UNDEF: 2)
    16d8:	00741660 	rsbseq	r1, r4, r0, ror #12
    16dc:	4f0c2701 	svcmi	0x000c2701
    16e0:	02000000 	andeq	r0, r0, #0, 0
    16e4:	00005c91 	muleq	r0, r1, ip

Disassembly of section .debug_abbrev:

00000000 <.debug_abbrev>:
   0:	10001101 	andne	r1, r0, r1, lsl #2
   4:	03065506 	movweq	r5, #25862	; 0x6506
   8:	250e1b0e 	strcs	r1, [lr, #-2830]	; 0xfffff4f2
   c:	0005130e 	andeq	r1, r5, lr, lsl #6
  10:	11010000 	mrsne	r0, (UNDEF: 1)
  14:	130e2501 	movwne	r2, #58625	; 0xe501
  18:	1b0e030b 	blne	380c4c <STACK_SIZE+0x37e53c>
  1c:	1201110e 	andne	r1, r1, #-2147483645	; 0x80000003
  20:	00171006 	andseq	r1, r7, r6
  24:	00240200 	eoreq	r0, r4, r0, lsl #4
  28:	0b3e0b0b 	bleq	f82c5c <STACK_SIZE+0xf8054c>
  2c:	00000e03 	andeq	r0, r0, r3, lsl #28
  30:	03001603 	movweq	r1, #1539	; 0x603
  34:	3b0b3a0e 	blcc	2ce874 <STACK_SIZE+0x2cc164>
  38:	490b390b 	stmdbmi	fp, {r0, r1, r3, r8, fp, ip, sp}
  3c:	04000013 	streq	r0, [r0], #-19	; 0xffffffed
  40:	0b0b0024 	bleq	2c00d8 <STACK_SIZE+0x2bd9c8>
  44:	08030b3e 	stmdaeq	r3, {r1, r2, r3, r4, r5, r8, r9, fp}
  48:	04050000 	streq	r0, [r5], #-0
  4c:	0b0b3e01 	bleq	2cf858 <STACK_SIZE+0x2cd148>
  50:	3a13490b 	bcc	4d2484 <STACK_SIZE+0x4cfd74>
  54:	390b3b0b 	stmdbcc	fp, {r0, r1, r3, r8, r9, fp, ip, sp}
  58:	0013010b 	andseq	r0, r3, fp, lsl #2
  5c:	00280600 	eoreq	r0, r8, r0, lsl #12
  60:	061c0e03 	ldreq	r0, [ip], -r3, lsl #28
  64:	13070000 	movwne	r0, #28672	; 0x7000
  68:	3a0b0b01 	bcc	2c2c74 <STACK_SIZE+0x2c0564>
  6c:	390b3b0b 	stmdbcc	fp, {r0, r1, r3, r8, r9, fp, ip, sp}
  70:	0013010b 	andseq	r0, r3, fp, lsl #2
  74:	000d0800 	andeq	r0, sp, r0, lsl #16
  78:	0b3a0803 	bleq	e8208c <STACK_SIZE+0xe7f97c>
  7c:	0b390b3b 	bleq	e42d70 <STACK_SIZE+0xe40660>
  80:	0b381349 	bleq	e04dac <STACK_SIZE+0xe0269c>
  84:	0d090000 	stceq	0, cr0, [r9, #-0]
  88:	3a0e0300 	bcc	380c90 <STACK_SIZE+0x37e580>
  8c:	390b3b0b 	stmdbcc	fp, {r0, r1, r3, r8, r9, fp, ip, sp}
  90:	3813490b 	ldmdacc	r3, {r0, r1, r3, r8, fp, lr}
  94:	0a00000b 	beq	c8 <STACK_SIZE-0x2648>
  98:	0e030034 	mcreq	0, 0, r0, cr3, cr4, {1}
  9c:	0b3b0b3a 	bleq	ec2d8c <STACK_SIZE+0xec067c>
  a0:	13490b39 	movtne	r0, #39737	; 0x9b39
  a4:	1802193f 	stmdane	r2, {r0, r1, r2, r3, r4, r5, r8, fp, ip}
  a8:	2e0b0000 	cdpcs	0, 0, cr0, cr11, cr0, {0}
  ac:	03193f01 	tsteq	r9, #1, 30
  b0:	3b0b3a0e 	blcc	2ce8f0 <STACK_SIZE+0x2cc1e0>
  b4:	110b390b 	tstne	fp, fp, lsl #18
  b8:	40061201 	andmi	r1, r6, r1, lsl #4
  bc:	19429618 	stmdbne	r2, {r3, r4, r9, sl, ip, pc}^
  c0:	00001301 	andeq	r1, r0, r1, lsl #6
  c4:	0300340c 	movweq	r3, #1036	; 0x40c
  c8:	3b0b3a0e 	blcc	2ce908 <STACK_SIZE+0x2cc1f8>
  cc:	490b390b 	stmdbmi	fp, {r0, r1, r3, r8, fp, ip, sp}
  d0:	3c193f13 	ldccc	15, cr3, [r9], {19}
  d4:	0d000019 	stceq	0, cr0, [r0, #-100]	; 0xffffff9c
  d8:	0e030034 	mcreq	0, 0, r0, cr3, cr4, {1}
  dc:	0b3b0b3a 	bleq	ec2dcc <STACK_SIZE+0xec06bc>
  e0:	13490b39 	movtne	r0, #39737	; 0x9b39
  e4:	00001802 	andeq	r1, r0, r2, lsl #16
  e8:	0300340e 	movweq	r3, #1038	; 0x40e
  ec:	3b0b3a08 	blcc	2ce914 <STACK_SIZE+0x2cc204>
  f0:	490b390b 	stmdbmi	fp, {r0, r1, r3, r8, fp, ip, sp}
  f4:	00180213 	andseq	r0, r8, r3, lsl r2
  f8:	000f0f00 	andeq	r0, pc, r0, lsl #30
  fc:	13490b0b 	movtne	r0, #39691	; 0x9b0b
 100:	2e100000 	cdpcs	0, 1, cr0, cr0, cr0, {0}
 104:	03193f01 	tsteq	r9, #1, 30
 108:	3b0b3a0e 	blcc	2ce948 <STACK_SIZE+0x2cc238>
 10c:	490b390b 	stmdbmi	fp, {r0, r1, r3, r8, fp, ip, sp}
 110:	12011113 	andne	r1, r1, #-1073741820	; 0xc0000004
 114:	96184006 	ldrls	r4, [r8], -r6
 118:	00001942 	andeq	r1, r0, r2, asr #18
 11c:	01110100 	tsteq	r1, r0, lsl #2
 120:	0b130e25 	bleq	4c39bc <STACK_SIZE+0x4c12ac>
 124:	0e1b0e03 	cdpeq	14, 1, cr0, cr11, cr3, {0}
 128:	06120111 			; <UNDEFINED> instruction: 0x06120111
 12c:	00001710 	andeq	r1, r0, r0, lsl r7
 130:	0b002402 	bleq	9140 <STACK_SIZE+0x6a30>
 134:	030b3e0b 	movweq	r3, #48651	; 0xbe0b
 138:	0300000e 	movweq	r0, #14
 13c:	0e030016 	mcreq	0, 0, r0, cr3, cr6, {0}
 140:	0b3b0b3a 	bleq	ec2e30 <STACK_SIZE+0xec0720>
 144:	13490b39 	movtne	r0, #39737	; 0x9b39
 148:	24040000 	strcs	r0, [r4], #-0
 14c:	3e0b0b00 	vmlacc.f64	d0, d11, d0
 150:	0008030b 	andeq	r0, r8, fp, lsl #6
 154:	01040500 	tsteq	r4, r0, lsl #10
 158:	0b0b0b3e 	bleq	2c2e58 <STACK_SIZE+0x2c0748>
 15c:	0b3a1349 	bleq	e84e88 <STACK_SIZE+0xe82778>
 160:	0b390b3b 	bleq	e42e54 <STACK_SIZE+0xe40744>
 164:	00001301 	andeq	r1, r0, r1, lsl #6
 168:	03002806 	movweq	r2, #2054	; 0x806
 16c:	00061c0e 	andeq	r1, r6, lr, lsl #24
 170:	00280700 	eoreq	r0, r8, r0, lsl #14
 174:	0b1c0e03 	bleq	703988 <STACK_SIZE+0x701278>
 178:	28080000 	stmdacs	r8, {}	; <UNPREDICTABLE>
 17c:	1c080300 	stcne	3, cr0, [r8], {-0}
 180:	0900000b 	stmdbeq	r0, {r0, r1, r3}
 184:	193f012e 	ldmdbne	pc!, {r1, r2, r3, r5, r8}	; <UNPREDICTABLE>
 188:	0b3a0e03 	bleq	e8399c <STACK_SIZE+0xe8128c>
 18c:	0b390b3b 	bleq	e42e80 <STACK_SIZE+0xe40770>
 190:	01111927 	tsteq	r1, r7, lsr #18
 194:	18400612 	stmdane	r0, {r1, r4, r9, sl}^
 198:	01194296 			; <UNDEFINED> instruction: 0x01194296
 19c:	0a000013 	beq	1f0 <STACK_SIZE-0x2520>
 1a0:	08030005 	stmdaeq	r3, {r0, r2}
 1a4:	0b3b0b3a 	bleq	ec2e94 <STACK_SIZE+0xec0784>
 1a8:	13490b39 	movtne	r0, #39737	; 0x9b39
 1ac:	00001802 	andeq	r1, r0, r2, lsl #16
 1b0:	0300340b 	movweq	r3, #1035	; 0x40b
 1b4:	3b0b3a0e 	blcc	2ce9f4 <STACK_SIZE+0x2cc2e4>
 1b8:	490b390b 	stmdbmi	fp, {r0, r1, r3, r8, fp, ip, sp}
 1bc:	00180213 	andseq	r0, r8, r3, lsl r2
 1c0:	012e0c00 			; <UNDEFINED> instruction: 0x012e0c00
 1c4:	0e03193f 			; <UNDEFINED> instruction: 0x0e03193f
 1c8:	0b3b0b3a 	bleq	ec2eb8 <STACK_SIZE+0xec07a8>
 1cc:	19270b39 	stmdbne	r7!, {r0, r3, r4, r5, r8, r9, fp}
 1d0:	01111349 	tsteq	r1, r9, asr #6
 1d4:	18400612 	stmdane	r0, {r1, r4, r9, sl}^
 1d8:	01194296 			; <UNDEFINED> instruction: 0x01194296
 1dc:	0d000013 	stceq	0, cr0, [r0, #-76]	; 0xffffffb4
 1e0:	0e030005 	cdpeq	0, 0, cr0, cr3, cr5, {0}
 1e4:	0b3b0b3a 	bleq	ec2ed4 <STACK_SIZE+0xec07c4>
 1e8:	13490b39 	movtne	r0, #39737	; 0x9b39
 1ec:	00001802 	andeq	r1, r0, r2, lsl #16
 1f0:	3f002e0e 	svccc	0x00002e0e
 1f4:	3a0e0319 	bcc	380e60 <STACK_SIZE+0x37e750>
 1f8:	390b3b0b 	stmdbcc	fp, {r0, r1, r3, r8, r9, fp, ip, sp}
 1fc:	1201110b 	andne	r1, r1, #-1073741822	; 0xc0000002
 200:	96184006 	ldrls	r4, [r8], -r6
 204:	00001942 	andeq	r1, r0, r2, asr #18
 208:	3f012e0f 	svccc	0x00012e0f
 20c:	3a0e0319 	bcc	380e78 <STACK_SIZE+0x37e768>
 210:	390b3b0b 	stmdbcc	fp, {r0, r1, r3, r8, r9, fp, ip, sp}
 214:	1119270b 	tstne	r9, fp, lsl #14
 218:	40061201 	andmi	r1, r6, r1, lsl #4
 21c:	19429618 	stmdbne	r2, {r3, r4, r9, sl, ip, pc}^
 220:	01000000 	mrseq	r0, (UNDEF: 0)
 224:	0e250111 	mcreq	1, 1, r0, cr5, cr1, {0}
 228:	0e030b13 	vmoveq.32	d3[0], r0
 22c:	01110e1b 	tsteq	r1, fp, lsl lr
 230:	17100612 			; <UNDEFINED> instruction: 0x17100612
 234:	24020000 	strcs	r0, [r2], #-0
 238:	3e0b0b00 	vmlacc.f64	d0, d11, d0
 23c:	000e030b 	andeq	r0, lr, fp, lsl #6
 240:	00160300 	andseq	r0, r6, r0, lsl #6
 244:	0b3a0e03 	bleq	e83a58 <STACK_SIZE+0xe81348>
 248:	0b390b3b 	bleq	e42f3c <STACK_SIZE+0xe4082c>
 24c:	00001349 	andeq	r1, r0, r9, asr #6
 250:	0b002404 	bleq	9268 <STACK_SIZE+0x6b58>
 254:	030b3e0b 	movweq	r3, #48651	; 0xbe0b
 258:	05000008 	streq	r0, [r0, #-8]
 25c:	0b3e0104 	bleq	f80674 <STACK_SIZE+0xf7df64>
 260:	13490b0b 	movtne	r0, #39691	; 0x9b0b
 264:	0b3b0b3a 	bleq	ec2f54 <STACK_SIZE+0xec0844>
 268:	13010b39 	movwne	r0, #6969	; 0x1b39
 26c:	28060000 	stmdacs	r6, {}	; <UNPREDICTABLE>
 270:	1c0e0300 	stcne	3, cr0, [lr], {-0}
 274:	07000006 	streq	r0, [r0, -r6]
 278:	193f012e 	ldmdbne	pc!, {r1, r2, r3, r5, r8}	; <UNPREDICTABLE>
 27c:	0b3a0e03 	bleq	e83a90 <STACK_SIZE+0xe81380>
 280:	0b390b3b 	bleq	e42f74 <STACK_SIZE+0xe40864>
 284:	01111927 	tsteq	r1, r7, lsr #18
 288:	18400612 	stmdane	r0, {r1, r4, r9, sl}^
 28c:	01194296 			; <UNDEFINED> instruction: 0x01194296
 290:	08000013 	stmdaeq	r0, {r0, r1, r4}
 294:	0e030005 	cdpeq	0, 0, cr0, cr3, cr5, {0}
 298:	0b3b0b3a 	bleq	ec2f88 <STACK_SIZE+0xec0878>
 29c:	13490b39 	movtne	r0, #39737	; 0x9b39
 2a0:	00001802 	andeq	r1, r0, r2, lsl #16
 2a4:	03000509 	movweq	r0, #1289	; 0x509
 2a8:	3b0b3a08 	blcc	2cead0 <STACK_SIZE+0x2cc3c0>
 2ac:	490b390b 	stmdbmi	fp, {r0, r1, r3, r8, fp, ip, sp}
 2b0:	00180213 	andseq	r0, r8, r3, lsl r2
 2b4:	00340a00 	eorseq	r0, r4, r0, lsl #20
 2b8:	0b3a0e03 	bleq	e83acc <STACK_SIZE+0xe813bc>
 2bc:	0b390b3b 	bleq	e42fb0 <STACK_SIZE+0xe408a0>
 2c0:	18021349 	stmdane	r2, {r0, r3, r6, r8, r9, ip}
 2c4:	0b0b0000 	bleq	2c02cc <STACK_SIZE+0x2bdbbc>
 2c8:	12011101 	andne	r1, r1, #1073741824	; 0x40000000
 2cc:	0c000006 	stceq	0, cr0, [r0], {6}
 2d0:	08030034 	stmdaeq	r3, {r2, r4, r5}
 2d4:	0b3b0b3a 	bleq	ec2fc4 <STACK_SIZE+0xec08b4>
 2d8:	13490b39 	movtne	r0, #39737	; 0x9b39
 2dc:	00001802 	andeq	r1, r0, r2, lsl #16
 2e0:	3f012e0d 	svccc	0x00012e0d
 2e4:	3a0e0319 	bcc	380f50 <STACK_SIZE+0x37e840>
 2e8:	390b3b0b 	stmdbcc	fp, {r0, r1, r3, r8, r9, fp, ip, sp}
 2ec:	1201110b 	andne	r1, r1, #-1073741822	; 0xc0000002
 2f0:	96184006 	ldrls	r4, [r8], -r6
 2f4:	13011942 	movwne	r1, #6466	; 0x1942
 2f8:	2e0e0000 	cdpcs	0, 0, cr0, cr14, cr0, {0}
 2fc:	03193f00 	tsteq	r9, #0, 30
 300:	3b0b3a0e 	blcc	2ceb40 <STACK_SIZE+0x2cc430>
 304:	110b390b 	tstne	fp, fp, lsl #18
 308:	40061201 	andmi	r1, r6, r1, lsl #4
 30c:	19429618 	stmdbne	r2, {r3, r4, r9, sl, ip, pc}^
 310:	01000000 	mrseq	r0, (UNDEF: 0)
 314:	0e250111 	mcreq	1, 1, r0, cr5, cr1, {0}
 318:	0e030b13 	vmoveq.32	d3[0], r0
 31c:	01110e1b 	tsteq	r1, fp, lsl lr
 320:	17100612 			; <UNDEFINED> instruction: 0x17100612
 324:	24020000 	strcs	r0, [r2], #-0
 328:	3e0b0b00 	vmlacc.f64	d0, d11, d0
 32c:	000e030b 	andeq	r0, lr, fp, lsl #6
 330:	00240300 	eoreq	r0, r4, r0, lsl #6
 334:	0b3e0b0b 	bleq	f82f68 <STACK_SIZE+0xf80858>
 338:	00000803 	andeq	r0, r0, r3, lsl #16
 33c:	0b011304 	bleq	44f54 <STACK_SIZE+0x42844>
 340:	3b0b3a0b 	blcc	2ceb74 <STACK_SIZE+0x2cc464>
 344:	010b390b 	tsteq	fp, fp, lsl #18
 348:	05000013 	streq	r0, [r0, #-19]	; 0xffffffed
 34c:	0803000d 	stmdaeq	r3, {r0, r2, r3}
 350:	0b3b0b3a 	bleq	ec3040 <STACK_SIZE+0xec0930>
 354:	13490b39 	movtne	r0, #39737	; 0x9b39
 358:	00000b38 	andeq	r0, r0, r8, lsr fp
 35c:	03000d06 	movweq	r0, #3334	; 0xd06
 360:	3b0b3a0e 	blcc	2ceba0 <STACK_SIZE+0x2cc490>
 364:	490b390b 	stmdbmi	fp, {r0, r1, r3, r8, fp, ip, sp}
 368:	000b3813 	andeq	r3, fp, r3, lsl r8
 36c:	00160700 	andseq	r0, r6, r0, lsl #14
 370:	0b3a0e03 	bleq	e83b84 <STACK_SIZE+0xe81474>
 374:	0b390b3b 	bleq	e43068 <STACK_SIZE+0xe40958>
 378:	00001349 	andeq	r1, r0, r9, asr #6
 37c:	03003408 	movweq	r3, #1032	; 0x408
 380:	3b0b3a0e 	blcc	2cebc0 <STACK_SIZE+0x2cc4b0>
 384:	490b390b 	stmdbmi	fp, {r0, r1, r3, r8, fp, ip, sp}
 388:	02193f13 	andseq	r3, r9, #76	; 0x4c
 38c:	09000018 	stmdbeq	r0, {r3, r4}
 390:	193f002e 	ldmdbne	pc!, {r1, r2, r3, r5}	; <UNPREDICTABLE>
 394:	0b3a0e03 	bleq	e83ba8 <STACK_SIZE+0xe81498>
 398:	0b390b3b 	bleq	e4308c <STACK_SIZE+0xe4097c>
 39c:	01111349 	tsteq	r1, r9, asr #6
 3a0:	18400612 	stmdane	r0, {r1, r4, r9, sl}^
 3a4:	00194296 	mulseq	r9, r6, r2
 3a8:	012e0a00 			; <UNDEFINED> instruction: 0x012e0a00
 3ac:	0e03193f 			; <UNDEFINED> instruction: 0x0e03193f
 3b0:	0b3b0b3a 	bleq	ec30a0 <STACK_SIZE+0xec0990>
 3b4:	19270b39 	stmdbne	r7!, {r0, r3, r4, r5, r8, r9, fp}
 3b8:	06120111 			; <UNDEFINED> instruction: 0x06120111
 3bc:	42961840 	addsmi	r1, r6, #64, 16	; 0x400000
 3c0:	00130119 	andseq	r0, r3, r9, lsl r1
 3c4:	00050b00 	andeq	r0, r5, r0, lsl #22
 3c8:	0b3a0e03 	bleq	e83bdc <STACK_SIZE+0xe814cc>
 3cc:	0b390b3b 	bleq	e430c0 <STACK_SIZE+0xe409b0>
 3d0:	18021349 	stmdane	r2, {r0, r3, r6, r8, r9, ip}
 3d4:	050c0000 	streq	r0, [ip, #-0]
 3d8:	3a080300 	bcc	200fe0 <STACK_SIZE+0x1fe8d0>
 3dc:	390b3b0b 	stmdbcc	fp, {r0, r1, r3, r8, r9, fp, ip, sp}
 3e0:	0213490b 	andseq	r4, r3, #180224	; 0x2c000
 3e4:	0d000018 	stceq	0, cr0, [r0, #-96]	; 0xffffffa0
 3e8:	0111010b 	tsteq	r1, fp, lsl #2
 3ec:	00000612 	andeq	r0, r0, r2, lsl r6
 3f0:	0300340e 	movweq	r3, #1038	; 0x40e
 3f4:	3b0b3a08 	blcc	2cec1c <STACK_SIZE+0x2cc50c>
 3f8:	490b390b 	stmdbmi	fp, {r0, r1, r3, r8, fp, ip, sp}
 3fc:	00180213 	andseq	r0, r8, r3, lsl r2
 400:	000f0f00 	andeq	r0, pc, r0, lsl #30
 404:	13490b0b 	movtne	r0, #39691	; 0x9b0b
 408:	26100000 	ldrcs	r0, [r0], -r0
 40c:	00134900 	andseq	r4, r3, r0, lsl #18
 410:	012e1100 			; <UNDEFINED> instruction: 0x012e1100
 414:	0b3a0e03 	bleq	e83c28 <STACK_SIZE+0xe81518>
 418:	0b390b3b 	bleq	e4310c <STACK_SIZE+0xe409fc>
 41c:	01111927 	tsteq	r1, r7, lsr #18
 420:	18400612 	stmdane	r0, {r1, r4, r9, sl}^
 424:	00194296 	mulseq	r9, r6, r2
 428:	11010000 	mrsne	r0, (UNDEF: 1)
 42c:	130e2501 	movwne	r2, #58625	; 0xe501
 430:	1b0e030b 	blne	381064 <STACK_SIZE+0x37e954>
 434:	1201110e 	andne	r1, r1, #-2147483645	; 0x80000003
 438:	00171006 	andseq	r1, r7, r6
 43c:	00240200 	eoreq	r0, r4, r0, lsl #4
 440:	0b3e0b0b 	bleq	f83074 <STACK_SIZE+0xf80964>
 444:	00000e03 	andeq	r0, r0, r3, lsl #28
 448:	03001603 	movweq	r1, #1539	; 0x603
 44c:	3b0b3a0e 	blcc	2cec8c <STACK_SIZE+0x2cc57c>
 450:	490b390b 	stmdbmi	fp, {r0, r1, r3, r8, fp, ip, sp}
 454:	04000013 	streq	r0, [r0], #-19	; 0xffffffed
 458:	13490026 	movtne	r0, #36902	; 0x9026
 45c:	24050000 	strcs	r0, [r5], #-0
 460:	3e0b0b00 	vmlacc.f64	d0, d11, d0
 464:	0008030b 	andeq	r0, r8, fp, lsl #6
 468:	01130600 	tsteq	r3, r0, lsl #12
 46c:	0b3a0b0b 	bleq	e830a0 <STACK_SIZE+0xe80990>
 470:	0b390b3b 	bleq	e43164 <STACK_SIZE+0xe40a54>
 474:	00001301 	andeq	r1, r0, r1, lsl #6
 478:	03000d07 	movweq	r0, #3335	; 0xd07
 47c:	3b0b3a08 	blcc	2ceca4 <STACK_SIZE+0x2cc594>
 480:	490b390b 	stmdbmi	fp, {r0, r1, r3, r8, fp, ip, sp}
 484:	000b3813 	andeq	r3, fp, r3, lsl r8
 488:	000d0800 	andeq	r0, sp, r0, lsl #16
 48c:	0b3a0e03 	bleq	e83ca0 <STACK_SIZE+0xe81590>
 490:	0b390b3b 	bleq	e43184 <STACK_SIZE+0xe40a74>
 494:	0b381349 	bleq	e051c0 <STACK_SIZE+0xe02ab0>
 498:	34090000 	strcc	r0, [r9], #-0
 49c:	3a0e0300 	bcc	3810a4 <STACK_SIZE+0x37e994>
 4a0:	390b3b0b 	stmdbcc	fp, {r0, r1, r3, r8, r9, fp, ip, sp}
 4a4:	3f13490b 	svccc	0x0013490b
 4a8:	00180219 	andseq	r0, r8, r9, lsl r2
 4ac:	01130a00 	tsteq	r3, r0, lsl #20
 4b0:	0b0b0e03 	bleq	2c3cc4 <STACK_SIZE+0x2c15b4>
 4b4:	0b3b0b3a 	bleq	ec31a4 <STACK_SIZE+0xec0a94>
 4b8:	00001301 	andeq	r1, r0, r1, lsl #6
 4bc:	03000d0b 	movweq	r0, #3339	; 0xd0b
 4c0:	3813490e 	ldmdacc	r3, {r1, r2, r3, r8, fp, lr}
 4c4:	0019340b 	andseq	r3, r9, fp, lsl #8
 4c8:	000f0c00 	andeq	r0, pc, r0, lsl #24
 4cc:	00000b0b 	andeq	r0, r0, fp, lsl #22
 4d0:	0b000f0d 	bleq	410c <STACK_SIZE+0x19fc>
 4d4:	0013490b 	andseq	r4, r3, fp, lsl #18
 4d8:	01150e00 	tsteq	r5, r0, lsl #28
 4dc:	13011927 	movwne	r1, #6439	; 0x1927
 4e0:	050f0000 	streq	r0, [pc, #-0]	; 4e8 <STACK_SIZE-0x2228>
 4e4:	00134900 	andseq	r4, r3, r0, lsl #18
 4e8:	012e1000 			; <UNDEFINED> instruction: 0x012e1000
 4ec:	0e03193f 			; <UNDEFINED> instruction: 0x0e03193f
 4f0:	053b0b3a 	ldreq	r0, [fp, #-2874]!	; 0xfffff4c6
 4f4:	19270b39 	stmdbne	r7!, {r0, r3, r4, r5, r8, r9, fp}
 4f8:	01111349 	tsteq	r1, r9, asr #6
 4fc:	18400612 	stmdane	r0, {r1, r4, r9, sl}^
 500:	01194296 			; <UNDEFINED> instruction: 0x01194296
 504:	11000013 	tstne	r0, r3, lsl r0
 508:	08030005 	stmdaeq	r3, {r0, r2}
 50c:	053b0b3a 	ldreq	r0, [fp, #-2874]!	; 0xfffff4c6
 510:	13490b39 	movtne	r0, #39737	; 0x9b39
 514:	00001802 	andeq	r1, r0, r2, lsl #16
 518:	03000512 	movweq	r0, #1298	; 0x512
 51c:	3b0b3a0e 	blcc	2ced5c <STACK_SIZE+0x2cc64c>
 520:	490b3905 	stmdbmi	fp, {r0, r2, r8, fp, ip, sp}
 524:	00180213 	andseq	r0, r8, r3, lsl r2
 528:	00181300 	andseq	r1, r8, r0, lsl #6
 52c:	34140000 	ldrcc	r0, [r4], #-0
 530:	3a080300 	bcc	201138 <STACK_SIZE+0x1fea28>
 534:	39053b0b 	stmdbcc	r5, {r0, r1, r3, r8, r9, fp, ip, sp}
 538:	0213490b 	andseq	r4, r3, #180224	; 0x2c000
 53c:	15000018 	strne	r0, [r0, #-24]	; 0xffffffe8
 540:	0e030034 	mcreq	0, 0, r0, cr3, cr4, {1}
 544:	053b0b3a 	ldreq	r0, [fp, #-2874]!	; 0xfffff4c6
 548:	13490b39 	movtne	r0, #39737	; 0x9b39
 54c:	00001802 	andeq	r1, r0, r2, lsl #16
 550:	49010116 	stmdbmi	r1, {r1, r2, r4, r8}
 554:	00130113 	andseq	r0, r3, r3, lsl r1
 558:	00211700 	eoreq	r1, r1, r0, lsl #14
 55c:	0b2f1349 	bleq	bc5288 <STACK_SIZE+0xbc2b78>
 560:	2e180000 	cdpcs	0, 1, cr0, cr8, cr0, {0}
 564:	3a0e0301 	bcc	381170 <STACK_SIZE+0x37ea60>
 568:	39053b0b 	stmdbcc	r5, {r0, r1, r3, r8, r9, fp, ip, sp}
 56c:	4919270b 	ldmdbmi	r9, {r0, r1, r3, r8, r9, sl, sp}
 570:	12011113 	andne	r1, r1, #-1073741820	; 0xc0000004
 574:	96184006 	ldrls	r4, [r8], -r6
 578:	13011942 	movwne	r1, #6466	; 0x1942
 57c:	0b190000 	bleq	640584 <STACK_SIZE+0x63de74>
 580:	12011101 	andne	r1, r1, #1073741824	; 0x40000000
 584:	00130106 	andseq	r0, r3, r6, lsl #2
 588:	010b1a00 	tsteq	fp, r0, lsl #20
 58c:	06120111 			; <UNDEFINED> instruction: 0x06120111
 590:	2e1b0000 	cdpcs	0, 1, cr0, cr11, cr0, {0}
 594:	3a0e0301 	bcc	3811a0 <STACK_SIZE+0x37ea90>
 598:	390b3b0b 	stmdbcc	fp, {r0, r1, r3, r8, r9, fp, ip, sp}
 59c:	4919270b 	ldmdbmi	r9, {r0, r1, r3, r8, r9, sl, sp}
 5a0:	12011113 	andne	r1, r1, #-1073741820	; 0xc0000004
 5a4:	96184006 	ldrls	r4, [r8], -r6
 5a8:	13011942 	movwne	r1, #6466	; 0x1942
 5ac:	051c0000 	ldreq	r0, [ip, #-0]
 5b0:	3a080300 	bcc	2011b8 <STACK_SIZE+0x1feaa8>
 5b4:	390b3b0b 	stmdbcc	fp, {r0, r1, r3, r8, r9, fp, ip, sp}
 5b8:	0213490b 	andseq	r4, r3, #180224	; 0x2c000
 5bc:	1d000018 	stcne	0, cr0, [r0, #-96]	; 0xffffffa0
 5c0:	0e030005 	cdpeq	0, 0, cr0, cr3, cr5, {0}
 5c4:	0b3b0b3a 	bleq	ec32b4 <STACK_SIZE+0xec0ba4>
 5c8:	13490b39 	movtne	r0, #39737	; 0x9b39
 5cc:	00001802 	andeq	r1, r0, r2, lsl #16
 5d0:	0300341e 	movweq	r3, #1054	; 0x41e
 5d4:	3b0b3a0e 	blcc	2cee14 <STACK_SIZE+0x2cc704>
 5d8:	490b390b 	stmdbmi	fp, {r0, r1, r3, r8, fp, ip, sp}
 5dc:	00180213 	andseq	r0, r8, r3, lsl r2
 5e0:	00341f00 	eorseq	r1, r4, r0, lsl #30
 5e4:	0b3a0803 	bleq	e825f8 <STACK_SIZE+0xe7fee8>
 5e8:	0b390b3b 	bleq	e432dc <STACK_SIZE+0xe40bcc>
 5ec:	18021349 	stmdane	r2, {r0, r3, r6, r8, r9, ip}
 5f0:	2e200000 	cdpcs	0, 2, cr0, cr0, cr0, {0}
 5f4:	3a0e0301 	bcc	381200 <STACK_SIZE+0x37eaf0>
 5f8:	390b3b0b 	stmdbcc	fp, {r0, r1, r3, r8, r9, fp, ip, sp}
 5fc:	4919270b 	ldmdbmi	r9, {r0, r1, r3, r8, r9, sl, sp}
 600:	12011113 	andne	r1, r1, #-1073741820	; 0xc0000004
 604:	97184006 	ldrls	r4, [r8, -r6]
 608:	13011942 	movwne	r1, #6466	; 0x1942
 60c:	2e210000 	cdpcs	0, 2, cr0, cr1, cr0, {0}
 610:	3a0e0301 	bcc	38121c <STACK_SIZE+0x37eb0c>
 614:	390b3b0b 	stmdbcc	fp, {r0, r1, r3, r8, r9, fp, ip, sp}
 618:	1119270b 	tstne	r9, fp, lsl #14
 61c:	40061201 	andmi	r1, r6, r1, lsl #4
 620:	19429618 	stmdbne	r2, {r3, r4, r9, sl, ip, pc}^
 624:	00001301 	andeq	r1, r0, r1, lsl #6
 628:	03012e22 	movweq	r2, #7714	; 0x1e22
 62c:	3b0b3a0e 	blcc	2cee6c <STACK_SIZE+0x2cc75c>
 630:	270b390b 	strcs	r3, [fp, -fp, lsl #18]
 634:	12011119 	andne	r1, r1, #1073741830	; 0x40000006
 638:	97184006 	ldrls	r4, [r8, -r6]
 63c:	13011942 	movwne	r1, #6466	; 0x1942
 640:	2e230000 	cdpcs	0, 2, cr0, cr3, cr0, {0}
 644:	03193f01 	tsteq	r9, #1, 30
 648:	3b0b3a0e 	blcc	2cee88 <STACK_SIZE+0x2cc778>
 64c:	270b390b 	strcs	r3, [fp, -fp, lsl #18]
 650:	12011119 	andne	r1, r1, #1073741830	; 0x40000006
 654:	96184006 	ldrls	r4, [r8], -r6
 658:	13011942 	movwne	r1, #6466	; 0x1942
 65c:	2e240000 	cdpcs	0, 2, cr0, cr4, cr0, {0}
 660:	3a0e0301 	bcc	38126c <STACK_SIZE+0x37eb5c>
 664:	390b3b0b 	stmdbcc	fp, {r0, r1, r3, r8, r9, fp, ip, sp}
 668:	4919270b 	ldmdbmi	r9, {r0, r1, r3, r8, r9, sl, sp}
 66c:	12011113 	andne	r1, r1, #-1073741820	; 0xc0000004
 670:	97184006 	ldrls	r4, [r8, -r6]
 674:	00001942 	andeq	r1, r0, r2, asr #18
 678:	01110100 	tsteq	r1, r0, lsl #2
 67c:	0b130e25 	bleq	4c3f18 <STACK_SIZE+0x4c1808>
 680:	0e1b0e03 	cdpeq	14, 1, cr0, cr11, cr3, {0}
 684:	06120111 			; <UNDEFINED> instruction: 0x06120111
 688:	00001710 	andeq	r1, r0, r0, lsl r7
 68c:	0b002402 	bleq	969c <STACK_SIZE+0x6f8c>
 690:	030b3e0b 	movweq	r3, #48651	; 0xbe0b
 694:	0300000e 	movweq	r0, #14
 698:	0e030016 	mcreq	0, 0, r0, cr3, cr6, {0}
 69c:	0b3b0b3a 	bleq	ec338c <STACK_SIZE+0xec0c7c>
 6a0:	13490b39 	movtne	r0, #39737	; 0x9b39
 6a4:	24040000 	strcs	r0, [r4], #-0
 6a8:	3e0b0b00 	vmlacc.f64	d0, d11, d0
 6ac:	0008030b 	andeq	r0, r8, fp, lsl #6
 6b0:	01040500 	tsteq	r4, r0, lsl #10
 6b4:	0b0b0b3e 	bleq	2c33b4 <STACK_SIZE+0x2c0ca4>
 6b8:	0b3a1349 	bleq	e853e4 <STACK_SIZE+0xe82cd4>
 6bc:	0b390b3b 	bleq	e433b0 <STACK_SIZE+0xe40ca0>
 6c0:	00001301 	andeq	r1, r0, r1, lsl #6
 6c4:	03002806 	movweq	r2, #2054	; 0x806
 6c8:	000b1c0e 	andeq	r1, fp, lr, lsl #24
 6cc:	00280700 	eoreq	r0, r8, r0, lsl #14
 6d0:	0b1c0803 	bleq	7026e4 <STACK_SIZE+0x6fffd4>
 6d4:	13080000 	movwne	r0, #32768	; 0x8000
 6d8:	3a0b0b01 	bcc	2c32e4 <STACK_SIZE+0x2c0bd4>
 6dc:	390b3b0b 	stmdbcc	fp, {r0, r1, r3, r8, r9, fp, ip, sp}
 6e0:	0013010b 	andseq	r0, r3, fp, lsl #2
 6e4:	000d0900 	andeq	r0, sp, r0, lsl #18
 6e8:	0b3a0803 	bleq	e826fc <STACK_SIZE+0xe7ffec>
 6ec:	0b390b3b 	bleq	e433e0 <STACK_SIZE+0xe40cd0>
 6f0:	0b381349 	bleq	e0541c <STACK_SIZE+0xe02d0c>
 6f4:	0d0a0000 	stceq	0, cr0, [sl, #-0]
 6f8:	3a0e0300 	bcc	381300 <STACK_SIZE+0x37ebf0>
 6fc:	390b3b0b 	stmdbcc	fp, {r0, r1, r3, r8, r9, fp, ip, sp}
 700:	3813490b 	ldmdacc	r3, {r0, r1, r3, r8, fp, lr}
 704:	0b00000b 	bleq	738 <STACK_SIZE-0x1fd8>
 708:	0e030034 	mcreq	0, 0, r0, cr3, cr4, {1}
 70c:	0b3b0b3a 	bleq	ec33fc <STACK_SIZE+0xec0cec>
 710:	13490b39 	movtne	r0, #39737	; 0x9b39
 714:	1802193f 	stmdane	r2, {r0, r1, r2, r3, r4, r5, r8, fp, ip}
 718:	2e0c0000 	cdpcs	0, 0, cr0, cr12, cr0, {0}
 71c:	03193f00 	tsteq	r9, #0, 30
 720:	3b0b3a0e 	blcc	2cef60 <STACK_SIZE+0x2cc850>
 724:	270b390b 	strcs	r3, [fp, -fp, lsl #18]
 728:	11134919 	tstne	r3, r9, lsl r9
 72c:	40061201 	andmi	r1, r6, r1, lsl #4
 730:	19429618 	stmdbne	r2, {r3, r4, r9, sl, ip, pc}^
 734:	2e0d0000 	cdpcs	0, 0, cr0, cr13, cr0, {0}
 738:	03193f01 	tsteq	r9, #1, 30
 73c:	3b0b3a0e 	blcc	2cef7c <STACK_SIZE+0x2cc86c>
 740:	270b390b 	strcs	r3, [fp, -fp, lsl #18]
 744:	12011119 	andne	r1, r1, #1073741830	; 0x40000006
 748:	96184006 	ldrls	r4, [r8], -r6
 74c:	13011942 	movwne	r1, #6466	; 0x1942
 750:	050e0000 	streq	r0, [lr, #-0]
 754:	3a080300 	bcc	20135c <STACK_SIZE+0x1fec4c>
 758:	390b3b0b 	stmdbcc	fp, {r0, r1, r3, r8, r9, fp, ip, sp}
 75c:	0213490b 	andseq	r4, r3, #180224	; 0x2c000
 760:	0f000018 	svceq	0x00000018
 764:	193f002e 	ldmdbne	pc!, {r1, r2, r3, r5}	; <UNPREDICTABLE>
 768:	0b3a0e03 	bleq	e83f7c <STACK_SIZE+0xe8186c>
 76c:	0b390b3b 	bleq	e43460 <STACK_SIZE+0xe40d50>
 770:	13491927 	movtne	r1, #39207	; 0x9927
 774:	06120111 			; <UNDEFINED> instruction: 0x06120111
 778:	42971840 	addsmi	r1, r7, #64, 16	; 0x400000
 77c:	10000019 	andne	r0, r0, r9, lsl r0
 780:	0e03002e 	cdpeq	0, 0, cr0, cr3, cr14, {1}
 784:	0b3b0b3a 	bleq	ec3474 <STACK_SIZE+0xec0d64>
 788:	19270b39 	stmdbne	r7!, {r0, r3, r4, r5, r8, r9, fp}
 78c:	01111349 	tsteq	r1, r9, asr #6
 790:	18400612 	stmdane	r0, {r1, r4, r9, sl}^
 794:	00194297 	mulseq	r9, r7, r2
 798:	00051100 	andeq	r1, r5, r0, lsl #2
 79c:	0b3a0e03 	bleq	e83fb0 <STACK_SIZE+0xe818a0>
 7a0:	0b390b3b 	bleq	e43494 <STACK_SIZE+0xe40d84>
 7a4:	18021349 	stmdane	r2, {r0, r3, r6, r8, r9, ip}
 7a8:	34120000 	ldrcc	r0, [r2], #-0
 7ac:	3a0e0300 	bcc	3813b4 <STACK_SIZE+0x37eca4>
 7b0:	390b3b0b 	stmdbcc	fp, {r0, r1, r3, r8, r9, fp, ip, sp}
 7b4:	0213490b 	andseq	r4, r3, #180224	; 0x2c000
 7b8:	13000018 	movwne	r0, #24
 7bc:	0b0b000f 	bleq	2c0800 <STACK_SIZE+0x2be0f0>
 7c0:	00001349 	andeq	r1, r0, r9, asr #6
 7c4:	03012e14 	movweq	r2, #7700	; 0x1e14
 7c8:	3b0b3a0e 	blcc	2cf008 <STACK_SIZE+0x2cc8f8>
 7cc:	270b390b 	strcs	r3, [fp, -fp, lsl #18]
 7d0:	11134919 	tstne	r3, r9, lsl r9
 7d4:	40061201 	andmi	r1, r6, r1, lsl #4
 7d8:	19429618 	stmdbne	r2, {r3, r4, r9, sl, ip, pc}^
 7dc:	00001301 	andeq	r1, r0, r1, lsl #6
 7e0:	03012e15 	movweq	r2, #7701	; 0x1e15
 7e4:	3b0b3a0e 	blcc	2cf024 <STACK_SIZE+0x2cc914>
 7e8:	270b390b 	strcs	r3, [fp, -fp, lsl #18]
 7ec:	11134919 	tstne	r3, r9, lsl r9
 7f0:	40061201 	andmi	r1, r6, r1, lsl #4
 7f4:	19429718 	stmdbne	r2, {r3, r4, r8, r9, sl, ip, pc}^
 7f8:	34160000 	ldrcc	r0, [r6], #-0
 7fc:	3a080300 	bcc	201404 <STACK_SIZE+0x1fecf4>
 800:	390b3b0b 	stmdbcc	fp, {r0, r1, r3, r8, r9, fp, ip, sp}
 804:	0213490b 	andseq	r4, r3, #180224	; 0x2c000
 808:	00000018 	andeq	r0, r0, r8, lsl r0

Disassembly of section .debug_aranges:

00000000 <.debug_aranges>:
   0:	00000024 	andeq	r0, r0, r4, lsr #32
   4:	00000002 	andeq	r0, r0, r2
   8:	00040000 	andeq	r0, r4, r0
   c:	00000000 	andeq	r0, r0, r0
  10:	20000000 	andcs	r0, r0, r0
  14:	00000074 	andeq	r0, r0, r4, ror r0
  18:	20000100 	andcs	r0, r0, r0, lsl #2
  1c:	0000001c 	andeq	r0, r0, ip, lsl r0
	...
  28:	0000001c 	andeq	r0, r0, ip, lsl r0
  2c:	00220002 	eoreq	r0, r2, r2
  30:	00040000 	andeq	r0, r4, r0
  34:	00000000 	andeq	r0, r0, r0
  38:	2000011c 	andcs	r0, r0, ip, lsl r1
  3c:	000000cc 	andeq	r0, r0, ip, asr #1
	...
  48:	0000001c 	andeq	r0, r0, ip, lsl r0
  4c:	01f20002 	mvnseq	r0, r2
  50:	00040000 	andeq	r0, r4, r0
  54:	00000000 	andeq	r0, r0, r0
  58:	200001e8 	andcs	r0, r0, r8, ror #3
  5c:	000001e8 	andeq	r0, r0, r8, ror #3
	...
  68:	0000001c 	andeq	r0, r0, ip, lsl r0
  6c:	04b30002 	ldrteq	r0, [r3], #2
  70:	00040000 	andeq	r0, r4, r0
  74:	00000000 	andeq	r0, r0, r0
  78:	200003d0 	ldrdcs	r0, [r0], -r0	; <UNPREDICTABLE>
  7c:	00000190 	muleq	r0, r0, r1
	...
  88:	0000001c 	andeq	r0, r0, ip, lsl r0
  8c:	064e0002 	strbeq	r0, [lr], -r2
  90:	00040000 	andeq	r0, r4, r0
  94:	00000000 	andeq	r0, r0, r0
  98:	20000560 	andcs	r0, r0, r0, ror #10
  9c:	00000110 	andeq	r0, r0, r0, lsl r1
	...
  a8:	0000001c 	andeq	r0, r0, ip, lsl r0
  ac:	08160002 	ldmdaeq	r6, {r1}
  b0:	00040000 	andeq	r0, r4, r0
  b4:	00000000 	andeq	r0, r0, r0
  b8:	20000670 	andcs	r0, r0, r0, ror r6
  bc:	00000d44 	andeq	r0, r0, r4, asr #26
	...
  c8:	0000001c 	andeq	r0, r0, ip, lsl r0
  cc:	13f70002 	mvnsne	r0, #2, 0
  d0:	00040000 	andeq	r0, r4, r0
  d4:	00000000 	andeq	r0, r0, r0
  d8:	200013b4 			; <UNDEFINED> instruction: 0x200013b4
  dc:	0000025a 	andeq	r0, r0, sl, asr r2
	...

Disassembly of section .debug_str:

00000000 <.debug_str>:
   0:	72617473 	rsbvc	r7, r1, #1929379840	; 0x73000000
   4:	00532e74 	subseq	r2, r3, r4, ror lr
   8:	6573552f 	ldrbvs	r5, [r3, #-1327]!	; 0xfffffad1
   c:	652f7372 	strvs	r7, [pc, #-882]!	; fffffca2 <__bss_end__+0xdfff0c82>
  10:	736e6176 	cmnvc	lr, #-2147483619	; 0x8000001d
  14:	63617261 	cmnvs	r1, #268435462	; 0x10000006
  18:	442f7961 	strtmi	r7, [pc], #-2401	; 20 <STACK_SIZE-0x26f0>
  1c:	746b7365 	strbtvc	r7, [fp], #-869	; 0xfffffc9b
  20:	502f706f 	eorpl	r7, pc, pc, rrx
  24:	2f6f6369 	svccs	0x006f6369
  28:	6f636970 	svcvs	0x00636970
  2c:	6f72702d 	svcvs	0x0072702d
  30:	72702f6a 	rsbsvc	r2, r0, #424	; 0x1a8
  34:	6172676f 	cmnvs	r2, pc, ror #14
  38:	342f736d 	strtcc	r7, [pc], #-877	; 40 <STACK_SIZE-0x26d0>
  3c:	7577682d 	ldrbvc	r6, [r7, #-2093]!	; 0xfffff7d3
  40:	00747261 	rsbseq	r7, r4, r1, ror #4
  44:	20554e47 	subscs	r4, r5, r7, asr #28
  48:	32205341 	eorcc	r5, r0, #67108865	; 0x4000001
  4c:	2e33332e 	cdpcs	3, 3, cr3, cr3, cr14, {1}
  50:	4e470031 	mcrmi	0, 2, r0, cr7, cr1, {1}
  54:	31432055 	qdaddcc	r2, r5, r3
  58:	2e392037 	mrccs	0, 1, r2, cr9, cr7, {1}
  5c:	20312e32 	eorscs	r2, r1, r2, lsr lr
  60:	39313032 	ldmdbcc	r1!, {r1, r4, r5, ip, sp}
  64:	35323031 	ldrcc	r3, [r2, #-49]!	; 0xffffffcf
  68:	65722820 	ldrbvs	r2, [r2, #-2080]!	; 0xfffff7e0
  6c:	7361656c 	cmnvc	r1, #108, 10	; 0x1b000000
  70:	5b202965 	blpl	80a60c <STACK_SIZE+0x807efc>
  74:	2f4d5241 	svccs	0x004d5241
  78:	2d6d7261 	sfmcs	f7, 2, [sp, #-388]!	; 0xfffffe7c
  7c:	72622d39 	rsbvc	r2, r2, #3648	; 0xe40
  80:	68636e61 	stmdavs	r3!, {r0, r5, r6, r9, sl, fp, sp, lr}^
  84:	76657220 	strbtvc	r7, [r5], -r0, lsr #4
  88:	6f697369 	svcvs	0x00697369
  8c:	3732206e 	ldrcc	r2, [r2, -lr, rrx]!
  90:	39393537 	ldmdbcc	r9!, {r0, r1, r2, r4, r5, r8, sl, ip, sp}
  94:	6d2d205d 	stcvs	0, cr2, [sp, #-372]!	; 0xfffffe8c
  98:	6d756874 	ldclvs	8, cr6, [r5, #-464]!	; 0xfffffe30
  9c:	6d2d2062 	stcvs	0, cr2, [sp, #-392]!	; 0xfffffe78
  a0:	3d757063 	ldclcc	0, cr7, [r5, #-396]!	; 0xfffffe74
  a4:	74726f63 	ldrbtvc	r6, [r2], #-3939	; 0xfffff09d
  a8:	6d2d7865 	stcvs	8, cr7, [sp, #-404]!	; 0xfffffe6c
  ac:	6d2d2030 	stcvs	0, cr2, [sp, #-192]!	; 0xffffff40
  b0:	616f6c66 	cmnvs	pc, r6, ror #24
  b4:	62612d74 	rsbvs	r2, r1, #116, 26	; 0x1d00
  b8:	6f733d69 	svcvs	0x00733d69
  bc:	2d207466 	cfstrscs	mvf7, [r0, #-408]!	; 0xfffffe68
  c0:	6372616d 	cmnvs	r2, #1073741851	; 0x4000001b
  c4:	72613d68 	rsbvc	r3, r1, #104, 26	; 0x1a00
  c8:	7336766d 	teqvc	r6, #114294784	; 0x6d00000
  cc:	2d206d2d 	stccs	13, cr6, [r0, #-180]!	; 0xffffff4c
  d0:	662d2067 	strtvs	r2, [sp], -r7, rrx
  d4:	65657266 	strbvs	r7, [r5, #-614]!	; 0xfffffd9a
  d8:	6e617473 	mcrvs	4, 3, r7, cr1, cr3, {3}
  dc:	676e6964 	strbvs	r6, [lr, -r4, ror #18]!
  e0:	646e6900 	strbtvs	r6, [lr], #-2304	; 0xfffff700
  e4:	73007865 	movwvc	r7, #2149	; 0x865
  e8:	74726f68 	ldrbtvc	r6, [r2], #-3944	; 0xfffff098
  ec:	746e6920 	strbtvc	r6, [lr], #-2336	; 0xfffff6e0
  f0:	74736300 	ldrbtvc	r6, [r3], #-768	; 0xfffffd00
  f4:	00747261 	rsbseq	r7, r4, r1, ror #4
  f8:	73625f5f 	cmnvc	r2, #380	; 0x17c
  fc:	74735f73 	ldrbtvc	r5, [r3], #-3955	; 0xfffff08d
 100:	5f747261 	svcpl	0x00747261
 104:	6975005f 	ldmdbvs	r5!, {r0, r1, r2, r3, r4, r6}^
 108:	5f38746e 	svcpl	0x0038746e
 10c:	73750074 	cmnvc	r5, #116, 0	; 0x74
 110:	705f6365 	subsvc	r6, pc, r5, ror #6
 114:	625f7265 	subsvs	r7, pc, #1342177286	; 0x50000006
 118:	62007469 	andvs	r7, r0, #1761607680	; 0x69000000
 11c:	5f647561 	svcpl	0x00647561
 120:	65746172 	ldrbvs	r6, [r4, #-370]!	; 0xfffffe8e
 124:	4b4c4300 	blmi	1310d2c <STACK_SIZE+0x130e61c>
 128:	5245505f 	subpl	r5, r5, #95, 0	; 0x5f
 12c:	54435f49 	strbpl	r5, [r3], #-3913	; 0xfffff0b7
 130:	6c004c52 	stcvs	12, cr4, [r0], {82}	; 0x52
 134:	20676e6f 	rsbcs	r6, r7, pc, ror #28
 138:	676e6f6c 	strbvs	r6, [lr, -ip, ror #30]!
 13c:	746e6920 	strbtvc	r6, [lr], #-2336	; 0xfffff6e0
 140:	6f6c6700 	svcvs	0x006c6700
 144:	5f6c6162 	svcpl	0x006c6162
 148:	74726175 	ldrbtvc	r6, [r2], #-373	; 0xfffffe8b
 14c:	5f776800 	svcpl	0x00776800
 150:	74726175 	ldrbtvc	r6, [r2], #-373	; 0xfffffe8b
 154:	6c00745f 	cfstrsvs	mvf7, [r0], {95}	; 0x5f
 158:	20676e6f 	rsbcs	r6, r7, pc, ror #28
 15c:	62756f64 	rsbsvs	r6, r5, #100, 30	; 0x190
 160:	6200656c 	andvs	r6, r0, #108, 10	; 0x1b000000
 164:	00647561 	rsbeq	r7, r4, r1, ror #10
 168:	69736e75 	ldmdbvs	r3!, {r0, r2, r4, r5, r6, r9, sl, fp, sp, lr}^
 16c:	64656e67 	strbtvs	r6, [r5], #-3687	; 0xfffff199
 170:	61686320 	cmnvs	r8, r0, lsr #6
 174:	796d0072 	stmdbvc	sp!, {r1, r4, r5, r6}^
 178:	6e69616d 	powvsez	f6, f1, #5.0
 17c:	756f6300 	strbvc	r6, [pc, #-768]!	; fffffe84 <__bss_end__+0xdfff0e64>
 180:	7265746e 	rsbvc	r7, r5, #1845493760	; 0x6e000000
 184:	625f5f00 	subsvs	r5, pc, #0, 30
 188:	655f7373 	ldrbvs	r7, [pc, #-883]	; fffffe1d <__bss_end__+0xdfff0dfd>
 18c:	5f5f646e 	svcpl	0x005f646e
 190:	6e6f6c00 	cdpvs	12, 6, cr6, cr15, cr0, {0}
 194:	6f6c2067 	svcvs	0x006c2067
 198:	7520676e 	strvc	r6, [r0, #-1902]!	; 0xfffff892
 19c:	6769736e 	strbvs	r7, [r9, -lr, ror #6]!
 1a0:	2064656e 	rsbcs	r6, r4, lr, ror #10
 1a4:	00746e69 	rsbseq	r6, r4, r9, ror #28
 1a8:	746e6975 	strbtvc	r6, [lr], #-2421	; 0xfffff68b
 1ac:	745f3233 	ldrbvc	r3, [pc], #-563	; 1b4 <STACK_SIZE-0x255c>
 1b0:	74736300 	ldrbtvc	r6, [r3], #-768	; 0xfffffd00
 1b4:	2e747261 	cdpcs	2, 7, cr7, cr4, cr1, {3}
 1b8:	6c670063 	stclvs	0, cr0, [r7], #-396	; 0xfffffe74
 1bc:	6c61626f 	sfmvs	f6, 2, [r1], #-444	; 0xfffffe44
 1c0:	5f77685f 	svcpl	0x0077685f
 1c4:	74726175 	ldrbtvc	r6, [r2], #-373	; 0xfffffe8b
 1c8:	6f687300 	svcvs	0x00687300
 1cc:	75207472 	strvc	r7, [r0, #-1138]!	; 0xfffffb8e
 1d0:	6769736e 	strbvs	r7, [r9, -lr, ror #6]!
 1d4:	2064656e 	rsbcs	r6, r4, lr, ror #10
 1d8:	00746e69 	rsbseq	r6, r4, r9, ror #28
 1dc:	755f7773 	ldrbvc	r7, [pc, #-1907]	; fffffa71 <__bss_end__+0xdfff0a51>
 1e0:	5f747261 	svcpl	0x00747261
 1e4:	73620074 	cmnvc	r2, #116, 0	; 0x74
 1e8:	6e655f73 	mcrvs	15, 3, r5, cr5, cr3, {3}
 1ec:	50470064 	subpl	r0, r7, r4, rrx
 1f0:	4f5f4f49 	svcmi	0x005f4f49
 1f4:	4c435f45 	mcrrmi	15, 4, r5, r3, cr5
 1f8:	4f490052 	svcmi	0x00490052
 1fc:	4e41425f 	mcrmi	2, 2, r4, cr1, cr15, {2}
 200:	41425f4b 	cmpmi	r2, fp, asr #30
 204:	535f4553 	cmppl	pc, #348127232	; 0x14c00000
 208:	55544154 	ldrbpl	r4, [r4, #-340]	; 0xfffffeac
 20c:	50470053 	subpl	r0, r7, r3, asr r0
 210:	4f5f4f49 	svcmi	0x005f4f49
 214:	435f5455 	cmpmi	pc, #1426063360	; 0x55000000
 218:	5000524c 	andpl	r5, r0, ip, asr #4
 21c:	00304f49 	eorseq	r4, r0, r9, asr #30
 220:	45534552 	ldrbmi	r4, [r3, #-1362]	; 0xfffffaae
 224:	53555f54 	cmppl	r5, #84, 30	; 0x150
 228:	52544342 	subspl	r4, r4, #134217729	; 0x8000001
 22c:	7067004c 	rsbvc	r0, r7, ip, asr #32
 230:	735f6f69 	cmpvc	pc, #420	; 0x1a4
 234:	695f7465 	ldmdbvs	pc, {r0, r2, r5, r6, sl, ip, sp, lr}^	; <UNPREDICTABLE>
 238:	7475706e 	ldrbtvc	r7, [r5], #-110	; 0xffffff92
 23c:	69706700 	ldmdbvs	r0!, {r8, r9, sl, sp, lr}^
 240:	65725f6f 	ldrbvs	r5, [r2, #-3951]!	; 0xfffff091
 244:	67006461 	strvs	r6, [r0, -r1, ror #8]
 248:	5f6f6970 	svcpl	0x006f6970
 24c:	5f746573 	svcpl	0x00746573
 250:	0066666f 	rsbeq	r6, r6, pc, ror #12
 254:	45534552 	ldrbmi	r4, [r3, #-1362]	; 0xfffffaae
 258:	4f495f54 	svcmi	0x00495f54
 25c:	4e41425f 	mcrmi	2, 2, r4, cr1, cr15, {2}
 260:	6700304b 	strvs	r3, [r0, -fp, asr #32]
 264:	5f6f6970 	svcpl	0x006f6970
 268:	5f746573 	svcpl	0x00746573
 26c:	7074756f 	rsbsvc	r7, r4, pc, ror #10
 270:	57007475 	smlsdxpl	r0, r5, r4, r7
 274:	48435441 	stmdami	r3, {r0, r6, sl, ip, lr}^
 278:	474f445f 	smlsldmi	r4, pc, pc, r4	; <UNPREDICTABLE>
 27c:	49504700 	ldmdbmi	r0, {r8, r9, sl, lr}^
 280:	4e495f4f 	cdpmi	15, 4, cr5, cr9, cr15, {2}
 284:	53455200 	movtpl	r5, #20992	; 0x5200
 288:	445f5445 	ldrbmi	r5, [pc], #-1093	; 290 <STACK_SIZE-0x2480>
 28c:	00454e4f 	subeq	r4, r5, pc, asr #28
 290:	4f495047 	svcmi	0x00495047
 294:	00454f5f 	subeq	r4, r5, pc, asr pc
 298:	45534552 	ldrbmi	r4, [r3, #-1362]	; 0xfffffaae
 29c:	41555f54 	cmpmi	r5, r4, asr pc
 2a0:	00305452 	eorseq	r5, r0, r2, asr r4
 2a4:	45534552 	ldrbmi	r4, [r3, #-1362]	; 0xfffffaae
 2a8:	41555f54 	cmpmi	r5, r4, asr pc
 2ac:	00315452 	eorseq	r5, r1, r2, asr r4
 2b0:	45534552 	ldrbmi	r4, [r3, #-1362]	; 0xfffffaae
 2b4:	525f5354 	subspl	r5, pc, #84, 6	; 0x50000001
 2b8:	54455345 	strbpl	r5, [r5], #-837	; 0xfffffcbb
 2bc:	524c435f 	subpl	r4, ip, #2080374785	; 0x7c000001
 2c0:	69706700 	ldmdbvs	r0!, {r8, r9, sl, sp, lr}^
 2c4:	65725f6f 	ldrbvs	r5, [r2, #-3951]!	; 0xfffff091
 2c8:	00746573 	rsbseq	r6, r4, r3, ror r5
 2cc:	7366666f 	cmnvc	r6, #116391936	; 0x6f00000
 2d0:	50007465 	andpl	r7, r0, r5, ror #8
 2d4:	00314f49 	eorseq	r4, r1, r9, asr #30
 2d8:	6f697067 	svcvs	0x00697067
 2dc:	7200632e 	andvc	r6, r0, #-1207959552	; 0xb8000000
 2e0:	74657365 	strbtvc	r7, [r5], #-869	; 0xfffffc9b
 2e4:	7265705f 	rsbvc	r7, r5, #95, 0	; 0x5f
 2e8:	00687069 	rsbeq	r7, r8, r9, rrx
 2ec:	4f495047 	svcmi	0x00495047
 2f0:	5f454f5f 	svcpl	0x00454f5f
 2f4:	00544553 	subseq	r4, r4, r3, asr r5
 2f8:	425f4f49 	subsmi	r4, pc, #292	; 0x124
 2fc:	5f4b4e41 	svcpl	0x004b4e41
 300:	45534142 	ldrbmi	r4, [r3, #-322]	; 0xfffffebe
 304:	5254435f 	subspl	r4, r4, #2080374785	; 0x7c000001
 308:	5047004c 	subpl	r0, r7, ip, asr #32
 30c:	4f5f4f49 	svcmi	0x005f4f49
 310:	535f5455 	cmppl	pc, #1426063360	; 0x55000000
 314:	67005445 	strvs	r5, [r0, -r5, asr #8]
 318:	5f6f6970 	svcpl	0x006f6970
 31c:	5f746573 	svcpl	0x00746573
 320:	636e7566 	cmnvs	lr, #427819008	; 0x19800000
 324:	6e6f6974 			; <UNDEFINED> instruction: 0x6e6f6974
 328:	53455200 	movtpl	r5, #20992	; 0x5200
 32c:	47005445 	strmi	r5, [r0, -r5, asr #8]
 330:	5f4f4950 	svcpl	0x004f4950
 334:	0054554f 	subseq	r5, r4, pc, asr #10
 338:	6f697067 	svcvs	0x00697067
 33c:	7465735f 	strbtvc	r7, [r5], #-863	; 0xfffffca1
 340:	006e6f5f 	rsbeq	r6, lr, pc, asr pc
 344:	43534f58 	cmpmi	r3, #88, 30	; 0x160
 348:	524f445f 	subpl	r4, pc, #1593835520	; 0x5f000000
 34c:	544e414d 	strbpl	r4, [lr], #-333	; 0xfffffeb3
 350:	756f6300 	strbvc	r6, [pc, #-768]!	; 58 <STACK_SIZE-0x26b8>
 354:	5800746e 	stmdapl	r0, {r1, r2, r3, r5, r6, sl, ip, sp, lr}
 358:	5f43534f 	svcpl	0x0043534f
 35c:	52415453 	subpl	r5, r1, #1392508928	; 0x53000000
 360:	00505554 	subseq	r5, r0, r4, asr r5
 364:	62616e65 	rsbvs	r6, r1, #1616	; 0x650
 368:	635f656c 	cmpvs	pc, #108, 10	; 0x1b000000
 36c:	705f6b6c 	subsvc	r6, pc, ip, ror #22
 370:	00697265 	rsbeq	r7, r9, r5, ror #4
 374:	43534f58 	cmpmi	r3, #88, 30	; 0x160
 378:	4154535f 	cmpmi	r4, pc, asr r3
 37c:	00535554 	subseq	r5, r3, r4, asr r5
 380:	636f6c63 	cmnvs	pc, #25344	; 0x6300
 384:	00632e6b 	rsbeq	r2, r3, fp, ror #28
 388:	616c6564 	cmnvs	ip, r4, ror #10
 38c:	6f730079 	svcvs	0x00730079
 390:	65637275 	strbvs	r7, [r3, #-629]!	; 0xfffffd8b
 394:	6c656400 	cfstrdvs	mvd6, [r5], #-0
 398:	755f7961 	ldrbvc	r7, [pc, #-2401]	; fffffa3f <__bss_end__+0xdfff0a1f>
 39c:	4f580073 	svcmi	0x00580073
 3a0:	435f4353 	cmpmi	pc, #1275068417	; 0x4c000001
 3a4:	544e554f 	strbpl	r5, [lr], #-1359	; 0xfffffab1
 3a8:	63696d00 	cmnvs	r9, #0, 26
 3ac:	735f6f72 	cmpvc	pc, #456	; 0x1c8
 3b0:	6e6f6365 	cdpvs	3, 6, cr6, cr15, cr5, {3}
 3b4:	735f7364 	cmpvc	pc, #100, 6	; 0x90000001
 3b8:	74726174 	ldrbtvc	r6, [r2], #-372	; 0xfffffe8c
 3bc:	616e6500 	cmnvs	lr, r0, lsl #10
 3c0:	5f656c62 	svcpl	0x00656c62
 3c4:	636f6c63 	cmnvs	pc, #25344	; 0x6300
 3c8:	756e006b 	strbvc	r0, [lr, #-107]!	; 0xffffff95
 3cc:	6f6c5f6d 	svcvs	0x006c5f6d
 3d0:	0073706f 	rsbseq	r7, r3, pc, rrx
 3d4:	43534f58 	cmpmi	r3, #88, 30	; 0x160
 3d8:	5254435f 	subspl	r4, r4, #2080374785	; 0x7c000001
 3dc:	7375004c 	cmnvc	r5, #76, 0	; 0x4c
 3e0:	74006365 	strvc	r6, [r0], #-869	; 0xfffffc9b
 3e4:	64656d69 	strbtvs	r6, [r5], #-3433	; 0xfffff297
 3e8:	6972775f 	ldmdbvs	r2!, {r0, r1, r2, r3, r4, r6, r8, r9, sl, ip, sp, lr}^
 3ec:	73006574 	movwvc	r6, #1396	; 0x574
 3f0:	61755f77 	cmnvs	r5, r7, ror pc
 3f4:	705f7472 	subsvc	r7, pc, r2, ror r4	; <UNPREDICTABLE>
 3f8:	00637475 	rsbeq	r7, r3, r5, ror r4
 3fc:	74696e69 	strbtvc	r6, [r9], #-3689	; 0xfffff197
 400:	7261755f 	rsbvc	r7, r1, #398458880	; 0x17c00000
 404:	72705f74 	rsbsvc	r5, r0, #116, 30	; 0x1d0
 408:	69746e69 	ldmdbvs	r4!, {r0, r3, r5, r6, r9, sl, fp, sp, lr}^
 40c:	7300676e 	movwvc	r6, #1902	; 0x76e
 410:	61755f77 	cmnvs	r5, r7, ror pc
 414:	705f7472 	subsvc	r7, pc, r2, ror r4	; <UNPREDICTABLE>
 418:	006b7475 	rsbeq	r7, fp, r5, ror r4
 41c:	752d7773 	strvc	r7, [sp, #-1907]!	; 0xfffff88d
 420:	2e747261 	cdpcs	2, 7, cr7, cr4, cr1, {3}
 424:	65720063 	ldrbvs	r0, [r2, #-99]!	; 0xffffff9d
 428:	746c7573 	strbtvc	r7, [ip], #-1395	; 0xfffffa8d
 42c:	74756f00 	ldrbtvc	r6, [r5], #-3840	; 0xfffff100
 430:	7463665f 	strbtvc	r6, [r3], #-1631	; 0xfffff9a1
 434:	6172775f 	cmnvs	r2, pc, asr r7
 438:	6f5f0070 	svcvs	0x005f0070
 43c:	625f7475 	subsvs	r7, pc, #1962934272	; 0x75000000
 440:	65666675 	strbvs	r6, [r6, #-1653]!	; 0xfffff98b
 444:	69750072 	ldmdbvs	r5!, {r1, r4, r5, r6}^
 448:	3436746e 	ldrtcc	r7, [r6], #-1134	; 0xfffffb92
 44c:	7300745f 	movwvc	r7, #1119	; 0x45f
 450:	5f657a69 	svcpl	0x00657a69
 454:	6f5f0074 	svcvs	0x005f0074
 458:	635f7475 	cmpvs	pc, #1962934272	; 0x75000000
 45c:	00726168 	rsbseq	r6, r2, r8, ror #2
 460:	7378616d 	cmnvc	r8, #1073741851	; 0x4000001b
 464:	00657a69 	rsbeq	r7, r5, r9, ror #20
 468:	646f6d69 	strbtvs	r6, [pc], #-3433	; 470 <STACK_SIZE-0x22a0>
 46c:	6c617600 	stclvs	6, cr7, [r1], #-0
 470:	5f006575 	svcpl	0x00006575
 474:	5f74756f 	svcpl	0x0074756f
 478:	00746366 	rsbseq	r6, r4, r6, ror #6
 47c:	746e6975 	strbtvc	r6, [lr], #-2421	; 0xfffff68b
 480:	5f727470 	svcpl	0x00727470
 484:	74730074 	ldrbtvc	r0, [r3], #-116	; 0xffffff8c
 488:	5f747261 	svcpl	0x00747261
 48c:	00786469 	rsbseq	r6, r8, r9, ror #8
 490:	74646977 	strbtvc	r6, [r4], #-2423	; 0xfffff689
 494:	63660068 	cmnvs	r6, #104, 0	; 0x68
 498:	69727074 	ldmdbvs	r2!, {r2, r4, r5, r6, ip, sp, lr}^
 49c:	0066746e 	rsbeq	r7, r6, lr, ror #8
 4a0:	6167656e 	cmnvs	r7, lr, ror #10
 4a4:	65766974 	ldrbvs	r6, [r6, #-2420]!	; 0xfffff68c
 4a8:	765f5f00 	ldrbvc	r5, [pc], -r0, lsl #30
 4ac:	696c5f61 	stmdbvs	ip!, {r0, r5, r6, r8, r9, sl, fp, ip, lr}^
 4b0:	69007473 	stmdbvs	r0, {r0, r1, r4, r5, r6, sl, ip, sp, lr}
 4b4:	00736261 	rsbseq	r6, r3, r1, ror #4
 4b8:	6f746e5f 	svcvs	0x00746e5f
 4bc:	6f665f61 	svcvs	0x00665f61
 4c0:	74616d72 	strbtvc	r6, [r1], #-3442	; 0xfffff28e
 4c4:	73765f00 	cmnvc	r6, #0, 30
 4c8:	6972706e 	ldmdbvs	r2!, {r1, r2, r3, r5, r6, ip, sp, lr}^
 4cc:	0066746e 	rsbeq	r7, r6, lr, ror #8
 4d0:	74756f5f 	ldrbtvc	r6, [r5], #-3935	; 0xfffff0a1
 4d4:	6c756e5f 	ldclvs	14, cr6, [r5], #-380	; 0xfffffe84
 4d8:	6475006c 	ldrbtvs	r0, [r5], #-108	; 0xffffff94
 4dc:	6f007669 	svcvs	0x00007669
 4e0:	665f7475 			; <UNDEFINED> instruction: 0x665f7475
 4e4:	745f7463 	ldrbvc	r7, [pc], #-1123	; 4ec <STACK_SIZE-0x2224>
 4e8:	00657079 	rsbeq	r7, r5, r9, ror r0
 4ec:	6f746e5f 	svcvs	0x00746e5f
 4f0:	6f6c5f61 	svcvs	0x006c5f61
 4f4:	6600676e 	strvs	r6, [r0], -lr, ror #14
 4f8:	7367616c 	cmnvc	r7, #27
 4fc:	615f5f00 	cmpvs	pc, r0, lsl #30
 500:	73760070 	cmnvc	r6, #112, 0	; 0x70
 504:	6972706e 	ldmdbvs	r2!, {r1, r2, r3, r5, r6, ip, sp, lr}^
 508:	5f66746e 	svcpl	0x0066746e
 50c:	78616d00 	stmdavc	r1!, {r8, sl, fp, sp, lr}^
 510:	006e656c 	rsbeq	r6, lr, ip, ror #10
 514:	6f74615f 	svcvs	0x0074615f
 518:	735f0069 	cmpvc	pc, #105, 0	; 0x69
 51c:	6c6e7274 	sfmvs	f7, 2, [lr], #-464	; 0xfffffe30
 520:	735f6e65 	cmpvc	pc, #1616	; 0x650
 524:	6f425f00 	svcvs	0x00425f00
 528:	73006c6f 	movwvc	r6, #3183	; 0xc6f
 52c:	6e697270 	mcrvs	2, 3, r7, cr9, cr0, {3}
 530:	005f6674 	subseq	r6, pc, r4, ror r6	; <UNPREDICTABLE>
 534:	5f73695f 	svcpl	0x0073695f
 538:	69676964 	stmdbvs	r7!, {r2, r5, r6, r8, fp, sp, lr}^
 53c:	68630074 	stmdavs	r3!, {r2, r4, r5, r6}^
 540:	63617261 	cmnvs	r1, #268435462	; 0x10000006
 544:	00726574 	rsbseq	r6, r2, r4, ror r5
 548:	74756f5f 	ldrbtvc	r6, [r5], #-3935	; 0xfffff0a1
 54c:	7665725f 			; <UNDEFINED> instruction: 0x7665725f
 550:	69727000 	ldmdbvs	r2!, {ip, sp, lr}^
 554:	2e66746e 	cdpcs	4, 6, cr7, cr6, cr14, {3}
 558:	705f0063 	subsvc	r0, pc, r3, rrx
 55c:	68637475 	stmdavs	r3!, {r0, r2, r4, r5, r6, sl, ip, sp, lr}^
 560:	6f007261 	svcvs	0x00007261
 564:	665f7475 			; <UNDEFINED> instruction: 0x665f7475
 568:	775f7463 	ldrbvc	r7, [pc, -r3, ror #8]
 56c:	5f706172 	svcpl	0x00706172
 570:	65707974 	ldrbvs	r7, [r0, #-2420]!	; 0xfffff68c
 574:	65727000 	ldrbvs	r7, [r2, #-0]!
 578:	5f5f0063 	svcpl	0x005f0063
 57c:	63756e67 	cmnvs	r5, #1648	; 0x670
 580:	5f61765f 	svcpl	0x0061765f
 584:	7473696c 	ldrbtvc	r6, [r3], #-2412	; 0xfffff694
 588:	69646900 	stmdbvs	r4!, {r8, fp, sp, lr}^
 58c:	61620076 	smcvs	8198	; 0x2006
 590:	64006573 	strvs	r6, [r0], #-1395	; 0xfffffa8d
 594:	756c7669 	strbvc	r7, [ip, #-1641]!	; 0xfffff997
 598:	65727000 	ldrbvs	r7, [r2, #-0]!
 59c:	69736963 	ldmdbvs	r3!, {r0, r1, r5, r6, r8, fp, sp, lr}^
 5a0:	76006e6f 	strvc	r6, [r0], -pc, ror #28
 5a4:	6e697270 	mcrvs	2, 3, r7, cr9, cr0, {3}
 5a8:	005f6674 	subseq	r6, pc, r4, ror r6	; <UNPREDICTABLE>
 5ac:	74726175 	ldrbtvc	r6, [r2], #-373	; 0xfffffe8b
 5b0:	696e695f 	stmdbvs	lr!, {r0, r1, r2, r3, r4, r6, r8, fp, sp, lr}^
 5b4:	41550074 	cmpmi	r5, r4, ror r0
 5b8:	525f5452 	subspl	r5, pc, #1375731712	; 0x52000000
 5bc:	4f5f5253 	svcmi	0x005f5253
 5c0:	45534646 	ldrbmi	r4, [r3, #-1606]	; 0xfffff9ba
 5c4:	55460054 	strbpl	r0, [r6, #-84]	; 0xffffffac
 5c8:	535f434e 	cmppl	pc, #939524097	; 0x38000001
 5cc:	55004f49 	strpl	r4, [r0, #-3913]	; 0xfffff0b7
 5d0:	5f545241 	svcpl	0x00545241
 5d4:	44524249 	ldrbmi	r4, [r2], #-585	; 0xfffffdb7
 5d8:	46464f5f 			; <UNDEFINED> instruction: 0x46464f5f
 5dc:	00544553 	subseq	r4, r4, r3, asr r5
 5e0:	74726175 	ldrbtvc	r6, [r2], #-373	; 0xfffffe8b
 5e4:	7465675f 	strbtvc	r6, [r5], #-1887	; 0xfffff8a1
 5e8:	73615f63 	cmnvc	r1, #396	; 0x18c
 5ec:	00636e79 	rsbeq	r6, r3, r9, ror lr
 5f0:	54524155 	ldrbpl	r4, [r2], #-341	; 0xfffffeab
 5f4:	5254435f 	subspl	r4, r4, #2080374785	; 0x7c000001
 5f8:	464f5f4c 	strbmi	r5, [pc], -ip, asr #30
 5fc:	54455346 	strbpl	r5, [r5], #-838	; 0xfffffcba
 600:	72617500 	rsbvc	r7, r1, #0, 10
 604:	61635f74 	smcvs	13812	; 0x35f4
 608:	75705f6e 	ldrbvc	r5, [r0, #-3950]!	; 0xfffff092
 60c:	55006374 	strpl	r6, [r0, #-884]	; 0xfffffc8c
 610:	5f545241 	svcpl	0x00545241
 614:	5f52434c 	svcpl	0x0052434c
 618:	5346464f 	movtpl	r4, #26191	; 0x664f
 61c:	55005445 	strpl	r5, [r0, #-1093]	; 0xfffffbbb
 620:	5f545241 	svcpl	0x00545241
 624:	41544144 	cmpmi	r4, r4, asr #2
 628:	46464f5f 			; <UNDEFINED> instruction: 0x46464f5f
 62c:	00544553 	subseq	r4, r4, r3, asr r5
 630:	74726175 	ldrbtvc	r6, [r2], #-373	; 0xfffffe8b
 634:	7465675f 	strbtvc	r6, [r5], #-1887	; 0xfffff8a1
 638:	62660063 	rsbvs	r0, r6, #99, 0	; 0x63
 63c:	62006472 	andvs	r6, r0, #1912602624	; 0x72000000
 640:	5f647561 	svcpl	0x00647561
 644:	65746172 	ldrbvs	r6, [r4, #-370]!	; 0xfffffe8e
 648:	7669645f 			; <UNDEFINED> instruction: 0x7669645f
 64c:	726f7369 	rsbvc	r7, pc, #-1543503871	; 0xa4000001
 650:	72617500 	rsbvc	r7, r1, #0, 10
 654:	61685f74 	smcvs	34292	; 0x85f4
 658:	61645f73 	smcvs	17907	; 0x45f3
 65c:	62006174 	andvs	r6, r0, #29
 660:	5f647561 	svcpl	0x00647561
 664:	65746172 	ldrbvs	r6, [r4, #-370]!	; 0xfffffe8e
 668:	6172665f 	cmnvs	r2, pc, asr r6
 66c:	61750063 	cmnvs	r5, r3, rrx
 670:	635f7472 	cmpvs	pc, #1912602624	; 0x72000000
 674:	675f6e61 	ldrbvs	r6, [pc, -r1, ror #28]
 678:	00637465 	rsbeq	r7, r3, r5, ror #8
 67c:	54524155 	ldrbpl	r4, [r2], #-341	; 0xfffffeab
 680:	5242465f 	subpl	r4, r2, #99614720	; 0x5f00000
 684:	464f5f44 	strbmi	r5, [pc], -r4, asr #30
 688:	54455346 	strbpl	r5, [r5], #-838	; 0xfffffcba
 68c:	52415500 	subpl	r5, r1, #0, 10
 690:	52465f54 	subpl	r5, r6, #84, 30	; 0x150
 694:	46464f5f 			; <UNDEFINED> instruction: 0x46464f5f
 698:	00544553 	subseq	r4, r4, r3, asr r5

Disassembly of section .debug_ranges:

00000000 <.debug_ranges>:
   0:	ffffffff 			; <UNDEFINED> instruction: 0xffffffff
   4:	00000000 	andeq	r0, r0, r0
   8:	20000000 	andcs	r0, r0, r0
   c:	20000074 	andcs	r0, r0, r4, ror r0
  10:	20000100 	andcs	r0, r0, r0, lsl #2
  14:	2000011c 	andcs	r0, r0, ip, lsl r1
	...

Disassembly of section .debug_frame:

00000000 <.debug_frame>:
   0:	0000000c 	andeq	r0, r0, ip
   4:	ffffffff 			; <UNDEFINED> instruction: 0xffffffff
   8:	7c020001 	stcvc	0, cr0, [r2], {1}
   c:	000d0c0e 	andeq	r0, sp, lr, lsl #24
  10:	0000001c 	andeq	r0, r0, ip, lsl r0
  14:	00000000 	andeq	r0, r0, r0
  18:	2000011c 	andcs	r0, r0, ip, lsl r1
  1c:	00000040 	andeq	r0, r0, r0, asr #32
  20:	87080e41 	strhi	r0, [r8, -r1, asr #28]
  24:	41018e02 	tstmi	r1, r2, lsl #28
  28:	0d41100e 	stcleq	0, cr1, [r1, #-56]	; 0xffffffc8
  2c:	00000007 	andeq	r0, r0, r7
  30:	0000001c 	andeq	r0, r0, ip, lsl r0
  34:	00000000 	andeq	r0, r0, r0
  38:	2000015c 	andcs	r0, r0, ip, asr r1
  3c:	0000008c 	andeq	r0, r0, ip, lsl #1
  40:	87080e41 	strhi	r0, [r8, -r1, asr #28]
  44:	41018e02 	tstmi	r1, r2, lsl #28
  48:	0d41100e 	stcleq	0, cr1, [r1, #-56]	; 0xffffffc8
  4c:	00000007 	andeq	r0, r0, r7
  50:	0000000c 	andeq	r0, r0, ip
  54:	ffffffff 			; <UNDEFINED> instruction: 0xffffffff
  58:	7c020001 	stcvc	0, cr0, [r2], {1}
  5c:	000d0c0e 	andeq	r0, sp, lr, lsl #24
  60:	0000001c 	andeq	r0, r0, ip, lsl r0
  64:	00000050 	andeq	r0, r0, r0, asr r0
  68:	200001e8 	andcs	r0, r0, r8, ror #3
  6c:	00000048 	andeq	r0, r0, r8, asr #32
  70:	87080e41 	strhi	r0, [r8, -r1, asr #28]
  74:	41018e02 	tstmi	r1, r2, lsl #28
  78:	0d41100e 	stcleq	0, cr1, [r1, #-56]	; 0xffffffc8
  7c:	00000007 	andeq	r0, r0, r7
  80:	00000018 	andeq	r0, r0, r8, lsl r0
  84:	00000050 	andeq	r0, r0, r0, asr r0
  88:	20000230 	andcs	r0, r0, r0, lsr r2
  8c:	00000010 	andeq	r0, r0, r0, lsl r0
  90:	87080e41 	strhi	r0, [r8, -r1, asr #28]
  94:	41018e02 	tstmi	r1, r2, lsl #28
  98:	0000070d 	andeq	r0, r0, sp, lsl #14
  9c:	0000001c 	andeq	r0, r0, ip, lsl r0
  a0:	00000050 	andeq	r0, r0, r0, asr r0
  a4:	20000240 	andcs	r0, r0, r0, asr #4
  a8:	00000040 	andeq	r0, r0, r0, asr #32
  ac:	87080e41 	strhi	r0, [r8, -r1, asr #28]
  b0:	41018e02 	tstmi	r1, r2, lsl #28
  b4:	0d41180e 	stcleq	8, cr1, [r1, #-56]	; 0xffffffc8
  b8:	00000007 	andeq	r0, r0, r7
  bc:	0000001c 	andeq	r0, r0, ip, lsl r0
  c0:	00000050 	andeq	r0, r0, r0, asr r0
  c4:	20000280 	andcs	r0, r0, r0, lsl #5
  c8:	00000040 	andeq	r0, r0, r0, asr #32
  cc:	87080e41 	strhi	r0, [r8, -r1, asr #28]
  d0:	41018e02 	tstmi	r1, r2, lsl #28
  d4:	0d41180e 	stcleq	8, cr1, [r1, #-56]	; 0xffffffc8
  d8:	00000007 	andeq	r0, r0, r7
  dc:	0000001c 	andeq	r0, r0, ip, lsl r0
  e0:	00000050 	andeq	r0, r0, r0, asr r0
  e4:	200002c0 	andcs	r0, r0, r0, asr #5
  e8:	00000034 	andeq	r0, r0, r4, lsr r0
  ec:	87080e41 	strhi	r0, [r8, -r1, asr #28]
  f0:	41018e02 	tstmi	r1, r2, lsl #28
  f4:	0d41100e 	stcleq	0, cr1, [r1, #-56]	; 0xffffffc8
  f8:	00000007 	andeq	r0, r0, r7
  fc:	0000001c 	andeq	r0, r0, ip, lsl r0
 100:	00000050 	andeq	r0, r0, r0, asr r0
 104:	200002f4 	strdcs	r0, [r0], -r4
 108:	0000007c 	andeq	r0, r0, ip, ror r0
 10c:	87080e41 	strhi	r0, [r8, -r1, asr #28]
 110:	41018e02 	tstmi	r1, r2, lsl #28
 114:	0d41180e 	stcleq	8, cr1, [r1, #-56]	; 0xffffffc8
 118:	00000007 	andeq	r0, r0, r7
 11c:	0000001c 	andeq	r0, r0, ip, lsl r0
 120:	00000050 	andeq	r0, r0, r0, asr r0
 124:	20000370 	andcs	r0, r0, r0, ror r3
 128:	00000030 	andeq	r0, r0, r0, lsr r0
 12c:	87080e41 	strhi	r0, [r8, -r1, asr #28]
 130:	41018e02 	tstmi	r1, r2, lsl #28
 134:	0d41100e 	stcleq	0, cr1, [r1, #-56]	; 0xffffffc8
 138:	00000007 	andeq	r0, r0, r7
 13c:	0000001c 	andeq	r0, r0, ip, lsl r0
 140:	00000050 	andeq	r0, r0, r0, asr r0
 144:	200003a0 	andcs	r0, r0, r0, lsr #7
 148:	00000030 	andeq	r0, r0, r0, lsr r0
 14c:	87080e41 	strhi	r0, [r8, -r1, asr #28]
 150:	41018e02 	tstmi	r1, r2, lsl #28
 154:	0d41100e 	stcleq	0, cr1, [r1, #-56]	; 0xffffffc8
 158:	00000007 	andeq	r0, r0, r7
 15c:	0000000c 	andeq	r0, r0, ip
 160:	ffffffff 			; <UNDEFINED> instruction: 0xffffffff
 164:	7c020001 	stcvc	0, cr0, [r2], {1}
 168:	000d0c0e 	andeq	r0, sp, lr, lsl #24
 16c:	00000018 	andeq	r0, r0, r8, lsl r0
 170:	0000015c 	andeq	r0, r0, ip, asr r1
 174:	200003d0 	ldrdcs	r0, [r0], -r0	; <UNPREDICTABLE>
 178:	0000005c 	andeq	r0, r0, ip, asr r0
 17c:	87080e41 	strhi	r0, [r8, -r1, asr #28]
 180:	41018e02 	tstmi	r1, r2, lsl #28
 184:	0000070d 	andeq	r0, r0, sp, lsl #14
 188:	0000001c 	andeq	r0, r0, ip, lsl r0
 18c:	0000015c 	andeq	r0, r0, ip, asr r1
 190:	2000042c 	andcs	r0, r0, ip, lsr #8
 194:	0000005c 	andeq	r0, r0, ip, asr r0
 198:	87080e41 	strhi	r0, [r8, -r1, asr #28]
 19c:	41018e02 	tstmi	r1, r2, lsl #28
 1a0:	0d41100e 	stcleq	0, cr1, [r1, #-56]	; 0xffffffc8
 1a4:	00000007 	andeq	r0, r0, r7
 1a8:	0000001c 	andeq	r0, r0, ip, lsl r0
 1ac:	0000015c 	andeq	r0, r0, ip, asr r1
 1b0:	20000488 	andcs	r0, r0, r8, lsl #9
 1b4:	00000058 	andeq	r0, r0, r8, asr r0
 1b8:	87080e41 	strhi	r0, [r8, -r1, asr #28]
 1bc:	41018e02 	tstmi	r1, r2, lsl #28
 1c0:	0d41180e 	stcleq	8, cr1, [r1, #-56]	; 0xffffffc8
 1c4:	00000007 	andeq	r0, r0, r7
 1c8:	0000001c 	andeq	r0, r0, ip, lsl r0
 1cc:	0000015c 	andeq	r0, r0, ip, asr r1
 1d0:	200004e0 	andcs	r0, r0, r0, ror #9
 1d4:	00000048 	andeq	r0, r0, r8, asr #32
 1d8:	87080e41 	strhi	r0, [r8, -r1, asr #28]
 1dc:	41018e02 	tstmi	r1, r2, lsl #28
 1e0:	0d41100e 	stcleq	0, cr1, [r1, #-56]	; 0xffffffc8
 1e4:	00000007 	andeq	r0, r0, r7
 1e8:	0000001c 	andeq	r0, r0, ip, lsl r0
 1ec:	0000015c 	andeq	r0, r0, ip, asr r1
 1f0:	20000528 	andcs	r0, r0, r8, lsr #10
 1f4:	00000038 	andeq	r0, r0, r8, lsr r0
 1f8:	87080e41 	strhi	r0, [r8, -r1, asr #28]
 1fc:	41018e02 	tstmi	r1, r2, lsl #28
 200:	0d41100e 	stcleq	0, cr1, [r1, #-56]	; 0xffffffc8
 204:	00000007 	andeq	r0, r0, r7
 208:	0000000c 	andeq	r0, r0, ip
 20c:	ffffffff 			; <UNDEFINED> instruction: 0xffffffff
 210:	7c020001 	stcvc	0, cr0, [r2], {1}
 214:	000d0c0e 	andeq	r0, sp, lr, lsl #24
 218:	0000001c 	andeq	r0, r0, ip, lsl r0
 21c:	00000208 	andeq	r0, r0, r8, lsl #4
 220:	20000560 	andcs	r0, r0, r0, ror #10
 224:	00000034 	andeq	r0, r0, r4, lsr r0
 228:	87080e41 	strhi	r0, [r8, -r1, asr #28]
 22c:	41018e02 	tstmi	r1, r2, lsl #28
 230:	0d41180e 	stcleq	8, cr1, [r1, #-56]	; 0xffffffc8
 234:	00000007 	andeq	r0, r0, r7
 238:	0000001c 	andeq	r0, r0, ip, lsl r0
 23c:	00000208 	andeq	r0, r0, r8, lsl #4
 240:	20000594 	mulcs	r0, r4, r5
 244:	00000066 	andeq	r0, r0, r6, rrx
 248:	87080e41 	strhi	r0, [r8, -r1, asr #28]
 24c:	41018e02 	tstmi	r1, r2, lsl #28
 250:	0d41180e 	stcleq	8, cr1, [r1, #-56]	; 0xffffffc8
 254:	00000007 	andeq	r0, r0, r7
 258:	0000001c 	andeq	r0, r0, ip, lsl r0
 25c:	00000208 	andeq	r0, r0, r8, lsl #4
 260:	200005fa 	strdcs	r0, [r0], -sl
 264:	0000003e 	andeq	r0, r0, lr, lsr r0
 268:	87080e41 	strhi	r0, [r8, -r1, asr #28]
 26c:	41018e02 	tstmi	r1, r2, lsl #28
 270:	0d41180e 	stcleq	8, cr1, [r1, #-56]	; 0xffffffc8
 274:	00000007 	andeq	r0, r0, r7
 278:	0000001c 	andeq	r0, r0, ip, lsl r0
 27c:	00000208 	andeq	r0, r0, r8, lsl #4
 280:	20000638 	andcs	r0, r0, r8, lsr r6
 284:	00000038 	andeq	r0, r0, r8, lsr r0
 288:	840c0e41 	strhi	r0, [ip], #-3649	; 0xfffff1bf
 28c:	8e028703 	cdphi	7, 0, cr8, cr2, cr3, {0}
 290:	200e4101 	andcs	r4, lr, r1, lsl #2
 294:	00070d41 	andeq	r0, r7, r1, asr #26
 298:	0000000c 	andeq	r0, r0, ip
 29c:	ffffffff 			; <UNDEFINED> instruction: 0xffffffff
 2a0:	7c020001 	stcvc	0, cr0, [r2], {1}
 2a4:	000d0c0e 	andeq	r0, sp, lr, lsl #24
 2a8:	0000001c 	andeq	r0, r0, ip, lsl r0
 2ac:	00000298 	muleq	r0, r8, r2
 2b0:	20000670 	andcs	r0, r0, r0, ror r6
 2b4:	00000018 	andeq	r0, r0, r8, lsl r0
 2b8:	87080e41 	strhi	r0, [r8, -r1, asr #28]
 2bc:	41018e02 	tstmi	r1, r2, lsl #28
 2c0:	0d41100e 	stcleq	0, cr1, [r1, #-56]	; 0xffffffc8
 2c4:	00000007 	andeq	r0, r0, r7
 2c8:	00000020 	andeq	r0, r0, r0, lsr #32
 2cc:	00000298 	muleq	r0, r8, r2
 2d0:	20000688 	andcs	r0, r0, r8, lsl #13
 2d4:	0000006e 	andeq	r0, r0, lr, rrx
 2d8:	84100e41 	ldrhi	r0, [r0], #-3649	; 0xfffff1bf
 2dc:	87038504 	strhi	r8, [r3, -r4, lsl #10]
 2e0:	41018e02 	tstmi	r1, r2, lsl #28
 2e4:	0d41380e 	stcleq	8, cr3, [r1, #-56]	; 0xffffffc8
 2e8:	00000007 	andeq	r0, r0, r7
 2ec:	00000020 	andeq	r0, r0, r0, lsr #32
 2f0:	00000298 	muleq	r0, r8, r2
 2f4:	200006f6 	strdcs	r0, [r0], -r6
 2f8:	00000028 	andeq	r0, r0, r8, lsr #32
 2fc:	84100e41 	ldrhi	r0, [r0], #-3649	; 0xfffff1bf
 300:	87038504 	strhi	r8, [r3, -r4, lsl #10]
 304:	41018e02 	tstmi	r1, r2, lsl #28
 308:	0d41180e 	stcleq	8, cr1, [r1, #-56]	; 0xffffffc8
 30c:	00000007 	andeq	r0, r0, r7
 310:	0000001c 	andeq	r0, r0, ip, lsl r0
 314:	00000298 	muleq	r0, r8, r2
 318:	2000071e 	andcs	r0, r0, lr, lsl r7
 31c:	0000005c 	andeq	r0, r0, ip, asr r0
 320:	840c0e41 	strhi	r0, [ip], #-3649	; 0xfffff1bf
 324:	8e028703 	cdphi	7, 0, cr8, cr2, cr3, {0}
 328:	200e4101 	andcs	r4, lr, r1, lsl #2
 32c:	00070d41 	andeq	r0, r7, r1, asr #26
 330:	0000001c 	andeq	r0, r0, ip, lsl r0
 334:	00000298 	muleq	r0, r8, r2
 338:	2000077a 	andcs	r0, r0, sl, ror r7
 33c:	00000036 	andeq	r0, r0, r6, lsr r0
 340:	87080e41 	strhi	r0, [r8, -r1, asr #28]
 344:	41018e02 	tstmi	r1, r2, lsl #28
 348:	0d41180e 	stcleq	8, cr1, [r1, #-56]	; 0xffffffc8
 34c:	00000007 	andeq	r0, r0, r7
 350:	0000001c 	andeq	r0, r0, ip, lsl r0
 354:	00000298 	muleq	r0, r8, r2
 358:	200007b0 			; <UNDEFINED> instruction: 0x200007b0
 35c:	0000001e 	andeq	r0, r0, lr, lsl r0
 360:	87080e41 	strhi	r0, [r8, -r1, asr #28]
 364:	41018e02 	tstmi	r1, r2, lsl #28
 368:	0d41100e 	stcleq	0, cr1, [r1, #-56]	; 0xffffffc8
 36c:	00000007 	andeq	r0, r0, r7
 370:	0000001c 	andeq	r0, r0, ip, lsl r0
 374:	00000298 	muleq	r0, r8, r2
 378:	200007ce 	andcs	r0, r0, lr, asr #15
 37c:	00000030 	andeq	r0, r0, r0, lsr r0
 380:	87080e41 	strhi	r0, [r8, -r1, asr #28]
 384:	41018e02 	tstmi	r1, r2, lsl #28
 388:	0d41180e 	stcleq	8, cr1, [r1, #-56]	; 0xffffffc8
 38c:	00000007 	andeq	r0, r0, r7
 390:	0000001c 	andeq	r0, r0, ip, lsl r0
 394:	00000298 	muleq	r0, r8, r2
 398:	200007fe 	strdcs	r0, [r0], -lr
 39c:	0000001c 	andeq	r0, r0, ip, lsl r0
 3a0:	87080e41 	strhi	r0, [r8, -r1, asr #28]
 3a4:	41018e02 	tstmi	r1, r2, lsl #28
 3a8:	0d41180e 	stcleq	8, cr1, [r1, #-56]	; 0xffffffc8
 3ac:	00000007 	andeq	r0, r0, r7
 3b0:	0000001c 	andeq	r0, r0, ip, lsl r0
 3b4:	00000298 	muleq	r0, r8, r2
 3b8:	2000081a 	andcs	r0, r0, sl, lsl r8
 3bc:	00000030 	andeq	r0, r0, r0, lsr r0
 3c0:	87080e41 	strhi	r0, [r8, -r1, asr #28]
 3c4:	41018e02 	tstmi	r1, r2, lsl #28
 3c8:	0d41180e 	stcleq	8, cr1, [r1, #-56]	; 0xffffffc8
 3cc:	00000007 	andeq	r0, r0, r7
 3d0:	0000001c 	andeq	r0, r0, ip, lsl r0
 3d4:	00000298 	muleq	r0, r8, r2
 3d8:	2000084a 	andcs	r0, r0, sl, asr #16
 3dc:	00000036 	andeq	r0, r0, r6, lsr r0
 3e0:	87080e41 	strhi	r0, [r8, -r1, asr #28]
 3e4:	41018e02 	tstmi	r1, r2, lsl #28
 3e8:	0d41180e 	stcleq	8, cr1, [r1, #-56]	; 0xffffffc8
 3ec:	00000007 	andeq	r0, r0, r7
 3f0:	0000001c 	andeq	r0, r0, ip, lsl r0
 3f4:	00000298 	muleq	r0, r8, r2
 3f8:	20000880 	andcs	r0, r0, r0, lsl #17
 3fc:	00000036 	andeq	r0, r0, r6, lsr r0
 400:	87080e41 	strhi	r0, [r8, -r1, asr #28]
 404:	41018e02 	tstmi	r1, r2, lsl #28
 408:	0d41180e 	stcleq	8, cr1, [r1, #-56]	; 0xffffffc8
 40c:	00000007 	andeq	r0, r0, r7
 410:	0000001c 	andeq	r0, r0, ip, lsl r0
 414:	00000298 	muleq	r0, r8, r2
 418:	200008b6 			; <UNDEFINED> instruction: 0x200008b6
 41c:	00000032 	andeq	r0, r0, r2, lsr r0
 420:	87080e41 	strhi	r0, [r8, -r1, asr #28]
 424:	41018e02 	tstmi	r1, r2, lsl #28
 428:	0d41100e 	stcleq	0, cr1, [r1, #-56]	; 0xffffffc8
 42c:	00000007 	andeq	r0, r0, r7
 430:	0000001c 	andeq	r0, r0, ip, lsl r0
 434:	00000298 	muleq	r0, r8, r2
 438:	200008e8 	andcs	r0, r0, r8, ror #17
 43c:	00000046 	andeq	r0, r0, r6, asr #32
 440:	87080e41 	strhi	r0, [r8, -r1, asr #28]
 444:	41018e02 	tstmi	r1, r2, lsl #28
 448:	0d41180e 	stcleq	8, cr1, [r1, #-56]	; 0xffffffc8
 44c:	00000007 	andeq	r0, r0, r7
 450:	0000001c 	andeq	r0, r0, ip, lsl r0
 454:	00000298 	muleq	r0, r8, r2
 458:	2000092e 	andcs	r0, r0, lr, lsr #18
 45c:	0000009a 	muleq	r0, sl, r0
 460:	840c0e41 	strhi	r0, [ip], #-3649	; 0xfffff1bf
 464:	8e028703 	cdphi	7, 0, cr8, cr2, cr3, {0}
 468:	280e4101 	stmdacs	lr, {r0, r8, lr}
 46c:	00070d41 	andeq	r0, r7, r1, asr #26
 470:	0000001c 	andeq	r0, r0, ip, lsl r0
 474:	00000298 	muleq	r0, r8, r2
 478:	200009c8 	andcs	r0, r0, r8, asr #19
 47c:	000001ac 	andeq	r0, r0, ip, lsr #3
 480:	840c0e41 	strhi	r0, [ip], #-3649	; 0xfffff1bf
 484:	8e028703 	cdphi	7, 0, cr8, cr2, cr3, {0}
 488:	300e4101 	andcc	r4, lr, r1, lsl #2
 48c:	20070c41 	andcs	r0, r7, r1, asr #24
 490:	0000001c 	andeq	r0, r0, ip, lsl r0
 494:	00000298 	muleq	r0, r8, r2
 498:	20000b74 	andcs	r0, r0, r4, ror fp
 49c:	000000d6 	ldrdeq	r0, [r0], -r6
 4a0:	840c0e41 	strhi	r0, [ip], #-3649	; 0xfffff1bf
 4a4:	8e028703 	cdphi	7, 0, cr8, cr2, cr3, {0}
 4a8:	680e4101 	stmdavs	lr, {r0, r8, lr}
 4ac:	48070c41 	stmdami	r7, {r0, r6, sl, fp}
 4b0:	00000020 	andeq	r0, r0, r0, lsr #32
 4b4:	00000298 	muleq	r0, r8, r2
 4b8:	20000c4a 	andcs	r0, r0, sl, asr #24
 4bc:	0000060c 	andeq	r0, r0, ip, lsl #12
 4c0:	84140e41 	ldrhi	r0, [r4], #-3649	; 0xfffff1bf
 4c4:	86048505 	strhi	r8, [r4], -r5, lsl #10
 4c8:	8e028703 	cdphi	7, 0, cr8, cr2, cr3, {0}
 4cc:	780e4101 	stmdavc	lr, {r0, r8, lr}
 4d0:	60070c41 	andvs	r0, r7, r1, asr #24
 4d4:	00000020 	andeq	r0, r0, r0, lsr #32
 4d8:	00000298 	muleq	r0, r8, r2
 4dc:	20001256 	andcs	r1, r0, r6, asr r2
 4e0:	0000003a 	andeq	r0, r0, sl, lsr r0
 4e4:	41100e41 	tstmi	r0, r1, asr #28
 4e8:	07841c0e 	streq	r1, [r4, lr, lsl #24]
 4ec:	058e0687 	streq	r0, [lr, #1671]	; 0x687
 4f0:	41380e41 	teqmi	r8, r1, asr #28
 4f4:	0030070c 	eorseq	r0, r0, ip, lsl #14
 4f8:	00000020 	andeq	r0, r0, r0, lsr #32
 4fc:	00000298 	muleq	r0, r8, r2
 500:	20001290 	mulcs	r0, r0, r2
 504:	0000003c 	andeq	r0, r0, ip, lsr r0
 508:	410c0e41 	tstmi	ip, r1, asr #28
 50c:	0684180e 	streq	r1, [r4], lr, lsl #16
 510:	048e0587 	streq	r0, [lr], #1415	; 0x587
 514:	41300e41 	teqmi	r0, r1, asr #28
 518:	0028070c 	eoreq	r0, r8, ip, lsl #14
 51c:	00000020 	andeq	r0, r0, r0, lsr #32
 520:	00000298 	muleq	r0, r8, r2
 524:	200012cc 	andcs	r1, r0, ip, asr #5
 528:	0000003c 	andeq	r0, r0, ip, lsr r0
 52c:	41080e41 	tstmi	r8, r1, asr #28
 530:	0584140e 	streq	r1, [r4, #1038]	; 0x40e
 534:	038e0487 	orreq	r0, lr, #-2030043136	; 0x87000000
 538:	41300e41 	teqmi	r0, r1, asr #28
 53c:	0028070c 	eoreq	r0, r8, ip, lsl #14
 540:	0000001c 	andeq	r0, r0, ip, lsl r0
 544:	00000298 	muleq	r0, r8, r2
 548:	20001308 	andcs	r1, r0, r8, lsl #6
 54c:	00000030 	andeq	r0, r0, r0, lsr r0
 550:	840c0e41 	strhi	r0, [ip], #-3649	; 0xfffff1bf
 554:	8e028703 	cdphi	7, 0, cr8, cr2, cr3, {0}
 558:	280e4101 	stmdacs	lr, {r0, r8, lr}
 55c:	20070c41 	andcs	r0, r7, r1, asr #24
 560:	0000001c 	andeq	r0, r0, ip, lsl r0
 564:	00000298 	muleq	r0, r8, r2
 568:	20001338 	andcs	r1, r0, r8, lsr r3
 56c:	00000030 	andeq	r0, r0, r0, lsr r0
 570:	840c0e41 	strhi	r0, [ip], #-3649	; 0xfffff1bf
 574:	8e028703 	cdphi	7, 0, cr8, cr2, cr3, {0}
 578:	280e4101 	stmdacs	lr, {r0, r8, lr}
 57c:	20070c41 	andcs	r0, r7, r1, asr #24
 580:	00000020 	andeq	r0, r0, r0, lsr #32
 584:	00000298 	muleq	r0, r8, r2
 588:	20001368 	andcs	r1, r0, r8, ror #6
 58c:	0000004c 	andeq	r0, r0, ip, asr #32
 590:	41080e41 	tstmi	r8, r1, asr #28
 594:	0584140e 	streq	r1, [r4, #1038]	; 0x40e
 598:	038e0487 	orreq	r0, lr, #-2030043136	; 0x87000000
 59c:	41380e41 	teqmi	r8, r1, asr #28
 5a0:	0030070c 	eorseq	r0, r0, ip, lsl #14
 5a4:	0000000c 	andeq	r0, r0, ip
 5a8:	ffffffff 			; <UNDEFINED> instruction: 0xffffffff
 5ac:	7c020001 	stcvc	0, cr0, [r2], {1}
 5b0:	000d0c0e 	andeq	r0, sp, lr, lsl #24
 5b4:	00000020 	andeq	r0, r0, r0, lsr #32
 5b8:	000005a4 	andeq	r0, r0, r4, lsr #11
 5bc:	200013b4 			; <UNDEFINED> instruction: 0x200013b4
 5c0:	0000006e 	andeq	r0, r0, lr, rrx
 5c4:	84100e41 	ldrhi	r0, [r0], #-3649	; 0xfffff1bf
 5c8:	87038504 	strhi	r8, [r3, -r4, lsl #10]
 5cc:	41018e02 	tstmi	r1, r2, lsl #28
 5d0:	0d41380e 	stcleq	8, cr3, [r1, #-56]	; 0xffffffc8
 5d4:	00000007 	andeq	r0, r0, r7
 5d8:	00000020 	andeq	r0, r0, r0, lsr #32
 5dc:	000005a4 	andeq	r0, r0, r4, lsr #11
 5e0:	20001422 	andcs	r1, r0, r2, lsr #8
 5e4:	00000028 	andeq	r0, r0, r8, lsr #32
 5e8:	84100e41 	ldrhi	r0, [r0], #-3649	; 0xfffff1bf
 5ec:	87038504 	strhi	r8, [r3, -r4, lsl #10]
 5f0:	41018e02 	tstmi	r1, r2, lsl #28
 5f4:	0d41180e 	stcleq	8, cr1, [r1, #-56]	; 0xffffffc8
 5f8:	00000007 	andeq	r0, r0, r7
 5fc:	0000001c 	andeq	r0, r0, ip, lsl r0
 600:	000005a4 	andeq	r0, r0, r4, lsr #11
 604:	2000144a 	andcs	r1, r0, sl, asr #8
 608:	00000122 	andeq	r0, r0, r2, lsr #2
 60c:	87080e41 	strhi	r0, [r8, -r1, asr #28]
 610:	41018e02 	tstmi	r1, r2, lsl #28
 614:	0d41200e 	stcleq	0, cr2, [r1, #-56]	; 0xffffffc8
 618:	00000007 	andeq	r0, r0, r7
 61c:	00000018 	andeq	r0, r0, r8, lsl r0
 620:	000005a4 	andeq	r0, r0, r4, lsr #11
 624:	2000156c 	andcs	r1, r0, ip, ror #10
 628:	0000000c 	andeq	r0, r0, ip
 62c:	87080e41 	strhi	r0, [r8, -r1, asr #28]
 630:	41018e02 	tstmi	r1, r2, lsl #28
 634:	0000070d 	andeq	r0, r0, sp, lsl #14
 638:	00000018 	andeq	r0, r0, r8, lsl r0
 63c:	000005a4 	andeq	r0, r0, r4, lsr #11
 640:	20001578 	andcs	r1, r0, r8, ror r5
 644:	0000000c 	andeq	r0, r0, ip
 648:	87080e41 	strhi	r0, [r8, -r1, asr #28]
 64c:	41018e02 	tstmi	r1, r2, lsl #28
 650:	0000070d 	andeq	r0, r0, sp, lsl #14
 654:	00000018 	andeq	r0, r0, r8, lsl r0
 658:	000005a4 	andeq	r0, r0, r4, lsr #11
 65c:	20001584 	andcs	r1, r0, r4, lsl #11
 660:	00000028 	andeq	r0, r0, r8, lsr #32
 664:	87080e41 	strhi	r0, [r8, -r1, asr #28]
 668:	41018e02 	tstmi	r1, r2, lsl #28
 66c:	0000070d 	andeq	r0, r0, sp, lsl #14
 670:	0000001c 	andeq	r0, r0, ip, lsl r0
 674:	000005a4 	andeq	r0, r0, r4, lsr #11
 678:	200015ac 	andcs	r1, r0, ip, lsr #11
 67c:	00000034 	andeq	r0, r0, r4, lsr r0
 680:	87080e41 	strhi	r0, [r8, -r1, asr #28]
 684:	41018e02 	tstmi	r1, r2, lsl #28
 688:	0d41100e 	stcleq	0, cr1, [r1, #-56]	; 0xffffffc8
 68c:	00000007 	andeq	r0, r0, r7
 690:	00000018 	andeq	r0, r0, r8, lsl r0
 694:	000005a4 	andeq	r0, r0, r4, lsr #11
 698:	200015e0 	andcs	r1, r0, r0, ror #11
 69c:	00000010 	andeq	r0, r0, r0, lsl r0
 6a0:	87080e41 	strhi	r0, [r8, -r1, asr #28]
 6a4:	41018e02 	tstmi	r1, r2, lsl #28
 6a8:	0000070d 	andeq	r0, r0, sp, lsl #14
 6ac:	00000018 	andeq	r0, r0, r8, lsl r0
 6b0:	000005a4 	andeq	r0, r0, r4, lsr #11
 6b4:	200015f0 	strdcs	r1, [r0], -r0
 6b8:	0000001e 	andeq	r0, r0, lr, lsl r0
 6bc:	87080e41 	strhi	r0, [r8, -r1, asr #28]
 6c0:	41018e02 	tstmi	r1, r2, lsl #28
 6c4:	0000070d 	andeq	r0, r0, sp, lsl #14
