
./build/mymain.elf:     file format elf32-littlearm


Disassembly of section .text:

20000000 <__boot_start__>:
20000000:	480e      	ldr	r0, [pc, #56]	; (2000003c <_boot_start_loop+0x12>)
20000002:	490f      	ldr	r1, [pc, #60]	; (20000040 <_boot_start_loop+0x16>)
20000004:	6001      	str	r1, [r0, #0]
20000006:	480f      	ldr	r0, [pc, #60]	; (20000044 <_boot_start_loop+0x1a>)
20000008:	490f      	ldr	r1, [pc, #60]	; (20000048 <_boot_start_loop+0x1e>)
2000000a:	6001      	str	r1, [r0, #0]
2000000c:	480f      	ldr	r0, [pc, #60]	; (2000004c <_boot_start_loop+0x22>)
2000000e:	4910      	ldr	r1, [pc, #64]	; (20000050 <_boot_start_loop+0x26>)
20000010:	6001      	str	r1, [r0, #0]
20000012:	4810      	ldr	r0, [pc, #64]	; (20000054 <_boot_start_loop+0x2a>)
20000014:	4910      	ldr	r1, [pc, #64]	; (20000058 <_boot_start_loop+0x2e>)
20000016:	6001      	str	r1, [r0, #0]
20000018:	4810      	ldr	r0, [pc, #64]	; (2000005c <_boot_start_loop+0x32>)
2000001a:	4809      	ldr	r0, [pc, #36]	; (20000040 <_boot_start_loop+0x16>)
2000001c:	6001      	str	r1, [r0, #0]
2000001e:	4807      	ldr	r0, [pc, #28]	; (2000003c <_boot_start_loop+0x12>)
20000020:	490f      	ldr	r1, [pc, #60]	; (20000060 <_boot_start_loop+0x36>)
20000022:	6001      	str	r1, [r0, #0]
20000024:	480f      	ldr	r0, [pc, #60]	; (20000064 <_boot_start_loop+0x3a>)
20000026:	4910      	ldr	r1, [pc, #64]	; (20000068 <_boot_start_loop+0x3e>)
20000028:	4a10      	ldr	r2, [pc, #64]	; (2000006c <_boot_start_loop+0x42>)

2000002a <_boot_start_loop>:
2000002a:	6803      	ldr	r3, [r0, #0]
2000002c:	600b      	str	r3, [r1, #0]
2000002e:	3004      	adds	r0, #4
20000030:	3104      	adds	r1, #4
20000032:	4291      	cmp	r1, r2
20000034:	d1f9      	bne.n	2000002a <_boot_start_loop>
20000036:	480e      	ldr	r0, [pc, #56]	; (20000070 <_boot_start_loop+0x46>)
20000038:	4700      	bx	r0
2000003a:	00080000 	andeq	r0, r8, r0
2000003e:	00001800 	andeq	r1, r0, r0, lsl #16
20000042:	00140000 	andseq	r0, r4, r0
20000046:	00081800 	andeq	r1, r8, r0, lsl #16
2000004a:	00000000 	andeq	r0, r0, r0
2000004e:	03001800 	movweq	r1, #2048	; 0x800
20000052:	00f4001f 	rscseq	r0, r4, pc, lsl r0
20000056:	02181800 	andseq	r1, r8, #0, 16
2000005a:	00040300 	andeq	r0, r4, r0, lsl #6
2000005e:	00011800 	andeq	r1, r1, r0, lsl #16
20000062:	00000000 	andeq	r0, r0, r0
20000066:	00001000 	andeq	r1, r0, r0
2000006a:	04002000 	streq	r2, [r0], #-0
2000006e:	01012000 	mrseq	r2, (UNDEF: 1)
20000072:	00002000 	andeq	r2, r0, r0
	...

20000100 <_start>:
20000100:	4805      	ldr	r0, [pc, #20]	; (20000118 <DELAY+0x6>)
20000102:	4685      	mov	sp, r0
20000104:	f000 f822 	bl	2000014c <cstart>
20000108:	e7fe      	b.n	20000108 <_start+0x8>

2000010a <PUT32>:
2000010a:	6001      	str	r1, [r0, #0]
2000010c:	4770      	bx	lr

2000010e <GET32>:
2000010e:	6800      	ldr	r0, [r0, #0]
20000110:	4770      	bx	lr

20000112 <DELAY>:
20000112:	3801      	subs	r0, #1
20000114:	d1fd      	bne.n	20000112 <DELAY>
20000116:	4770      	bx	lr
20000118:	20005000 	andcs	r5, r0, r0

2000011c <mymain>:
2000011c:	b580      	push	{r7, lr}
2000011e:	af00      	add	r7, sp, #0
20000120:	f000 f840 	bl	200001a4 <gpio_reset>
20000124:	2019      	movs	r0, #25
20000126:	f000 f84f 	bl	200001c8 <gpio_set_output>
2000012a:	2019      	movs	r0, #25
2000012c:	f000 f88a 	bl	20000244 <gpio_set_on>
20000130:	2380      	movs	r3, #128	; 0x80
20000132:	035b      	lsls	r3, r3, #13
20000134:	0018      	movs	r0, r3
20000136:	f7ff ffec 	bl	20000112 <DELAY>
2000013a:	2019      	movs	r0, #25
2000013c:	f000 f89a 	bl	20000274 <gpio_set_off>
20000140:	2380      	movs	r3, #128	; 0x80
20000142:	035b      	lsls	r3, r3, #13
20000144:	0018      	movs	r0, r3
20000146:	f7ff ffe4 	bl	20000112 <DELAY>
2000014a:	e7ee      	b.n	2000012a <mymain+0xe>

2000014c <cstart>:
2000014c:	b580      	push	{r7, lr}
2000014e:	b082      	sub	sp, #8
20000150:	af00      	add	r7, sp, #0
20000152:	4b0a      	ldr	r3, [pc, #40]	; (2000017c <cstart+0x30>)
20000154:	603b      	str	r3, [r7, #0]
20000156:	4b0a      	ldr	r3, [pc, #40]	; (20000180 <cstart+0x34>)
20000158:	607b      	str	r3, [r7, #4]
2000015a:	e004      	b.n	20000166 <cstart+0x1a>
2000015c:	687b      	ldr	r3, [r7, #4]
2000015e:	1d1a      	adds	r2, r3, #4
20000160:	607a      	str	r2, [r7, #4]
20000162:	2200      	movs	r2, #0
20000164:	601a      	str	r2, [r3, #0]
20000166:	687a      	ldr	r2, [r7, #4]
20000168:	683b      	ldr	r3, [r7, #0]
2000016a:	429a      	cmp	r2, r3
2000016c:	d3f6      	bcc.n	2000015c <cstart+0x10>
2000016e:	f7ff ffd5 	bl	2000011c <mymain>
20000172:	46c0      	nop			; (mov r8, r8)
20000174:	46bd      	mov	sp, r7
20000176:	b002      	add	sp, #8
20000178:	bd80      	pop	{r7, pc}
2000017a:	46c0      	nop			; (mov r8, r8)
2000017c:	20002710 	andcs	r2, r0, r0, lsl r7
20000180:	20002710 	andcs	r2, r0, r0, lsl r7

20000184 <gpio_is_reset>:
20000184:	b580      	push	{r7, lr}
20000186:	af00      	add	r7, sp, #0
20000188:	4b05      	ldr	r3, [pc, #20]	; (200001a0 <gpio_is_reset+0x1c>)
2000018a:	0018      	movs	r0, r3
2000018c:	f7ff ffbf 	bl	2000010e <GET32>
20000190:	0003      	movs	r3, r0
20000192:	095b      	lsrs	r3, r3, #5
20000194:	2201      	movs	r2, #1
20000196:	4013      	ands	r3, r2
20000198:	0018      	movs	r0, r3
2000019a:	46bd      	mov	sp, r7
2000019c:	bd80      	pop	{r7, pc}
2000019e:	46c0      	nop			; (mov r8, r8)
200001a0:	4000c008 	andmi	ip, r0, r8

200001a4 <gpio_reset>:
200001a4:	b580      	push	{r7, lr}
200001a6:	af00      	add	r7, sp, #0
200001a8:	4b06      	ldr	r3, [pc, #24]	; (200001c4 <gpio_reset+0x20>)
200001aa:	2120      	movs	r1, #32
200001ac:	0018      	movs	r0, r3
200001ae:	f7ff ffac 	bl	2000010a <PUT32>
200001b2:	46c0      	nop			; (mov r8, r8)
200001b4:	f7ff ffe6 	bl	20000184 <gpio_is_reset>
200001b8:	1e03      	subs	r3, r0, #0
200001ba:	d0fb      	beq.n	200001b4 <gpio_reset+0x10>
200001bc:	46c0      	nop			; (mov r8, r8)
200001be:	46c0      	nop			; (mov r8, r8)
200001c0:	46bd      	mov	sp, r7
200001c2:	bd80      	pop	{r7, pc}
200001c4:	4000f000 	andmi	pc, r0, r0

200001c8 <gpio_set_output>:
200001c8:	b580      	push	{r7, lr}
200001ca:	b084      	sub	sp, #16
200001cc:	af00      	add	r7, sp, #0
200001ce:	6078      	str	r0, [r7, #4]
200001d0:	687b      	ldr	r3, [r7, #4]
200001d2:	2b1d      	cmp	r3, #29
200001d4:	d829      	bhi.n	2000022a <gpio_set_output+0x62>
200001d6:	687b      	ldr	r3, [r7, #4]
200001d8:	00db      	lsls	r3, r3, #3
200001da:	60fb      	str	r3, [r7, #12]
200001dc:	2201      	movs	r2, #1
200001de:	687b      	ldr	r3, [r7, #4]
200001e0:	409a      	lsls	r2, r3
200001e2:	0013      	movs	r3, r2
200001e4:	001a      	movs	r2, r3
200001e6:	4b13      	ldr	r3, [pc, #76]	; (20000234 <gpio_set_output+0x6c>)
200001e8:	0011      	movs	r1, r2
200001ea:	0018      	movs	r0, r3
200001ec:	f7ff ff8d 	bl	2000010a <PUT32>
200001f0:	2201      	movs	r2, #1
200001f2:	687b      	ldr	r3, [r7, #4]
200001f4:	409a      	lsls	r2, r3
200001f6:	0013      	movs	r3, r2
200001f8:	001a      	movs	r2, r3
200001fa:	4b0f      	ldr	r3, [pc, #60]	; (20000238 <gpio_set_output+0x70>)
200001fc:	0011      	movs	r1, r2
200001fe:	0018      	movs	r0, r3
20000200:	f7ff ff83 	bl	2000010a <PUT32>
20000204:	68fb      	ldr	r3, [r7, #12]
20000206:	4a0d      	ldr	r2, [pc, #52]	; (2000023c <gpio_set_output+0x74>)
20000208:	4694      	mov	ip, r2
2000020a:	4463      	add	r3, ip
2000020c:	2105      	movs	r1, #5
2000020e:	0018      	movs	r0, r3
20000210:	f7ff ff7b 	bl	2000010a <PUT32>
20000214:	2201      	movs	r2, #1
20000216:	687b      	ldr	r3, [r7, #4]
20000218:	409a      	lsls	r2, r3
2000021a:	0013      	movs	r3, r2
2000021c:	001a      	movs	r2, r3
2000021e:	4b08      	ldr	r3, [pc, #32]	; (20000240 <gpio_set_output+0x78>)
20000220:	0011      	movs	r1, r2
20000222:	0018      	movs	r0, r3
20000224:	f7ff ff71 	bl	2000010a <PUT32>
20000228:	e000      	b.n	2000022c <gpio_set_output+0x64>
2000022a:	46c0      	nop			; (mov r8, r8)
2000022c:	46bd      	mov	sp, r7
2000022e:	b004      	add	sp, #16
20000230:	bd80      	pop	{r7, pc}
20000232:	46c0      	nop			; (mov r8, r8)
20000234:	d0000028 	andle	r0, r0, r8, lsr #32
20000238:	d0000018 	andle	r0, r0, r8, lsl r0
2000023c:	40014004 	andmi	r4, r1, r4
20000240:	d0000024 	andle	r0, r0, r4, lsr #32

20000244 <gpio_set_on>:
20000244:	b580      	push	{r7, lr}
20000246:	b082      	sub	sp, #8
20000248:	af00      	add	r7, sp, #0
2000024a:	6078      	str	r0, [r7, #4]
2000024c:	687b      	ldr	r3, [r7, #4]
2000024e:	2b1d      	cmp	r3, #29
20000250:	d80a      	bhi.n	20000268 <gpio_set_on+0x24>
20000252:	2201      	movs	r2, #1
20000254:	687b      	ldr	r3, [r7, #4]
20000256:	409a      	lsls	r2, r3
20000258:	0013      	movs	r3, r2
2000025a:	001a      	movs	r2, r3
2000025c:	4b04      	ldr	r3, [pc, #16]	; (20000270 <gpio_set_on+0x2c>)
2000025e:	0011      	movs	r1, r2
20000260:	0018      	movs	r0, r3
20000262:	f7ff ff52 	bl	2000010a <PUT32>
20000266:	e000      	b.n	2000026a <gpio_set_on+0x26>
20000268:	46c0      	nop			; (mov r8, r8)
2000026a:	46bd      	mov	sp, r7
2000026c:	b002      	add	sp, #8
2000026e:	bd80      	pop	{r7, pc}
20000270:	d0000014 	andle	r0, r0, r4, lsl r0

20000274 <gpio_set_off>:
20000274:	b580      	push	{r7, lr}
20000276:	b082      	sub	sp, #8
20000278:	af00      	add	r7, sp, #0
2000027a:	6078      	str	r0, [r7, #4]
2000027c:	687b      	ldr	r3, [r7, #4]
2000027e:	2b1d      	cmp	r3, #29
20000280:	d80a      	bhi.n	20000298 <gpio_set_off+0x24>
20000282:	2201      	movs	r2, #1
20000284:	687b      	ldr	r3, [r7, #4]
20000286:	409a      	lsls	r2, r3
20000288:	0013      	movs	r3, r2
2000028a:	001a      	movs	r2, r3
2000028c:	4b04      	ldr	r3, [pc, #16]	; (200002a0 <gpio_set_off+0x2c>)
2000028e:	0011      	movs	r1, r2
20000290:	0018      	movs	r0, r3
20000292:	f7ff ff3a 	bl	2000010a <PUT32>
20000296:	e000      	b.n	2000029a <gpio_set_off+0x26>
20000298:	46c0      	nop			; (mov r8, r8)
2000029a:	46bd      	mov	sp, r7
2000029c:	b002      	add	sp, #8
2000029e:	bd80      	pop	{r7, pc}
200002a0:	d0000018 	andle	r0, r0, r8, lsl r0

200002a4 <__code_end__>:
200002a4:	00000000 	andeq	r0, r0, r0

Disassembly of section .ARM.attributes:

00000000 <.ARM.attributes>:
   0:	00002c41 	andeq	r2, r0, r1, asr #24
   4:	61656100 	cmnvs	r5, r0, lsl #2
   8:	01006962 	tsteq	r0, r2, ror #18
   c:	00000022 	andeq	r0, r0, r2, lsr #32
  10:	726f4305 	rsbvc	r4, pc, #335544320	; 0x14000000
  14:	2d786574 	cfldr64cs	mvdx6, [r8, #-464]!	; 0xfffffe30
  18:	0600304d 	streq	r3, [r0], -sp, asr #32
  1c:	094d070c 	stmdbeq	sp, {r2, r3, r8, r9, sl}^
  20:	14041201 	strne	r1, [r4], #-513	; 0xfffffdff
  24:	17011501 	strne	r1, [r1, -r1, lsl #10]
  28:	1a011803 	bne	4603c <STACK_SIZE+0x4392c>
  2c:	Address 0x000000000000002c is out of bounds.


Disassembly of section .comment:

00000000 <.comment>:
   0:	3a434347 	bcc	10d0d24 <STACK_SIZE+0x10ce614>
   4:	4e472820 	cdpmi	8, 4, cr2, cr7, cr0, {1}
   8:	6f542055 	svcvs	0x00542055
   c:	20736c6f 	rsbscs	r6, r3, pc, ror #24
  10:	20726f66 	rsbscs	r6, r2, r6, ror #30
  14:	206d7241 	rsbcs	r7, sp, r1, asr #4
  18:	65626d45 	strbvs	r6, [r2, #-3397]!	; 0xfffff2bb
  1c:	64656464 	strbtvs	r6, [r5], #-1124	; 0xfffffb9c
  20:	6f725020 	svcvs	0x00725020
  24:	73736563 	cmnvc	r3, #415236096	; 0x18c00000
  28:	2073726f 	rsbscs	r7, r3, pc, ror #4
  2c:	30322d39 	eorscc	r2, r2, r9, lsr sp
  30:	712d3931 			; <UNDEFINED> instruction: 0x712d3931
  34:	616d2d34 	cmnvs	sp, r4, lsr sp
  38:	29726f6a 	ldmdbcs	r2!, {r1, r3, r5, r6, r8, r9, sl, fp, sp, lr}^
  3c:	322e3920 	eorcc	r3, lr, #32, 18	; 0x80000
  40:	3220312e 	eorcc	r3, r0, #-2147483637	; 0x8000000b
  44:	31393130 	teqcc	r9, r0, lsr r1
  48:	20353230 	eorscs	r3, r5, r0, lsr r2
  4c:	6c657228 	sfmvs	f7, 2, [r5], #-160	; 0xffffff60
  50:	65736165 	ldrbvs	r6, [r3, #-357]!	; 0xfffffe9b
  54:	415b2029 	cmpmi	fp, r9, lsr #32
  58:	612f4d52 			; <UNDEFINED> instruction: 0x612f4d52
  5c:	392d6d72 	pushcc	{r1, r4, r5, r6, r8, sl, fp, sp, lr}
  60:	6172622d 	cmnvs	r2, sp, lsr #4
  64:	2068636e 	rsbcs	r6, r8, lr, ror #6
  68:	69766572 	ldmdbvs	r6!, {r1, r4, r5, r6, r8, sl, sp, lr}^
  6c:	6e6f6973 			; <UNDEFINED> instruction: 0x6e6f6973
  70:	37373220 	ldrcc	r3, [r7, -r0, lsr #4]!
  74:	5d393935 			; <UNDEFINED> instruction: 0x5d393935
	...

Disassembly of section .debug_line:

00000000 <.debug_line>:
   0:	0000007d 	andeq	r0, r0, sp, ror r0
   4:	001e0003 	andseq	r0, lr, r3
   8:	01020000 	mrseq	r0, (UNDEF: 2)
   c:	000d0efb 	strdeq	r0, [sp], -fp
  10:	01010101 	tsteq	r1, r1, lsl #2
  14:	01000000 	mrseq	r0, (UNDEF: 0)
  18:	00010000 	andeq	r0, r1, r0
  1c:	72617473 	rsbvc	r7, r1, #1929379840	; 0x73000000
  20:	00532e74 	subseq	r2, r3, r4, ror lr
  24:	00000000 	andeq	r0, r0, r0
  28:	00020500 	andeq	r0, r2, r0, lsl #10
  2c:	03200000 	nopeq	{0}	; <UNPREDICTABLE>
  30:	2121010c 			; <UNDEFINED> instruction: 0x2121010c
  34:	23212123 			; <UNDEFINED> instruction: 0x23212123
  38:	21232121 			; <UNDEFINED> instruction: 0x21232121
  3c:	21212321 			; <UNDEFINED> instruction: 0x21212321
  40:	22212123 	eorcs	r2, r1, #-1073741816	; 0xc0000008
  44:	21222121 			; <UNDEFINED> instruction: 0x21222121
  48:	21212121 			; <UNDEFINED> instruction: 0x21212121
  4c:	57032122 	strpl	r2, [r3, -r2, lsr #2]
  50:	2f322f2e 	svccs	0x00322f2e
  54:	2f322f32 	svccs	0x00322f32
  58:	2f313432 	svccs	0x00313432
  5c:	2e09032f 	cdpcs	3, 0, cr0, cr9, cr15, {1}
  60:	01000202 	tsteq	r0, r2, lsl #4
  64:	02050001 	andeq	r0, r5, #1, 0
  68:	20000100 	andcs	r0, r0, r0, lsl #2
  6c:	21013e03 	tstcs	r1, r3, lsl #28
  70:	21252f21 			; <UNDEFINED> instruction: 0x21252f21
  74:	21252125 			; <UNDEFINED> instruction: 0x21252125
  78:	206a0321 	rsbcs	r0, sl, r1, lsr #6
  7c:	01000202 	tsteq	r0, r2, lsl #4
  80:	0000d501 	andeq	sp, r0, r1, lsl #10
  84:	88000300 	stmdahi	r0, {r8, r9}
  88:	02000000 	andeq	r0, r0, #0, 0
  8c:	0d0efb01 	vstreq	d15, [lr, #-4]
  90:	01010100 	mrseq	r0, (UNDEF: 17)
  94:	00000001 	andeq	r0, r0, r1
  98:	01000001 	tsteq	r0, r1
  9c:	7273752f 	rsbsvc	r7, r3, #197132288	; 0xbc00000
  a0:	636f6c2f 	cmnvs	pc, #12032	; 0x2f00
  a4:	432f6c61 			; <UNDEFINED> instruction: 0x432f6c61
  a8:	616c6c65 	cmnvs	ip, r5, ror #24
  ac:	72612f72 	rsbvc	r2, r1, #456	; 0x1c8
  b0:	6f6e2d6d 	svcvs	0x006e2d6d
  b4:	652d656e 	strvs	r6, [sp, #-1390]!	; 0xfffffa92
  b8:	2d696261 	sfmcs	f6, 2, [r9, #-388]!	; 0xfffffe7c
  bc:	74736574 	ldrbtvc	r6, [r3], #-1396	; 0xfffffa8c
  c0:	322d392f 	eorcc	r3, sp, #770048	; 0xbc000
  c4:	71393130 	teqvc	r9, r0, lsr r1
  c8:	73632d34 	cmnvc	r3, #52, 26	; 0xd00
  cc:	65373031 	ldrvs	r3, [r7, #-49]!	; 0xffffffcf
  d0:	62696c2f 	rsbvs	r6, r9, #12032	; 0x2f00
  d4:	6363672f 	cmnvs	r3, #12320768	; 0xbc0000
  d8:	6d72612f 	ldfvse	f6, [r2, #-188]!	; 0xffffff44
  dc:	6e6f6e2d 	cdpvs	14, 6, cr6, cr15, cr13, {1}
  e0:	61652d65 	cmnvs	r5, r5, ror #26
  e4:	392f6962 	stmdbcc	pc!, {r1, r5, r6, r8, fp, sp, lr}	; <UNPREDICTABLE>
  e8:	312e322e 			; <UNDEFINED> instruction: 0x312e322e
  ec:	636e692f 	cmnvs	lr, #770048	; 0xbc000
  f0:	6564756c 	strbvs	r7, [r4, #-1388]!	; 0xfffffa94
  f4:	73630000 	cmnvc	r3, #0, 0
  f8:	74726174 	ldrbtvc	r6, [r2], #-372	; 0xfffffe8c
  fc:	0000632e 	andeq	r6, r0, lr, lsr #6
 100:	74730000 	ldrbtvc	r0, [r3], #-0
 104:	746e6964 	strbtvc	r6, [lr], #-2404	; 0xfffff69c
 108:	6363672d 	cmnvs	r3, #11796480	; 0xb40000
 10c:	0100682e 	tsteq	r0, lr, lsr #16
 110:	05000000 	streq	r0, [r0, #-0]
 114:	0205000e 	andeq	r0, r5, #14, 0
 118:	2000011c 	andcs	r0, r0, ip, lsl r1
 11c:	2f050515 	svccs	0x00050515
 120:	00090531 	andeq	r0, r9, r1, lsr r5
 124:	41010402 	tstmi	r1, r2, lsl #8
 128:	01040200 	mrseq	r0, R12_usr
 12c:	0402003d 	streq	r0, [r2], #-61	; 0xffffffc3
 130:	02005901 	andeq	r5, r0, #16384	; 0x4000
 134:	003d0104 	eorseq	r0, sp, r4, lsl #2
 138:	55010402 	strpl	r0, [r1, #-1026]	; 0xfffffbfe
 13c:	09030f05 	stmdbeq	r3, {r0, r2, r8, r9, sl, fp}
 140:	052f4020 	streq	r4, [pc, #-32]!	; 128 <STACK_SIZE-0x25e8>
 144:	0d052f0b 	stceq	15, cr2, [r5, #-44]	; 0xffffffd4
 148:	3c100521 	cfldr32cc	mvfx0, [r0], {33}	; 0x21
 14c:	052d0b05 	streq	r0, [sp, #-2821]!	; 0xfffff4fb
 150:	01054f05 	tsteq	r5, r5, lsl #30
 154:	0009022f 	andeq	r0, r9, pc, lsr #4
 158:	01130101 	tsteq	r3, r1, lsl #2
 15c:	00030000 	andeq	r0, r3, r0
 160:	00000090 	muleq	r0, r0, r0
 164:	0efb0102 	cdpeq	1, 15, cr0, cr11, cr2, {0}
 168:	0101000d 	tsteq	r1, sp
 16c:	00000101 	andeq	r0, r0, r1, lsl #2
 170:	00000100 	andeq	r0, r0, r0, lsl #2
 174:	73752f01 	cmnvc	r5, #1, 30
 178:	6f6c2f72 	svcvs	0x006c2f72
 17c:	2f6c6163 	svccs	0x006c6163
 180:	6c6c6543 	cfstr64vs	mvdx6, [ip], #-268	; 0xfffffef4
 184:	612f7261 			; <UNDEFINED> instruction: 0x612f7261
 188:	6e2d6d72 	mcrvs	13, 1, r6, cr13, cr2, {3}
 18c:	2d656e6f 	stclcs	14, cr6, [r5, #-444]!	; 0xfffffe44
 190:	69626165 	stmdbvs	r2!, {r0, r2, r5, r6, r8, sp, lr}^
 194:	7365742d 	cmnvc	r5, #754974720	; 0x2d000000
 198:	2d392f74 	ldccs	15, cr2, [r9, #-464]!	; 0xfffffe30
 19c:	39313032 	ldmdbcc	r1!, {r1, r4, r5, ip, sp}
 1a0:	632d3471 			; <UNDEFINED> instruction: 0x632d3471
 1a4:	37303173 			; <UNDEFINED> instruction: 0x37303173
 1a8:	696c2f65 	stmdbvs	ip!, {r0, r2, r5, r6, r8, r9, sl, fp, sp}^
 1ac:	63672f62 	cmnvs	r7, #392	; 0x188
 1b0:	72612f63 	rsbvc	r2, r1, #396	; 0x18c
 1b4:	6f6e2d6d 	svcvs	0x006e2d6d
 1b8:	652d656e 	strvs	r6, [sp, #-1390]!	; 0xfffffa92
 1bc:	2f696261 	svccs	0x00696261
 1c0:	2e322e39 	mrccs	14, 1, r2, cr2, cr9, {1}
 1c4:	6e692f31 	mcrvs	15, 3, r2, cr9, cr1, {1}
 1c8:	64756c63 	ldrbtvs	r6, [r5], #-3171	; 0xfffff39d
 1cc:	67000065 	strvs	r0, [r0, -r5, rrx]
 1d0:	2e6f6970 			; <UNDEFINED> instruction: 0x2e6f6970
 1d4:	00000063 	andeq	r0, r0, r3, rrx
 1d8:	69706700 	ldmdbvs	r0!, {r8, r9, sl, sp, lr}^
 1dc:	00682e6f 	rsbeq	r2, r8, pc, ror #28
 1e0:	73000000 	movwvc	r0, #0
 1e4:	6e696474 	mcrvs	4, 3, r6, cr9, cr4, {3}
 1e8:	63672d74 	cmnvs	r7, #116, 26	; 0x1d00
 1ec:	00682e63 	rsbeq	r2, r8, r3, ror #28
 1f0:	00000001 	andeq	r0, r0, r1
 1f4:	05001a05 	streq	r1, [r0, #-2565]	; 0xfffff5fb
 1f8:	00018402 	andeq	r8, r1, r2, lsl #8
 1fc:	0d051520 	cfstr32eq	mvfx1, [r5, #-128]	; 0xffffff80
 200:	581f052f 	ldmdapl	pc, {r0, r1, r2, r3, r5, r8, sl}	; <UNPREDICTABLE>
 204:	05202405 	streq	r2, [r0, #-1029]!	; 0xfffffbfb
 208:	13052f01 	movwne	r2, #24321	; 0x5f01
 20c:	2f050568 	svccs	0x00050568
 210:	05590a05 	ldrbeq	r0, [r9, #-2565]	; 0xfffff5fb
 214:	0402000c 	streq	r0, [r2], #-12
 218:	0a052001 	beq	148224 <STACK_SIZE+0x145b14>
 21c:	01040200 	mrseq	r0, R12_usr
 220:	2101053c 	tstcs	r1, ip, lsr r5
 224:	056a2405 	strbeq	r2, [sl, #-1029]!	; 0xfffffbfb
 228:	0e054c08 	cdpeq	12, 0, cr4, cr5, cr8, {0}
 22c:	3d1a053f 	cfldr32cc	mvfx0, [sl, #-252]	; 0xffffff04
 230:	054a0505 	strbeq	r0, [sl, #-1285]	; 0xfffffafb
 234:	0505671b 	streq	r6, [r5, #-1819]	; 0xfffff8e5
 238:	1a05674a 	bne	159f68 <STACK_SIZE+0x157858>
 23c:	4a050583 	bmi	141850 <STACK_SIZE+0x13f140>
 240:	7a030905 	bvc	c265c <STACK_SIZE+0xbff4c>
 244:	27010574 	smlsdxcs	r1, r4, r5, r0
 248:	05bd2005 	ldreq	r2, [sp, #5]!
 24c:	1b054b08 	blne	152e74 <STACK_SIZE+0x150764>
 250:	4a05053f 	bmi	141754 <STACK_SIZE+0x13f044>
 254:	05720905 	ldrbeq	r0, [r2, #-2309]!	; 0xfffff6fb
 258:	21052301 	tstcs	r5, r1, lsl #6
 25c:	4b08055a 	blmi	2017cc <STACK_SIZE+0x1ff0bc>
 260:	053f1b05 	ldreq	r1, [pc, #-2821]!	; fffff763 <__data_end__+0xdfffd053>
 264:	09054a05 	stmdbeq	r5, {r0, r2, r9, fp, lr}
 268:	23010572 	movwcs	r0, #5490	; 0x1572
 26c:	01000502 	tsteq	r0, r2, lsl #10
 270:	Address 0x0000000000000270 is out of bounds.


Disassembly of section .debug_info:

00000000 <.debug_info>:
   0:	0000001e 	andeq	r0, r0, lr, lsl r0
   4:	00000002 	andeq	r0, r0, r2
   8:	01040000 	mrseq	r0, (UNDEF: 4)
	...
  18:	00000008 	andeq	r0, r0, r8
  1c:	00000043 	andeq	r0, r0, r3, asr #32
  20:	00dd8001 	sbcseq	r8, sp, r1
  24:	00040000 	andeq	r0, r4, r0
  28:	00000012 	andeq	r0, r0, r2, lsl r0
  2c:	00670104 	rsbeq	r0, r7, r4, lsl #2
  30:	350c0000 	strcc	r0, [ip, #-0]
  34:	08000001 	stmdaeq	r0, {r0}
  38:	1c000000 	stcne	0, cr0, [r0], {-0}
  3c:	68200001 	stmdavs	r0!, {r0}
  40:	81000000 	mrshi	r0, (UNDEF: 0)
  44:	02000000 	andeq	r0, r0, #0, 0
  48:	00f80601 	rscseq	r0, r8, r1, lsl #12
  4c:	02020000 	andeq	r0, r2, #0, 0
  50:	00015805 	andeq	r5, r1, r5, lsl #16
  54:	05040200 	streq	r0, [r4, #-512]	; 0xfffffe00
  58:	00000143 	andeq	r0, r0, r3, asr #2
  5c:	3e050802 	cdpcc	8, 0, cr0, cr5, cr2, {0}
  60:	02000001 	andeq	r0, r0, #1, 0
  64:	00f60801 	rscseq	r0, r6, r1, lsl #16
  68:	02020000 	andeq	r0, r2, #0, 0
  6c:	00010407 	andeq	r0, r1, r7, lsl #8
  70:	01620300 	cmneq	r2, r0, lsl #6
  74:	34020000 	strcc	r0, [r2], #-0
  78:	00005b19 	andeq	r5, r0, r9, lsl fp
  7c:	07040200 	streq	r0, [r4, -r0, lsl #4]
  80:	0000011c 	andeq	r0, r0, ip, lsl r1
  84:	17070802 	strne	r0, [r7, -r2, lsl #16]
  88:	04000001 	streq	r0, [r0], #-1
  8c:	6e690504 	cdpvs	5, 6, cr0, cr9, cr4, {0}
  90:	04020074 	streq	r0, [r2], #-116	; 0xffffff8c
  94:	00012107 	andeq	r2, r1, r7, lsl #2
  98:	016b0500 	cmneq	fp, r0, lsl #10
  9c:	16010000 	strne	r0, [r1], -r0
  a0:	00014c06 	andeq	r4, r1, r6, lsl #24
  a4:	00003820 	andeq	r3, r0, r0, lsr #16
  a8:	c49c0100 	ldrgt	r0, [ip], #256	; 0x100
  ac:	06000000 	streq	r0, [r0], -r0
  b0:	00000051 	andeq	r0, r0, r1, asr r0
  b4:	4f151701 	svcmi	0x00151701
  b8:	06000000 	streq	r0, [r0], -r0
  bc:	0000014c 	andeq	r0, r0, ip, asr #2
  c0:	4f231701 	svcmi	0x00231701
  c4:	07000000 	streq	r0, [r0, -r0]
  c8:	0000005f 	andeq	r0, r0, pc, asr r0
  cc:	c40f1a01 	strgt	r1, [pc], #-2561	; d4 <STACK_SIZE-0x263c>
  d0:	02000000 	andeq	r0, r0, #0, 0
  d4:	62087091 	andvs	r7, r8, #145, 0	; 0x91
  d8:	01007373 	tsteq	r0, r3, ror r3
  dc:	00c40f1b 	sbceq	r0, r4, fp, lsl pc
  e0:	91020000 	mrsls	r0, (UNDEF: 2)
  e4:	04090074 	streq	r0, [r9], #-116	; 0xffffff8c
  e8:	0000004f 	andeq	r0, r0, pc, asr #32
  ec:	00012e0a 	andeq	r2, r1, sl, lsl #28
  f0:	05040100 	streq	r0, [r4, #-256]	; 0xffffff00
  f4:	00000069 	andeq	r0, r0, r9, rrx
  f8:	2000011c 	andcs	r0, r0, ip, lsl r1
  fc:	00000030 	andeq	r0, r0, r0, lsr r0
 100:	07009c01 	streq	r9, [r0, -r1, lsl #24]
 104:	04000002 	streq	r0, [r0], #-2
 108:	0000bd00 	andeq	fp, r0, r0, lsl #26
 10c:	67010400 	strvs	r0, [r1, -r0, lsl #8]
 110:	0c000000 	stceq	0, cr0, [r0], {-0}
 114:	00000251 	andeq	r0, r0, r1, asr r2
 118:	00000008 	andeq	r0, r0, r8
 11c:	20000184 	andcs	r0, r0, r4, lsl #3
 120:	00000120 	andeq	r0, r0, r0, lsr #2
 124:	0000015a 	andeq	r0, r0, sl, asr r1
 128:	f8060102 			; <UNDEFINED> instruction: 0xf8060102
 12c:	02000000 	andeq	r0, r0, #0, 0
 130:	01580502 	cmpeq	r8, r2, lsl #10
 134:	04020000 	streq	r0, [r2], #-0
 138:	00014305 	andeq	r4, r1, r5, lsl #6
 13c:	05080200 	streq	r0, [r8, #-512]	; 0xfffffe00
 140:	0000013e 	andeq	r0, r0, lr, lsr r1
 144:	f6080102 			; <UNDEFINED> instruction: 0xf6080102
 148:	02000000 	andeq	r0, r0, #0, 0
 14c:	01040702 	tsteq	r4, r2, lsl #14
 150:	62030000 	andvs	r0, r3, #0, 0
 154:	03000001 	movweq	r0, #1
 158:	005b1934 	subseq	r1, fp, r4, lsr r9
 15c:	04020000 	streq	r0, [r2], #-0
 160:	00011c07 	andeq	r1, r1, r7, lsl #24
 164:	07080200 	streq	r0, [r8, -r0, lsl #4]
 168:	00000117 	andeq	r0, r0, r7, lsl r1
 16c:	69050404 	stmdbvs	r5, {r2, sl}
 170:	0200746e 	andeq	r7, r0, #1845493760	; 0x6e000000
 174:	01210704 			; <UNDEFINED> instruction: 0x01210704
 178:	07050000 	streq	r0, [r5, -r0]
 17c:	00007004 	andeq	r7, r0, r4
 180:	06060200 	streq	r0, [r6], -r0, lsl #4
 184:	00000098 	muleq	r0, r8, r0
 188:	00018b06 	andeq	r8, r1, r6, lsl #22
 18c:	01400000 	mrseq	r0, (UNDEF: 64)
 190:	02640640 	rsbeq	r0, r4, #64, 12	; 0x4000000
 194:	40040000 	andmi	r0, r4, r0
 198:	05004001 	streq	r4, [r0, #-1]
 19c:	00700407 	rsbseq	r0, r0, r7, lsl #8
 1a0:	0d020000 	stceq	0, cr0, [r2, #-0]
 1a4:	0000e606 	andeq	lr, r0, r6, lsl #12
 1a8:	01e80600 	mvneq	r0, r0, lsl #12
 1ac:	00040000 	andeq	r0, r4, r0
 1b0:	8906d000 	stmdbhi	r6, {ip, lr, pc}
 1b4:	10000002 	andne	r0, r0, r2
 1b8:	06d00000 	ldrbeq	r0, [r0], r0
 1bc:	00000276 	andeq	r0, r0, r6, ror r2
 1c0:	d0000014 	andle	r0, r0, r4, lsl r0
 1c4:	00017e06 	andeq	r7, r1, r6, lsl #28
 1c8:	00001800 	andeq	r1, r0, r0, lsl #16
 1cc:	01fb06d0 	ldrsbeq	r0, [fp, #96]!	; 0x60
 1d0:	00200000 	eoreq	r0, r0, r0
 1d4:	7206d000 	andvc	sp, r6, #0, 0
 1d8:	28000001 	stmdacs	r0, {r0}
 1dc:	06d00000 	ldrbeq	r0, [r0], r0
 1e0:	00000258 	andeq	r0, r0, r8, asr r2
 1e4:	d0000024 	andle	r0, r0, r4, lsr #32
 1e8:	04070500 	streq	r0, [r7], #-1280	; 0xfffffb00
 1ec:	00000070 	andeq	r0, r0, r0, ror r0
 1f0:	19061b02 	stmdbne	r6, {r1, r8, r9, fp, ip}
 1f4:	06000001 	streq	r0, [r0], -r1
 1f8:	00000283 	andeq	r0, r0, r3, lsl #5
 1fc:	4000c000 	andmi	ip, r0, r0
 200:	0001de06 	andeq	sp, r1, r6, lsl #28
 204:	00c00400 	sbceq	r0, r0, r0, lsl #8
 208:	01f00640 	mvnseq	r0, r0, asr #12
 20c:	c0080000 	andgt	r0, r8, r0
 210:	29064000 	stmdbcs	r6, {lr}
 214:	00000002 	andeq	r0, r0, r2
 218:	004000f0 	strdeq	r0, [r0], #-0
 21c:	41010705 	tstmi	r1, r5, lsl #14
 220:	02000000 	andeq	r0, r0, #0, 0
 224:	01400623 	cmpeq	r0, r3, lsr #12
 228:	bf070000 	svclt	0x00070000
 22c:	05000001 	streq	r0, [r0, #-1]
 230:	0001a407 	andeq	sl, r1, r7, lsl #8
 234:	0f071800 	svceq	0x00071800
 238:	17000002 	strne	r0, [r0, -r2]
 23c:	00020307 	andeq	r0, r2, r7, lsl #6
 240:	05001600 	streq	r1, [r0, #-1536]	; 0xfffffa00
 244:	00410107 	subeq	r0, r1, r7, lsl #2
 248:	2b020000 	blcs	80250 <STACK_SIZE+0x7db40>
 24c:	0001610e 	andeq	r6, r1, lr, lsl #2
 250:	49530800 	ldmdbmi	r3, {fp}^
 254:	0705004f 	streq	r0, [r5, -pc, asr #32]
 258:	0000019f 	muleq	r0, pc, r1	; <UNPREDICTABLE>
 25c:	024c0706 	subeq	r0, ip, #1572864	; 0x180000
 260:	00070000 	andeq	r0, r7, r0
 264:	0001b209 	andeq	fp, r1, r9, lsl #4
 268:	06230100 	strteq	r0, [r3], -r0, lsl #2
 26c:	20000274 	andcs	r0, r0, r4, ror r2
 270:	00000030 	andeq	r0, r0, r0, lsr r0
 274:	01879c01 	orreq	r9, r7, r1, lsl #24
 278:	700a0000 	andvc	r0, sl, r0
 27c:	01006e69 	tsteq	r0, r9, ror #28
 280:	004f1c23 	subeq	r1, pc, r3, lsr #24
 284:	91020000 	mrsls	r0, (UNDEF: 2)
 288:	92090074 	andls	r0, r9, #116, 0	; 0x74
 28c:	01000002 	tsteq	r0, r2
 290:	0244061c 	subeq	r0, r4, #28, 12	; 0x1c00000
 294:	00302000 	eorseq	r2, r0, r0
 298:	9c010000 	stcls	0, cr0, [r1], {-0}
 29c:	000001ad 	andeq	r0, r0, sp, lsr #3
 2a0:	6e69700a 	cdpvs	0, 6, cr7, cr9, cr10, {0}
 2a4:	1b1c0100 	blne	7006ac <STACK_SIZE+0x6fdf9c>
 2a8:	0000004f 	andeq	r0, r0, pc, asr #32
 2ac:	00749102 	rsbseq	r9, r4, r2, lsl #2
 2b0:	0001ce09 	andeq	ip, r1, r9, lsl #28
 2b4:	060f0100 	streq	r0, [pc], -r0, lsl #2
 2b8:	200001c8 	andcs	r0, r0, r8, asr #3
 2bc:	0000007c 	andeq	r0, r0, ip, ror r0
 2c0:	01e29c01 	mvneq	r9, r1, lsl #24
 2c4:	700a0000 	andvc	r0, sl, r0
 2c8:	01006e69 	tsteq	r0, r9, ror #28
 2cc:	004f1f0f 	subeq	r1, pc, pc, lsl #30
 2d0:	91020000 	mrsls	r0, (UNDEF: 2)
 2d4:	02450b6c 	subeq	r0, r5, #108, 22	; 0x1b000
 2d8:	14010000 	strne	r0, [r1], #-0
 2dc:	00004f0e 	andeq	r4, r0, lr, lsl #30
 2e0:	74910200 	ldrvc	r0, [r1], #512	; 0x200
 2e4:	023a0c00 	eorseq	r0, sl, #0, 24
 2e8:	08010000 	stmdaeq	r1, {}	; <UNPREDICTABLE>
 2ec:	0001a406 	andeq	sl, r1, r6, lsl #8
 2f0:	00002420 	andeq	r2, r0, r0, lsr #8
 2f4:	0d9c0100 	ldfeqs	f0, [ip]
 2f8:	0000021b 	andeq	r0, r0, fp, lsl r2
 2fc:	4f0a0401 	svcmi	0x000a0401
 300:	84000000 	strhi	r0, [r0], #-0
 304:	20200001 	eorcs	r0, r0, r1
 308:	01000000 	mrseq	r0, (UNDEF: 0)
 30c:	Address 0x000000000000030c is out of bounds.


Disassembly of section .debug_abbrev:

00000000 <.debug_abbrev>:
   0:	10001101 	andne	r1, r0, r1, lsl #2
   4:	03065506 	movweq	r5, #25862	; 0x6506
   8:	250e1b0e 	strcs	r1, [lr, #-2830]	; 0xfffff4f2
   c:	0005130e 	andeq	r1, r5, lr, lsl #6
  10:	11010000 	mrsne	r0, (UNDEF: 1)
  14:	130e2501 	movwne	r2, #58625	; 0xe501
  18:	1b0e030b 	blne	380c4c <STACK_SIZE+0x37e53c>
  1c:	1201110e 	andne	r1, r1, #-2147483645	; 0x80000003
  20:	00171006 	andseq	r1, r7, r6
  24:	00240200 	eoreq	r0, r4, r0, lsl #4
  28:	0b3e0b0b 	bleq	f82c5c <STACK_SIZE+0xf8054c>
  2c:	00000e03 	andeq	r0, r0, r3, lsl #28
  30:	03001603 	movweq	r1, #1539	; 0x603
  34:	3b0b3a0e 	blcc	2ce874 <STACK_SIZE+0x2cc164>
  38:	490b390b 	stmdbmi	fp, {r0, r1, r3, r8, fp, ip, sp}
  3c:	04000013 	streq	r0, [r0], #-19	; 0xffffffed
  40:	0b0b0024 	bleq	2c00d8 <STACK_SIZE+0x2bd9c8>
  44:	08030b3e 	stmdaeq	r3, {r1, r2, r3, r4, r5, r8, r9, fp}
  48:	2e050000 	cdpcs	0, 0, cr0, cr5, cr0, {0}
  4c:	03193f01 	tsteq	r9, #1, 30
  50:	3b0b3a0e 	blcc	2ce890 <STACK_SIZE+0x2cc180>
  54:	110b390b 	tstne	fp, fp, lsl #18
  58:	40061201 	andmi	r1, r6, r1, lsl #4
  5c:	19429618 	stmdbne	r2, {r3, r4, r9, sl, ip, pc}^
  60:	00001301 	andeq	r1, r0, r1, lsl #6
  64:	03003406 	movweq	r3, #1030	; 0x406
  68:	3b0b3a0e 	blcc	2ce8a8 <STACK_SIZE+0x2cc198>
  6c:	490b390b 	stmdbmi	fp, {r0, r1, r3, r8, fp, ip, sp}
  70:	3c193f13 	ldccc	15, cr3, [r9], {19}
  74:	07000019 	smladeq	r0, r9, r0, r0
  78:	0e030034 	mcreq	0, 0, r0, cr3, cr4, {1}
  7c:	0b3b0b3a 	bleq	ec2d6c <STACK_SIZE+0xec065c>
  80:	13490b39 	movtne	r0, #39737	; 0x9b39
  84:	00001802 	andeq	r1, r0, r2, lsl #16
  88:	03003408 	movweq	r3, #1032	; 0x408
  8c:	3b0b3a08 	blcc	2ce8b4 <STACK_SIZE+0x2cc1a4>
  90:	490b390b 	stmdbmi	fp, {r0, r1, r3, r8, fp, ip, sp}
  94:	00180213 	andseq	r0, r8, r3, lsl r2
  98:	000f0900 	andeq	r0, pc, r0, lsl #18
  9c:	13490b0b 	movtne	r0, #39691	; 0x9b0b
  a0:	2e0a0000 	cdpcs	0, 0, cr0, cr10, cr0, {0}
  a4:	03193f00 	tsteq	r9, #0, 30
  a8:	3b0b3a0e 	blcc	2ce8e8 <STACK_SIZE+0x2cc1d8>
  ac:	490b390b 	stmdbmi	fp, {r0, r1, r3, r8, fp, ip, sp}
  b0:	12011113 	andne	r1, r1, #-1073741820	; 0xc0000004
  b4:	96184006 	ldrls	r4, [r8], -r6
  b8:	00001942 	andeq	r1, r0, r2, asr #18
  bc:	01110100 	tsteq	r1, r0, lsl #2
  c0:	0b130e25 	bleq	4c395c <STACK_SIZE+0x4c124c>
  c4:	0e1b0e03 	cdpeq	14, 1, cr0, cr11, cr3, {0}
  c8:	06120111 			; <UNDEFINED> instruction: 0x06120111
  cc:	00001710 	andeq	r1, r0, r0, lsl r7
  d0:	0b002402 	bleq	90e0 <STACK_SIZE+0x69d0>
  d4:	030b3e0b 	movweq	r3, #48651	; 0xbe0b
  d8:	0300000e 	movweq	r0, #14
  dc:	0e030016 	mcreq	0, 0, r0, cr3, cr6, {0}
  e0:	0b3b0b3a 	bleq	ec2dd0 <STACK_SIZE+0xec06c0>
  e4:	13490b39 	movtne	r0, #39737	; 0x9b39
  e8:	24040000 	strcs	r0, [r4], #-0
  ec:	3e0b0b00 	vmlacc.f64	d0, d11, d0
  f0:	0008030b 	andeq	r0, r8, fp, lsl #6
  f4:	01040500 	tsteq	r4, r0, lsl #10
  f8:	0b0b0b3e 	bleq	2c2df8 <STACK_SIZE+0x2c06e8>
  fc:	0b3a1349 	bleq	e84e28 <STACK_SIZE+0xe82718>
 100:	0b390b3b 	bleq	e42df4 <STACK_SIZE+0xe406e4>
 104:	00001301 	andeq	r1, r0, r1, lsl #6
 108:	03002806 	movweq	r2, #2054	; 0x806
 10c:	00061c0e 	andeq	r1, r6, lr, lsl #24
 110:	00280700 	eoreq	r0, r8, r0, lsl #14
 114:	0b1c0e03 	bleq	703928 <STACK_SIZE+0x701218>
 118:	28080000 	stmdacs	r8, {}	; <UNPREDICTABLE>
 11c:	1c080300 	stcne	3, cr0, [r8], {-0}
 120:	0900000b 	stmdbeq	r0, {r0, r1, r3}
 124:	193f012e 	ldmdbne	pc!, {r1, r2, r3, r5, r8}	; <UNPREDICTABLE>
 128:	0b3a0e03 	bleq	e8393c <STACK_SIZE+0xe8122c>
 12c:	0b390b3b 	bleq	e42e20 <STACK_SIZE+0xe40710>
 130:	01111927 	tsteq	r1, r7, lsr #18
 134:	18400612 	stmdane	r0, {r1, r4, r9, sl}^
 138:	01194296 			; <UNDEFINED> instruction: 0x01194296
 13c:	0a000013 	beq	190 <STACK_SIZE-0x2580>
 140:	08030005 	stmdaeq	r3, {r0, r2}
 144:	0b3b0b3a 	bleq	ec2e34 <STACK_SIZE+0xec0724>
 148:	13490b39 	movtne	r0, #39737	; 0x9b39
 14c:	00001802 	andeq	r1, r0, r2, lsl #16
 150:	0300340b 	movweq	r3, #1035	; 0x40b
 154:	3b0b3a0e 	blcc	2ce994 <STACK_SIZE+0x2cc284>
 158:	490b390b 	stmdbmi	fp, {r0, r1, r3, r8, fp, ip, sp}
 15c:	00180213 	andseq	r0, r8, r3, lsl r2
 160:	002e0c00 	eoreq	r0, lr, r0, lsl #24
 164:	0e03193f 			; <UNDEFINED> instruction: 0x0e03193f
 168:	0b3b0b3a 	bleq	ec2e58 <STACK_SIZE+0xec0748>
 16c:	01110b39 	tsteq	r1, r9, lsr fp
 170:	18400612 	stmdane	r0, {r1, r4, r9, sl}^
 174:	00194296 	mulseq	r9, r6, r2
 178:	002e0d00 	eoreq	r0, lr, r0, lsl #26
 17c:	0e03193f 			; <UNDEFINED> instruction: 0x0e03193f
 180:	0b3b0b3a 	bleq	ec2e70 <STACK_SIZE+0xec0760>
 184:	13490b39 	movtne	r0, #39737	; 0x9b39
 188:	06120111 			; <UNDEFINED> instruction: 0x06120111
 18c:	42961840 	addsmi	r1, r6, #64, 16	; 0x400000
 190:	00000019 	andeq	r0, r0, r9, lsl r0

Disassembly of section .debug_aranges:

00000000 <.debug_aranges>:
   0:	00000024 	andeq	r0, r0, r4, lsr #32
   4:	00000002 	andeq	r0, r0, r2
   8:	00040000 	andeq	r0, r4, r0
   c:	00000000 	andeq	r0, r0, r0
  10:	20000000 	andcs	r0, r0, r0
  14:	00000074 	andeq	r0, r0, r4, ror r0
  18:	20000100 	andcs	r0, r0, r0, lsl #2
  1c:	0000001c 	andeq	r0, r0, ip, lsl r0
	...
  28:	0000001c 	andeq	r0, r0, ip, lsl r0
  2c:	00220002 	eoreq	r0, r2, r2
  30:	00040000 	andeq	r0, r4, r0
  34:	00000000 	andeq	r0, r0, r0
  38:	2000011c 	andcs	r0, r0, ip, lsl r1
  3c:	00000068 	andeq	r0, r0, r8, rrx
	...
  48:	0000001c 	andeq	r0, r0, ip, lsl r0
  4c:	01030002 	tsteq	r3, r2
  50:	00040000 	andeq	r0, r4, r0
  54:	00000000 	andeq	r0, r0, r0
  58:	20000184 	andcs	r0, r0, r4, lsl #3
  5c:	00000120 	andeq	r0, r0, r0, lsr #2
	...

Disassembly of section .debug_str:

00000000 <.debug_str>:
   0:	72617473 	rsbvc	r7, r1, #1929379840	; 0x73000000
   4:	00532e74 	subseq	r2, r3, r4, ror lr
   8:	6573552f 	ldrbvs	r5, [r3, #-1327]!	; 0xfffffad1
   c:	652f7372 	strvs	r7, [pc, #-882]!	; fffffca2 <__data_end__+0xdfffd592>
  10:	736e6176 	cmnvc	lr, #-2147483619	; 0x8000001d
  14:	63617261 	cmnvs	r1, #268435462	; 0x10000006
  18:	442f7961 	strtmi	r7, [pc], #-2401	; 20 <STACK_SIZE-0x26f0>
  1c:	746b7365 	strbtvc	r7, [fp], #-869	; 0xfffffc9b
  20:	502f706f 	eorpl	r7, pc, pc, rrx
  24:	2f6f6369 	svccs	0x006f6369
  28:	6f636970 	svcvs	0x00636970
  2c:	6f72702d 	svcvs	0x0072702d
  30:	72702f6a 	rsbsvc	r2, r0, #424	; 0x1a8
  34:	6172676f 	cmnvs	r2, pc, ror #14
  38:	622f736d 	eorvs	r7, pc, #-1275068415	; 0xb4000001
  3c:	6b6e696c 	blvs	1b9a5f4 <STACK_SIZE+0x1b97ee4>
  40:	47007265 	strmi	r7, [r0, -r5, ror #4]
  44:	4120554e 			; <UNDEFINED> instruction: 0x4120554e
  48:	2e322053 	mrccs	0, 1, r2, cr2, cr3, {2}
  4c:	312e3333 			; <UNDEFINED> instruction: 0x312e3333
  50:	625f5f00 	subsvs	r5, pc, #0, 30
  54:	735f7373 	cmpvc	pc, #-872415231	; 0xcc000001
  58:	74726174 	ldrbtvc	r6, [r2], #-372	; 0xfffffe8c
  5c:	62005f5f 	andvs	r5, r0, #380	; 0x17c
  60:	655f7373 	ldrbvs	r7, [pc, #-883]	; fffffcf5 <__data_end__+0xdfffd5e5>
  64:	4700646e 	strmi	r6, [r0, -lr, ror #8]
  68:	4320554e 			; <UNDEFINED> instruction: 0x4320554e
  6c:	39203731 	stmdbcc	r0!, {r0, r4, r5, r8, r9, sl, ip, sp}
  70:	312e322e 			; <UNDEFINED> instruction: 0x312e322e
  74:	31303220 	teqcc	r0, r0, lsr #4
  78:	32303139 	eorscc	r3, r0, #1073741838	; 0x4000000e
  7c:	72282035 	eorvc	r2, r8, #53, 0	; 0x35
  80:	61656c65 	cmnvs	r5, r5, ror #24
  84:	20296573 	eorcs	r6, r9, r3, ror r5
  88:	4d52415b 	ldfmie	f4, [r2, #-364]	; 0xfffffe94
  8c:	6d72612f 	ldfvse	f6, [r2, #-188]!	; 0xffffff44
  90:	622d392d 	eorvs	r3, sp, #737280	; 0xb4000
  94:	636e6172 	cmnvs	lr, #-2147483620	; 0x8000001c
  98:	65722068 	ldrbvs	r2, [r2, #-104]!	; 0xffffff98
  9c:	69736976 	ldmdbvs	r3!, {r1, r2, r4, r5, r6, r8, fp, sp, lr}^
  a0:	32206e6f 	eorcc	r6, r0, #1776	; 0x6f0
  a4:	39353737 	ldmdbcc	r5!, {r0, r1, r2, r4, r5, r8, r9, sl, ip, sp}
  a8:	2d205d39 	stccs	13, cr5, [r0, #-228]!	; 0xffffff1c
  ac:	7568746d 	strbvc	r7, [r8, #-1133]!	; 0xfffffb93
  b0:	2d20626d 	sfmcs	f6, 4, [r0, #-436]!	; 0xfffffe4c
  b4:	7570636d 	ldrbvc	r6, [r0, #-877]!	; 0xfffffc93
  b8:	726f633d 	rsbvc	r6, pc, #-201326592	; 0xf4000000
  bc:	2d786574 	cfldr64cs	mvdx6, [r8, #-464]!	; 0xfffffe30
  c0:	2d20306d 	stccs	0, cr3, [r0, #-436]!	; 0xfffffe4c
  c4:	6f6c666d 	svcvs	0x006c666d
  c8:	612d7461 			; <UNDEFINED> instruction: 0x612d7461
  cc:	733d6962 	teqvc	sp, #1605632	; 0x188000
  d0:	2074666f 	rsbscs	r6, r4, pc, ror #12
  d4:	72616d2d 	rsbvc	r6, r1, #2880	; 0xb40
  d8:	613d6863 	teqvs	sp, r3, ror #16
  dc:	36766d72 			; <UNDEFINED> instruction: 0x36766d72
  e0:	206d2d73 	rsbcs	r2, sp, r3, ror sp
  e4:	2d20672d 	stccs	7, cr6, [r0, #-180]!	; 0xffffff4c
  e8:	65726666 	ldrbvs	r6, [r2, #-1638]!	; 0xfffff99a
  ec:	61747365 	cmnvs	r4, r5, ror #6
  f0:	6e69646e 	cdpvs	4, 6, cr6, cr9, cr14, {3}
  f4:	6e750067 	cdpvs	0, 7, cr0, cr5, cr7, {3}
  f8:	6e676973 			; <UNDEFINED> instruction: 0x6e676973
  fc:	63206465 			; <UNDEFINED> instruction: 0x63206465
 100:	00726168 	rsbseq	r6, r2, r8, ror #2
 104:	726f6873 	rsbvc	r6, pc, #7536640	; 0x730000
 108:	6e752074 	mrcvs	0, 3, r2, cr5, cr4, {3}
 10c:	6e676973 			; <UNDEFINED> instruction: 0x6e676973
 110:	69206465 	stmdbvs	r0!, {r0, r2, r5, r6, sl, sp, lr}
 114:	6c00746e 	cfstrsvs	mvf7, [r0], {110}	; 0x6e
 118:	20676e6f 	rsbcs	r6, r7, pc, ror #28
 11c:	676e6f6c 	strbvs	r6, [lr, -ip, ror #30]!
 120:	736e7520 	cmnvc	lr, #32, 10	; 0x8000000
 124:	656e6769 	strbvs	r6, [lr, #-1897]!	; 0xfffff897
 128:	6e692064 	cdpvs	0, 6, cr2, cr9, cr4, {3}
 12c:	796d0074 	stmdbvc	sp!, {r2, r4, r5, r6}^
 130:	6e69616d 	powvsez	f6, f1, #5.0
 134:	74736300 	ldrbtvc	r6, [r3], #-768	; 0xfffffd00
 138:	2e747261 	cdpcs	2, 7, cr7, cr4, cr1, {3}
 13c:	6f6c0063 	svcvs	0x006c0063
 140:	6c20676e 	stcvs	7, cr6, [r0], #-440	; 0xfffffe48
 144:	20676e6f 	rsbcs	r6, r7, pc, ror #28
 148:	00746e69 	rsbseq	r6, r4, r9, ror #28
 14c:	73625f5f 	cmnvc	r2, #380	; 0x17c
 150:	6e655f73 	mcrvs	15, 3, r5, cr5, cr3, {3}
 154:	005f5f64 	subseq	r5, pc, r4, ror #30
 158:	726f6873 	rsbvc	r6, pc, #7536640	; 0x730000
 15c:	6e692074 	mcrvs	0, 3, r2, cr9, cr4, {3}
 160:	69750074 	ldmdbvs	r5!, {r2, r4, r5, r6}^
 164:	3233746e 	eorscc	r7, r3, #1845493760	; 0x6e000000
 168:	6300745f 	movwvs	r7, #1119	; 0x45f
 16c:	72617473 	rsbvc	r7, r1, #1929379840	; 0x73000000
 170:	50470074 	subpl	r0, r7, r4, ror r0
 174:	4f5f4f49 	svcmi	0x005f4f49
 178:	4c435f45 	mcrrmi	15, 4, r5, r3, cr5
 17c:	50470052 	subpl	r0, r7, r2, asr r0
 180:	4f5f4f49 	svcmi	0x005f4f49
 184:	435f5455 	cmpmi	pc, #1426063360	; 0x55000000
 188:	4900524c 	stmdbmi	r0, {r2, r3, r6, r9, ip, lr}
 18c:	41425f4f 	cmpmi	r2, pc, asr #30
 190:	425f4b4e 	subsmi	r4, pc, #79872	; 0x13800
 194:	5f455341 	svcpl	0x00455341
 198:	54415453 	strbpl	r5, [r1], #-1107	; 0xfffffbad
 19c:	50005355 	andpl	r5, r0, r5, asr r3
 1a0:	00304f49 	eorseq	r4, r0, r9, asr #30
 1a4:	45534552 	ldrbmi	r4, [r3, #-1362]	; 0xfffffaae
 1a8:	53555f54 	cmppl	r5, #84, 30	; 0x150
 1ac:	52544342 	subspl	r4, r4, #134217729	; 0x8000001
 1b0:	7067004c 	rsbvc	r0, r7, ip, asr #32
 1b4:	735f6f69 	cmpvc	pc, #420	; 0x1a4
 1b8:	6f5f7465 	svcvs	0x005f7465
 1bc:	52006666 	andpl	r6, r0, #106954752	; 0x6600000
 1c0:	54455345 	strbpl	r5, [r5], #-837	; 0xfffffcbb
 1c4:	5f4f495f 	svcpl	0x004f495f
 1c8:	4b4e4142 	blmi	13906d8 <STACK_SIZE+0x138dfc8>
 1cc:	70670030 	rsbvc	r0, r7, r0, lsr r0
 1d0:	735f6f69 	cmpvc	pc, #420	; 0x1a4
 1d4:	6f5f7465 	svcvs	0x005f7465
 1d8:	75707475 	ldrbvc	r7, [r0, #-1141]!	; 0xfffffb8b
 1dc:	41570074 	cmpmi	r7, r4, ror r0
 1e0:	5f484354 	svcpl	0x00484354
 1e4:	00474f44 	subeq	r4, r7, r4, asr #30
 1e8:	4f495047 	svcmi	0x00495047
 1ec:	004e495f 	subeq	r4, lr, pc, asr r9
 1f0:	45534552 	ldrbmi	r4, [r3, #-1362]	; 0xfffffaae
 1f4:	4f445f54 	svcmi	0x00445f54
 1f8:	4700454e 	strmi	r4, [r0, -lr, asr #10]
 1fc:	5f4f4950 	svcpl	0x004f4950
 200:	5200454f 	andpl	r4, r0, #331350016	; 0x13c00000
 204:	54455345 	strbpl	r5, [r5], #-837	; 0xfffffcbb
 208:	5241555f 	subpl	r5, r1, #398458880	; 0x17c00000
 20c:	52003054 	andpl	r3, r0, #84, 0	; 0x54
 210:	54455345 	strbpl	r5, [r5], #-837	; 0xfffffcbb
 214:	5241555f 	subpl	r5, r1, #398458880	; 0x17c00000
 218:	67003154 	smlsdvs	r0, r4, r1, r3
 21c:	5f6f6970 	svcpl	0x006f6970
 220:	725f7369 	subsvc	r7, pc, #-1543503871	; 0xa4000001
 224:	74657365 	strbtvc	r7, [r5], #-869	; 0xfffffc9b
 228:	53455200 	movtpl	r5, #20992	; 0x5200
 22c:	5f535445 	svcpl	0x00535445
 230:	45534552 	ldrbmi	r4, [r3, #-1362]	; 0xfffffaae
 234:	4c435f54 	mcrrmi	15, 5, r5, r3, cr4
 238:	70670052 	rsbvc	r0, r7, r2, asr r0
 23c:	725f6f69 	subsvc	r6, pc, #420	; 0x1a4
 240:	74657365 	strbtvc	r7, [r5], #-869	; 0xfffffc9b
 244:	66666f00 	strbtvs	r6, [r6], -r0, lsl #30
 248:	00746573 	rsbseq	r6, r4, r3, ror r5
 24c:	314f4950 	cmpcc	pc, r0, asr r9	; <UNPREDICTABLE>
 250:	69706700 	ldmdbvs	r0!, {r8, r9, sl, sp, lr}^
 254:	00632e6f 	rsbeq	r2, r3, pc, ror #28
 258:	4f495047 	svcmi	0x00495047
 25c:	5f454f5f 	svcpl	0x00454f5f
 260:	00544553 	subseq	r4, r4, r3, asr r5
 264:	425f4f49 	subsmi	r4, pc, #292	; 0x124
 268:	5f4b4e41 	svcpl	0x004b4e41
 26c:	45534142 	ldrbmi	r4, [r3, #-322]	; 0xfffffebe
 270:	5254435f 	subspl	r4, r4, #2080374785	; 0x7c000001
 274:	5047004c 	subpl	r0, r7, ip, asr #32
 278:	4f5f4f49 	svcmi	0x005f4f49
 27c:	535f5455 	cmppl	pc, #1426063360	; 0x55000000
 280:	52005445 	andpl	r5, r0, #1157627904	; 0x45000000
 284:	54455345 	strbpl	r5, [r5], #-837	; 0xfffffcbb
 288:	49504700 	ldmdbmi	r0, {r8, r9, sl, lr}^
 28c:	554f5f4f 	strbpl	r5, [pc, #-3919]	; fffff345 <__data_end__+0xdfffcc35>
 290:	70670054 	rsbvc	r0, r7, r4, asr r0
 294:	735f6f69 	cmpvc	pc, #420	; 0x1a4
 298:	6f5f7465 	svcvs	0x005f7465
 29c:	Address 0x000000000000029c is out of bounds.


Disassembly of section .debug_ranges:

00000000 <.debug_ranges>:
   0:	ffffffff 			; <UNDEFINED> instruction: 0xffffffff
   4:	00000000 	andeq	r0, r0, r0
   8:	20000000 	andcs	r0, r0, r0
   c:	20000074 	andcs	r0, r0, r4, ror r0
  10:	20000100 	andcs	r0, r0, r0, lsl #2
  14:	2000011c 	andcs	r0, r0, ip, lsl r1
	...

Disassembly of section .debug_frame:

00000000 <.debug_frame>:
   0:	0000000c 	andeq	r0, r0, ip
   4:	ffffffff 			; <UNDEFINED> instruction: 0xffffffff
   8:	7c020001 	stcvc	0, cr0, [r2], {1}
   c:	000d0c0e 	andeq	r0, sp, lr, lsl #24
  10:	00000018 	andeq	r0, r0, r8, lsl r0
  14:	00000000 	andeq	r0, r0, r0
  18:	2000011c 	andcs	r0, r0, ip, lsl r1
  1c:	00000030 	andeq	r0, r0, r0, lsr r0
  20:	87080e41 	strhi	r0, [r8, -r1, asr #28]
  24:	41018e02 	tstmi	r1, r2, lsl #28
  28:	0000070d 	andeq	r0, r0, sp, lsl #14
  2c:	0000001c 	andeq	r0, r0, ip, lsl r0
  30:	00000000 	andeq	r0, r0, r0
  34:	2000014c 	andcs	r0, r0, ip, asr #2
  38:	00000038 	andeq	r0, r0, r8, lsr r0
  3c:	87080e41 	strhi	r0, [r8, -r1, asr #28]
  40:	41018e02 	tstmi	r1, r2, lsl #28
  44:	0d41100e 	stcleq	0, cr1, [r1, #-56]	; 0xffffffc8
  48:	00000007 	andeq	r0, r0, r7
  4c:	0000000c 	andeq	r0, r0, ip
  50:	ffffffff 			; <UNDEFINED> instruction: 0xffffffff
  54:	7c020001 	stcvc	0, cr0, [r2], {1}
  58:	000d0c0e 	andeq	r0, sp, lr, lsl #24
  5c:	00000018 	andeq	r0, r0, r8, lsl r0
  60:	0000004c 	andeq	r0, r0, ip, asr #32
  64:	20000184 	andcs	r0, r0, r4, lsl #3
  68:	00000020 	andeq	r0, r0, r0, lsr #32
  6c:	87080e41 	strhi	r0, [r8, -r1, asr #28]
  70:	41018e02 	tstmi	r1, r2, lsl #28
  74:	0000070d 	andeq	r0, r0, sp, lsl #14
  78:	00000018 	andeq	r0, r0, r8, lsl r0
  7c:	0000004c 	andeq	r0, r0, ip, asr #32
  80:	200001a4 	andcs	r0, r0, r4, lsr #3
  84:	00000024 	andeq	r0, r0, r4, lsr #32
  88:	87080e41 	strhi	r0, [r8, -r1, asr #28]
  8c:	41018e02 	tstmi	r1, r2, lsl #28
  90:	0000070d 	andeq	r0, r0, sp, lsl #14
  94:	0000001c 	andeq	r0, r0, ip, lsl r0
  98:	0000004c 	andeq	r0, r0, ip, asr #32
  9c:	200001c8 	andcs	r0, r0, r8, asr #3
  a0:	0000007c 	andeq	r0, r0, ip, ror r0
  a4:	87080e41 	strhi	r0, [r8, -r1, asr #28]
  a8:	41018e02 	tstmi	r1, r2, lsl #28
  ac:	0d41180e 	stcleq	8, cr1, [r1, #-56]	; 0xffffffc8
  b0:	00000007 	andeq	r0, r0, r7
  b4:	0000001c 	andeq	r0, r0, ip, lsl r0
  b8:	0000004c 	andeq	r0, r0, ip, asr #32
  bc:	20000244 	andcs	r0, r0, r4, asr #4
  c0:	00000030 	andeq	r0, r0, r0, lsr r0
  c4:	87080e41 	strhi	r0, [r8, -r1, asr #28]
  c8:	41018e02 	tstmi	r1, r2, lsl #28
  cc:	0d41100e 	stcleq	0, cr1, [r1, #-56]	; 0xffffffc8
  d0:	00000007 	andeq	r0, r0, r7
  d4:	0000001c 	andeq	r0, r0, ip, lsl r0
  d8:	0000004c 	andeq	r0, r0, ip, asr #32
  dc:	20000274 	andcs	r0, r0, r4, ror r2
  e0:	00000030 	andeq	r0, r0, r0, lsr r0
  e4:	87080e41 	strhi	r0, [r8, -r1, asr #28]
  e8:	41018e02 	tstmi	r1, r2, lsl #28
  ec:	0d41100e 	stcleq	0, cr1, [r1, #-56]	; 0xffffffc8
  f0:	00000007 	andeq	r0, r0, r7
