
./build/mymain.elf:     file format elf32-littlearm


Disassembly of section .text:

20000000 <__boot_start__>:
20000000:	480e      	ldr	r0, [pc, #56]	; (2000003c <_boot_start_loop+0x12>)
20000002:	490f      	ldr	r1, [pc, #60]	; (20000040 <_boot_start_loop+0x16>)
20000004:	6001      	str	r1, [r0, #0]
20000006:	480f      	ldr	r0, [pc, #60]	; (20000044 <_boot_start_loop+0x1a>)
20000008:	490f      	ldr	r1, [pc, #60]	; (20000048 <_boot_start_loop+0x1e>)
2000000a:	6001      	str	r1, [r0, #0]
2000000c:	480f      	ldr	r0, [pc, #60]	; (2000004c <_boot_start_loop+0x22>)
2000000e:	4910      	ldr	r1, [pc, #64]	; (20000050 <_boot_start_loop+0x26>)
20000010:	6001      	str	r1, [r0, #0]
20000012:	4810      	ldr	r0, [pc, #64]	; (20000054 <_boot_start_loop+0x2a>)
20000014:	4910      	ldr	r1, [pc, #64]	; (20000058 <_boot_start_loop+0x2e>)
20000016:	6001      	str	r1, [r0, #0]
20000018:	4810      	ldr	r0, [pc, #64]	; (2000005c <_boot_start_loop+0x32>)
2000001a:	4809      	ldr	r0, [pc, #36]	; (20000040 <_boot_start_loop+0x16>)
2000001c:	6001      	str	r1, [r0, #0]
2000001e:	4807      	ldr	r0, [pc, #28]	; (2000003c <_boot_start_loop+0x12>)
20000020:	490f      	ldr	r1, [pc, #60]	; (20000060 <_boot_start_loop+0x36>)
20000022:	6001      	str	r1, [r0, #0]
20000024:	480f      	ldr	r0, [pc, #60]	; (20000064 <_boot_start_loop+0x3a>)
20000026:	4910      	ldr	r1, [pc, #64]	; (20000068 <_boot_start_loop+0x3e>)
20000028:	4a10      	ldr	r2, [pc, #64]	; (2000006c <_boot_start_loop+0x42>)

2000002a <_boot_start_loop>:
2000002a:	6803      	ldr	r3, [r0, #0]
2000002c:	600b      	str	r3, [r1, #0]
2000002e:	3004      	adds	r0, #4
20000030:	3104      	adds	r1, #4
20000032:	4291      	cmp	r1, r2
20000034:	d1f9      	bne.n	2000002a <_boot_start_loop>
20000036:	480e      	ldr	r0, [pc, #56]	; (20000070 <_boot_start_loop+0x46>)
20000038:	4700      	bx	r0
2000003a:	00080000 	andeq	r0, r8, r0
2000003e:	00001800 	andeq	r1, r0, r0, lsl #16
20000042:	00140000 	andseq	r0, r4, r0
20000046:	00081800 	andeq	r1, r8, r0, lsl #16
2000004a:	00000000 	andeq	r0, r0, r0
2000004e:	03001800 	movweq	r1, #2048	; 0x800
20000052:	00f4001f 	rscseq	r0, r4, pc, lsl r0
20000056:	02181800 	andseq	r1, r8, #0, 16
2000005a:	00040300 	andeq	r0, r4, r0, lsl #6
2000005e:	00011800 	andeq	r1, r1, r0, lsl #16
20000062:	00000000 	andeq	r0, r0, r0
20000066:	00001000 	andeq	r1, r0, r0
2000006a:	f0002000 			; <UNDEFINED> instruction: 0xf0002000
2000006e:	01012000 	mrseq	r2, (UNDEF: 1)
20000072:	00002000 	andeq	r2, r0, r0
	...

20000100 <_start>:
20000100:	4805      	ldr	r0, [pc, #20]	; (20000118 <DELAY+0x6>)
20000102:	4685      	mov	sp, r0
20000104:	f000 f8d6 	bl	200002b4 <cstart>
20000108:	e7fe      	b.n	20000108 <_start+0x8>

2000010a <PUT32>:
2000010a:	6001      	str	r1, [r0, #0]
2000010c:	4770      	bx	lr

2000010e <GET32>:
2000010e:	6800      	ldr	r0, [r0, #0]
20000110:	4770      	bx	lr

20000112 <DELAY>:
20000112:	3801      	subs	r0, #1
20000114:	d1fd      	bne.n	20000112 <DELAY>
20000116:	4770      	bx	lr
20000118:	20010000 	andcs	r0, r1, r0

2000011c <sendbit>:
2000011c:	b580      	push	{r7, lr}
2000011e:	b082      	sub	sp, #8
20000120:	af00      	add	r7, sp, #0
20000122:	6078      	str	r0, [r7, #4]
20000124:	687b      	ldr	r3, [r7, #4]
20000126:	4a04      	ldr	r2, [pc, #16]	; (20000138 <sendbit+0x1c>)
20000128:	0019      	movs	r1, r3
2000012a:	0010      	movs	r0, r2
2000012c:	f7ff ffed 	bl	2000010a <PUT32>
20000130:	46c0      	nop			; (mov r8, r8)
20000132:	46bd      	mov	sp, r7
20000134:	b002      	add	sp, #8
20000136:	bd80      	pop	{r7, pc}
20000138:	50200010 	eorpl	r0, r0, r0, lsl r0

2000013c <pix_flush>:
2000013c:	b580      	push	{r7, lr}
2000013e:	b082      	sub	sp, #8
20000140:	af00      	add	r7, sp, #0
20000142:	6078      	str	r0, [r7, #4]
20000144:	687b      	ldr	r3, [r7, #4]
20000146:	0018      	movs	r0, r3
20000148:	f000 f97a 	bl	20000440 <gpio_set_output>
2000014c:	23fa      	movs	r3, #250	; 0xfa
2000014e:	009b      	lsls	r3, r3, #2
20000150:	0018      	movs	r0, r3
20000152:	f7ff ffde 	bl	20000112 <DELAY>
20000156:	687b      	ldr	r3, [r7, #4]
20000158:	2106      	movs	r1, #6
2000015a:	0018      	movs	r0, r3
2000015c:	f000 f916 	bl	2000038c <gpio_set_function>
20000160:	46c0      	nop			; (mov r8, r8)
20000162:	46bd      	mov	sp, r7
20000164:	b002      	add	sp, #8
20000166:	bd80      	pop	{r7, pc}

20000168 <pix_sendbyte>:
20000168:	b580      	push	{r7, lr}
2000016a:	b084      	sub	sp, #16
2000016c:	af00      	add	r7, sp, #0
2000016e:	0002      	movs	r2, r0
20000170:	1dfb      	adds	r3, r7, #7
20000172:	701a      	strb	r2, [r3, #0]
20000174:	2307      	movs	r3, #7
20000176:	60fb      	str	r3, [r7, #12]
20000178:	e00d      	b.n	20000196 <pix_sendbyte+0x2e>
2000017a:	1dfb      	adds	r3, r7, #7
2000017c:	781a      	ldrb	r2, [r3, #0]
2000017e:	68fb      	ldr	r3, [r7, #12]
20000180:	411a      	asrs	r2, r3
20000182:	0013      	movs	r3, r2
20000184:	001a      	movs	r2, r3
20000186:	2301      	movs	r3, #1
20000188:	4013      	ands	r3, r2
2000018a:	0018      	movs	r0, r3
2000018c:	f7ff ffc6 	bl	2000011c <sendbit>
20000190:	68fb      	ldr	r3, [r7, #12]
20000192:	3b01      	subs	r3, #1
20000194:	60fb      	str	r3, [r7, #12]
20000196:	68fb      	ldr	r3, [r7, #12]
20000198:	2b00      	cmp	r3, #0
2000019a:	daee      	bge.n	2000017a <pix_sendbyte+0x12>
2000019c:	46c0      	nop			; (mov r8, r8)
2000019e:	46c0      	nop			; (mov r8, r8)
200001a0:	46bd      	mov	sp, r7
200001a2:	b004      	add	sp, #16
200001a4:	bd80      	pop	{r7, pc}

200001a6 <mymain>:
200001a6:	b580      	push	{r7, lr}
200001a8:	b086      	sub	sp, #24
200001aa:	af00      	add	r7, sp, #0
200001ac:	2001      	movs	r0, #1
200001ae:	f000 fa0d 	bl	200005cc <enable_clock>
200001b2:	f000 f9b3 	bl	2000051c <reset_pads>
200001b6:	f000 f9b9 	bl	2000052c <reset_pio>
200001ba:	4b36      	ldr	r3, [pc, #216]	; (20000294 <mymain+0xee>)
200001bc:	0018      	movs	r0, r3
200001be:	f001 f92e 	bl	2000141e <printf_>
200001c2:	2309      	movs	r3, #9
200001c4:	607b      	str	r3, [r7, #4]
200001c6:	2300      	movs	r3, #0
200001c8:	617b      	str	r3, [r7, #20]
200001ca:	e019      	b.n	20000200 <mymain+0x5a>
200001cc:	697b      	ldr	r3, [r7, #20]
200001ce:	4a32      	ldr	r2, [pc, #200]	; (20000298 <mymain+0xf2>)
200001d0:	4694      	mov	ip, r2
200001d2:	4463      	add	r3, ip
200001d4:	009b      	lsls	r3, r3, #2
200001d6:	0018      	movs	r0, r3
200001d8:	4b30      	ldr	r3, [pc, #192]	; (2000029c <mymain+0xf6>)
200001da:	697a      	ldr	r2, [r7, #20]
200001dc:	0052      	lsls	r2, r2, #1
200001de:	5ad3      	ldrh	r3, [r2, r3]
200001e0:	0019      	movs	r1, r3
200001e2:	f7ff ff92 	bl	2000010a <PUT32>
200001e6:	697b      	ldr	r3, [r7, #20]
200001e8:	4a2b      	ldr	r2, [pc, #172]	; (20000298 <mymain+0xf2>)
200001ea:	4694      	mov	ip, r2
200001ec:	4463      	add	r3, ip
200001ee:	009a      	lsls	r2, r3, #2
200001f0:	4b2b      	ldr	r3, [pc, #172]	; (200002a0 <mymain+0xfa>)
200001f2:	0011      	movs	r1, r2
200001f4:	0018      	movs	r0, r3
200001f6:	f001 f912 	bl	2000141e <printf_>
200001fa:	697b      	ldr	r3, [r7, #20]
200001fc:	3301      	adds	r3, #1
200001fe:	617b      	str	r3, [r7, #20]
20000200:	697a      	ldr	r2, [r7, #20]
20000202:	687b      	ldr	r3, [r7, #4]
20000204:	429a      	cmp	r2, r3
20000206:	dbe1      	blt.n	200001cc <mymain+0x26>
20000208:	2106      	movs	r1, #6
2000020a:	2019      	movs	r0, #25
2000020c:	f000 f8be 	bl	2000038c <gpio_set_function>
20000210:	2019      	movs	r0, #25
20000212:	f000 f993 	bl	2000053c <drive_pad>
20000216:	4a23      	ldr	r2, [pc, #140]	; (200002a4 <mymain+0xfe>)
20000218:	4b23      	ldr	r3, [pc, #140]	; (200002a8 <mymain+0x102>)
2000021a:	0011      	movs	r1, r2
2000021c:	0018      	movs	r0, r3
2000021e:	f7ff ff74 	bl	2000010a <PUT32>
20000222:	4b22      	ldr	r3, [pc, #136]	; (200002ac <mymain+0x106>)
20000224:	2101      	movs	r1, #1
20000226:	0018      	movs	r0, r3
20000228:	f7ff ff6f 	bl	2000010a <PUT32>
2000022c:	2300      	movs	r3, #0
2000022e:	613b      	str	r3, [r7, #16]
20000230:	e016      	b.n	20000260 <mymain+0xba>
20000232:	2300      	movs	r3, #0
20000234:	60fb      	str	r3, [r7, #12]
20000236:	e005      	b.n	20000244 <mymain+0x9e>
20000238:	20ff      	movs	r0, #255	; 0xff
2000023a:	f7ff ff6f 	bl	2000011c <sendbit>
2000023e:	68fb      	ldr	r3, [r7, #12]
20000240:	3301      	adds	r3, #1
20000242:	60fb      	str	r3, [r7, #12]
20000244:	68fa      	ldr	r2, [r7, #12]
20000246:	693b      	ldr	r3, [r7, #16]
20000248:	429a      	cmp	r2, r3
2000024a:	dbf5      	blt.n	20000238 <mymain+0x92>
2000024c:	2019      	movs	r0, #25
2000024e:	f7ff ff75 	bl	2000013c <pix_flush>
20000252:	4b17      	ldr	r3, [pc, #92]	; (200002b0 <mymain+0x10a>)
20000254:	0018      	movs	r0, r3
20000256:	f7ff ff5c 	bl	20000112 <DELAY>
2000025a:	693b      	ldr	r3, [r7, #16]
2000025c:	3301      	adds	r3, #1
2000025e:	613b      	str	r3, [r7, #16]
20000260:	693a      	ldr	r2, [r7, #16]
20000262:	23c0      	movs	r3, #192	; 0xc0
20000264:	005b      	lsls	r3, r3, #1
20000266:	429a      	cmp	r2, r3
20000268:	dbe3      	blt.n	20000232 <mymain+0x8c>
2000026a:	2300      	movs	r3, #0
2000026c:	60bb      	str	r3, [r7, #8]
2000026e:	e005      	b.n	2000027c <mymain+0xd6>
20000270:	2000      	movs	r0, #0
20000272:	f7ff ff53 	bl	2000011c <sendbit>
20000276:	68bb      	ldr	r3, [r7, #8]
20000278:	3301      	adds	r3, #1
2000027a:	60bb      	str	r3, [r7, #8]
2000027c:	68ba      	ldr	r2, [r7, #8]
2000027e:	23c0      	movs	r3, #192	; 0xc0
20000280:	005b      	lsls	r3, r3, #1
20000282:	429a      	cmp	r2, r3
20000284:	dbf4      	blt.n	20000270 <mymain+0xca>
20000286:	2019      	movs	r0, #25
20000288:	f7ff ff58 	bl	2000013c <pix_flush>
2000028c:	2019      	movs	r0, #25
2000028e:	f7ff ff55 	bl	2000013c <pix_flush>
20000292:	e7cb      	b.n	2000022c <mymain+0x86>
20000294:	100017ec 	andne	r1, r0, ip, ror #15
20000298:	14080012 	strne	r0, [r8], #-18	; 0xffffffee
2000029c:	100017d8 	ldrdne	r1, [r0], -r8
200002a0:	100017fc 	strdne	r1, [r0], -ip
200002a4:	04100339 	ldreq	r0, [r0], #-825	; 0xfffffcc7
200002a8:	502000dc 	ldrdpl	r0, [r0], -ip	; <UNPREDICTABLE>
200002ac:	50200000 	eorpl	r0, r0, r0
200002b0:	00061a80 	andeq	r1, r6, r0, lsl #21

200002b4 <cstart>:
200002b4:	b580      	push	{r7, lr}
200002b6:	b082      	sub	sp, #8
200002b8:	af00      	add	r7, sp, #0
200002ba:	4b19      	ldr	r3, [pc, #100]	; (20000320 <cstart+0x6c>)
200002bc:	603b      	str	r3, [r7, #0]
200002be:	4b19      	ldr	r3, [pc, #100]	; (20000324 <cstart+0x70>)
200002c0:	607b      	str	r3, [r7, #4]
200002c2:	e004      	b.n	200002ce <cstart+0x1a>
200002c4:	687b      	ldr	r3, [r7, #4]
200002c6:	1d1a      	adds	r2, r3, #4
200002c8:	607a      	str	r2, [r7, #4]
200002ca:	2200      	movs	r2, #0
200002cc:	601a      	str	r2, [r3, #0]
200002ce:	687a      	ldr	r2, [r7, #4]
200002d0:	683b      	ldr	r3, [r7, #0]
200002d2:	429a      	cmp	r2, r3
200002d4:	d3f6      	bcc.n	200002c4 <cstart+0x10>
200002d6:	2000      	movs	r0, #0
200002d8:	f000 f978 	bl	200005cc <enable_clock>
200002dc:	2388      	movs	r3, #136	; 0x88
200002de:	011b      	lsls	r3, r3, #4
200002e0:	4a11      	ldr	r2, [pc, #68]	; (20000328 <cstart+0x74>)
200002e2:	0019      	movs	r1, r3
200002e4:	0010      	movs	r0, r2
200002e6:	f7ff ff10 	bl	2000010a <PUT32>
200002ea:	f000 f847 	bl	2000037c <gpio_reset>
200002ee:	f000 fa87 	bl	20000800 <init_uart_printing>
200002f2:	4b0e      	ldr	r3, [pc, #56]	; (2000032c <cstart+0x78>)
200002f4:	220c      	movs	r2, #12
200002f6:	601a      	str	r2, [r3, #0]
200002f8:	4b0c      	ldr	r3, [pc, #48]	; (2000032c <cstart+0x78>)
200002fa:	220d      	movs	r2, #13
200002fc:	605a      	str	r2, [r3, #4]
200002fe:	4b0b      	ldr	r3, [pc, #44]	; (2000032c <cstart+0x78>)
20000300:	22e1      	movs	r2, #225	; 0xe1
20000302:	0252      	lsls	r2, r2, #9
20000304:	609a      	str	r2, [r3, #8]
20000306:	4b09      	ldr	r3, [pc, #36]	; (2000032c <cstart+0x78>)
20000308:	4a09      	ldr	r2, [pc, #36]	; (20000330 <cstart+0x7c>)
2000030a:	60da      	str	r2, [r3, #12]
2000030c:	4b07      	ldr	r3, [pc, #28]	; (2000032c <cstart+0x78>)
2000030e:	0018      	movs	r0, r3
20000310:	f001 f97f 	bl	20001612 <uart_init>
20000314:	f7ff ff47 	bl	200001a6 <mymain>
20000318:	46c0      	nop			; (mov r8, r8)
2000031a:	46bd      	mov	sp, r7
2000031c:	b002      	add	sp, #8
2000031e:	bd80      	pop	{r7, pc}
20000320:	2000f020 	andcs	pc, r0, r0, lsr #32
20000324:	2000f000 	andcs	pc, r0, r0
20000328:	40008048 	andmi	r8, r0, r8, asr #32
2000032c:	2000f000 	andcs	pc, r0, r0
20000330:	40034000 	andmi	r4, r3, r0

20000334 <reset_periph>:
20000334:	b580      	push	{r7, lr}
20000336:	b082      	sub	sp, #8
20000338:	af00      	add	r7, sp, #0
2000033a:	6078      	str	r0, [r7, #4]
2000033c:	2201      	movs	r2, #1
2000033e:	687b      	ldr	r3, [r7, #4]
20000340:	409a      	lsls	r2, r3
20000342:	0013      	movs	r3, r2
20000344:	001a      	movs	r2, r3
20000346:	4b0b      	ldr	r3, [pc, #44]	; (20000374 <reset_periph+0x40>)
20000348:	0011      	movs	r1, r2
2000034a:	0018      	movs	r0, r3
2000034c:	f7ff fedd 	bl	2000010a <PUT32>
20000350:	46c0      	nop			; (mov r8, r8)
20000352:	4b09      	ldr	r3, [pc, #36]	; (20000378 <reset_periph+0x44>)
20000354:	0018      	movs	r0, r3
20000356:	f7ff feda 	bl	2000010e <GET32>
2000035a:	0002      	movs	r2, r0
2000035c:	687b      	ldr	r3, [r7, #4]
2000035e:	40da      	lsrs	r2, r3
20000360:	0013      	movs	r3, r2
20000362:	2201      	movs	r2, #1
20000364:	4013      	ands	r3, r2
20000366:	d0f4      	beq.n	20000352 <reset_periph+0x1e>
20000368:	46c0      	nop			; (mov r8, r8)
2000036a:	46c0      	nop			; (mov r8, r8)
2000036c:	46bd      	mov	sp, r7
2000036e:	b002      	add	sp, #8
20000370:	bd80      	pop	{r7, pc}
20000372:	46c0      	nop			; (mov r8, r8)
20000374:	4000f000 	andmi	pc, r0, r0
20000378:	4000c008 	andmi	ip, r0, r8

2000037c <gpio_reset>:
2000037c:	b580      	push	{r7, lr}
2000037e:	af00      	add	r7, sp, #0
20000380:	2005      	movs	r0, #5
20000382:	f7ff ffd7 	bl	20000334 <reset_periph>
20000386:	46c0      	nop			; (mov r8, r8)
20000388:	46bd      	mov	sp, r7
2000038a:	bd80      	pop	{r7, pc}

2000038c <gpio_set_function>:
2000038c:	b580      	push	{r7, lr}
2000038e:	b084      	sub	sp, #16
20000390:	af00      	add	r7, sp, #0
20000392:	6078      	str	r0, [r7, #4]
20000394:	6039      	str	r1, [r7, #0]
20000396:	687b      	ldr	r3, [r7, #4]
20000398:	2b1d      	cmp	r3, #29
2000039a:	d80f      	bhi.n	200003bc <gpio_set_function+0x30>
2000039c:	683b      	ldr	r3, [r7, #0]
2000039e:	2b07      	cmp	r3, #7
200003a0:	d80e      	bhi.n	200003c0 <gpio_set_function+0x34>
200003a2:	687b      	ldr	r3, [r7, #4]
200003a4:	00db      	lsls	r3, r3, #3
200003a6:	60fb      	str	r3, [r7, #12]
200003a8:	68fb      	ldr	r3, [r7, #12]
200003aa:	4a07      	ldr	r2, [pc, #28]	; (200003c8 <gpio_set_function+0x3c>)
200003ac:	4694      	mov	ip, r2
200003ae:	4463      	add	r3, ip
200003b0:	683a      	ldr	r2, [r7, #0]
200003b2:	0011      	movs	r1, r2
200003b4:	0018      	movs	r0, r3
200003b6:	f7ff fea8 	bl	2000010a <PUT32>
200003ba:	e002      	b.n	200003c2 <gpio_set_function+0x36>
200003bc:	46c0      	nop			; (mov r8, r8)
200003be:	e000      	b.n	200003c2 <gpio_set_function+0x36>
200003c0:	46c0      	nop			; (mov r8, r8)
200003c2:	46bd      	mov	sp, r7
200003c4:	b004      	add	sp, #16
200003c6:	bd80      	pop	{r7, pc}
200003c8:	40014004 	andmi	r4, r1, r4

200003cc <gpio_set_input>:
200003cc:	b580      	push	{r7, lr}
200003ce:	b084      	sub	sp, #16
200003d0:	af00      	add	r7, sp, #0
200003d2:	6078      	str	r0, [r7, #4]
200003d4:	687b      	ldr	r3, [r7, #4]
200003d6:	2b1d      	cmp	r3, #29
200003d8:	d810      	bhi.n	200003fc <gpio_set_input+0x30>
200003da:	687b      	ldr	r3, [r7, #4]
200003dc:	00db      	lsls	r3, r3, #3
200003de:	60fb      	str	r3, [r7, #12]
200003e0:	68fb      	ldr	r3, [r7, #12]
200003e2:	4a08      	ldr	r2, [pc, #32]	; (20000404 <gpio_set_input+0x38>)
200003e4:	4694      	mov	ip, r2
200003e6:	4463      	add	r3, ip
200003e8:	2105      	movs	r1, #5
200003ea:	0018      	movs	r0, r3
200003ec:	f7ff fe8d 	bl	2000010a <PUT32>
200003f0:	4b05      	ldr	r3, [pc, #20]	; (20000408 <gpio_set_input+0x3c>)
200003f2:	2100      	movs	r1, #0
200003f4:	0018      	movs	r0, r3
200003f6:	f7ff fe88 	bl	2000010a <PUT32>
200003fa:	e000      	b.n	200003fe <gpio_set_input+0x32>
200003fc:	46c0      	nop			; (mov r8, r8)
200003fe:	46bd      	mov	sp, r7
20000400:	b004      	add	sp, #16
20000402:	bd80      	pop	{r7, pc}
20000404:	40014004 	andmi	r4, r1, r4
20000408:	d0002020 	andle	r2, r0, r0, lsr #32

2000040c <gpio_read>:
2000040c:	b580      	push	{r7, lr}
2000040e:	b082      	sub	sp, #8
20000410:	af00      	add	r7, sp, #0
20000412:	6078      	str	r0, [r7, #4]
20000414:	687b      	ldr	r3, [r7, #4]
20000416:	2b1d      	cmp	r3, #29
20000418:	d901      	bls.n	2000041e <gpio_read+0x12>
2000041a:	2300      	movs	r3, #0
2000041c:	e009      	b.n	20000432 <gpio_read+0x26>
2000041e:	4b07      	ldr	r3, [pc, #28]	; (2000043c <gpio_read+0x30>)
20000420:	0018      	movs	r0, r3
20000422:	f7ff fe74 	bl	2000010e <GET32>
20000426:	0002      	movs	r2, r0
20000428:	687b      	ldr	r3, [r7, #4]
2000042a:	40da      	lsrs	r2, r3
2000042c:	0013      	movs	r3, r2
2000042e:	2201      	movs	r2, #1
20000430:	4013      	ands	r3, r2
20000432:	0018      	movs	r0, r3
20000434:	46bd      	mov	sp, r7
20000436:	b002      	add	sp, #8
20000438:	bd80      	pop	{r7, pc}
2000043a:	46c0      	nop			; (mov r8, r8)
2000043c:	d0000004 	andle	r0, r0, r4

20000440 <gpio_set_output>:
20000440:	b580      	push	{r7, lr}
20000442:	b084      	sub	sp, #16
20000444:	af00      	add	r7, sp, #0
20000446:	6078      	str	r0, [r7, #4]
20000448:	687b      	ldr	r3, [r7, #4]
2000044a:	2b1d      	cmp	r3, #29
2000044c:	d829      	bhi.n	200004a2 <gpio_set_output+0x62>
2000044e:	687b      	ldr	r3, [r7, #4]
20000450:	00db      	lsls	r3, r3, #3
20000452:	60fb      	str	r3, [r7, #12]
20000454:	2201      	movs	r2, #1
20000456:	687b      	ldr	r3, [r7, #4]
20000458:	409a      	lsls	r2, r3
2000045a:	0013      	movs	r3, r2
2000045c:	001a      	movs	r2, r3
2000045e:	4b13      	ldr	r3, [pc, #76]	; (200004ac <gpio_set_output+0x6c>)
20000460:	0011      	movs	r1, r2
20000462:	0018      	movs	r0, r3
20000464:	f7ff fe51 	bl	2000010a <PUT32>
20000468:	2201      	movs	r2, #1
2000046a:	687b      	ldr	r3, [r7, #4]
2000046c:	409a      	lsls	r2, r3
2000046e:	0013      	movs	r3, r2
20000470:	001a      	movs	r2, r3
20000472:	4b0f      	ldr	r3, [pc, #60]	; (200004b0 <gpio_set_output+0x70>)
20000474:	0011      	movs	r1, r2
20000476:	0018      	movs	r0, r3
20000478:	f7ff fe47 	bl	2000010a <PUT32>
2000047c:	68fb      	ldr	r3, [r7, #12]
2000047e:	4a0d      	ldr	r2, [pc, #52]	; (200004b4 <gpio_set_output+0x74>)
20000480:	4694      	mov	ip, r2
20000482:	4463      	add	r3, ip
20000484:	2105      	movs	r1, #5
20000486:	0018      	movs	r0, r3
20000488:	f7ff fe3f 	bl	2000010a <PUT32>
2000048c:	2201      	movs	r2, #1
2000048e:	687b      	ldr	r3, [r7, #4]
20000490:	409a      	lsls	r2, r3
20000492:	0013      	movs	r3, r2
20000494:	001a      	movs	r2, r3
20000496:	4b08      	ldr	r3, [pc, #32]	; (200004b8 <gpio_set_output+0x78>)
20000498:	0011      	movs	r1, r2
2000049a:	0018      	movs	r0, r3
2000049c:	f7ff fe35 	bl	2000010a <PUT32>
200004a0:	e000      	b.n	200004a4 <gpio_set_output+0x64>
200004a2:	46c0      	nop			; (mov r8, r8)
200004a4:	46bd      	mov	sp, r7
200004a6:	b004      	add	sp, #16
200004a8:	bd80      	pop	{r7, pc}
200004aa:	46c0      	nop			; (mov r8, r8)
200004ac:	d0000028 	andle	r0, r0, r8, lsr #32
200004b0:	d0000018 	andle	r0, r0, r8, lsl r0
200004b4:	40014004 	andmi	r4, r1, r4
200004b8:	d0000024 	andle	r0, r0, r4, lsr #32

200004bc <gpio_set_on>:
200004bc:	b580      	push	{r7, lr}
200004be:	b082      	sub	sp, #8
200004c0:	af00      	add	r7, sp, #0
200004c2:	6078      	str	r0, [r7, #4]
200004c4:	687b      	ldr	r3, [r7, #4]
200004c6:	2b1d      	cmp	r3, #29
200004c8:	d80a      	bhi.n	200004e0 <gpio_set_on+0x24>
200004ca:	2201      	movs	r2, #1
200004cc:	687b      	ldr	r3, [r7, #4]
200004ce:	409a      	lsls	r2, r3
200004d0:	0013      	movs	r3, r2
200004d2:	001a      	movs	r2, r3
200004d4:	4b04      	ldr	r3, [pc, #16]	; (200004e8 <gpio_set_on+0x2c>)
200004d6:	0011      	movs	r1, r2
200004d8:	0018      	movs	r0, r3
200004da:	f7ff fe16 	bl	2000010a <PUT32>
200004de:	e000      	b.n	200004e2 <gpio_set_on+0x26>
200004e0:	46c0      	nop			; (mov r8, r8)
200004e2:	46bd      	mov	sp, r7
200004e4:	b002      	add	sp, #8
200004e6:	bd80      	pop	{r7, pc}
200004e8:	d0000014 	andle	r0, r0, r4, lsl r0

200004ec <gpio_set_off>:
200004ec:	b580      	push	{r7, lr}
200004ee:	b082      	sub	sp, #8
200004f0:	af00      	add	r7, sp, #0
200004f2:	6078      	str	r0, [r7, #4]
200004f4:	687b      	ldr	r3, [r7, #4]
200004f6:	2b1d      	cmp	r3, #29
200004f8:	d80a      	bhi.n	20000510 <gpio_set_off+0x24>
200004fa:	2201      	movs	r2, #1
200004fc:	687b      	ldr	r3, [r7, #4]
200004fe:	409a      	lsls	r2, r3
20000500:	0013      	movs	r3, r2
20000502:	001a      	movs	r2, r3
20000504:	4b04      	ldr	r3, [pc, #16]	; (20000518 <gpio_set_off+0x2c>)
20000506:	0011      	movs	r1, r2
20000508:	0018      	movs	r0, r3
2000050a:	f7ff fdfe 	bl	2000010a <PUT32>
2000050e:	e000      	b.n	20000512 <gpio_set_off+0x26>
20000510:	46c0      	nop			; (mov r8, r8)
20000512:	46bd      	mov	sp, r7
20000514:	b002      	add	sp, #8
20000516:	bd80      	pop	{r7, pc}
20000518:	d0000018 	andle	r0, r0, r8, lsl r0

2000051c <reset_pads>:
2000051c:	b580      	push	{r7, lr}
2000051e:	af00      	add	r7, sp, #0
20000520:	2008      	movs	r0, #8
20000522:	f7ff ff07 	bl	20000334 <reset_periph>
20000526:	46c0      	nop			; (mov r8, r8)
20000528:	46bd      	mov	sp, r7
2000052a:	bd80      	pop	{r7, pc}

2000052c <reset_pio>:
2000052c:	b580      	push	{r7, lr}
2000052e:	af00      	add	r7, sp, #0
20000530:	200a      	movs	r0, #10
20000532:	f7ff feff 	bl	20000334 <reset_periph>
20000536:	46c0      	nop			; (mov r8, r8)
20000538:	46bd      	mov	sp, r7
2000053a:	bd80      	pop	{r7, pc}

2000053c <drive_pad>:
2000053c:	b580      	push	{r7, lr}
2000053e:	b084      	sub	sp, #16
20000540:	af00      	add	r7, sp, #0
20000542:	6078      	str	r0, [r7, #4]
20000544:	687b      	ldr	r3, [r7, #4]
20000546:	2b1d      	cmp	r3, #29
20000548:	d80b      	bhi.n	20000562 <drive_pad+0x26>
2000054a:	687b      	ldr	r3, [r7, #4]
2000054c:	009b      	lsls	r3, r3, #2
2000054e:	60fb      	str	r3, [r7, #12]
20000550:	68fb      	ldr	r3, [r7, #12]
20000552:	4a06      	ldr	r2, [pc, #24]	; (2000056c <drive_pad+0x30>)
20000554:	4694      	mov	ip, r2
20000556:	4463      	add	r3, ip
20000558:	2120      	movs	r1, #32
2000055a:	0018      	movs	r0, r3
2000055c:	f7ff fdd5 	bl	2000010a <PUT32>
20000560:	e000      	b.n	20000564 <drive_pad+0x28>
20000562:	46c0      	nop			; (mov r8, r8)
20000564:	46bd      	mov	sp, r7
20000566:	b004      	add	sp, #16
20000568:	bd80      	pop	{r7, pc}
2000056a:	46c0      	nop			; (mov r8, r8)
2000056c:	4001c004 	andmi	ip, r1, r4

20000570 <seconds_start>:
20000570:	b580      	push	{r7, lr}
20000572:	af00      	add	r7, sp, #0
20000574:	4b11      	ldr	r3, [pc, #68]	; (200005bc <seconds_start+0x4c>)
20000576:	2104      	movs	r1, #4
20000578:	0018      	movs	r0, r3
2000057a:	f7ff fdc6 	bl	2000010a <PUT32>
2000057e:	4a10      	ldr	r2, [pc, #64]	; (200005c0 <seconds_start+0x50>)
20000580:	4b10      	ldr	r3, [pc, #64]	; (200005c4 <seconds_start+0x54>)
20000582:	0011      	movs	r1, r2
20000584:	0018      	movs	r0, r3
20000586:	f7ff fdc0 	bl	2000010a <PUT32>
2000058a:	4b0f      	ldr	r3, [pc, #60]	; (200005c8 <seconds_start+0x58>)
2000058c:	2100      	movs	r1, #0
2000058e:	0018      	movs	r0, r3
20000590:	f7ff fdbb 	bl	2000010a <PUT32>
20000594:	4b09      	ldr	r3, [pc, #36]	; (200005bc <seconds_start+0x4c>)
20000596:	2105      	movs	r1, #5
20000598:	0018      	movs	r0, r3
2000059a:	f7ff fdb6 	bl	2000010a <PUT32>
2000059e:	46c0      	nop			; (mov r8, r8)
200005a0:	4b06      	ldr	r3, [pc, #24]	; (200005bc <seconds_start+0x4c>)
200005a2:	0018      	movs	r0, r3
200005a4:	f7ff fdb3 	bl	2000010e <GET32>
200005a8:	0003      	movs	r3, r0
200005aa:	0c1b      	lsrs	r3, r3, #16
200005ac:	2201      	movs	r2, #1
200005ae:	4013      	ands	r3, r2
200005b0:	d0f6      	beq.n	200005a0 <seconds_start+0x30>
200005b2:	46c0      	nop			; (mov r8, r8)
200005b4:	46c0      	nop			; (mov r8, r8)
200005b6:	46bd      	mov	sp, r7
200005b8:	bd80      	pop	{r7, pc}
200005ba:	46c0      	nop			; (mov r8, r8)
200005bc:	e000e010 	and	lr, r0, r0, lsl r0
200005c0:	00b71aff 	ldrshteq	r1, [r7], pc
200005c4:	e000e014 	and	lr, r0, r4, lsl r0
200005c8:	e000e018 	and	lr, r0, r8, lsl r0

200005cc <enable_clock>:
200005cc:	b580      	push	{r7, lr}
200005ce:	b084      	sub	sp, #16
200005d0:	af00      	add	r7, sp, #0
200005d2:	0002      	movs	r2, r0
200005d4:	1dfb      	adds	r3, r7, #7
200005d6:	701a      	strb	r2, [r3, #0]
200005d8:	232f      	movs	r3, #47	; 0x2f
200005da:	60fb      	str	r3, [r7, #12]
200005dc:	23aa      	movs	r3, #170	; 0xaa
200005de:	011b      	lsls	r3, r3, #4
200005e0:	4a14      	ldr	r2, [pc, #80]	; (20000634 <enable_clock+0x68>)
200005e2:	0019      	movs	r1, r3
200005e4:	0010      	movs	r0, r2
200005e6:	f7ff fd90 	bl	2000010a <PUT32>
200005ea:	68fb      	ldr	r3, [r7, #12]
200005ec:	4a12      	ldr	r2, [pc, #72]	; (20000638 <enable_clock+0x6c>)
200005ee:	0019      	movs	r1, r3
200005f0:	0010      	movs	r0, r2
200005f2:	f7ff fd8a 	bl	2000010a <PUT32>
200005f6:	4a11      	ldr	r2, [pc, #68]	; (2000063c <enable_clock+0x70>)
200005f8:	4b11      	ldr	r3, [pc, #68]	; (20000640 <enable_clock+0x74>)
200005fa:	0011      	movs	r1, r2
200005fc:	0018      	movs	r0, r3
200005fe:	f7ff fd84 	bl	2000010a <PUT32>
20000602:	46c0      	nop			; (mov r8, r8)
20000604:	4b0f      	ldr	r3, [pc, #60]	; (20000644 <enable_clock+0x78>)
20000606:	0018      	movs	r0, r3
20000608:	f7ff fd81 	bl	2000010e <GET32>
2000060c:	1e03      	subs	r3, r0, #0
2000060e:	daf9      	bge.n	20000604 <enable_clock+0x38>
20000610:	1dfb      	adds	r3, r7, #7
20000612:	781b      	ldrb	r3, [r3, #0]
20000614:	2b00      	cmp	r3, #0
20000616:	d009      	beq.n	2000062c <enable_clock+0x60>
20000618:	4b0b      	ldr	r3, [pc, #44]	; (20000648 <enable_clock+0x7c>)
2000061a:	2102      	movs	r1, #2
2000061c:	0018      	movs	r0, r3
2000061e:	f7ff fd74 	bl	2000010a <PUT32>
20000622:	4b0a      	ldr	r3, [pc, #40]	; (2000064c <enable_clock+0x80>)
20000624:	2100      	movs	r1, #0
20000626:	0018      	movs	r0, r3
20000628:	f7ff fd6f 	bl	2000010a <PUT32>
2000062c:	46c0      	nop			; (mov r8, r8)
2000062e:	46bd      	mov	sp, r7
20000630:	b004      	add	sp, #16
20000632:	bd80      	pop	{r7, pc}
20000634:	40024000 	andmi	r4, r2, r0
20000638:	4002400c 	andmi	r4, r2, ip
2000063c:	00000fab 	andeq	r0, r0, fp, lsr #31
20000640:	40026000 	andmi	r6, r2, r0
20000644:	40024004 	andmi	r4, r2, r4
20000648:	40008030 	andmi	r8, r0, r0, lsr r0
2000064c:	4000803c 	andmi	r8, r0, ip, lsr r0

20000650 <delay_us>:
20000650:	b580      	push	{r7, lr}
20000652:	b084      	sub	sp, #16
20000654:	af00      	add	r7, sp, #0
20000656:	6078      	str	r0, [r7, #4]
20000658:	687a      	ldr	r2, [r7, #4]
2000065a:	0013      	movs	r3, r2
2000065c:	005b      	lsls	r3, r3, #1
2000065e:	189b      	adds	r3, r3, r2
20000660:	009b      	lsls	r3, r3, #2
20000662:	0a1b      	lsrs	r3, r3, #8
20000664:	60bb      	str	r3, [r7, #8]
20000666:	2300      	movs	r3, #0
20000668:	60fb      	str	r3, [r7, #12]
2000066a:	e010      	b.n	2000068e <delay_us+0x3e>
2000066c:	4b0c      	ldr	r3, [pc, #48]	; (200006a0 <delay_us+0x50>)
2000066e:	21a9      	movs	r1, #169	; 0xa9
20000670:	0018      	movs	r0, r3
20000672:	f7ff fd4a 	bl	2000010a <PUT32>
20000676:	46c0      	nop			; (mov r8, r8)
20000678:	4b0a      	ldr	r3, [pc, #40]	; (200006a4 <delay_us+0x54>)
2000067a:	0018      	movs	r0, r3
2000067c:	f7ff fd47 	bl	2000010e <GET32>
20000680:	0003      	movs	r3, r0
20000682:	22ff      	movs	r2, #255	; 0xff
20000684:	4013      	ands	r3, r2
20000686:	d1f7      	bne.n	20000678 <delay_us+0x28>
20000688:	68fb      	ldr	r3, [r7, #12]
2000068a:	3301      	adds	r3, #1
2000068c:	60fb      	str	r3, [r7, #12]
2000068e:	68fb      	ldr	r3, [r7, #12]
20000690:	68ba      	ldr	r2, [r7, #8]
20000692:	429a      	cmp	r2, r3
20000694:	d8ea      	bhi.n	2000066c <delay_us+0x1c>
20000696:	46c0      	nop			; (mov r8, r8)
20000698:	46c0      	nop			; (mov r8, r8)
2000069a:	46bd      	mov	sp, r7
2000069c:	b004      	add	sp, #16
2000069e:	bd80      	pop	{r7, pc}
200006a0:	4002601c 	andmi	r6, r2, ip, lsl r0
200006a4:	4002401c 	andmi	r4, r2, ip, lsl r0

200006a8 <micro_seconds_start>:
200006a8:	b580      	push	{r7, lr}
200006aa:	b082      	sub	sp, #8
200006ac:	af00      	add	r7, sp, #0
200006ae:	6078      	str	r0, [r7, #4]
200006b0:	4b0c      	ldr	r3, [pc, #48]	; (200006e4 <micro_seconds_start+0x3c>)
200006b2:	2100      	movs	r1, #0
200006b4:	0018      	movs	r0, r3
200006b6:	f7ff fd28 	bl	2000010a <PUT32>
200006ba:	687b      	ldr	r3, [r7, #4]
200006bc:	4a0a      	ldr	r2, [pc, #40]	; (200006e8 <micro_seconds_start+0x40>)
200006be:	0019      	movs	r1, r3
200006c0:	0010      	movs	r0, r2
200006c2:	f7ff fd22 	bl	2000010a <PUT32>
200006c6:	4b09      	ldr	r3, [pc, #36]	; (200006ec <micro_seconds_start+0x44>)
200006c8:	2100      	movs	r1, #0
200006ca:	0018      	movs	r0, r3
200006cc:	f7ff fd1d 	bl	2000010a <PUT32>
200006d0:	4b04      	ldr	r3, [pc, #16]	; (200006e4 <micro_seconds_start+0x3c>)
200006d2:	2101      	movs	r1, #1
200006d4:	0018      	movs	r0, r3
200006d6:	f7ff fd18 	bl	2000010a <PUT32>
200006da:	46c0      	nop			; (mov r8, r8)
200006dc:	46bd      	mov	sp, r7
200006de:	b002      	add	sp, #8
200006e0:	bd80      	pop	{r7, pc}
200006e2:	46c0      	nop			; (mov r8, r8)
200006e4:	e000e010 	and	lr, r0, r0, lsl r0
200006e8:	e000e014 	and	lr, r0, r4, lsl r0
200006ec:	e000e018 	and	lr, r0, r8, lsl r0

200006f0 <enable_clk_peri>:
200006f0:	b580      	push	{r7, lr}
200006f2:	b082      	sub	sp, #8
200006f4:	af00      	add	r7, sp, #0
200006f6:	6078      	str	r0, [r7, #4]
200006f8:	687b      	ldr	r3, [r7, #4]
200006fa:	2b06      	cmp	r3, #6
200006fc:	d80e      	bhi.n	2000071c <enable_clk_peri+0x2c>
200006fe:	2380      	movs	r3, #128	; 0x80
20000700:	011b      	lsls	r3, r3, #4
20000702:	4a08      	ldr	r2, [pc, #32]	; (20000724 <enable_clk_peri+0x34>)
20000704:	0019      	movs	r1, r3
20000706:	0010      	movs	r0, r2
20000708:	f7ff fcff 	bl	2000010a <PUT32>
2000070c:	687b      	ldr	r3, [r7, #4]
2000070e:	015b      	lsls	r3, r3, #5
20000710:	4a04      	ldr	r2, [pc, #16]	; (20000724 <enable_clk_peri+0x34>)
20000712:	0019      	movs	r1, r3
20000714:	0010      	movs	r0, r2
20000716:	f7ff fcf8 	bl	2000010a <PUT32>
2000071a:	e000      	b.n	2000071e <enable_clk_peri+0x2e>
2000071c:	46c0      	nop			; (mov r8, r8)
2000071e:	46bd      	mov	sp, r7
20000720:	b002      	add	sp, #8
20000722:	bd80      	pop	{r7, pc}
20000724:	4000a048 	andmi	sl, r0, r8, asr #32

20000728 <timed_write>:
20000728:	b580      	push	{r7, lr}
2000072a:	b084      	sub	sp, #16
2000072c:	af00      	add	r7, sp, #0
2000072e:	60f8      	str	r0, [r7, #12]
20000730:	60b9      	str	r1, [r7, #8]
20000732:	607a      	str	r2, [r7, #4]
20000734:	68bb      	ldr	r3, [r7, #8]
20000736:	2b00      	cmp	r3, #0
20000738:	d004      	beq.n	20000744 <timed_write+0x1c>
2000073a:	68fb      	ldr	r3, [r7, #12]
2000073c:	0018      	movs	r0, r3
2000073e:	f7ff febd 	bl	200004bc <gpio_set_on>
20000742:	e003      	b.n	2000074c <timed_write+0x24>
20000744:	68fb      	ldr	r3, [r7, #12]
20000746:	0018      	movs	r0, r3
20000748:	f7ff fed0 	bl	200004ec <gpio_set_off>
2000074c:	687b      	ldr	r3, [r7, #4]
2000074e:	0018      	movs	r0, r3
20000750:	f7ff ff7e 	bl	20000650 <delay_us>
20000754:	46c0      	nop			; (mov r8, r8)
20000756:	46bd      	mov	sp, r7
20000758:	b004      	add	sp, #16
2000075a:	bd80      	pop	{r7, pc}

2000075c <sw_uart_putc>:
2000075c:	b580      	push	{r7, lr}
2000075e:	b084      	sub	sp, #16
20000760:	af00      	add	r7, sp, #0
20000762:	6078      	str	r0, [r7, #4]
20000764:	000a      	movs	r2, r1
20000766:	1cfb      	adds	r3, r7, #3
20000768:	701a      	strb	r2, [r3, #0]
2000076a:	687b      	ldr	r3, [r7, #4]
2000076c:	6818      	ldr	r0, [r3, #0]
2000076e:	687b      	ldr	r3, [r7, #4]
20000770:	68db      	ldr	r3, [r3, #12]
20000772:	001a      	movs	r2, r3
20000774:	2100      	movs	r1, #0
20000776:	f7ff ffd7 	bl	20000728 <timed_write>
2000077a:	2300      	movs	r3, #0
2000077c:	60fb      	str	r3, [r7, #12]
2000077e:	e011      	b.n	200007a4 <sw_uart_putc+0x48>
20000780:	687b      	ldr	r3, [r7, #4]
20000782:	6818      	ldr	r0, [r3, #0]
20000784:	1cfb      	adds	r3, r7, #3
20000786:	781a      	ldrb	r2, [r3, #0]
20000788:	68fb      	ldr	r3, [r7, #12]
2000078a:	411a      	asrs	r2, r3
2000078c:	0013      	movs	r3, r2
2000078e:	2201      	movs	r2, #1
20000790:	4013      	ands	r3, r2
20000792:	0019      	movs	r1, r3
20000794:	687b      	ldr	r3, [r7, #4]
20000796:	68db      	ldr	r3, [r3, #12]
20000798:	001a      	movs	r2, r3
2000079a:	f7ff ffc5 	bl	20000728 <timed_write>
2000079e:	68fb      	ldr	r3, [r7, #12]
200007a0:	3301      	adds	r3, #1
200007a2:	60fb      	str	r3, [r7, #12]
200007a4:	68fb      	ldr	r3, [r7, #12]
200007a6:	2b07      	cmp	r3, #7
200007a8:	ddea      	ble.n	20000780 <sw_uart_putc+0x24>
200007aa:	687b      	ldr	r3, [r7, #4]
200007ac:	6818      	ldr	r0, [r3, #0]
200007ae:	687b      	ldr	r3, [r7, #4]
200007b0:	68db      	ldr	r3, [r3, #12]
200007b2:	001a      	movs	r2, r3
200007b4:	2101      	movs	r1, #1
200007b6:	f7ff ffb7 	bl	20000728 <timed_write>
200007ba:	46c0      	nop			; (mov r8, r8)
200007bc:	46bd      	mov	sp, r7
200007be:	b004      	add	sp, #16
200007c0:	bd80      	pop	{r7, pc}

200007c2 <sw_uart_putk>:
200007c2:	b580      	push	{r7, lr}
200007c4:	b084      	sub	sp, #16
200007c6:	af00      	add	r7, sp, #0
200007c8:	6078      	str	r0, [r7, #4]
200007ca:	6039      	str	r1, [r7, #0]
200007cc:	2300      	movs	r3, #0
200007ce:	60fb      	str	r3, [r7, #12]
200007d0:	e00b      	b.n	200007ea <sw_uart_putk+0x28>
200007d2:	68fb      	ldr	r3, [r7, #12]
200007d4:	683a      	ldr	r2, [r7, #0]
200007d6:	18d3      	adds	r3, r2, r3
200007d8:	781a      	ldrb	r2, [r3, #0]
200007da:	687b      	ldr	r3, [r7, #4]
200007dc:	0011      	movs	r1, r2
200007de:	0018      	movs	r0, r3
200007e0:	f7ff ffbc 	bl	2000075c <sw_uart_putc>
200007e4:	68fb      	ldr	r3, [r7, #12]
200007e6:	3301      	adds	r3, #1
200007e8:	60fb      	str	r3, [r7, #12]
200007ea:	68fb      	ldr	r3, [r7, #12]
200007ec:	683a      	ldr	r2, [r7, #0]
200007ee:	18d3      	adds	r3, r2, r3
200007f0:	781b      	ldrb	r3, [r3, #0]
200007f2:	2b00      	cmp	r3, #0
200007f4:	d1ed      	bne.n	200007d2 <sw_uart_putk+0x10>
200007f6:	46c0      	nop			; (mov r8, r8)
200007f8:	46c0      	nop			; (mov r8, r8)
200007fa:	46bd      	mov	sp, r7
200007fc:	b004      	add	sp, #16
200007fe:	bd80      	pop	{r7, pc}

20000800 <init_uart_printing>:
20000800:	b590      	push	{r4, r7, lr}
20000802:	b085      	sub	sp, #20
20000804:	af00      	add	r7, sp, #0
20000806:	2000      	movs	r0, #0
20000808:	f7ff fe1a 	bl	20000440 <gpio_set_output>
2000080c:	2000      	movs	r0, #0
2000080e:	f7ff fe55 	bl	200004bc <gpio_set_on>
20000812:	2001      	movs	r0, #1
20000814:	f7ff fdda 	bl	200003cc <gpio_set_input>
20000818:	4b05      	ldr	r3, [pc, #20]	; (20000830 <init_uart_printing+0x30>)
2000081a:	4a06      	ldr	r2, [pc, #24]	; (20000834 <init_uart_printing+0x34>)
2000081c:	ca13      	ldmia	r2!, {r0, r1, r4}
2000081e:	c313      	stmia	r3!, {r0, r1, r4}
20000820:	6812      	ldr	r2, [r2, #0]
20000822:	601a      	str	r2, [r3, #0]
20000824:	2301      	movs	r3, #1
20000826:	0018      	movs	r0, r3
20000828:	46bd      	mov	sp, r7
2000082a:	b005      	add	sp, #20
2000082c:	bd90      	pop	{r4, r7, pc}
2000082e:	46c0      	nop			; (mov r8, r8)
20000830:	2000f010 	andcs	pc, r0, r0, lsl r0	; <UNPREDICTABLE>
20000834:	10001814 	andne	r1, r0, r4, lsl r8

20000838 <iabs>:
20000838:	b580      	push	{r7, lr}
2000083a:	b082      	sub	sp, #8
2000083c:	af00      	add	r7, sp, #0
2000083e:	6078      	str	r0, [r7, #4]
20000840:	687b      	ldr	r3, [r7, #4]
20000842:	17da      	asrs	r2, r3, #31
20000844:	189b      	adds	r3, r3, r2
20000846:	4053      	eors	r3, r2
20000848:	0018      	movs	r0, r3
2000084a:	46bd      	mov	sp, r7
2000084c:	b002      	add	sp, #8
2000084e:	bd80      	pop	{r7, pc}

20000850 <divlu>:
20000850:	b5b0      	push	{r4, r5, r7, lr}
20000852:	b08a      	sub	sp, #40	; 0x28
20000854:	af00      	add	r7, sp, #0
20000856:	60b8      	str	r0, [r7, #8]
20000858:	60f9      	str	r1, [r7, #12]
2000085a:	607a      	str	r2, [r7, #4]
2000085c:	68fb      	ldr	r3, [r7, #12]
2000085e:	001c      	movs	r4, r3
20000860:	2300      	movs	r3, #0
20000862:	001d      	movs	r5, r3
20000864:	0023      	movs	r3, r4
20000866:	623b      	str	r3, [r7, #32]
20000868:	68bb      	ldr	r3, [r7, #8]
2000086a:	61fb      	str	r3, [r7, #28]
2000086c:	687b      	ldr	r3, [r7, #4]
2000086e:	61bb      	str	r3, [r7, #24]
20000870:	2301      	movs	r3, #1
20000872:	627b      	str	r3, [r7, #36]	; 0x24
20000874:	e01b      	b.n	200008ae <divlu+0x5e>
20000876:	6a3b      	ldr	r3, [r7, #32]
20000878:	17db      	asrs	r3, r3, #31
2000087a:	617b      	str	r3, [r7, #20]
2000087c:	6a3b      	ldr	r3, [r7, #32]
2000087e:	005a      	lsls	r2, r3, #1
20000880:	69fb      	ldr	r3, [r7, #28]
20000882:	0fdb      	lsrs	r3, r3, #31
20000884:	4313      	orrs	r3, r2
20000886:	623b      	str	r3, [r7, #32]
20000888:	69fb      	ldr	r3, [r7, #28]
2000088a:	005b      	lsls	r3, r3, #1
2000088c:	61fb      	str	r3, [r7, #28]
2000088e:	6a3a      	ldr	r2, [r7, #32]
20000890:	697b      	ldr	r3, [r7, #20]
20000892:	4313      	orrs	r3, r2
20000894:	69ba      	ldr	r2, [r7, #24]
20000896:	429a      	cmp	r2, r3
20000898:	d806      	bhi.n	200008a8 <divlu+0x58>
2000089a:	6a3a      	ldr	r2, [r7, #32]
2000089c:	69bb      	ldr	r3, [r7, #24]
2000089e:	1ad3      	subs	r3, r2, r3
200008a0:	623b      	str	r3, [r7, #32]
200008a2:	69fb      	ldr	r3, [r7, #28]
200008a4:	3301      	adds	r3, #1
200008a6:	61fb      	str	r3, [r7, #28]
200008a8:	6a7b      	ldr	r3, [r7, #36]	; 0x24
200008aa:	3301      	adds	r3, #1
200008ac:	627b      	str	r3, [r7, #36]	; 0x24
200008ae:	6a7b      	ldr	r3, [r7, #36]	; 0x24
200008b0:	2b20      	cmp	r3, #32
200008b2:	dde0      	ble.n	20000876 <divlu+0x26>
200008b4:	69fb      	ldr	r3, [r7, #28]
200008b6:	0018      	movs	r0, r3
200008b8:	46bd      	mov	sp, r7
200008ba:	b00a      	add	sp, #40	; 0x28
200008bc:	bdb0      	pop	{r4, r5, r7, pc}

200008be <udiv>:
200008be:	b5b0      	push	{r4, r5, r7, lr}
200008c0:	b082      	sub	sp, #8
200008c2:	af00      	add	r7, sp, #0
200008c4:	6078      	str	r0, [r7, #4]
200008c6:	6039      	str	r1, [r7, #0]
200008c8:	687b      	ldr	r3, [r7, #4]
200008ca:	001c      	movs	r4, r3
200008cc:	2300      	movs	r3, #0
200008ce:	001d      	movs	r5, r3
200008d0:	683b      	ldr	r3, [r7, #0]
200008d2:	001a      	movs	r2, r3
200008d4:	0020      	movs	r0, r4
200008d6:	0029      	movs	r1, r5
200008d8:	f7ff ffba 	bl	20000850 <divlu>
200008dc:	0003      	movs	r3, r0
200008de:	0018      	movs	r0, r3
200008e0:	46bd      	mov	sp, r7
200008e2:	b002      	add	sp, #8
200008e4:	bdb0      	pop	{r4, r5, r7, pc}

200008e6 <idiv>:
200008e6:	b590      	push	{r4, r7, lr}
200008e8:	b085      	sub	sp, #20
200008ea:	af00      	add	r7, sp, #0
200008ec:	6078      	str	r0, [r7, #4]
200008ee:	6039      	str	r1, [r7, #0]
200008f0:	687b      	ldr	r3, [r7, #4]
200008f2:	2b00      	cmp	r3, #0
200008f4:	d101      	bne.n	200008fa <idiv+0x14>
200008f6:	2300      	movs	r3, #0
200008f8:	e01f      	b.n	2000093a <idiv+0x54>
200008fa:	687b      	ldr	r3, [r7, #4]
200008fc:	0018      	movs	r0, r3
200008fe:	f7ff ff9b 	bl	20000838 <iabs>
20000902:	0004      	movs	r4, r0
20000904:	683b      	ldr	r3, [r7, #0]
20000906:	0018      	movs	r0, r3
20000908:	f7ff ff96 	bl	20000838 <iabs>
2000090c:	0003      	movs	r3, r0
2000090e:	0019      	movs	r1, r3
20000910:	0020      	movs	r0, r4
20000912:	f7ff ffd4 	bl	200008be <udiv>
20000916:	0003      	movs	r3, r0
20000918:	60fb      	str	r3, [r7, #12]
2000091a:	687b      	ldr	r3, [r7, #4]
2000091c:	2b00      	cmp	r3, #0
2000091e:	da02      	bge.n	20000926 <idiv+0x40>
20000920:	683b      	ldr	r3, [r7, #0]
20000922:	2b00      	cmp	r3, #0
20000924:	db05      	blt.n	20000932 <idiv+0x4c>
20000926:	687b      	ldr	r3, [r7, #4]
20000928:	2b00      	cmp	r3, #0
2000092a:	dd04      	ble.n	20000936 <idiv+0x50>
2000092c:	683b      	ldr	r3, [r7, #0]
2000092e:	2b00      	cmp	r3, #0
20000930:	dd01      	ble.n	20000936 <idiv+0x50>
20000932:	68fb      	ldr	r3, [r7, #12]
20000934:	e001      	b.n	2000093a <idiv+0x54>
20000936:	68fb      	ldr	r3, [r7, #12]
20000938:	425b      	negs	r3, r3
2000093a:	0018      	movs	r0, r3
2000093c:	46bd      	mov	sp, r7
2000093e:	b005      	add	sp, #20
20000940:	bd90      	pop	{r4, r7, pc}

20000942 <imod>:
20000942:	b580      	push	{r7, lr}
20000944:	b084      	sub	sp, #16
20000946:	af00      	add	r7, sp, #0
20000948:	6078      	str	r0, [r7, #4]
2000094a:	6039      	str	r1, [r7, #0]
2000094c:	683b      	ldr	r3, [r7, #0]
2000094e:	2b00      	cmp	r3, #0
20000950:	d101      	bne.n	20000956 <imod+0x14>
20000952:	687b      	ldr	r3, [r7, #4]
20000954:	e00c      	b.n	20000970 <imod+0x2e>
20000956:	683a      	ldr	r2, [r7, #0]
20000958:	687b      	ldr	r3, [r7, #4]
2000095a:	0011      	movs	r1, r2
2000095c:	0018      	movs	r0, r3
2000095e:	f7ff ffc2 	bl	200008e6 <idiv>
20000962:	0003      	movs	r3, r0
20000964:	60fb      	str	r3, [r7, #12]
20000966:	683b      	ldr	r3, [r7, #0]
20000968:	68fa      	ldr	r2, [r7, #12]
2000096a:	4353      	muls	r3, r2
2000096c:	687a      	ldr	r2, [r7, #4]
2000096e:	1ad3      	subs	r3, r2, r3
20000970:	0018      	movs	r0, r3
20000972:	46bd      	mov	sp, r7
20000974:	b004      	add	sp, #16
20000976:	bd80      	pop	{r7, pc}

20000978 <_putchar>:
20000978:	b580      	push	{r7, lr}
2000097a:	b082      	sub	sp, #8
2000097c:	af00      	add	r7, sp, #0
2000097e:	0002      	movs	r2, r0
20000980:	1dfb      	adds	r3, r7, #7
20000982:	701a      	strb	r2, [r3, #0]
20000984:	1dfb      	adds	r3, r7, #7
20000986:	781b      	ldrb	r3, [r3, #0]
20000988:	0018      	movs	r0, r3
2000098a:	f000 fef3 	bl	20001774 <uart_putc>
2000098e:	46c0      	nop			; (mov r8, r8)
20000990:	46bd      	mov	sp, r7
20000992:	b002      	add	sp, #8
20000994:	bd80      	pop	{r7, pc}

20000996 <_out_buffer>:
20000996:	b580      	push	{r7, lr}
20000998:	b084      	sub	sp, #16
2000099a:	af00      	add	r7, sp, #0
2000099c:	60b9      	str	r1, [r7, #8]
2000099e:	607a      	str	r2, [r7, #4]
200009a0:	603b      	str	r3, [r7, #0]
200009a2:	210f      	movs	r1, #15
200009a4:	187b      	adds	r3, r7, r1
200009a6:	1c02      	adds	r2, r0, #0
200009a8:	701a      	strb	r2, [r3, #0]
200009aa:	687a      	ldr	r2, [r7, #4]
200009ac:	683b      	ldr	r3, [r7, #0]
200009ae:	429a      	cmp	r2, r3
200009b0:	d205      	bcs.n	200009be <_out_buffer+0x28>
200009b2:	68ba      	ldr	r2, [r7, #8]
200009b4:	687b      	ldr	r3, [r7, #4]
200009b6:	18d3      	adds	r3, r2, r3
200009b8:	187a      	adds	r2, r7, r1
200009ba:	7812      	ldrb	r2, [r2, #0]
200009bc:	701a      	strb	r2, [r3, #0]
200009be:	46c0      	nop			; (mov r8, r8)
200009c0:	46bd      	mov	sp, r7
200009c2:	b004      	add	sp, #16
200009c4:	bd80      	pop	{r7, pc}

200009c6 <_out_null>:
200009c6:	b580      	push	{r7, lr}
200009c8:	b084      	sub	sp, #16
200009ca:	af00      	add	r7, sp, #0
200009cc:	60b9      	str	r1, [r7, #8]
200009ce:	607a      	str	r2, [r7, #4]
200009d0:	603b      	str	r3, [r7, #0]
200009d2:	230f      	movs	r3, #15
200009d4:	18fb      	adds	r3, r7, r3
200009d6:	1c02      	adds	r2, r0, #0
200009d8:	701a      	strb	r2, [r3, #0]
200009da:	46c0      	nop			; (mov r8, r8)
200009dc:	46bd      	mov	sp, r7
200009de:	b004      	add	sp, #16
200009e0:	bd80      	pop	{r7, pc}

200009e2 <_out_char>:
200009e2:	b580      	push	{r7, lr}
200009e4:	b084      	sub	sp, #16
200009e6:	af00      	add	r7, sp, #0
200009e8:	60b9      	str	r1, [r7, #8]
200009ea:	607a      	str	r2, [r7, #4]
200009ec:	603b      	str	r3, [r7, #0]
200009ee:	210f      	movs	r1, #15
200009f0:	187b      	adds	r3, r7, r1
200009f2:	1c02      	adds	r2, r0, #0
200009f4:	701a      	strb	r2, [r3, #0]
200009f6:	000a      	movs	r2, r1
200009f8:	18bb      	adds	r3, r7, r2
200009fa:	781b      	ldrb	r3, [r3, #0]
200009fc:	2b00      	cmp	r3, #0
200009fe:	d004      	beq.n	20000a0a <_out_char+0x28>
20000a00:	18bb      	adds	r3, r7, r2
20000a02:	781b      	ldrb	r3, [r3, #0]
20000a04:	0018      	movs	r0, r3
20000a06:	f7ff ffb7 	bl	20000978 <_putchar>
20000a0a:	46c0      	nop			; (mov r8, r8)
20000a0c:	46bd      	mov	sp, r7
20000a0e:	b004      	add	sp, #16
20000a10:	bd80      	pop	{r7, pc}

20000a12 <_out_fct>:
20000a12:	b580      	push	{r7, lr}
20000a14:	b084      	sub	sp, #16
20000a16:	af00      	add	r7, sp, #0
20000a18:	60b9      	str	r1, [r7, #8]
20000a1a:	607a      	str	r2, [r7, #4]
20000a1c:	603b      	str	r3, [r7, #0]
20000a1e:	210f      	movs	r1, #15
20000a20:	187b      	adds	r3, r7, r1
20000a22:	1c02      	adds	r2, r0, #0
20000a24:	701a      	strb	r2, [r3, #0]
20000a26:	0008      	movs	r0, r1
20000a28:	187b      	adds	r3, r7, r1
20000a2a:	781b      	ldrb	r3, [r3, #0]
20000a2c:	2b00      	cmp	r3, #0
20000a2e:	d007      	beq.n	20000a40 <_out_fct+0x2e>
20000a30:	68bb      	ldr	r3, [r7, #8]
20000a32:	681a      	ldr	r2, [r3, #0]
20000a34:	68bb      	ldr	r3, [r7, #8]
20000a36:	6859      	ldr	r1, [r3, #4]
20000a38:	183b      	adds	r3, r7, r0
20000a3a:	781b      	ldrb	r3, [r3, #0]
20000a3c:	0018      	movs	r0, r3
20000a3e:	4790      	blx	r2
20000a40:	46c0      	nop			; (mov r8, r8)
20000a42:	46bd      	mov	sp, r7
20000a44:	b004      	add	sp, #16
20000a46:	bd80      	pop	{r7, pc}

20000a48 <_strnlen_s>:
20000a48:	b580      	push	{r7, lr}
20000a4a:	b084      	sub	sp, #16
20000a4c:	af00      	add	r7, sp, #0
20000a4e:	6078      	str	r0, [r7, #4]
20000a50:	6039      	str	r1, [r7, #0]
20000a52:	687b      	ldr	r3, [r7, #4]
20000a54:	60fb      	str	r3, [r7, #12]
20000a56:	e002      	b.n	20000a5e <_strnlen_s+0x16>
20000a58:	68fb      	ldr	r3, [r7, #12]
20000a5a:	3301      	adds	r3, #1
20000a5c:	60fb      	str	r3, [r7, #12]
20000a5e:	68fb      	ldr	r3, [r7, #12]
20000a60:	781b      	ldrb	r3, [r3, #0]
20000a62:	2b00      	cmp	r3, #0
20000a64:	d004      	beq.n	20000a70 <_strnlen_s+0x28>
20000a66:	683b      	ldr	r3, [r7, #0]
20000a68:	1e5a      	subs	r2, r3, #1
20000a6a:	603a      	str	r2, [r7, #0]
20000a6c:	2b00      	cmp	r3, #0
20000a6e:	d1f3      	bne.n	20000a58 <_strnlen_s+0x10>
20000a70:	68fa      	ldr	r2, [r7, #12]
20000a72:	687b      	ldr	r3, [r7, #4]
20000a74:	1ad3      	subs	r3, r2, r3
20000a76:	0018      	movs	r0, r3
20000a78:	46bd      	mov	sp, r7
20000a7a:	b004      	add	sp, #16
20000a7c:	bd80      	pop	{r7, pc}

20000a7e <_is_digit>:
20000a7e:	b580      	push	{r7, lr}
20000a80:	b082      	sub	sp, #8
20000a82:	af00      	add	r7, sp, #0
20000a84:	0002      	movs	r2, r0
20000a86:	1dfb      	adds	r3, r7, #7
20000a88:	701a      	strb	r2, [r3, #0]
20000a8a:	1dfb      	adds	r3, r7, #7
20000a8c:	781b      	ldrb	r3, [r3, #0]
20000a8e:	2b2f      	cmp	r3, #47	; 0x2f
20000a90:	d905      	bls.n	20000a9e <_is_digit+0x20>
20000a92:	1dfb      	adds	r3, r7, #7
20000a94:	781b      	ldrb	r3, [r3, #0]
20000a96:	2b39      	cmp	r3, #57	; 0x39
20000a98:	d801      	bhi.n	20000a9e <_is_digit+0x20>
20000a9a:	2301      	movs	r3, #1
20000a9c:	e000      	b.n	20000aa0 <_is_digit+0x22>
20000a9e:	2300      	movs	r3, #0
20000aa0:	1c1a      	adds	r2, r3, #0
20000aa2:	2301      	movs	r3, #1
20000aa4:	4013      	ands	r3, r2
20000aa6:	b2db      	uxtb	r3, r3
20000aa8:	0018      	movs	r0, r3
20000aaa:	46bd      	mov	sp, r7
20000aac:	b002      	add	sp, #8
20000aae:	bd80      	pop	{r7, pc}

20000ab0 <_atoi>:
20000ab0:	b580      	push	{r7, lr}
20000ab2:	b084      	sub	sp, #16
20000ab4:	af00      	add	r7, sp, #0
20000ab6:	6078      	str	r0, [r7, #4]
20000ab8:	2300      	movs	r3, #0
20000aba:	60fb      	str	r3, [r7, #12]
20000abc:	e00e      	b.n	20000adc <_atoi+0x2c>
20000abe:	68fa      	ldr	r2, [r7, #12]
20000ac0:	0013      	movs	r3, r2
20000ac2:	009b      	lsls	r3, r3, #2
20000ac4:	189b      	adds	r3, r3, r2
20000ac6:	005b      	lsls	r3, r3, #1
20000ac8:	0018      	movs	r0, r3
20000aca:	687b      	ldr	r3, [r7, #4]
20000acc:	681b      	ldr	r3, [r3, #0]
20000ace:	1c59      	adds	r1, r3, #1
20000ad0:	687a      	ldr	r2, [r7, #4]
20000ad2:	6011      	str	r1, [r2, #0]
20000ad4:	781b      	ldrb	r3, [r3, #0]
20000ad6:	18c3      	adds	r3, r0, r3
20000ad8:	3b30      	subs	r3, #48	; 0x30
20000ada:	60fb      	str	r3, [r7, #12]
20000adc:	687b      	ldr	r3, [r7, #4]
20000ade:	681b      	ldr	r3, [r3, #0]
20000ae0:	781b      	ldrb	r3, [r3, #0]
20000ae2:	0018      	movs	r0, r3
20000ae4:	f7ff ffcb 	bl	20000a7e <_is_digit>
20000ae8:	1e03      	subs	r3, r0, #0
20000aea:	d1e8      	bne.n	20000abe <_atoi+0xe>
20000aec:	68fb      	ldr	r3, [r7, #12]
20000aee:	0018      	movs	r0, r3
20000af0:	46bd      	mov	sp, r7
20000af2:	b004      	add	sp, #16
20000af4:	bd80      	pop	{r7, pc}

20000af6 <_out_rev>:
20000af6:	b590      	push	{r4, r7, lr}
20000af8:	b087      	sub	sp, #28
20000afa:	af00      	add	r7, sp, #0
20000afc:	60f8      	str	r0, [r7, #12]
20000afe:	60b9      	str	r1, [r7, #8]
20000b00:	607a      	str	r2, [r7, #4]
20000b02:	603b      	str	r3, [r7, #0]
20000b04:	687b      	ldr	r3, [r7, #4]
20000b06:	613b      	str	r3, [r7, #16]
20000b08:	6b7b      	ldr	r3, [r7, #52]	; 0x34
20000b0a:	2202      	movs	r2, #2
20000b0c:	4013      	ands	r3, r2
20000b0e:	d124      	bne.n	20000b5a <_out_rev+0x64>
20000b10:	6b7b      	ldr	r3, [r7, #52]	; 0x34
20000b12:	2201      	movs	r2, #1
20000b14:	4013      	ands	r3, r2
20000b16:	d120      	bne.n	20000b5a <_out_rev+0x64>
20000b18:	6afb      	ldr	r3, [r7, #44]	; 0x2c
20000b1a:	617b      	str	r3, [r7, #20]
20000b1c:	e00a      	b.n	20000b34 <_out_rev+0x3e>
20000b1e:	687a      	ldr	r2, [r7, #4]
20000b20:	1c53      	adds	r3, r2, #1
20000b22:	607b      	str	r3, [r7, #4]
20000b24:	683b      	ldr	r3, [r7, #0]
20000b26:	68b9      	ldr	r1, [r7, #8]
20000b28:	68fc      	ldr	r4, [r7, #12]
20000b2a:	2020      	movs	r0, #32
20000b2c:	47a0      	blx	r4
20000b2e:	697b      	ldr	r3, [r7, #20]
20000b30:	3301      	adds	r3, #1
20000b32:	617b      	str	r3, [r7, #20]
20000b34:	697a      	ldr	r2, [r7, #20]
20000b36:	6b3b      	ldr	r3, [r7, #48]	; 0x30
20000b38:	429a      	cmp	r2, r3
20000b3a:	d3f0      	bcc.n	20000b1e <_out_rev+0x28>
20000b3c:	e00d      	b.n	20000b5a <_out_rev+0x64>
20000b3e:	6afb      	ldr	r3, [r7, #44]	; 0x2c
20000b40:	3b01      	subs	r3, #1
20000b42:	62fb      	str	r3, [r7, #44]	; 0x2c
20000b44:	6aba      	ldr	r2, [r7, #40]	; 0x28
20000b46:	6afb      	ldr	r3, [r7, #44]	; 0x2c
20000b48:	18d3      	adds	r3, r2, r3
20000b4a:	7818      	ldrb	r0, [r3, #0]
20000b4c:	687a      	ldr	r2, [r7, #4]
20000b4e:	1c53      	adds	r3, r2, #1
20000b50:	607b      	str	r3, [r7, #4]
20000b52:	683b      	ldr	r3, [r7, #0]
20000b54:	68b9      	ldr	r1, [r7, #8]
20000b56:	68fc      	ldr	r4, [r7, #12]
20000b58:	47a0      	blx	r4
20000b5a:	6afb      	ldr	r3, [r7, #44]	; 0x2c
20000b5c:	2b00      	cmp	r3, #0
20000b5e:	d1ee      	bne.n	20000b3e <_out_rev+0x48>
20000b60:	6b7b      	ldr	r3, [r7, #52]	; 0x34
20000b62:	2202      	movs	r2, #2
20000b64:	4013      	ands	r3, r2
20000b66:	d00e      	beq.n	20000b86 <_out_rev+0x90>
20000b68:	e007      	b.n	20000b7a <_out_rev+0x84>
20000b6a:	687a      	ldr	r2, [r7, #4]
20000b6c:	1c53      	adds	r3, r2, #1
20000b6e:	607b      	str	r3, [r7, #4]
20000b70:	683b      	ldr	r3, [r7, #0]
20000b72:	68b9      	ldr	r1, [r7, #8]
20000b74:	68fc      	ldr	r4, [r7, #12]
20000b76:	2020      	movs	r0, #32
20000b78:	47a0      	blx	r4
20000b7a:	687a      	ldr	r2, [r7, #4]
20000b7c:	693b      	ldr	r3, [r7, #16]
20000b7e:	1ad3      	subs	r3, r2, r3
20000b80:	6b3a      	ldr	r2, [r7, #48]	; 0x30
20000b82:	429a      	cmp	r2, r3
20000b84:	d8f1      	bhi.n	20000b6a <_out_rev+0x74>
20000b86:	687b      	ldr	r3, [r7, #4]
20000b88:	0018      	movs	r0, r3
20000b8a:	46bd      	mov	sp, r7
20000b8c:	b007      	add	sp, #28
20000b8e:	bd90      	pop	{r4, r7, pc}

20000b90 <_ntoa_format>:
20000b90:	b590      	push	{r4, r7, lr}
20000b92:	b089      	sub	sp, #36	; 0x24
20000b94:	af04      	add	r7, sp, #16
20000b96:	60f8      	str	r0, [r7, #12]
20000b98:	60b9      	str	r1, [r7, #8]
20000b9a:	607a      	str	r2, [r7, #4]
20000b9c:	603b      	str	r3, [r7, #0]
20000b9e:	6bbb      	ldr	r3, [r7, #56]	; 0x38
20000ba0:	2202      	movs	r2, #2
20000ba2:	4013      	ands	r3, r2
20000ba4:	d134      	bne.n	20000c10 <_ntoa_format+0x80>
20000ba6:	6b7b      	ldr	r3, [r7, #52]	; 0x34
20000ba8:	2b00      	cmp	r3, #0
20000baa:	d017      	beq.n	20000bdc <_ntoa_format+0x4c>
20000bac:	6bbb      	ldr	r3, [r7, #56]	; 0x38
20000bae:	2201      	movs	r2, #1
20000bb0:	4013      	ands	r3, r2
20000bb2:	d013      	beq.n	20000bdc <_ntoa_format+0x4c>
20000bb4:	2328      	movs	r3, #40	; 0x28
20000bb6:	18fb      	adds	r3, r7, r3
20000bb8:	781b      	ldrb	r3, [r3, #0]
20000bba:	2b00      	cmp	r3, #0
20000bbc:	d103      	bne.n	20000bc6 <_ntoa_format+0x36>
20000bbe:	6bbb      	ldr	r3, [r7, #56]	; 0x38
20000bc0:	220c      	movs	r2, #12
20000bc2:	4013      	ands	r3, r2
20000bc4:	d00a      	beq.n	20000bdc <_ntoa_format+0x4c>
20000bc6:	6b7b      	ldr	r3, [r7, #52]	; 0x34
20000bc8:	3b01      	subs	r3, #1
20000bca:	637b      	str	r3, [r7, #52]	; 0x34
20000bcc:	e006      	b.n	20000bdc <_ntoa_format+0x4c>
20000bce:	6a7b      	ldr	r3, [r7, #36]	; 0x24
20000bd0:	1c5a      	adds	r2, r3, #1
20000bd2:	627a      	str	r2, [r7, #36]	; 0x24
20000bd4:	6a3a      	ldr	r2, [r7, #32]
20000bd6:	18d3      	adds	r3, r2, r3
20000bd8:	2230      	movs	r2, #48	; 0x30
20000bda:	701a      	strb	r2, [r3, #0]
20000bdc:	6a7a      	ldr	r2, [r7, #36]	; 0x24
20000bde:	6b3b      	ldr	r3, [r7, #48]	; 0x30
20000be0:	429a      	cmp	r2, r3
20000be2:	d20a      	bcs.n	20000bfa <_ntoa_format+0x6a>
20000be4:	6a7b      	ldr	r3, [r7, #36]	; 0x24
20000be6:	2b1f      	cmp	r3, #31
20000be8:	d9f1      	bls.n	20000bce <_ntoa_format+0x3e>
20000bea:	e006      	b.n	20000bfa <_ntoa_format+0x6a>
20000bec:	6a7b      	ldr	r3, [r7, #36]	; 0x24
20000bee:	1c5a      	adds	r2, r3, #1
20000bf0:	627a      	str	r2, [r7, #36]	; 0x24
20000bf2:	6a3a      	ldr	r2, [r7, #32]
20000bf4:	18d3      	adds	r3, r2, r3
20000bf6:	2230      	movs	r2, #48	; 0x30
20000bf8:	701a      	strb	r2, [r3, #0]
20000bfa:	6bbb      	ldr	r3, [r7, #56]	; 0x38
20000bfc:	2201      	movs	r2, #1
20000bfe:	4013      	ands	r3, r2
20000c00:	d006      	beq.n	20000c10 <_ntoa_format+0x80>
20000c02:	6a7a      	ldr	r2, [r7, #36]	; 0x24
20000c04:	6b7b      	ldr	r3, [r7, #52]	; 0x34
20000c06:	429a      	cmp	r2, r3
20000c08:	d202      	bcs.n	20000c10 <_ntoa_format+0x80>
20000c0a:	6a7b      	ldr	r3, [r7, #36]	; 0x24
20000c0c:	2b1f      	cmp	r3, #31
20000c0e:	d9ed      	bls.n	20000bec <_ntoa_format+0x5c>
20000c10:	6bbb      	ldr	r3, [r7, #56]	; 0x38
20000c12:	2210      	movs	r2, #16
20000c14:	4013      	ands	r3, r2
20000c16:	d056      	beq.n	20000cc6 <_ntoa_format+0x136>
20000c18:	6bba      	ldr	r2, [r7, #56]	; 0x38
20000c1a:	2380      	movs	r3, #128	; 0x80
20000c1c:	00db      	lsls	r3, r3, #3
20000c1e:	4013      	ands	r3, r2
20000c20:	d116      	bne.n	20000c50 <_ntoa_format+0xc0>
20000c22:	6a7b      	ldr	r3, [r7, #36]	; 0x24
20000c24:	2b00      	cmp	r3, #0
20000c26:	d013      	beq.n	20000c50 <_ntoa_format+0xc0>
20000c28:	6a7a      	ldr	r2, [r7, #36]	; 0x24
20000c2a:	6b3b      	ldr	r3, [r7, #48]	; 0x30
20000c2c:	429a      	cmp	r2, r3
20000c2e:	d003      	beq.n	20000c38 <_ntoa_format+0xa8>
20000c30:	6a7a      	ldr	r2, [r7, #36]	; 0x24
20000c32:	6b7b      	ldr	r3, [r7, #52]	; 0x34
20000c34:	429a      	cmp	r2, r3
20000c36:	d10b      	bne.n	20000c50 <_ntoa_format+0xc0>
20000c38:	6a7b      	ldr	r3, [r7, #36]	; 0x24
20000c3a:	3b01      	subs	r3, #1
20000c3c:	627b      	str	r3, [r7, #36]	; 0x24
20000c3e:	6a7b      	ldr	r3, [r7, #36]	; 0x24
20000c40:	2b00      	cmp	r3, #0
20000c42:	d005      	beq.n	20000c50 <_ntoa_format+0xc0>
20000c44:	6afb      	ldr	r3, [r7, #44]	; 0x2c
20000c46:	2b10      	cmp	r3, #16
20000c48:	d102      	bne.n	20000c50 <_ntoa_format+0xc0>
20000c4a:	6a7b      	ldr	r3, [r7, #36]	; 0x24
20000c4c:	3b01      	subs	r3, #1
20000c4e:	627b      	str	r3, [r7, #36]	; 0x24
20000c50:	6afb      	ldr	r3, [r7, #44]	; 0x2c
20000c52:	2b10      	cmp	r3, #16
20000c54:	d10e      	bne.n	20000c74 <_ntoa_format+0xe4>
20000c56:	6bbb      	ldr	r3, [r7, #56]	; 0x38
20000c58:	2220      	movs	r2, #32
20000c5a:	4013      	ands	r3, r2
20000c5c:	d10a      	bne.n	20000c74 <_ntoa_format+0xe4>
20000c5e:	6a7b      	ldr	r3, [r7, #36]	; 0x24
20000c60:	2b1f      	cmp	r3, #31
20000c62:	d807      	bhi.n	20000c74 <_ntoa_format+0xe4>
20000c64:	6a7b      	ldr	r3, [r7, #36]	; 0x24
20000c66:	1c5a      	adds	r2, r3, #1
20000c68:	627a      	str	r2, [r7, #36]	; 0x24
20000c6a:	6a3a      	ldr	r2, [r7, #32]
20000c6c:	18d3      	adds	r3, r2, r3
20000c6e:	2278      	movs	r2, #120	; 0x78
20000c70:	701a      	strb	r2, [r3, #0]
20000c72:	e01e      	b.n	20000cb2 <_ntoa_format+0x122>
20000c74:	6afb      	ldr	r3, [r7, #44]	; 0x2c
20000c76:	2b10      	cmp	r3, #16
20000c78:	d10e      	bne.n	20000c98 <_ntoa_format+0x108>
20000c7a:	6bbb      	ldr	r3, [r7, #56]	; 0x38
20000c7c:	2220      	movs	r2, #32
20000c7e:	4013      	ands	r3, r2
20000c80:	d00a      	beq.n	20000c98 <_ntoa_format+0x108>
20000c82:	6a7b      	ldr	r3, [r7, #36]	; 0x24
20000c84:	2b1f      	cmp	r3, #31
20000c86:	d807      	bhi.n	20000c98 <_ntoa_format+0x108>
20000c88:	6a7b      	ldr	r3, [r7, #36]	; 0x24
20000c8a:	1c5a      	adds	r2, r3, #1
20000c8c:	627a      	str	r2, [r7, #36]	; 0x24
20000c8e:	6a3a      	ldr	r2, [r7, #32]
20000c90:	18d3      	adds	r3, r2, r3
20000c92:	2258      	movs	r2, #88	; 0x58
20000c94:	701a      	strb	r2, [r3, #0]
20000c96:	e00c      	b.n	20000cb2 <_ntoa_format+0x122>
20000c98:	6afb      	ldr	r3, [r7, #44]	; 0x2c
20000c9a:	2b02      	cmp	r3, #2
20000c9c:	d109      	bne.n	20000cb2 <_ntoa_format+0x122>
20000c9e:	6a7b      	ldr	r3, [r7, #36]	; 0x24
20000ca0:	2b1f      	cmp	r3, #31
20000ca2:	d806      	bhi.n	20000cb2 <_ntoa_format+0x122>
20000ca4:	6a7b      	ldr	r3, [r7, #36]	; 0x24
20000ca6:	1c5a      	adds	r2, r3, #1
20000ca8:	627a      	str	r2, [r7, #36]	; 0x24
20000caa:	6a3a      	ldr	r2, [r7, #32]
20000cac:	18d3      	adds	r3, r2, r3
20000cae:	2262      	movs	r2, #98	; 0x62
20000cb0:	701a      	strb	r2, [r3, #0]
20000cb2:	6a7b      	ldr	r3, [r7, #36]	; 0x24
20000cb4:	2b1f      	cmp	r3, #31
20000cb6:	d806      	bhi.n	20000cc6 <_ntoa_format+0x136>
20000cb8:	6a7b      	ldr	r3, [r7, #36]	; 0x24
20000cba:	1c5a      	adds	r2, r3, #1
20000cbc:	627a      	str	r2, [r7, #36]	; 0x24
20000cbe:	6a3a      	ldr	r2, [r7, #32]
20000cc0:	18d3      	adds	r3, r2, r3
20000cc2:	2230      	movs	r2, #48	; 0x30
20000cc4:	701a      	strb	r2, [r3, #0]
20000cc6:	6a7b      	ldr	r3, [r7, #36]	; 0x24
20000cc8:	2b1f      	cmp	r3, #31
20000cca:	d823      	bhi.n	20000d14 <_ntoa_format+0x184>
20000ccc:	2328      	movs	r3, #40	; 0x28
20000cce:	18fb      	adds	r3, r7, r3
20000cd0:	781b      	ldrb	r3, [r3, #0]
20000cd2:	2b00      	cmp	r3, #0
20000cd4:	d007      	beq.n	20000ce6 <_ntoa_format+0x156>
20000cd6:	6a7b      	ldr	r3, [r7, #36]	; 0x24
20000cd8:	1c5a      	adds	r2, r3, #1
20000cda:	627a      	str	r2, [r7, #36]	; 0x24
20000cdc:	6a3a      	ldr	r2, [r7, #32]
20000cde:	18d3      	adds	r3, r2, r3
20000ce0:	222d      	movs	r2, #45	; 0x2d
20000ce2:	701a      	strb	r2, [r3, #0]
20000ce4:	e016      	b.n	20000d14 <_ntoa_format+0x184>
20000ce6:	6bbb      	ldr	r3, [r7, #56]	; 0x38
20000ce8:	2204      	movs	r2, #4
20000cea:	4013      	ands	r3, r2
20000cec:	d007      	beq.n	20000cfe <_ntoa_format+0x16e>
20000cee:	6a7b      	ldr	r3, [r7, #36]	; 0x24
20000cf0:	1c5a      	adds	r2, r3, #1
20000cf2:	627a      	str	r2, [r7, #36]	; 0x24
20000cf4:	6a3a      	ldr	r2, [r7, #32]
20000cf6:	18d3      	adds	r3, r2, r3
20000cf8:	222b      	movs	r2, #43	; 0x2b
20000cfa:	701a      	strb	r2, [r3, #0]
20000cfc:	e00a      	b.n	20000d14 <_ntoa_format+0x184>
20000cfe:	6bbb      	ldr	r3, [r7, #56]	; 0x38
20000d00:	2208      	movs	r2, #8
20000d02:	4013      	ands	r3, r2
20000d04:	d006      	beq.n	20000d14 <_ntoa_format+0x184>
20000d06:	6a7b      	ldr	r3, [r7, #36]	; 0x24
20000d08:	1c5a      	adds	r2, r3, #1
20000d0a:	627a      	str	r2, [r7, #36]	; 0x24
20000d0c:	6a3a      	ldr	r2, [r7, #32]
20000d0e:	18d3      	adds	r3, r2, r3
20000d10:	2220      	movs	r2, #32
20000d12:	701a      	strb	r2, [r3, #0]
20000d14:	683c      	ldr	r4, [r7, #0]
20000d16:	687a      	ldr	r2, [r7, #4]
20000d18:	68b9      	ldr	r1, [r7, #8]
20000d1a:	68f8      	ldr	r0, [r7, #12]
20000d1c:	6bbb      	ldr	r3, [r7, #56]	; 0x38
20000d1e:	9303      	str	r3, [sp, #12]
20000d20:	6b7b      	ldr	r3, [r7, #52]	; 0x34
20000d22:	9302      	str	r3, [sp, #8]
20000d24:	6a7b      	ldr	r3, [r7, #36]	; 0x24
20000d26:	9301      	str	r3, [sp, #4]
20000d28:	6a3b      	ldr	r3, [r7, #32]
20000d2a:	9300      	str	r3, [sp, #0]
20000d2c:	0023      	movs	r3, r4
20000d2e:	f7ff fee2 	bl	20000af6 <_out_rev>
20000d32:	0003      	movs	r3, r0
20000d34:	0018      	movs	r0, r3
20000d36:	46bd      	mov	sp, r7
20000d38:	b005      	add	sp, #20
20000d3a:	bd90      	pop	{r4, r7, pc}

20000d3c <_ntoa_long>:
20000d3c:	b590      	push	{r4, r7, lr}
20000d3e:	b097      	sub	sp, #92	; 0x5c
20000d40:	af08      	add	r7, sp, #32
20000d42:	60f8      	str	r0, [r7, #12]
20000d44:	60b9      	str	r1, [r7, #8]
20000d46:	607a      	str	r2, [r7, #4]
20000d48:	603b      	str	r3, [r7, #0]
20000d4a:	2300      	movs	r3, #0
20000d4c:	637b      	str	r3, [r7, #52]	; 0x34
20000d4e:	6cbb      	ldr	r3, [r7, #72]	; 0x48
20000d50:	2b00      	cmp	r3, #0
20000d52:	d103      	bne.n	20000d5c <_ntoa_long+0x20>
20000d54:	6dfb      	ldr	r3, [r7, #92]	; 0x5c
20000d56:	2210      	movs	r2, #16
20000d58:	4393      	bics	r3, r2
20000d5a:	65fb      	str	r3, [r7, #92]	; 0x5c
20000d5c:	6dfa      	ldr	r2, [r7, #92]	; 0x5c
20000d5e:	2380      	movs	r3, #128	; 0x80
20000d60:	00db      	lsls	r3, r3, #3
20000d62:	4013      	ands	r3, r2
20000d64:	d002      	beq.n	20000d6c <_ntoa_long+0x30>
20000d66:	6cbb      	ldr	r3, [r7, #72]	; 0x48
20000d68:	2b00      	cmp	r3, #0
20000d6a:	d035      	beq.n	20000dd8 <_ntoa_long+0x9c>
20000d6c:	6cbb      	ldr	r3, [r7, #72]	; 0x48
20000d6e:	6d3a      	ldr	r2, [r7, #80]	; 0x50
20000d70:	0011      	movs	r1, r2
20000d72:	0018      	movs	r0, r3
20000d74:	f7ff fde5 	bl	20000942 <imod>
20000d78:	0002      	movs	r2, r0
20000d7a:	2133      	movs	r1, #51	; 0x33
20000d7c:	187b      	adds	r3, r7, r1
20000d7e:	701a      	strb	r2, [r3, #0]
20000d80:	000a      	movs	r2, r1
20000d82:	18bb      	adds	r3, r7, r2
20000d84:	781b      	ldrb	r3, [r3, #0]
20000d86:	2b09      	cmp	r3, #9
20000d88:	d804      	bhi.n	20000d94 <_ntoa_long+0x58>
20000d8a:	18bb      	adds	r3, r7, r2
20000d8c:	781b      	ldrb	r3, [r3, #0]
20000d8e:	3330      	adds	r3, #48	; 0x30
20000d90:	b2da      	uxtb	r2, r3
20000d92:	e00d      	b.n	20000db0 <_ntoa_long+0x74>
20000d94:	6dfb      	ldr	r3, [r7, #92]	; 0x5c
20000d96:	2220      	movs	r2, #32
20000d98:	4013      	ands	r3, r2
20000d9a:	d001      	beq.n	20000da0 <_ntoa_long+0x64>
20000d9c:	2341      	movs	r3, #65	; 0x41
20000d9e:	e000      	b.n	20000da2 <_ntoa_long+0x66>
20000da0:	2361      	movs	r3, #97	; 0x61
20000da2:	2233      	movs	r2, #51	; 0x33
20000da4:	18ba      	adds	r2, r7, r2
20000da6:	7812      	ldrb	r2, [r2, #0]
20000da8:	189b      	adds	r3, r3, r2
20000daa:	b2db      	uxtb	r3, r3
20000dac:	3b0a      	subs	r3, #10
20000dae:	b2da      	uxtb	r2, r3
20000db0:	6b7b      	ldr	r3, [r7, #52]	; 0x34
20000db2:	1c59      	adds	r1, r3, #1
20000db4:	6379      	str	r1, [r7, #52]	; 0x34
20000db6:	2110      	movs	r1, #16
20000db8:	1879      	adds	r1, r7, r1
20000dba:	54ca      	strb	r2, [r1, r3]
20000dbc:	6d3a      	ldr	r2, [r7, #80]	; 0x50
20000dbe:	6cbb      	ldr	r3, [r7, #72]	; 0x48
20000dc0:	0011      	movs	r1, r2
20000dc2:	0018      	movs	r0, r3
20000dc4:	f7ff fd7b 	bl	200008be <udiv>
20000dc8:	0003      	movs	r3, r0
20000dca:	64bb      	str	r3, [r7, #72]	; 0x48
20000dcc:	6cbb      	ldr	r3, [r7, #72]	; 0x48
20000dce:	2b00      	cmp	r3, #0
20000dd0:	d002      	beq.n	20000dd8 <_ntoa_long+0x9c>
20000dd2:	6b7b      	ldr	r3, [r7, #52]	; 0x34
20000dd4:	2b1f      	cmp	r3, #31
20000dd6:	d9c9      	bls.n	20000d6c <_ntoa_long+0x30>
20000dd8:	683c      	ldr	r4, [r7, #0]
20000dda:	687a      	ldr	r2, [r7, #4]
20000ddc:	68b9      	ldr	r1, [r7, #8]
20000dde:	68f8      	ldr	r0, [r7, #12]
20000de0:	6dfb      	ldr	r3, [r7, #92]	; 0x5c
20000de2:	9306      	str	r3, [sp, #24]
20000de4:	6dbb      	ldr	r3, [r7, #88]	; 0x58
20000de6:	9305      	str	r3, [sp, #20]
20000de8:	6d7b      	ldr	r3, [r7, #84]	; 0x54
20000dea:	9304      	str	r3, [sp, #16]
20000dec:	6d3b      	ldr	r3, [r7, #80]	; 0x50
20000dee:	9303      	str	r3, [sp, #12]
20000df0:	234c      	movs	r3, #76	; 0x4c
20000df2:	18fb      	adds	r3, r7, r3
20000df4:	781b      	ldrb	r3, [r3, #0]
20000df6:	9302      	str	r3, [sp, #8]
20000df8:	6b7b      	ldr	r3, [r7, #52]	; 0x34
20000dfa:	9301      	str	r3, [sp, #4]
20000dfc:	2310      	movs	r3, #16
20000dfe:	18fb      	adds	r3, r7, r3
20000e00:	9300      	str	r3, [sp, #0]
20000e02:	0023      	movs	r3, r4
20000e04:	f7ff fec4 	bl	20000b90 <_ntoa_format>
20000e08:	0003      	movs	r3, r0
20000e0a:	0018      	movs	r0, r3
20000e0c:	46bd      	mov	sp, r7
20000e0e:	b00f      	add	sp, #60	; 0x3c
20000e10:	bd90      	pop	{r4, r7, pc}

20000e12 <_vsnprintf>:
20000e12:	b5f0      	push	{r4, r5, r6, r7, lr}
20000e14:	b099      	sub	sp, #100	; 0x64
20000e16:	af06      	add	r7, sp, #24
20000e18:	60f8      	str	r0, [r7, #12]
20000e1a:	60b9      	str	r1, [r7, #8]
20000e1c:	607a      	str	r2, [r7, #4]
20000e1e:	603b      	str	r3, [r7, #0]
20000e20:	2300      	movs	r3, #0
20000e22:	637b      	str	r3, [r7, #52]	; 0x34
20000e24:	68bb      	ldr	r3, [r7, #8]
20000e26:	2b00      	cmp	r3, #0
20000e28:	d000      	beq.n	20000e2c <_vsnprintf+0x1a>
20000e2a:	e2e1      	b.n	200013f0 <_vsnprintf+0x5de>
20000e2c:	4bc6      	ldr	r3, [pc, #792]	; (20001148 <_vsnprintf+0x336>)
20000e2e:	60fb      	str	r3, [r7, #12]
20000e30:	e2de      	b.n	200013f0 <_vsnprintf+0x5de>
20000e32:	683b      	ldr	r3, [r7, #0]
20000e34:	781b      	ldrb	r3, [r3, #0]
20000e36:	2b25      	cmp	r3, #37	; 0x25
20000e38:	d00c      	beq.n	20000e54 <_vsnprintf+0x42>
20000e3a:	683b      	ldr	r3, [r7, #0]
20000e3c:	7818      	ldrb	r0, [r3, #0]
20000e3e:	6b7a      	ldr	r2, [r7, #52]	; 0x34
20000e40:	1c53      	adds	r3, r2, #1
20000e42:	637b      	str	r3, [r7, #52]	; 0x34
20000e44:	687b      	ldr	r3, [r7, #4]
20000e46:	68b9      	ldr	r1, [r7, #8]
20000e48:	68fc      	ldr	r4, [r7, #12]
20000e4a:	47a0      	blx	r4
20000e4c:	683b      	ldr	r3, [r7, #0]
20000e4e:	3301      	adds	r3, #1
20000e50:	603b      	str	r3, [r7, #0]
20000e52:	e2cd      	b.n	200013f0 <_vsnprintf+0x5de>
20000e54:	683b      	ldr	r3, [r7, #0]
20000e56:	3301      	adds	r3, #1
20000e58:	603b      	str	r3, [r7, #0]
20000e5a:	2300      	movs	r3, #0
20000e5c:	647b      	str	r3, [r7, #68]	; 0x44
20000e5e:	683b      	ldr	r3, [r7, #0]
20000e60:	781b      	ldrb	r3, [r3, #0]
20000e62:	3b20      	subs	r3, #32
20000e64:	2b10      	cmp	r3, #16
20000e66:	d836      	bhi.n	20000ed6 <_vsnprintf+0xc4>
20000e68:	009a      	lsls	r2, r3, #2
20000e6a:	4bb8      	ldr	r3, [pc, #736]	; (2000114c <_vsnprintf+0x33a>)
20000e6c:	18d3      	adds	r3, r2, r3
20000e6e:	681b      	ldr	r3, [r3, #0]
20000e70:	469f      	mov	pc, r3
20000e72:	6c7b      	ldr	r3, [r7, #68]	; 0x44
20000e74:	2201      	movs	r2, #1
20000e76:	4313      	orrs	r3, r2
20000e78:	647b      	str	r3, [r7, #68]	; 0x44
20000e7a:	683b      	ldr	r3, [r7, #0]
20000e7c:	3301      	adds	r3, #1
20000e7e:	603b      	str	r3, [r7, #0]
20000e80:	2301      	movs	r3, #1
20000e82:	63bb      	str	r3, [r7, #56]	; 0x38
20000e84:	e02a      	b.n	20000edc <_vsnprintf+0xca>
20000e86:	6c7b      	ldr	r3, [r7, #68]	; 0x44
20000e88:	2202      	movs	r2, #2
20000e8a:	4313      	orrs	r3, r2
20000e8c:	647b      	str	r3, [r7, #68]	; 0x44
20000e8e:	683b      	ldr	r3, [r7, #0]
20000e90:	3301      	adds	r3, #1
20000e92:	603b      	str	r3, [r7, #0]
20000e94:	2301      	movs	r3, #1
20000e96:	63bb      	str	r3, [r7, #56]	; 0x38
20000e98:	e020      	b.n	20000edc <_vsnprintf+0xca>
20000e9a:	6c7b      	ldr	r3, [r7, #68]	; 0x44
20000e9c:	2204      	movs	r2, #4
20000e9e:	4313      	orrs	r3, r2
20000ea0:	647b      	str	r3, [r7, #68]	; 0x44
20000ea2:	683b      	ldr	r3, [r7, #0]
20000ea4:	3301      	adds	r3, #1
20000ea6:	603b      	str	r3, [r7, #0]
20000ea8:	2301      	movs	r3, #1
20000eaa:	63bb      	str	r3, [r7, #56]	; 0x38
20000eac:	e016      	b.n	20000edc <_vsnprintf+0xca>
20000eae:	6c7b      	ldr	r3, [r7, #68]	; 0x44
20000eb0:	2208      	movs	r2, #8
20000eb2:	4313      	orrs	r3, r2
20000eb4:	647b      	str	r3, [r7, #68]	; 0x44
20000eb6:	683b      	ldr	r3, [r7, #0]
20000eb8:	3301      	adds	r3, #1
20000eba:	603b      	str	r3, [r7, #0]
20000ebc:	2301      	movs	r3, #1
20000ebe:	63bb      	str	r3, [r7, #56]	; 0x38
20000ec0:	e00c      	b.n	20000edc <_vsnprintf+0xca>
20000ec2:	6c7b      	ldr	r3, [r7, #68]	; 0x44
20000ec4:	2210      	movs	r2, #16
20000ec6:	4313      	orrs	r3, r2
20000ec8:	647b      	str	r3, [r7, #68]	; 0x44
20000eca:	683b      	ldr	r3, [r7, #0]
20000ecc:	3301      	adds	r3, #1
20000ece:	603b      	str	r3, [r7, #0]
20000ed0:	2301      	movs	r3, #1
20000ed2:	63bb      	str	r3, [r7, #56]	; 0x38
20000ed4:	e002      	b.n	20000edc <_vsnprintf+0xca>
20000ed6:	2300      	movs	r3, #0
20000ed8:	63bb      	str	r3, [r7, #56]	; 0x38
20000eda:	46c0      	nop			; (mov r8, r8)
20000edc:	6bbb      	ldr	r3, [r7, #56]	; 0x38
20000ede:	2b00      	cmp	r3, #0
20000ee0:	d1bd      	bne.n	20000e5e <_vsnprintf+0x4c>
20000ee2:	2300      	movs	r3, #0
20000ee4:	643b      	str	r3, [r7, #64]	; 0x40
20000ee6:	683b      	ldr	r3, [r7, #0]
20000ee8:	781b      	ldrb	r3, [r3, #0]
20000eea:	0018      	movs	r0, r3
20000eec:	f7ff fdc7 	bl	20000a7e <_is_digit>
20000ef0:	1e03      	subs	r3, r0, #0
20000ef2:	d006      	beq.n	20000f02 <_vsnprintf+0xf0>
20000ef4:	003b      	movs	r3, r7
20000ef6:	0018      	movs	r0, r3
20000ef8:	f7ff fdda 	bl	20000ab0 <_atoi>
20000efc:	0003      	movs	r3, r0
20000efe:	643b      	str	r3, [r7, #64]	; 0x40
20000f00:	e018      	b.n	20000f34 <_vsnprintf+0x122>
20000f02:	683b      	ldr	r3, [r7, #0]
20000f04:	781b      	ldrb	r3, [r3, #0]
20000f06:	2b2a      	cmp	r3, #42	; 0x2a
20000f08:	d114      	bne.n	20000f34 <_vsnprintf+0x122>
20000f0a:	6e3b      	ldr	r3, [r7, #96]	; 0x60
20000f0c:	1d1a      	adds	r2, r3, #4
20000f0e:	663a      	str	r2, [r7, #96]	; 0x60
20000f10:	681b      	ldr	r3, [r3, #0]
20000f12:	623b      	str	r3, [r7, #32]
20000f14:	6a3b      	ldr	r3, [r7, #32]
20000f16:	2b00      	cmp	r3, #0
20000f18:	da07      	bge.n	20000f2a <_vsnprintf+0x118>
20000f1a:	6c7b      	ldr	r3, [r7, #68]	; 0x44
20000f1c:	2202      	movs	r2, #2
20000f1e:	4313      	orrs	r3, r2
20000f20:	647b      	str	r3, [r7, #68]	; 0x44
20000f22:	6a3b      	ldr	r3, [r7, #32]
20000f24:	425b      	negs	r3, r3
20000f26:	643b      	str	r3, [r7, #64]	; 0x40
20000f28:	e001      	b.n	20000f2e <_vsnprintf+0x11c>
20000f2a:	6a3b      	ldr	r3, [r7, #32]
20000f2c:	643b      	str	r3, [r7, #64]	; 0x40
20000f2e:	683b      	ldr	r3, [r7, #0]
20000f30:	3301      	adds	r3, #1
20000f32:	603b      	str	r3, [r7, #0]
20000f34:	2300      	movs	r3, #0
20000f36:	63fb      	str	r3, [r7, #60]	; 0x3c
20000f38:	683b      	ldr	r3, [r7, #0]
20000f3a:	781b      	ldrb	r3, [r3, #0]
20000f3c:	2b2e      	cmp	r3, #46	; 0x2e
20000f3e:	d126      	bne.n	20000f8e <_vsnprintf+0x17c>
20000f40:	6c7b      	ldr	r3, [r7, #68]	; 0x44
20000f42:	2280      	movs	r2, #128	; 0x80
20000f44:	00d2      	lsls	r2, r2, #3
20000f46:	4313      	orrs	r3, r2
20000f48:	647b      	str	r3, [r7, #68]	; 0x44
20000f4a:	683b      	ldr	r3, [r7, #0]
20000f4c:	3301      	adds	r3, #1
20000f4e:	603b      	str	r3, [r7, #0]
20000f50:	683b      	ldr	r3, [r7, #0]
20000f52:	781b      	ldrb	r3, [r3, #0]
20000f54:	0018      	movs	r0, r3
20000f56:	f7ff fd92 	bl	20000a7e <_is_digit>
20000f5a:	1e03      	subs	r3, r0, #0
20000f5c:	d006      	beq.n	20000f6c <_vsnprintf+0x15a>
20000f5e:	003b      	movs	r3, r7
20000f60:	0018      	movs	r0, r3
20000f62:	f7ff fda5 	bl	20000ab0 <_atoi>
20000f66:	0003      	movs	r3, r0
20000f68:	63fb      	str	r3, [r7, #60]	; 0x3c
20000f6a:	e010      	b.n	20000f8e <_vsnprintf+0x17c>
20000f6c:	683b      	ldr	r3, [r7, #0]
20000f6e:	781b      	ldrb	r3, [r3, #0]
20000f70:	2b2a      	cmp	r3, #42	; 0x2a
20000f72:	d10c      	bne.n	20000f8e <_vsnprintf+0x17c>
20000f74:	6e3b      	ldr	r3, [r7, #96]	; 0x60
20000f76:	1d1a      	adds	r2, r3, #4
20000f78:	663a      	str	r2, [r7, #96]	; 0x60
20000f7a:	681b      	ldr	r3, [r3, #0]
20000f7c:	61fb      	str	r3, [r7, #28]
20000f7e:	69fb      	ldr	r3, [r7, #28]
20000f80:	2b00      	cmp	r3, #0
20000f82:	da00      	bge.n	20000f86 <_vsnprintf+0x174>
20000f84:	2300      	movs	r3, #0
20000f86:	63fb      	str	r3, [r7, #60]	; 0x3c
20000f88:	683b      	ldr	r3, [r7, #0]
20000f8a:	3301      	adds	r3, #1
20000f8c:	603b      	str	r3, [r7, #0]
20000f8e:	683b      	ldr	r3, [r7, #0]
20000f90:	781b      	ldrb	r3, [r3, #0]
20000f92:	2b7a      	cmp	r3, #122	; 0x7a
20000f94:	d039      	beq.n	2000100a <_vsnprintf+0x1f8>
20000f96:	dc41      	bgt.n	2000101c <_vsnprintf+0x20a>
20000f98:	2b6c      	cmp	r3, #108	; 0x6c
20000f9a:	d005      	beq.n	20000fa8 <_vsnprintf+0x196>
20000f9c:	dc3e      	bgt.n	2000101c <_vsnprintf+0x20a>
20000f9e:	2b68      	cmp	r3, #104	; 0x68
20000fa0:	d017      	beq.n	20000fd2 <_vsnprintf+0x1c0>
20000fa2:	2b6a      	cmp	r3, #106	; 0x6a
20000fa4:	d028      	beq.n	20000ff8 <_vsnprintf+0x1e6>
20000fa6:	e039      	b.n	2000101c <_vsnprintf+0x20a>
20000fa8:	6c7b      	ldr	r3, [r7, #68]	; 0x44
20000faa:	2280      	movs	r2, #128	; 0x80
20000fac:	0052      	lsls	r2, r2, #1
20000fae:	4313      	orrs	r3, r2
20000fb0:	647b      	str	r3, [r7, #68]	; 0x44
20000fb2:	683b      	ldr	r3, [r7, #0]
20000fb4:	3301      	adds	r3, #1
20000fb6:	603b      	str	r3, [r7, #0]
20000fb8:	683b      	ldr	r3, [r7, #0]
20000fba:	781b      	ldrb	r3, [r3, #0]
20000fbc:	2b6c      	cmp	r3, #108	; 0x6c
20000fbe:	d12f      	bne.n	20001020 <_vsnprintf+0x20e>
20000fc0:	6c7b      	ldr	r3, [r7, #68]	; 0x44
20000fc2:	2280      	movs	r2, #128	; 0x80
20000fc4:	0092      	lsls	r2, r2, #2
20000fc6:	4313      	orrs	r3, r2
20000fc8:	647b      	str	r3, [r7, #68]	; 0x44
20000fca:	683b      	ldr	r3, [r7, #0]
20000fcc:	3301      	adds	r3, #1
20000fce:	603b      	str	r3, [r7, #0]
20000fd0:	e026      	b.n	20001020 <_vsnprintf+0x20e>
20000fd2:	6c7b      	ldr	r3, [r7, #68]	; 0x44
20000fd4:	2280      	movs	r2, #128	; 0x80
20000fd6:	4313      	orrs	r3, r2
20000fd8:	647b      	str	r3, [r7, #68]	; 0x44
20000fda:	683b      	ldr	r3, [r7, #0]
20000fdc:	3301      	adds	r3, #1
20000fde:	603b      	str	r3, [r7, #0]
20000fe0:	683b      	ldr	r3, [r7, #0]
20000fe2:	781b      	ldrb	r3, [r3, #0]
20000fe4:	2b68      	cmp	r3, #104	; 0x68
20000fe6:	d11d      	bne.n	20001024 <_vsnprintf+0x212>
20000fe8:	6c7b      	ldr	r3, [r7, #68]	; 0x44
20000fea:	2240      	movs	r2, #64	; 0x40
20000fec:	4313      	orrs	r3, r2
20000fee:	647b      	str	r3, [r7, #68]	; 0x44
20000ff0:	683b      	ldr	r3, [r7, #0]
20000ff2:	3301      	adds	r3, #1
20000ff4:	603b      	str	r3, [r7, #0]
20000ff6:	e015      	b.n	20001024 <_vsnprintf+0x212>
20000ff8:	6c7b      	ldr	r3, [r7, #68]	; 0x44
20000ffa:	2280      	movs	r2, #128	; 0x80
20000ffc:	0092      	lsls	r2, r2, #2
20000ffe:	4313      	orrs	r3, r2
20001000:	647b      	str	r3, [r7, #68]	; 0x44
20001002:	683b      	ldr	r3, [r7, #0]
20001004:	3301      	adds	r3, #1
20001006:	603b      	str	r3, [r7, #0]
20001008:	e00d      	b.n	20001026 <_vsnprintf+0x214>
2000100a:	6c7b      	ldr	r3, [r7, #68]	; 0x44
2000100c:	2280      	movs	r2, #128	; 0x80
2000100e:	0052      	lsls	r2, r2, #1
20001010:	4313      	orrs	r3, r2
20001012:	647b      	str	r3, [r7, #68]	; 0x44
20001014:	683b      	ldr	r3, [r7, #0]
20001016:	3301      	adds	r3, #1
20001018:	603b      	str	r3, [r7, #0]
2000101a:	e004      	b.n	20001026 <_vsnprintf+0x214>
2000101c:	46c0      	nop			; (mov r8, r8)
2000101e:	e002      	b.n	20001026 <_vsnprintf+0x214>
20001020:	46c0      	nop			; (mov r8, r8)
20001022:	e000      	b.n	20001026 <_vsnprintf+0x214>
20001024:	46c0      	nop			; (mov r8, r8)
20001026:	683b      	ldr	r3, [r7, #0]
20001028:	781b      	ldrb	r3, [r3, #0]
2000102a:	3b25      	subs	r3, #37	; 0x25
2000102c:	2b53      	cmp	r3, #83	; 0x53
2000102e:	d900      	bls.n	20001032 <_vsnprintf+0x220>
20001030:	e1d1      	b.n	200013d6 <_vsnprintf+0x5c4>
20001032:	009a      	lsls	r2, r3, #2
20001034:	4b46      	ldr	r3, [pc, #280]	; (20001150 <_vsnprintf+0x33e>)
20001036:	18d3      	adds	r3, r2, r3
20001038:	681b      	ldr	r3, [r3, #0]
2000103a:	469f      	mov	pc, r3
2000103c:	683b      	ldr	r3, [r7, #0]
2000103e:	781b      	ldrb	r3, [r3, #0]
20001040:	2b78      	cmp	r3, #120	; 0x78
20001042:	d003      	beq.n	2000104c <_vsnprintf+0x23a>
20001044:	683b      	ldr	r3, [r7, #0]
20001046:	781b      	ldrb	r3, [r3, #0]
20001048:	2b58      	cmp	r3, #88	; 0x58
2000104a:	d102      	bne.n	20001052 <_vsnprintf+0x240>
2000104c:	2310      	movs	r3, #16
2000104e:	633b      	str	r3, [r7, #48]	; 0x30
20001050:	e013      	b.n	2000107a <_vsnprintf+0x268>
20001052:	683b      	ldr	r3, [r7, #0]
20001054:	781b      	ldrb	r3, [r3, #0]
20001056:	2b6f      	cmp	r3, #111	; 0x6f
20001058:	d102      	bne.n	20001060 <_vsnprintf+0x24e>
2000105a:	2308      	movs	r3, #8
2000105c:	633b      	str	r3, [r7, #48]	; 0x30
2000105e:	e00c      	b.n	2000107a <_vsnprintf+0x268>
20001060:	683b      	ldr	r3, [r7, #0]
20001062:	781b      	ldrb	r3, [r3, #0]
20001064:	2b62      	cmp	r3, #98	; 0x62
20001066:	d102      	bne.n	2000106e <_vsnprintf+0x25c>
20001068:	2302      	movs	r3, #2
2000106a:	633b      	str	r3, [r7, #48]	; 0x30
2000106c:	e005      	b.n	2000107a <_vsnprintf+0x268>
2000106e:	230a      	movs	r3, #10
20001070:	633b      	str	r3, [r7, #48]	; 0x30
20001072:	6c7b      	ldr	r3, [r7, #68]	; 0x44
20001074:	2210      	movs	r2, #16
20001076:	4393      	bics	r3, r2
20001078:	647b      	str	r3, [r7, #68]	; 0x44
2000107a:	683b      	ldr	r3, [r7, #0]
2000107c:	781b      	ldrb	r3, [r3, #0]
2000107e:	2b58      	cmp	r3, #88	; 0x58
20001080:	d103      	bne.n	2000108a <_vsnprintf+0x278>
20001082:	6c7b      	ldr	r3, [r7, #68]	; 0x44
20001084:	2220      	movs	r2, #32
20001086:	4313      	orrs	r3, r2
20001088:	647b      	str	r3, [r7, #68]	; 0x44
2000108a:	683b      	ldr	r3, [r7, #0]
2000108c:	781b      	ldrb	r3, [r3, #0]
2000108e:	2b69      	cmp	r3, #105	; 0x69
20001090:	d007      	beq.n	200010a2 <_vsnprintf+0x290>
20001092:	683b      	ldr	r3, [r7, #0]
20001094:	781b      	ldrb	r3, [r3, #0]
20001096:	2b64      	cmp	r3, #100	; 0x64
20001098:	d003      	beq.n	200010a2 <_vsnprintf+0x290>
2000109a:	6c7b      	ldr	r3, [r7, #68]	; 0x44
2000109c:	220c      	movs	r2, #12
2000109e:	4393      	bics	r3, r2
200010a0:	647b      	str	r3, [r7, #68]	; 0x44
200010a2:	6c7a      	ldr	r2, [r7, #68]	; 0x44
200010a4:	2380      	movs	r3, #128	; 0x80
200010a6:	00db      	lsls	r3, r3, #3
200010a8:	4013      	ands	r3, r2
200010aa:	d003      	beq.n	200010b4 <_vsnprintf+0x2a2>
200010ac:	6c7b      	ldr	r3, [r7, #68]	; 0x44
200010ae:	2201      	movs	r2, #1
200010b0:	4393      	bics	r3, r2
200010b2:	647b      	str	r3, [r7, #68]	; 0x44
200010b4:	683b      	ldr	r3, [r7, #0]
200010b6:	781b      	ldrb	r3, [r3, #0]
200010b8:	2b69      	cmp	r3, #105	; 0x69
200010ba:	d003      	beq.n	200010c4 <_vsnprintf+0x2b2>
200010bc:	683b      	ldr	r3, [r7, #0]
200010be:	781b      	ldrb	r3, [r3, #0]
200010c0:	2b64      	cmp	r3, #100	; 0x64
200010c2:	d169      	bne.n	20001198 <_vsnprintf+0x386>
200010c4:	6c7a      	ldr	r2, [r7, #68]	; 0x44
200010c6:	2380      	movs	r3, #128	; 0x80
200010c8:	009b      	lsls	r3, r3, #2
200010ca:	4013      	ands	r3, r2
200010cc:	d000      	beq.n	200010d0 <_vsnprintf+0x2be>
200010ce:	e0b5      	b.n	2000123c <_vsnprintf+0x42a>
200010d0:	6c7a      	ldr	r2, [r7, #68]	; 0x44
200010d2:	2380      	movs	r3, #128	; 0x80
200010d4:	005b      	lsls	r3, r3, #1
200010d6:	4013      	ands	r3, r2
200010d8:	d021      	beq.n	2000111e <_vsnprintf+0x30c>
200010da:	6e3b      	ldr	r3, [r7, #96]	; 0x60
200010dc:	1d1a      	adds	r2, r3, #4
200010de:	663a      	str	r2, [r7, #96]	; 0x60
200010e0:	681b      	ldr	r3, [r3, #0]
200010e2:	613b      	str	r3, [r7, #16]
200010e4:	693b      	ldr	r3, [r7, #16]
200010e6:	17da      	asrs	r2, r3, #31
200010e8:	189b      	adds	r3, r3, r2
200010ea:	4053      	eors	r3, r2
200010ec:	001e      	movs	r6, r3
200010ee:	693b      	ldr	r3, [r7, #16]
200010f0:	0fdb      	lsrs	r3, r3, #31
200010f2:	b2db      	uxtb	r3, r3
200010f4:	687d      	ldr	r5, [r7, #4]
200010f6:	6b7c      	ldr	r4, [r7, #52]	; 0x34
200010f8:	68b9      	ldr	r1, [r7, #8]
200010fa:	68f8      	ldr	r0, [r7, #12]
200010fc:	6c7a      	ldr	r2, [r7, #68]	; 0x44
200010fe:	9205      	str	r2, [sp, #20]
20001100:	6c3a      	ldr	r2, [r7, #64]	; 0x40
20001102:	9204      	str	r2, [sp, #16]
20001104:	6bfa      	ldr	r2, [r7, #60]	; 0x3c
20001106:	9203      	str	r2, [sp, #12]
20001108:	6b3a      	ldr	r2, [r7, #48]	; 0x30
2000110a:	9202      	str	r2, [sp, #8]
2000110c:	9301      	str	r3, [sp, #4]
2000110e:	9600      	str	r6, [sp, #0]
20001110:	002b      	movs	r3, r5
20001112:	0022      	movs	r2, r4
20001114:	f7ff fe12 	bl	20000d3c <_ntoa_long>
20001118:	0003      	movs	r3, r0
2000111a:	637b      	str	r3, [r7, #52]	; 0x34
2000111c:	e08e      	b.n	2000123c <_vsnprintf+0x42a>
2000111e:	6c7b      	ldr	r3, [r7, #68]	; 0x44
20001120:	2240      	movs	r2, #64	; 0x40
20001122:	4013      	ands	r3, r2
20001124:	d005      	beq.n	20001132 <_vsnprintf+0x320>
20001126:	6e3b      	ldr	r3, [r7, #96]	; 0x60
20001128:	1d1a      	adds	r2, r3, #4
2000112a:	663a      	str	r2, [r7, #96]	; 0x60
2000112c:	681b      	ldr	r3, [r3, #0]
2000112e:	b2db      	uxtb	r3, r3
20001130:	e014      	b.n	2000115c <_vsnprintf+0x34a>
20001132:	6c7b      	ldr	r3, [r7, #68]	; 0x44
20001134:	2280      	movs	r2, #128	; 0x80
20001136:	4013      	ands	r3, r2
20001138:	d00c      	beq.n	20001154 <_vsnprintf+0x342>
2000113a:	6e3b      	ldr	r3, [r7, #96]	; 0x60
2000113c:	1d1a      	adds	r2, r3, #4
2000113e:	663a      	str	r2, [r7, #96]	; 0x60
20001140:	681b      	ldr	r3, [r3, #0]
20001142:	b21b      	sxth	r3, r3
20001144:	e00a      	b.n	2000115c <_vsnprintf+0x34a>
20001146:	46c0      	nop			; (mov r8, r8)
20001148:	200009c7 	andcs	r0, r0, r7, asr #19
2000114c:	10001824 	andne	r1, r0, r4, lsr #16
20001150:	10001868 	andne	r1, r0, r8, ror #16
20001154:	6e3b      	ldr	r3, [r7, #96]	; 0x60
20001156:	1d1a      	adds	r2, r3, #4
20001158:	663a      	str	r2, [r7, #96]	; 0x60
2000115a:	681b      	ldr	r3, [r3, #0]
2000115c:	617b      	str	r3, [r7, #20]
2000115e:	697b      	ldr	r3, [r7, #20]
20001160:	17da      	asrs	r2, r3, #31
20001162:	189b      	adds	r3, r3, r2
20001164:	4053      	eors	r3, r2
20001166:	001e      	movs	r6, r3
20001168:	697b      	ldr	r3, [r7, #20]
2000116a:	0fdb      	lsrs	r3, r3, #31
2000116c:	b2db      	uxtb	r3, r3
2000116e:	687d      	ldr	r5, [r7, #4]
20001170:	6b7c      	ldr	r4, [r7, #52]	; 0x34
20001172:	68b9      	ldr	r1, [r7, #8]
20001174:	68f8      	ldr	r0, [r7, #12]
20001176:	6c7a      	ldr	r2, [r7, #68]	; 0x44
20001178:	9205      	str	r2, [sp, #20]
2000117a:	6c3a      	ldr	r2, [r7, #64]	; 0x40
2000117c:	9204      	str	r2, [sp, #16]
2000117e:	6bfa      	ldr	r2, [r7, #60]	; 0x3c
20001180:	9203      	str	r2, [sp, #12]
20001182:	6b3a      	ldr	r2, [r7, #48]	; 0x30
20001184:	9202      	str	r2, [sp, #8]
20001186:	9301      	str	r3, [sp, #4]
20001188:	9600      	str	r6, [sp, #0]
2000118a:	002b      	movs	r3, r5
2000118c:	0022      	movs	r2, r4
2000118e:	f7ff fdd5 	bl	20000d3c <_ntoa_long>
20001192:	0003      	movs	r3, r0
20001194:	637b      	str	r3, [r7, #52]	; 0x34
20001196:	e051      	b.n	2000123c <_vsnprintf+0x42a>
20001198:	6c7a      	ldr	r2, [r7, #68]	; 0x44
2000119a:	2380      	movs	r3, #128	; 0x80
2000119c:	009b      	lsls	r3, r3, #2
2000119e:	4013      	ands	r3, r2
200011a0:	d14c      	bne.n	2000123c <_vsnprintf+0x42a>
200011a2:	6c7a      	ldr	r2, [r7, #68]	; 0x44
200011a4:	2380      	movs	r3, #128	; 0x80
200011a6:	005b      	lsls	r3, r3, #1
200011a8:	4013      	ands	r3, r2
200011aa:	d019      	beq.n	200011e0 <_vsnprintf+0x3ce>
200011ac:	6e3b      	ldr	r3, [r7, #96]	; 0x60
200011ae:	1d1a      	adds	r2, r3, #4
200011b0:	663a      	str	r2, [r7, #96]	; 0x60
200011b2:	681b      	ldr	r3, [r3, #0]
200011b4:	687d      	ldr	r5, [r7, #4]
200011b6:	6b7c      	ldr	r4, [r7, #52]	; 0x34
200011b8:	68b9      	ldr	r1, [r7, #8]
200011ba:	68f8      	ldr	r0, [r7, #12]
200011bc:	6c7a      	ldr	r2, [r7, #68]	; 0x44
200011be:	9205      	str	r2, [sp, #20]
200011c0:	6c3a      	ldr	r2, [r7, #64]	; 0x40
200011c2:	9204      	str	r2, [sp, #16]
200011c4:	6bfa      	ldr	r2, [r7, #60]	; 0x3c
200011c6:	9203      	str	r2, [sp, #12]
200011c8:	6b3a      	ldr	r2, [r7, #48]	; 0x30
200011ca:	9202      	str	r2, [sp, #8]
200011cc:	2200      	movs	r2, #0
200011ce:	9201      	str	r2, [sp, #4]
200011d0:	9300      	str	r3, [sp, #0]
200011d2:	002b      	movs	r3, r5
200011d4:	0022      	movs	r2, r4
200011d6:	f7ff fdb1 	bl	20000d3c <_ntoa_long>
200011da:	0003      	movs	r3, r0
200011dc:	637b      	str	r3, [r7, #52]	; 0x34
200011de:	e02d      	b.n	2000123c <_vsnprintf+0x42a>
200011e0:	6c7b      	ldr	r3, [r7, #68]	; 0x44
200011e2:	2240      	movs	r2, #64	; 0x40
200011e4:	4013      	ands	r3, r2
200011e6:	d005      	beq.n	200011f4 <_vsnprintf+0x3e2>
200011e8:	6e3b      	ldr	r3, [r7, #96]	; 0x60
200011ea:	1d1a      	adds	r2, r3, #4
200011ec:	663a      	str	r2, [r7, #96]	; 0x60
200011ee:	681b      	ldr	r3, [r3, #0]
200011f0:	b2db      	uxtb	r3, r3
200011f2:	e00d      	b.n	20001210 <_vsnprintf+0x3fe>
200011f4:	6c7b      	ldr	r3, [r7, #68]	; 0x44
200011f6:	2280      	movs	r2, #128	; 0x80
200011f8:	4013      	ands	r3, r2
200011fa:	d005      	beq.n	20001208 <_vsnprintf+0x3f6>
200011fc:	6e3b      	ldr	r3, [r7, #96]	; 0x60
200011fe:	1d1a      	adds	r2, r3, #4
20001200:	663a      	str	r2, [r7, #96]	; 0x60
20001202:	681b      	ldr	r3, [r3, #0]
20001204:	b29b      	uxth	r3, r3
20001206:	e003      	b.n	20001210 <_vsnprintf+0x3fe>
20001208:	6e3b      	ldr	r3, [r7, #96]	; 0x60
2000120a:	1d1a      	adds	r2, r3, #4
2000120c:	663a      	str	r2, [r7, #96]	; 0x60
2000120e:	681b      	ldr	r3, [r3, #0]
20001210:	61bb      	str	r3, [r7, #24]
20001212:	687c      	ldr	r4, [r7, #4]
20001214:	6b7a      	ldr	r2, [r7, #52]	; 0x34
20001216:	68b9      	ldr	r1, [r7, #8]
20001218:	68f8      	ldr	r0, [r7, #12]
2000121a:	6c7b      	ldr	r3, [r7, #68]	; 0x44
2000121c:	9305      	str	r3, [sp, #20]
2000121e:	6c3b      	ldr	r3, [r7, #64]	; 0x40
20001220:	9304      	str	r3, [sp, #16]
20001222:	6bfb      	ldr	r3, [r7, #60]	; 0x3c
20001224:	9303      	str	r3, [sp, #12]
20001226:	6b3b      	ldr	r3, [r7, #48]	; 0x30
20001228:	9302      	str	r3, [sp, #8]
2000122a:	2300      	movs	r3, #0
2000122c:	9301      	str	r3, [sp, #4]
2000122e:	69bb      	ldr	r3, [r7, #24]
20001230:	9300      	str	r3, [sp, #0]
20001232:	0023      	movs	r3, r4
20001234:	f7ff fd82 	bl	20000d3c <_ntoa_long>
20001238:	0003      	movs	r3, r0
2000123a:	637b      	str	r3, [r7, #52]	; 0x34
2000123c:	683b      	ldr	r3, [r7, #0]
2000123e:	3301      	adds	r3, #1
20001240:	603b      	str	r3, [r7, #0]
20001242:	e0d5      	b.n	200013f0 <_vsnprintf+0x5de>
20001244:	2301      	movs	r3, #1
20001246:	62fb      	str	r3, [r7, #44]	; 0x2c
20001248:	6c7b      	ldr	r3, [r7, #68]	; 0x44
2000124a:	2202      	movs	r2, #2
2000124c:	4013      	ands	r3, r2
2000124e:	d10e      	bne.n	2000126e <_vsnprintf+0x45c>
20001250:	e007      	b.n	20001262 <_vsnprintf+0x450>
20001252:	6b7a      	ldr	r2, [r7, #52]	; 0x34
20001254:	1c53      	adds	r3, r2, #1
20001256:	637b      	str	r3, [r7, #52]	; 0x34
20001258:	687b      	ldr	r3, [r7, #4]
2000125a:	68b9      	ldr	r1, [r7, #8]
2000125c:	68fc      	ldr	r4, [r7, #12]
2000125e:	2020      	movs	r0, #32
20001260:	47a0      	blx	r4
20001262:	6afb      	ldr	r3, [r7, #44]	; 0x2c
20001264:	1c5a      	adds	r2, r3, #1
20001266:	62fa      	str	r2, [r7, #44]	; 0x2c
20001268:	6c3a      	ldr	r2, [r7, #64]	; 0x40
2000126a:	429a      	cmp	r2, r3
2000126c:	d8f1      	bhi.n	20001252 <_vsnprintf+0x440>
2000126e:	6e3b      	ldr	r3, [r7, #96]	; 0x60
20001270:	1d1a      	adds	r2, r3, #4
20001272:	663a      	str	r2, [r7, #96]	; 0x60
20001274:	681b      	ldr	r3, [r3, #0]
20001276:	b2d8      	uxtb	r0, r3
20001278:	6b7a      	ldr	r2, [r7, #52]	; 0x34
2000127a:	1c53      	adds	r3, r2, #1
2000127c:	637b      	str	r3, [r7, #52]	; 0x34
2000127e:	687b      	ldr	r3, [r7, #4]
20001280:	68b9      	ldr	r1, [r7, #8]
20001282:	68fc      	ldr	r4, [r7, #12]
20001284:	47a0      	blx	r4
20001286:	6c7b      	ldr	r3, [r7, #68]	; 0x44
20001288:	2202      	movs	r2, #2
2000128a:	4013      	ands	r3, r2
2000128c:	d00e      	beq.n	200012ac <_vsnprintf+0x49a>
2000128e:	e007      	b.n	200012a0 <_vsnprintf+0x48e>
20001290:	6b7a      	ldr	r2, [r7, #52]	; 0x34
20001292:	1c53      	adds	r3, r2, #1
20001294:	637b      	str	r3, [r7, #52]	; 0x34
20001296:	687b      	ldr	r3, [r7, #4]
20001298:	68b9      	ldr	r1, [r7, #8]
2000129a:	68fc      	ldr	r4, [r7, #12]
2000129c:	2020      	movs	r0, #32
2000129e:	47a0      	blx	r4
200012a0:	6afb      	ldr	r3, [r7, #44]	; 0x2c
200012a2:	1c5a      	adds	r2, r3, #1
200012a4:	62fa      	str	r2, [r7, #44]	; 0x2c
200012a6:	6c3a      	ldr	r2, [r7, #64]	; 0x40
200012a8:	429a      	cmp	r2, r3
200012aa:	d8f1      	bhi.n	20001290 <_vsnprintf+0x47e>
200012ac:	683b      	ldr	r3, [r7, #0]
200012ae:	3301      	adds	r3, #1
200012b0:	603b      	str	r3, [r7, #0]
200012b2:	e09d      	b.n	200013f0 <_vsnprintf+0x5de>
200012b4:	6e3b      	ldr	r3, [r7, #96]	; 0x60
200012b6:	1d1a      	adds	r2, r3, #4
200012b8:	663a      	str	r2, [r7, #96]	; 0x60
200012ba:	681b      	ldr	r3, [r3, #0]
200012bc:	62bb      	str	r3, [r7, #40]	; 0x28
200012be:	6bfb      	ldr	r3, [r7, #60]	; 0x3c
200012c0:	2b00      	cmp	r3, #0
200012c2:	d001      	beq.n	200012c8 <_vsnprintf+0x4b6>
200012c4:	6bfb      	ldr	r3, [r7, #60]	; 0x3c
200012c6:	e001      	b.n	200012cc <_vsnprintf+0x4ba>
200012c8:	2301      	movs	r3, #1
200012ca:	425b      	negs	r3, r3
200012cc:	6aba      	ldr	r2, [r7, #40]	; 0x28
200012ce:	0019      	movs	r1, r3
200012d0:	0010      	movs	r0, r2
200012d2:	f7ff fbb9 	bl	20000a48 <_strnlen_s>
200012d6:	0003      	movs	r3, r0
200012d8:	627b      	str	r3, [r7, #36]	; 0x24
200012da:	6c7a      	ldr	r2, [r7, #68]	; 0x44
200012dc:	2380      	movs	r3, #128	; 0x80
200012de:	00db      	lsls	r3, r3, #3
200012e0:	4013      	ands	r3, r2
200012e2:	d005      	beq.n	200012f0 <_vsnprintf+0x4de>
200012e4:	6a7a      	ldr	r2, [r7, #36]	; 0x24
200012e6:	6bfb      	ldr	r3, [r7, #60]	; 0x3c
200012e8:	4293      	cmp	r3, r2
200012ea:	d900      	bls.n	200012ee <_vsnprintf+0x4dc>
200012ec:	0013      	movs	r3, r2
200012ee:	627b      	str	r3, [r7, #36]	; 0x24
200012f0:	6c7b      	ldr	r3, [r7, #68]	; 0x44
200012f2:	2202      	movs	r2, #2
200012f4:	4013      	ands	r3, r2
200012f6:	d11a      	bne.n	2000132e <_vsnprintf+0x51c>
200012f8:	e007      	b.n	2000130a <_vsnprintf+0x4f8>
200012fa:	6b7a      	ldr	r2, [r7, #52]	; 0x34
200012fc:	1c53      	adds	r3, r2, #1
200012fe:	637b      	str	r3, [r7, #52]	; 0x34
20001300:	687b      	ldr	r3, [r7, #4]
20001302:	68b9      	ldr	r1, [r7, #8]
20001304:	68fc      	ldr	r4, [r7, #12]
20001306:	2020      	movs	r0, #32
20001308:	47a0      	blx	r4
2000130a:	6a7b      	ldr	r3, [r7, #36]	; 0x24
2000130c:	1c5a      	adds	r2, r3, #1
2000130e:	627a      	str	r2, [r7, #36]	; 0x24
20001310:	6c3a      	ldr	r2, [r7, #64]	; 0x40
20001312:	429a      	cmp	r2, r3
20001314:	d8f1      	bhi.n	200012fa <_vsnprintf+0x4e8>
20001316:	e00a      	b.n	2000132e <_vsnprintf+0x51c>
20001318:	6abb      	ldr	r3, [r7, #40]	; 0x28
2000131a:	1c5a      	adds	r2, r3, #1
2000131c:	62ba      	str	r2, [r7, #40]	; 0x28
2000131e:	7818      	ldrb	r0, [r3, #0]
20001320:	6b7a      	ldr	r2, [r7, #52]	; 0x34
20001322:	1c53      	adds	r3, r2, #1
20001324:	637b      	str	r3, [r7, #52]	; 0x34
20001326:	687b      	ldr	r3, [r7, #4]
20001328:	68b9      	ldr	r1, [r7, #8]
2000132a:	68fc      	ldr	r4, [r7, #12]
2000132c:	47a0      	blx	r4
2000132e:	6abb      	ldr	r3, [r7, #40]	; 0x28
20001330:	781b      	ldrb	r3, [r3, #0]
20001332:	2b00      	cmp	r3, #0
20001334:	d009      	beq.n	2000134a <_vsnprintf+0x538>
20001336:	6c7a      	ldr	r2, [r7, #68]	; 0x44
20001338:	2380      	movs	r3, #128	; 0x80
2000133a:	00db      	lsls	r3, r3, #3
2000133c:	4013      	ands	r3, r2
2000133e:	d0eb      	beq.n	20001318 <_vsnprintf+0x506>
20001340:	6bfb      	ldr	r3, [r7, #60]	; 0x3c
20001342:	1e5a      	subs	r2, r3, #1
20001344:	63fa      	str	r2, [r7, #60]	; 0x3c
20001346:	2b00      	cmp	r3, #0
20001348:	d1e6      	bne.n	20001318 <_vsnprintf+0x506>
2000134a:	6c7b      	ldr	r3, [r7, #68]	; 0x44
2000134c:	2202      	movs	r2, #2
2000134e:	4013      	ands	r3, r2
20001350:	d00e      	beq.n	20001370 <_vsnprintf+0x55e>
20001352:	e007      	b.n	20001364 <_vsnprintf+0x552>
20001354:	6b7a      	ldr	r2, [r7, #52]	; 0x34
20001356:	1c53      	adds	r3, r2, #1
20001358:	637b      	str	r3, [r7, #52]	; 0x34
2000135a:	687b      	ldr	r3, [r7, #4]
2000135c:	68b9      	ldr	r1, [r7, #8]
2000135e:	68fc      	ldr	r4, [r7, #12]
20001360:	2020      	movs	r0, #32
20001362:	47a0      	blx	r4
20001364:	6a7b      	ldr	r3, [r7, #36]	; 0x24
20001366:	1c5a      	adds	r2, r3, #1
20001368:	627a      	str	r2, [r7, #36]	; 0x24
2000136a:	6c3a      	ldr	r2, [r7, #64]	; 0x40
2000136c:	429a      	cmp	r2, r3
2000136e:	d8f1      	bhi.n	20001354 <_vsnprintf+0x542>
20001370:	683b      	ldr	r3, [r7, #0]
20001372:	3301      	adds	r3, #1
20001374:	603b      	str	r3, [r7, #0]
20001376:	e03b      	b.n	200013f0 <_vsnprintf+0x5de>
20001378:	2308      	movs	r3, #8
2000137a:	643b      	str	r3, [r7, #64]	; 0x40
2000137c:	6c7b      	ldr	r3, [r7, #68]	; 0x44
2000137e:	2221      	movs	r2, #33	; 0x21
20001380:	4313      	orrs	r3, r2
20001382:	647b      	str	r3, [r7, #68]	; 0x44
20001384:	6e3b      	ldr	r3, [r7, #96]	; 0x60
20001386:	1d1a      	adds	r2, r3, #4
20001388:	663a      	str	r2, [r7, #96]	; 0x60
2000138a:	681b      	ldr	r3, [r3, #0]
2000138c:	001d      	movs	r5, r3
2000138e:	687c      	ldr	r4, [r7, #4]
20001390:	6b7a      	ldr	r2, [r7, #52]	; 0x34
20001392:	68b9      	ldr	r1, [r7, #8]
20001394:	68f8      	ldr	r0, [r7, #12]
20001396:	6c7b      	ldr	r3, [r7, #68]	; 0x44
20001398:	9305      	str	r3, [sp, #20]
2000139a:	6c3b      	ldr	r3, [r7, #64]	; 0x40
2000139c:	9304      	str	r3, [sp, #16]
2000139e:	6bfb      	ldr	r3, [r7, #60]	; 0x3c
200013a0:	9303      	str	r3, [sp, #12]
200013a2:	2310      	movs	r3, #16
200013a4:	9302      	str	r3, [sp, #8]
200013a6:	2300      	movs	r3, #0
200013a8:	9301      	str	r3, [sp, #4]
200013aa:	9500      	str	r5, [sp, #0]
200013ac:	0023      	movs	r3, r4
200013ae:	f7ff fcc5 	bl	20000d3c <_ntoa_long>
200013b2:	0003      	movs	r3, r0
200013b4:	637b      	str	r3, [r7, #52]	; 0x34
200013b6:	683b      	ldr	r3, [r7, #0]
200013b8:	3301      	adds	r3, #1
200013ba:	603b      	str	r3, [r7, #0]
200013bc:	e018      	b.n	200013f0 <_vsnprintf+0x5de>
200013be:	6b7a      	ldr	r2, [r7, #52]	; 0x34
200013c0:	1c53      	adds	r3, r2, #1
200013c2:	637b      	str	r3, [r7, #52]	; 0x34
200013c4:	687b      	ldr	r3, [r7, #4]
200013c6:	68b9      	ldr	r1, [r7, #8]
200013c8:	68fc      	ldr	r4, [r7, #12]
200013ca:	2025      	movs	r0, #37	; 0x25
200013cc:	47a0      	blx	r4
200013ce:	683b      	ldr	r3, [r7, #0]
200013d0:	3301      	adds	r3, #1
200013d2:	603b      	str	r3, [r7, #0]
200013d4:	e00c      	b.n	200013f0 <_vsnprintf+0x5de>
200013d6:	683b      	ldr	r3, [r7, #0]
200013d8:	7818      	ldrb	r0, [r3, #0]
200013da:	6b7a      	ldr	r2, [r7, #52]	; 0x34
200013dc:	1c53      	adds	r3, r2, #1
200013de:	637b      	str	r3, [r7, #52]	; 0x34
200013e0:	687b      	ldr	r3, [r7, #4]
200013e2:	68b9      	ldr	r1, [r7, #8]
200013e4:	68fc      	ldr	r4, [r7, #12]
200013e6:	47a0      	blx	r4
200013e8:	683b      	ldr	r3, [r7, #0]
200013ea:	3301      	adds	r3, #1
200013ec:	603b      	str	r3, [r7, #0]
200013ee:	46c0      	nop			; (mov r8, r8)
200013f0:	683b      	ldr	r3, [r7, #0]
200013f2:	781b      	ldrb	r3, [r3, #0]
200013f4:	2b00      	cmp	r3, #0
200013f6:	d000      	beq.n	200013fa <_vsnprintf+0x5e8>
200013f8:	e51b      	b.n	20000e32 <_vsnprintf+0x20>
200013fa:	6b7a      	ldr	r2, [r7, #52]	; 0x34
200013fc:	687b      	ldr	r3, [r7, #4]
200013fe:	429a      	cmp	r2, r3
20001400:	d302      	bcc.n	20001408 <_vsnprintf+0x5f6>
20001402:	687b      	ldr	r3, [r7, #4]
20001404:	1e5a      	subs	r2, r3, #1
20001406:	e000      	b.n	2000140a <_vsnprintf+0x5f8>
20001408:	6b7a      	ldr	r2, [r7, #52]	; 0x34
2000140a:	687b      	ldr	r3, [r7, #4]
2000140c:	68b9      	ldr	r1, [r7, #8]
2000140e:	68fc      	ldr	r4, [r7, #12]
20001410:	2000      	movs	r0, #0
20001412:	47a0      	blx	r4
20001414:	6b7b      	ldr	r3, [r7, #52]	; 0x34
20001416:	0018      	movs	r0, r3
20001418:	46bd      	mov	sp, r7
2000141a:	b013      	add	sp, #76	; 0x4c
2000141c:	bdf0      	pop	{r4, r5, r6, r7, pc}

2000141e <printf_>:
2000141e:	b40f      	push	{r0, r1, r2, r3}
20001420:	b590      	push	{r4, r7, lr}
20001422:	b087      	sub	sp, #28
20001424:	af02      	add	r7, sp, #8
20001426:	2324      	movs	r3, #36	; 0x24
20001428:	18fb      	adds	r3, r7, r3
2000142a:	60bb      	str	r3, [r7, #8]
2000142c:	6a3c      	ldr	r4, [r7, #32]
2000142e:	2301      	movs	r3, #1
20001430:	425a      	negs	r2, r3
20001432:	1d39      	adds	r1, r7, #4
20001434:	4807      	ldr	r0, [pc, #28]	; (20001454 <printf_+0x36>)
20001436:	68bb      	ldr	r3, [r7, #8]
20001438:	9300      	str	r3, [sp, #0]
2000143a:	0023      	movs	r3, r4
2000143c:	f7ff fce9 	bl	20000e12 <_vsnprintf>
20001440:	0003      	movs	r3, r0
20001442:	60fb      	str	r3, [r7, #12]
20001444:	68fb      	ldr	r3, [r7, #12]
20001446:	0018      	movs	r0, r3
20001448:	46bd      	mov	sp, r7
2000144a:	b005      	add	sp, #20
2000144c:	bc90      	pop	{r4, r7}
2000144e:	bc08      	pop	{r3}
20001450:	b004      	add	sp, #16
20001452:	4718      	bx	r3
20001454:	200009e3 	andcs	r0, r0, r3, ror #19

20001458 <sprintf_>:
20001458:	b40e      	push	{r1, r2, r3}
2000145a:	b590      	push	{r4, r7, lr}
2000145c:	b086      	sub	sp, #24
2000145e:	af02      	add	r7, sp, #8
20001460:	6078      	str	r0, [r7, #4]
20001462:	2320      	movs	r3, #32
20001464:	18fb      	adds	r3, r7, r3
20001466:	60bb      	str	r3, [r7, #8]
20001468:	69fc      	ldr	r4, [r7, #28]
2000146a:	2301      	movs	r3, #1
2000146c:	425a      	negs	r2, r3
2000146e:	6879      	ldr	r1, [r7, #4]
20001470:	4807      	ldr	r0, [pc, #28]	; (20001490 <sprintf_+0x38>)
20001472:	68bb      	ldr	r3, [r7, #8]
20001474:	9300      	str	r3, [sp, #0]
20001476:	0023      	movs	r3, r4
20001478:	f7ff fccb 	bl	20000e12 <_vsnprintf>
2000147c:	0003      	movs	r3, r0
2000147e:	60fb      	str	r3, [r7, #12]
20001480:	68fb      	ldr	r3, [r7, #12]
20001482:	0018      	movs	r0, r3
20001484:	46bd      	mov	sp, r7
20001486:	b004      	add	sp, #16
20001488:	bc90      	pop	{r4, r7}
2000148a:	bc08      	pop	{r3}
2000148c:	b003      	add	sp, #12
2000148e:	4718      	bx	r3
20001490:	20000997 	mulcs	r0, r7, r9

20001494 <snprintf_>:
20001494:	b40c      	push	{r2, r3}
20001496:	b590      	push	{r4, r7, lr}
20001498:	b087      	sub	sp, #28
2000149a:	af02      	add	r7, sp, #8
2000149c:	6078      	str	r0, [r7, #4]
2000149e:	6039      	str	r1, [r7, #0]
200014a0:	2324      	movs	r3, #36	; 0x24
200014a2:	18fb      	adds	r3, r7, r3
200014a4:	60bb      	str	r3, [r7, #8]
200014a6:	6a3c      	ldr	r4, [r7, #32]
200014a8:	683a      	ldr	r2, [r7, #0]
200014aa:	6879      	ldr	r1, [r7, #4]
200014ac:	4807      	ldr	r0, [pc, #28]	; (200014cc <snprintf_+0x38>)
200014ae:	68bb      	ldr	r3, [r7, #8]
200014b0:	9300      	str	r3, [sp, #0]
200014b2:	0023      	movs	r3, r4
200014b4:	f7ff fcad 	bl	20000e12 <_vsnprintf>
200014b8:	0003      	movs	r3, r0
200014ba:	60fb      	str	r3, [r7, #12]
200014bc:	68fb      	ldr	r3, [r7, #12]
200014be:	0018      	movs	r0, r3
200014c0:	46bd      	mov	sp, r7
200014c2:	b005      	add	sp, #20
200014c4:	bc90      	pop	{r4, r7}
200014c6:	bc08      	pop	{r3}
200014c8:	b002      	add	sp, #8
200014ca:	4718      	bx	r3
200014cc:	20000997 	mulcs	r0, r7, r9

200014d0 <vprintf_>:
200014d0:	b590      	push	{r4, r7, lr}
200014d2:	b087      	sub	sp, #28
200014d4:	af02      	add	r7, sp, #8
200014d6:	6078      	str	r0, [r7, #4]
200014d8:	6039      	str	r1, [r7, #0]
200014da:	687c      	ldr	r4, [r7, #4]
200014dc:	2301      	movs	r3, #1
200014de:	425a      	negs	r2, r3
200014e0:	230c      	movs	r3, #12
200014e2:	18f9      	adds	r1, r7, r3
200014e4:	4805      	ldr	r0, [pc, #20]	; (200014fc <vprintf_+0x2c>)
200014e6:	683b      	ldr	r3, [r7, #0]
200014e8:	9300      	str	r3, [sp, #0]
200014ea:	0023      	movs	r3, r4
200014ec:	f7ff fc91 	bl	20000e12 <_vsnprintf>
200014f0:	0003      	movs	r3, r0
200014f2:	0018      	movs	r0, r3
200014f4:	46bd      	mov	sp, r7
200014f6:	b005      	add	sp, #20
200014f8:	bd90      	pop	{r4, r7, pc}
200014fa:	46c0      	nop			; (mov r8, r8)
200014fc:	200009e3 	andcs	r0, r0, r3, ror #19

20001500 <vsnprintf_>:
20001500:	b590      	push	{r4, r7, lr}
20001502:	b087      	sub	sp, #28
20001504:	af02      	add	r7, sp, #8
20001506:	60f8      	str	r0, [r7, #12]
20001508:	60b9      	str	r1, [r7, #8]
2000150a:	607a      	str	r2, [r7, #4]
2000150c:	603b      	str	r3, [r7, #0]
2000150e:	687c      	ldr	r4, [r7, #4]
20001510:	68ba      	ldr	r2, [r7, #8]
20001512:	68f9      	ldr	r1, [r7, #12]
20001514:	4805      	ldr	r0, [pc, #20]	; (2000152c <vsnprintf_+0x2c>)
20001516:	683b      	ldr	r3, [r7, #0]
20001518:	9300      	str	r3, [sp, #0]
2000151a:	0023      	movs	r3, r4
2000151c:	f7ff fc79 	bl	20000e12 <_vsnprintf>
20001520:	0003      	movs	r3, r0
20001522:	0018      	movs	r0, r3
20001524:	46bd      	mov	sp, r7
20001526:	b005      	add	sp, #20
20001528:	bd90      	pop	{r4, r7, pc}
2000152a:	46c0      	nop			; (mov r8, r8)
2000152c:	20000997 	mulcs	r0, r7, r9

20001530 <fctprintf>:
20001530:	b40c      	push	{r2, r3}
20001532:	b590      	push	{r4, r7, lr}
20001534:	b089      	sub	sp, #36	; 0x24
20001536:	af02      	add	r7, sp, #8
20001538:	6078      	str	r0, [r7, #4]
2000153a:	6039      	str	r1, [r7, #0]
2000153c:	232c      	movs	r3, #44	; 0x2c
2000153e:	18fb      	adds	r3, r7, r3
20001540:	613b      	str	r3, [r7, #16]
20001542:	2108      	movs	r1, #8
20001544:	187b      	adds	r3, r7, r1
20001546:	687a      	ldr	r2, [r7, #4]
20001548:	601a      	str	r2, [r3, #0]
2000154a:	187b      	adds	r3, r7, r1
2000154c:	683a      	ldr	r2, [r7, #0]
2000154e:	605a      	str	r2, [r3, #4]
20001550:	6abc      	ldr	r4, [r7, #40]	; 0x28
20001552:	2301      	movs	r3, #1
20001554:	425a      	negs	r2, r3
20001556:	1879      	adds	r1, r7, r1
20001558:	4807      	ldr	r0, [pc, #28]	; (20001578 <fctprintf+0x48>)
2000155a:	693b      	ldr	r3, [r7, #16]
2000155c:	9300      	str	r3, [sp, #0]
2000155e:	0023      	movs	r3, r4
20001560:	f7ff fc57 	bl	20000e12 <_vsnprintf>
20001564:	0003      	movs	r3, r0
20001566:	617b      	str	r3, [r7, #20]
20001568:	697b      	ldr	r3, [r7, #20]
2000156a:	0018      	movs	r0, r3
2000156c:	46bd      	mov	sp, r7
2000156e:	b007      	add	sp, #28
20001570:	bc90      	pop	{r4, r7}
20001572:	bc08      	pop	{r3}
20001574:	b002      	add	sp, #8
20001576:	4718      	bx	r3
20001578:	20000a13 	andcs	r0, r0, r3, lsl sl

2000157c <divlu>:
2000157c:	b5b0      	push	{r4, r5, r7, lr}
2000157e:	b08a      	sub	sp, #40	; 0x28
20001580:	af00      	add	r7, sp, #0
20001582:	60b8      	str	r0, [r7, #8]
20001584:	60f9      	str	r1, [r7, #12]
20001586:	607a      	str	r2, [r7, #4]
20001588:	68fb      	ldr	r3, [r7, #12]
2000158a:	001c      	movs	r4, r3
2000158c:	2300      	movs	r3, #0
2000158e:	001d      	movs	r5, r3
20001590:	0023      	movs	r3, r4
20001592:	623b      	str	r3, [r7, #32]
20001594:	68bb      	ldr	r3, [r7, #8]
20001596:	61fb      	str	r3, [r7, #28]
20001598:	687b      	ldr	r3, [r7, #4]
2000159a:	61bb      	str	r3, [r7, #24]
2000159c:	2301      	movs	r3, #1
2000159e:	627b      	str	r3, [r7, #36]	; 0x24
200015a0:	e01b      	b.n	200015da <divlu+0x5e>
200015a2:	6a3b      	ldr	r3, [r7, #32]
200015a4:	17db      	asrs	r3, r3, #31
200015a6:	617b      	str	r3, [r7, #20]
200015a8:	6a3b      	ldr	r3, [r7, #32]
200015aa:	005a      	lsls	r2, r3, #1
200015ac:	69fb      	ldr	r3, [r7, #28]
200015ae:	0fdb      	lsrs	r3, r3, #31
200015b0:	4313      	orrs	r3, r2
200015b2:	623b      	str	r3, [r7, #32]
200015b4:	69fb      	ldr	r3, [r7, #28]
200015b6:	005b      	lsls	r3, r3, #1
200015b8:	61fb      	str	r3, [r7, #28]
200015ba:	6a3a      	ldr	r2, [r7, #32]
200015bc:	697b      	ldr	r3, [r7, #20]
200015be:	4313      	orrs	r3, r2
200015c0:	69ba      	ldr	r2, [r7, #24]
200015c2:	429a      	cmp	r2, r3
200015c4:	d806      	bhi.n	200015d4 <divlu+0x58>
200015c6:	6a3a      	ldr	r2, [r7, #32]
200015c8:	69bb      	ldr	r3, [r7, #24]
200015ca:	1ad3      	subs	r3, r2, r3
200015cc:	623b      	str	r3, [r7, #32]
200015ce:	69fb      	ldr	r3, [r7, #28]
200015d0:	3301      	adds	r3, #1
200015d2:	61fb      	str	r3, [r7, #28]
200015d4:	6a7b      	ldr	r3, [r7, #36]	; 0x24
200015d6:	3301      	adds	r3, #1
200015d8:	627b      	str	r3, [r7, #36]	; 0x24
200015da:	6a7b      	ldr	r3, [r7, #36]	; 0x24
200015dc:	2b20      	cmp	r3, #32
200015de:	dde0      	ble.n	200015a2 <divlu+0x26>
200015e0:	69fb      	ldr	r3, [r7, #28]
200015e2:	0018      	movs	r0, r3
200015e4:	46bd      	mov	sp, r7
200015e6:	b00a      	add	sp, #40	; 0x28
200015e8:	bdb0      	pop	{r4, r5, r7, pc}

200015ea <udiv>:
200015ea:	b5b0      	push	{r4, r5, r7, lr}
200015ec:	b082      	sub	sp, #8
200015ee:	af00      	add	r7, sp, #0
200015f0:	6078      	str	r0, [r7, #4]
200015f2:	6039      	str	r1, [r7, #0]
200015f4:	687b      	ldr	r3, [r7, #4]
200015f6:	001c      	movs	r4, r3
200015f8:	2300      	movs	r3, #0
200015fa:	001d      	movs	r5, r3
200015fc:	683b      	ldr	r3, [r7, #0]
200015fe:	001a      	movs	r2, r3
20001600:	0020      	movs	r0, r4
20001602:	0029      	movs	r1, r5
20001604:	f7ff ffba 	bl	2000157c <divlu>
20001608:	0003      	movs	r3, r0
2000160a:	0018      	movs	r0, r3
2000160c:	46bd      	mov	sp, r7
2000160e:	b002      	add	sp, #8
20001610:	bdb0      	pop	{r4, r5, r7, pc}

20001612 <uart_init>:
20001612:	b580      	push	{r7, lr}
20001614:	b086      	sub	sp, #24
20001616:	af00      	add	r7, sp, #0
20001618:	6078      	str	r0, [r7, #4]
2000161a:	687b      	ldr	r3, [r7, #4]
2000161c:	681b      	ldr	r3, [r3, #0]
2000161e:	2102      	movs	r1, #2
20001620:	0018      	movs	r0, r3
20001622:	f7fe feb3 	bl	2000038c <gpio_set_function>
20001626:	687b      	ldr	r3, [r7, #4]
20001628:	685b      	ldr	r3, [r3, #4]
2000162a:	2102      	movs	r1, #2
2000162c:	0018      	movs	r0, r3
2000162e:	f7fe fead 	bl	2000038c <gpio_set_function>
20001632:	687b      	ldr	r3, [r7, #4]
20001634:	68db      	ldr	r3, [r3, #12]
20001636:	4a39      	ldr	r2, [pc, #228]	; (2000171c <uart_init+0x10a>)
20001638:	4293      	cmp	r3, r2
2000163a:	d004      	beq.n	20001646 <uart_init+0x34>
2000163c:	687b      	ldr	r3, [r7, #4]
2000163e:	68db      	ldr	r3, [r3, #12]
20001640:	4a37      	ldr	r2, [pc, #220]	; (20001720 <uart_init+0x10e>)
20001642:	4293      	cmp	r3, r2
20001644:	d165      	bne.n	20001712 <uart_init+0x100>
20001646:	2016      	movs	r0, #22
20001648:	f7fe fe74 	bl	20000334 <reset_periph>
2000164c:	687b      	ldr	r3, [r7, #4]
2000164e:	689b      	ldr	r3, [r3, #8]
20001650:	011b      	lsls	r3, r3, #4
20001652:	4a34      	ldr	r2, [pc, #208]	; (20001724 <uart_init+0x112>)
20001654:	0019      	movs	r1, r3
20001656:	0010      	movs	r0, r2
20001658:	f7ff ffc7 	bl	200015ea <udiv>
2000165c:	0003      	movs	r3, r0
2000165e:	617b      	str	r3, [r7, #20]
20001660:	687b      	ldr	r3, [r7, #4]
20001662:	689b      	ldr	r3, [r3, #8]
20001664:	011b      	lsls	r3, r3, #4
20001666:	4a30      	ldr	r2, [pc, #192]	; (20001728 <uart_init+0x116>)
20001668:	0019      	movs	r1, r3
2000166a:	0010      	movs	r0, r2
2000166c:	f7ff ffbd 	bl	200015ea <udiv>
20001670:	0003      	movs	r3, r0
20001672:	0019      	movs	r1, r3
20001674:	697b      	ldr	r3, [r7, #20]
20001676:	2264      	movs	r2, #100	; 0x64
20001678:	4353      	muls	r3, r2
2000167a:	1acb      	subs	r3, r1, r3
2000167c:	613b      	str	r3, [r7, #16]
2000167e:	693b      	ldr	r3, [r7, #16]
20001680:	019b      	lsls	r3, r3, #6
20001682:	2164      	movs	r1, #100	; 0x64
20001684:	0018      	movs	r0, r3
20001686:	f7ff ffb0 	bl	200015ea <udiv>
2000168a:	0003      	movs	r3, r0
2000168c:	60fb      	str	r3, [r7, #12]
2000168e:	687b      	ldr	r3, [r7, #4]
20001690:	68db      	ldr	r3, [r3, #12]
20001692:	3324      	adds	r3, #36	; 0x24
20001694:	697a      	ldr	r2, [r7, #20]
20001696:	0011      	movs	r1, r2
20001698:	0018      	movs	r0, r3
2000169a:	f7fe fd36 	bl	2000010a <PUT32>
2000169e:	687b      	ldr	r3, [r7, #4]
200016a0:	68db      	ldr	r3, [r3, #12]
200016a2:	3328      	adds	r3, #40	; 0x28
200016a4:	68fa      	ldr	r2, [r7, #12]
200016a6:	0011      	movs	r1, r2
200016a8:	0018      	movs	r0, r3
200016aa:	f7fe fd2e 	bl	2000010a <PUT32>
200016ae:	687b      	ldr	r3, [r7, #4]
200016b0:	68db      	ldr	r3, [r3, #12]
200016b2:	4a1e      	ldr	r2, [pc, #120]	; (2000172c <uart_init+0x11a>)
200016b4:	4694      	mov	ip, r2
200016b6:	4463      	add	r3, ip
200016b8:	2160      	movs	r1, #96	; 0x60
200016ba:	0018      	movs	r0, r3
200016bc:	f7fe fd25 	bl	2000010a <PUT32>
200016c0:	687b      	ldr	r3, [r7, #4]
200016c2:	68db      	ldr	r3, [r3, #12]
200016c4:	4a19      	ldr	r2, [pc, #100]	; (2000172c <uart_init+0x11a>)
200016c6:	4694      	mov	ip, r2
200016c8:	4463      	add	r3, ip
200016ca:	2110      	movs	r1, #16
200016cc:	0018      	movs	r0, r3
200016ce:	f7fe fd1c 	bl	2000010a <PUT32>
200016d2:	687b      	ldr	r3, [r7, #4]
200016d4:	68db      	ldr	r3, [r3, #12]
200016d6:	4a16      	ldr	r2, [pc, #88]	; (20001730 <uart_init+0x11e>)
200016d8:	4694      	mov	ip, r2
200016da:	4463      	add	r3, ip
200016dc:	2280      	movs	r2, #128	; 0x80
200016de:	0052      	lsls	r2, r2, #1
200016e0:	0011      	movs	r1, r2
200016e2:	0018      	movs	r0, r3
200016e4:	f7fe fd11 	bl	2000010a <PUT32>
200016e8:	687b      	ldr	r3, [r7, #4]
200016ea:	68db      	ldr	r3, [r3, #12]
200016ec:	4a10      	ldr	r2, [pc, #64]	; (20001730 <uart_init+0x11e>)
200016ee:	4694      	mov	ip, r2
200016f0:	4463      	add	r3, ip
200016f2:	2280      	movs	r2, #128	; 0x80
200016f4:	0092      	lsls	r2, r2, #2
200016f6:	0011      	movs	r1, r2
200016f8:	0018      	movs	r0, r3
200016fa:	f7fe fd06 	bl	2000010a <PUT32>
200016fe:	687b      	ldr	r3, [r7, #4]
20001700:	68db      	ldr	r3, [r3, #12]
20001702:	4a0b      	ldr	r2, [pc, #44]	; (20001730 <uart_init+0x11e>)
20001704:	4694      	mov	ip, r2
20001706:	4463      	add	r3, ip
20001708:	2101      	movs	r1, #1
2000170a:	0018      	movs	r0, r3
2000170c:	f7fe fcfd 	bl	2000010a <PUT32>
20001710:	e000      	b.n	20001714 <uart_init+0x102>
20001712:	46c0      	nop			; (mov r8, r8)
20001714:	46bd      	mov	sp, r7
20001716:	b006      	add	sp, #24
20001718:	bd80      	pop	{r7, pc}
2000171a:	46c0      	nop			; (mov r8, r8)
2000171c:	40034000 	andmi	r4, r3, r0
20001720:	40038000 	andmi	r8, r3, r0
20001724:	00b71b00 	adcseq	r1, r7, r0, lsl #22
20001728:	47868c00 	strmi	r8, [r6, r0, lsl #24]
2000172c:	0000202c 	andeq	r2, r0, ip, lsr #32
20001730:	00002030 	andeq	r2, r0, r0, lsr r0

20001734 <uart_can_getc>:
20001734:	b580      	push	{r7, lr}
20001736:	af00      	add	r7, sp, #0
20001738:	2300      	movs	r3, #0
2000173a:	0018      	movs	r0, r3
2000173c:	46bd      	mov	sp, r7
2000173e:	bd80      	pop	{r7, pc}

20001740 <uart_getc>:
20001740:	b580      	push	{r7, lr}
20001742:	af00      	add	r7, sp, #0
20001744:	2300      	movs	r3, #0
20001746:	0018      	movs	r0, r3
20001748:	46bd      	mov	sp, r7
2000174a:	bd80      	pop	{r7, pc}

2000174c <uart_can_putc>:
2000174c:	b580      	push	{r7, lr}
2000174e:	af00      	add	r7, sp, #0
20001750:	4b07      	ldr	r3, [pc, #28]	; (20001770 <uart_can_putc+0x24>)
20001752:	68db      	ldr	r3, [r3, #12]
20001754:	3318      	adds	r3, #24
20001756:	0018      	movs	r0, r3
20001758:	f7fe fcd9 	bl	2000010e <GET32>
2000175c:	0003      	movs	r3, r0
2000175e:	095b      	lsrs	r3, r3, #5
20001760:	2201      	movs	r2, #1
20001762:	4013      	ands	r3, r2
20001764:	425a      	negs	r2, r3
20001766:	4153      	adcs	r3, r2
20001768:	b2db      	uxtb	r3, r3
2000176a:	0018      	movs	r0, r3
2000176c:	46bd      	mov	sp, r7
2000176e:	bd80      	pop	{r7, pc}
20001770:	2000f000 	andcs	pc, r0, r0

20001774 <uart_putc>:
20001774:	b580      	push	{r7, lr}
20001776:	b082      	sub	sp, #8
20001778:	af00      	add	r7, sp, #0
2000177a:	0002      	movs	r2, r0
2000177c:	1dfb      	adds	r3, r7, #7
2000177e:	701a      	strb	r2, [r3, #0]
20001780:	46c0      	nop			; (mov r8, r8)
20001782:	f7ff ffe3 	bl	2000174c <uart_can_putc>
20001786:	1e03      	subs	r3, r0, #0
20001788:	d0fb      	beq.n	20001782 <uart_putc+0xe>
2000178a:	4b06      	ldr	r3, [pc, #24]	; (200017a4 <uart_putc+0x30>)
2000178c:	68da      	ldr	r2, [r3, #12]
2000178e:	1dfb      	adds	r3, r7, #7
20001790:	781b      	ldrb	r3, [r3, #0]
20001792:	0019      	movs	r1, r3
20001794:	0010      	movs	r0, r2
20001796:	f7fe fcb8 	bl	2000010a <PUT32>
2000179a:	46c0      	nop			; (mov r8, r8)
2000179c:	46bd      	mov	sp, r7
2000179e:	b002      	add	sp, #8
200017a0:	bd80      	pop	{r7, pc}
200017a2:	46c0      	nop			; (mov r8, r8)
200017a4:	2000f000 	andcs	pc, r0, r0

200017a8 <uart_has_data>:
200017a8:	b580      	push	{r7, lr}
200017aa:	af00      	add	r7, sp, #0
200017ac:	f7ff ffc2 	bl	20001734 <uart_can_getc>
200017b0:	0003      	movs	r3, r0
200017b2:	0018      	movs	r0, r3
200017b4:	46bd      	mov	sp, r7
200017b6:	bd80      	pop	{r7, pc}

200017b8 <uart_getc_async>:
200017b8:	b580      	push	{r7, lr}
200017ba:	af00      	add	r7, sp, #0
200017bc:	f7ff fff4 	bl	200017a8 <uart_has_data>
200017c0:	1e03      	subs	r3, r0, #0
200017c2:	d102      	bne.n	200017ca <uart_getc_async+0x12>
200017c4:	2301      	movs	r3, #1
200017c6:	425b      	negs	r3, r3
200017c8:	e002      	b.n	200017d0 <uart_getc_async+0x18>
200017ca:	f7ff ffb9 	bl	20001740 <uart_getc>
200017ce:	0003      	movs	r3, r0
200017d0:	0018      	movs	r0, r3
200017d2:	46bd      	mov	sp, r7
200017d4:	bd80      	pop	{r7, pc}
200017d6:	46c0      	nop			; (mov r8, r8)

Disassembly of section .rodata:

100017d8 <FLASH_END>:
100017d8:	80a0e081 	adchi	lr, r0, r1, lsl #1
100017dc:	00276021 	eoreq	r6, r7, r1, lsr #32
100017e0:	e200e601 	and	lr, r0, #1048576	; 0x100000
100017e4:	e9000001 	stmdb	r0, {r0}
100017e8:	00000001 	andeq	r0, r0, r1
100017ec:	69726570 	ldmdbvs	r2!, {r4, r5, r6, r8, sl, sp, lr}^
100017f0:	72206870 	eorvc	r6, r0, #112, 16	; 0x700000
100017f4:	74657365 	strbtvc	r7, [r5], #-869	; 0xfffffc9b
100017f8:	0000000a 	andeq	r0, r0, sl
100017fc:	746f7257 	strbtvc	r7, [pc], #-599	; 10001804 <FLASH_END+0x2c>
10001800:	6f742065 	svcvs	0x00742065
10001804:	6d656d20 	stclvs	13, cr6, [r5, #-128]!	; 0xffffff80
10001808:	64646120 	strbtvs	r6, [r4], #-288	; 0xfffffee0
1000180c:	78252072 	stmdavc	r5!, {r1, r4, r5, r6, sp}
10001810:	0000000a 	andeq	r0, r0, sl
10001814:	00000000 	andeq	r0, r0, r0
10001818:	00000001 	andeq	r0, r0, r1
1000181c:	00002580 	andeq	r2, r0, r0, lsl #11
10001820:	00000068 	andeq	r0, r0, r8, rrx
10001824:	20000eae 	andcs	r0, r0, lr, lsr #29
10001828:	20000ed6 	ldrdcs	r0, [r0], -r6
1000182c:	20000ed6 	ldrdcs	r0, [r0], -r6
10001830:	20000ec2 	andcs	r0, r0, r2, asr #29
10001834:	20000ed6 	ldrdcs	r0, [r0], -r6
10001838:	20000ed6 	ldrdcs	r0, [r0], -r6
1000183c:	20000ed6 	ldrdcs	r0, [r0], -r6
10001840:	20000ed6 	ldrdcs	r0, [r0], -r6
10001844:	20000ed6 	ldrdcs	r0, [r0], -r6
10001848:	20000ed6 	ldrdcs	r0, [r0], -r6
1000184c:	20000ed6 	ldrdcs	r0, [r0], -r6
10001850:	20000e9a 	mulcs	r0, sl, lr
10001854:	20000ed6 	ldrdcs	r0, [r0], -r6
10001858:	20000e86 	andcs	r0, r0, r6, lsl #29
1000185c:	20000ed6 	ldrdcs	r0, [r0], -r6
10001860:	20000ed6 	ldrdcs	r0, [r0], -r6
10001864:	20000e72 	andcs	r0, r0, r2, ror lr
10001868:	200013be 			; <UNDEFINED> instruction: 0x200013be
1000186c:	200013d6 	ldrdcs	r1, [r0], -r6
10001870:	200013d6 	ldrdcs	r1, [r0], -r6
10001874:	200013d6 	ldrdcs	r1, [r0], -r6
10001878:	200013d6 	ldrdcs	r1, [r0], -r6
1000187c:	200013d6 	ldrdcs	r1, [r0], -r6
10001880:	200013d6 	ldrdcs	r1, [r0], -r6
10001884:	200013d6 	ldrdcs	r1, [r0], -r6
10001888:	200013d6 	ldrdcs	r1, [r0], -r6
1000188c:	200013d6 	ldrdcs	r1, [r0], -r6
10001890:	200013d6 	ldrdcs	r1, [r0], -r6
10001894:	200013d6 	ldrdcs	r1, [r0], -r6
10001898:	200013d6 	ldrdcs	r1, [r0], -r6
1000189c:	200013d6 	ldrdcs	r1, [r0], -r6
100018a0:	200013d6 	ldrdcs	r1, [r0], -r6
100018a4:	200013d6 	ldrdcs	r1, [r0], -r6
100018a8:	200013d6 	ldrdcs	r1, [r0], -r6
100018ac:	200013d6 	ldrdcs	r1, [r0], -r6
100018b0:	200013d6 	ldrdcs	r1, [r0], -r6
100018b4:	200013d6 	ldrdcs	r1, [r0], -r6
100018b8:	200013d6 	ldrdcs	r1, [r0], -r6
100018bc:	200013d6 	ldrdcs	r1, [r0], -r6
100018c0:	200013d6 	ldrdcs	r1, [r0], -r6
100018c4:	200013d6 	ldrdcs	r1, [r0], -r6
100018c8:	200013d6 	ldrdcs	r1, [r0], -r6
100018cc:	200013d6 	ldrdcs	r1, [r0], -r6
100018d0:	200013d6 	ldrdcs	r1, [r0], -r6
100018d4:	200013d6 	ldrdcs	r1, [r0], -r6
100018d8:	200013d6 	ldrdcs	r1, [r0], -r6
100018dc:	200013d6 	ldrdcs	r1, [r0], -r6
100018e0:	200013d6 	ldrdcs	r1, [r0], -r6
100018e4:	200013d6 	ldrdcs	r1, [r0], -r6
100018e8:	200013d6 	ldrdcs	r1, [r0], -r6
100018ec:	200013d6 	ldrdcs	r1, [r0], -r6
100018f0:	200013d6 	ldrdcs	r1, [r0], -r6
100018f4:	200013d6 	ldrdcs	r1, [r0], -r6
100018f8:	200013d6 	ldrdcs	r1, [r0], -r6
100018fc:	200013d6 	ldrdcs	r1, [r0], -r6
10001900:	200013d6 	ldrdcs	r1, [r0], -r6
10001904:	200013d6 	ldrdcs	r1, [r0], -r6
10001908:	200013d6 	ldrdcs	r1, [r0], -r6
1000190c:	200013d6 	ldrdcs	r1, [r0], -r6
10001910:	200013d6 	ldrdcs	r1, [r0], -r6
10001914:	200013d6 	ldrdcs	r1, [r0], -r6
10001918:	200013d6 	ldrdcs	r1, [r0], -r6
1000191c:	200013d6 	ldrdcs	r1, [r0], -r6
10001920:	200013d6 	ldrdcs	r1, [r0], -r6
10001924:	200013d6 	ldrdcs	r1, [r0], -r6
10001928:	200013d6 	ldrdcs	r1, [r0], -r6
1000192c:	200013d6 	ldrdcs	r1, [r0], -r6
10001930:	200013d6 	ldrdcs	r1, [r0], -r6
10001934:	2000103c 	andcs	r1, r0, ip, lsr r0
10001938:	200013d6 	ldrdcs	r1, [r0], -r6
1000193c:	200013d6 	ldrdcs	r1, [r0], -r6
10001940:	200013d6 	ldrdcs	r1, [r0], -r6
10001944:	200013d6 	ldrdcs	r1, [r0], -r6
10001948:	200013d6 	ldrdcs	r1, [r0], -r6
1000194c:	200013d6 	ldrdcs	r1, [r0], -r6
10001950:	200013d6 	ldrdcs	r1, [r0], -r6
10001954:	200013d6 	ldrdcs	r1, [r0], -r6
10001958:	200013d6 	ldrdcs	r1, [r0], -r6
1000195c:	2000103c 	andcs	r1, r0, ip, lsr r0
10001960:	20001244 	andcs	r1, r0, r4, asr #4
10001964:	2000103c 	andcs	r1, r0, ip, lsr r0
10001968:	200013d6 	ldrdcs	r1, [r0], -r6
1000196c:	200013d6 	ldrdcs	r1, [r0], -r6
10001970:	200013d6 	ldrdcs	r1, [r0], -r6
10001974:	200013d6 	ldrdcs	r1, [r0], -r6
10001978:	2000103c 	andcs	r1, r0, ip, lsr r0
1000197c:	200013d6 	ldrdcs	r1, [r0], -r6
10001980:	200013d6 	ldrdcs	r1, [r0], -r6
10001984:	200013d6 	ldrdcs	r1, [r0], -r6
10001988:	200013d6 	ldrdcs	r1, [r0], -r6
1000198c:	200013d6 	ldrdcs	r1, [r0], -r6
10001990:	2000103c 	andcs	r1, r0, ip, lsr r0
10001994:	20001378 	andcs	r1, r0, r8, ror r3
10001998:	200013d6 	ldrdcs	r1, [r0], -r6
1000199c:	200013d6 	ldrdcs	r1, [r0], -r6
100019a0:	200012b4 			; <UNDEFINED> instruction: 0x200012b4
100019a4:	200013d6 	ldrdcs	r1, [r0], -r6
100019a8:	2000103c 	andcs	r1, r0, ip, lsr r0
100019ac:	200013d6 	ldrdcs	r1, [r0], -r6
100019b0:	200013d6 	ldrdcs	r1, [r0], -r6
100019b4:	2000103c 	andcs	r1, r0, ip, lsr r0

Disassembly of section .bss:

2000f000 <global_hw_uart>:
	...

2000f010 <global_uart>:
	...

Disassembly of section .debug_info:

00000000 <.debug_info>:
       0:	00000317 	andeq	r0, r0, r7, lsl r3
       4:	00000004 	andeq	r0, r0, r4
       8:	01040000 	mrseq	r0, (UNDEF: 4)
       c:	00000000 	andeq	r0, r0, r0
      10:	00012e0c 	andeq	r2, r1, ip, lsl #28
      14:	0001ec00 	andeq	lr, r1, r0, lsl #24
      18:	00011c00 	andeq	r1, r1, r0, lsl #24
      1c:	00019820 	andeq	r9, r1, r0, lsr #16
      20:	00000000 	andeq	r0, r0, r0
      24:	06010200 	streq	r0, [r1], -r0, lsl #4
      28:	00000184 	andeq	r0, r0, r4, lsl #3
      2c:	aa050202 	bge	14083c <STACK_SIZE+0x13e12c>
      30:	02000000 	andeq	r0, r0, #0, 0
      34:	00f60504 	rscseq	r0, r6, r4, lsl #10
      38:	08020000 	stmdaeq	r2, {}	; <UNPREDICTABLE>
      3c:	0000f105 	andeq	pc, r0, r5, lsl #2
      40:	00d20300 	sbcseq	r0, r2, r0, lsl #6
      44:	2e030000 	cdpcs	0, 0, cr0, cr3, cr0, {0}
      48:	00004d18 	andeq	r4, r0, r8, lsl sp
      4c:	08010200 	stmdaeq	r1, {r9}
      50:	00000182 	andeq	r0, r0, r2, lsl #3
      54:	0001c103 	andeq	ip, r1, r3, lsl #2
      58:	19310300 	ldmdbne	r1!, {r8, r9}
      5c:	00000065 	andeq	r0, r0, r5, rrx
      60:	00005404 	andeq	r5, r0, r4, lsl #8
      64:	07020200 	streq	r0, [r2, -r0, lsl #4]
      68:	000001ca 	andeq	r0, r0, sl, asr #3
      6c:	0001b803 	andeq	fp, r1, r3, lsl #16
      70:	19340300 	ldmdbne	r4!, {r8, r9}
      74:	00000078 	andeq	r0, r0, r8, ror r0
      78:	a6070402 	strge	r0, [r7], -r2, lsl #8
      7c:	02000001 	andeq	r0, r0, #1, 0
      80:	01a10708 			; <UNDEFINED> instruction: 0x01a10708
      84:	04050000 	streq	r0, [r5], #-0
      88:	746e6905 	strbtvc	r6, [lr], #-2309	; 0xfffff6fb
      8c:	07040200 	streq	r0, [r4, -r0, lsl #4]
      90:	000001ab 	andeq	r0, r0, fp, lsr #3
      94:	4d010706 	stcmi	7, cr0, [r1, #-24]	; 0xffffffe8
      98:	06000000 	streq	r0, [r0], -r0
      9c:	00b50e3b 	adcseq	r0, r5, fp, lsr lr
      a0:	53070000 	movwpl	r0, #28672	; 0x7000
      a4:	05004f49 	streq	r4, [r0, #-3913]	; 0xfffff0b7
      a8:	00037608 	andeq	r7, r3, r8, lsl #12
      ac:	4f080600 	svcmi	0x00080600
      b0:	07000004 	streq	r0, [r0, -r4]
      b4:	04080200 	streq	r0, [r8], #-512	; 0xfffffe00
      b8:	00000151 	andeq	r0, r0, r1, asr r1
      bc:	0c041009 	stceq	0, cr1, [r4], {9}
      c0:	0000f809 	andeq	pc, r0, r9, lsl #16
      c4:	78740a00 	ldmdavc	r4!, {r9, fp}^
      c8:	090d0400 	stmdbeq	sp, {sl}
      cc:	00000086 	andeq	r0, r0, r6, lsl #1
      d0:	78720a00 	ldmdavc	r2!, {r9, fp}^
      d4:	0c0d0400 	cfstrseq	mvf0, [sp], {-0}
      d8:	00000086 	andeq	r0, r0, r6, lsl #1
      dc:	015d0b04 	cmpeq	sp, r4, lsl #22
      e0:	0e040000 	cdpeq	0, 0, cr0, cr4, cr0, {0}
      e4:	00008d0e 	andeq	r8, r0, lr, lsl #26
      e8:	da0b0800 	ble	2c20f0 <STACK_SIZE+0x2bf9e0>
      ec:	04000000 	streq	r0, [r0], #-0
      f0:	008d0e0f 	addeq	r0, sp, pc, lsl #28
      f4:	000c0000 	andeq	r0, ip, r0
      f8:	00024a03 	andeq	r4, r2, r3, lsl #20
      fc:	03100400 	tsteq	r0, #0, 8
     100:	000000bc 	strheq	r0, [r0], -ip
     104:	0001220c 	andeq	r2, r1, ip, lsl #4
     108:	0b120400 	bleq	481110 <STACK_SIZE+0x47ea00>
     10c:	000000f8 	strdeq	r0, [r0], -r8
     110:	f0100305 			; <UNDEFINED> instruction: 0xf0100305
     114:	10092000 	andne	r2, r9, r0
     118:	52091205 	andpl	r1, r9, #1342177280	; 0x50000000
     11c:	0a000001 	beq	128 <STACK_SIZE-0x25e8>
     120:	05007874 	streq	r7, [r0, #-2164]	; 0xfffff78c
     124:	006c0e13 	rsbeq	r0, ip, r3, lsl lr
     128:	0a000000 	beq	130 <STACK_SIZE-0x25e0>
     12c:	05007872 	streq	r7, [r0, #-2162]	; 0xfffff78e
     130:	006c1113 	rsbeq	r1, ip, r3, lsl r1
     134:	0b040000 	bleq	10013c <STACK_SIZE+0xfda2c>
     138:	000000e7 	andeq	r0, r0, r7, ror #1
     13c:	6c0e1405 	cfstrsvs	mvf1, [lr], {5}
     140:	08000000 	stmdaeq	r0, {}	; <UNPREDICTABLE>
     144:	00009a0b 	andeq	r9, r0, fp, lsl #20
     148:	0e150500 	cfmul32eq	mvfx0, mvfx5, mvfx0
     14c:	0000006c 	andeq	r0, r0, ip, rrx
     150:	4703000c 	strmi	r0, [r3, -ip]
     154:	05000001 	streq	r0, [r0, #-1]
     158:	01160316 	tsteq	r6, r6, lsl r3
     15c:	dd0c0000 	stcle	0, cr0, [ip, #-0]
     160:	05000001 	streq	r0, [r0, #-1]
     164:	01520b18 	cmpeq	r2, r8, lsl fp
     168:	03050000 	movweq	r0, #20480	; 0x5000
     16c:	2000f000 	andcs	pc, r0, r0
     170:	8d040706 	stchi	7, cr0, [r4, #-24]	; 0xffffffe8
     174:	07000000 	streq	r0, [r0, -r0]
     178:	01e20608 	mvneq	r0, r8, lsl #12
     17c:	a00d0000 	andge	r0, sp, r0
     180:	00000000 	andeq	r0, r0, r0
     184:	0d502000 	ldcleq	0, cr2, [r0, #-0]
     188:	0000008f 	andeq	r0, r0, pc, lsl #1
     18c:	50200004 	eorpl	r0, r0, r4
     190:	0000c60d 	andeq	ip, r0, sp, lsl #12
     194:	20000800 	andcs	r0, r0, r0, lsl #16
     198:	013b0d50 	teqeq	fp, r0, asr sp
     19c:	000c0000 	andeq	r0, ip, r0
     1a0:	540d5020 	strpl	r5, [sp], #-32	; 0xffffffe0
     1a4:	10000002 	andne	r0, r0, r2
     1a8:	0d502000 	ldcleq	0, cr2, [r0, #-0]
     1ac:	00000118 	andeq	r0, r0, r8, lsl r1
     1b0:	50200020 	eorpl	r0, r0, r0, lsr #32
     1b4:	00025e0d 	andeq	r5, r2, sp, lsl #28
     1b8:	20004800 	andcs	r4, r0, r0, lsl #16
     1bc:	023a0d50 	eorseq	r0, sl, #80, 26	; 0x1400
     1c0:	00c80000 	sbceq	r0, r8, r0
     1c4:	b40d5020 	strlt	r5, [sp], #-32	; 0xffffffe0
     1c8:	cc000000 	stcgt	0, cr0, [r0], {-0}
     1cc:	0d502000 	ldcleq	0, cr2, [r0, #-0]
     1d0:	00000162 	andeq	r0, r0, r2, ror #2
     1d4:	502000d0 	ldrdpl	r0, [r0], -r0	; <UNPREDICTABLE>
     1d8:	0001070d 	andeq	r0, r1, sp, lsl #14
     1dc:	2000dc00 	andcs	sp, r0, r0, lsl #24
     1e0:	600e0050 	andvs	r0, lr, r0, asr r0
     1e4:	f2000000 	vhadd.s8	d0, d0, d0
     1e8:	0f000001 	svceq	0x00000001
     1ec:	0000008d 	andeq	r0, r0, sp, lsl #1
     1f0:	e2040008 	and	r0, r4, #8, 0
     1f4:	10000001 	andne	r0, r0, r1
     1f8:	00000229 	andeq	r0, r0, r9, lsr #4
     1fc:	f2170b02 	vqdmulh.s16	d0, d7, d2
     200:	05000001 	streq	r0, [r0, #-1]
     204:	0017d803 	andseq	sp, r7, r3, lsl #16
     208:	01901110 	orrseq	r1, r0, r0, lsl r1
     20c:	17020000 	strne	r0, [r2, -r0]
     210:	00008605 	andeq	r8, r0, r5, lsl #12
     214:	0001a600 	andeq	sl, r1, r0, lsl #12
     218:	00010e20 	andeq	r0, r1, r0, lsr #28
     21c:	979c0100 	ldrls	r0, [ip, r0, lsl #2]
     220:	10000002 	andne	r0, r0, r2
     224:	000005ea 	andeq	r0, r0, sl, ror #11
     228:	86092002 	strhi	r2, [r9], -r2
     22c:	02000000 	andeq	r0, r0, #0, 0
     230:	c6126491 			; <UNDEFINED> instruction: 0xc6126491
     234:	42200001 	eormi	r0, r0, #1, 0
     238:	4d000000 	stcmi	0, cr0, [r0, #-0]
     23c:	13000002 	movwne	r0, #2
     240:	21020069 	tstcs	r2, r9, rrx
     244:	0000860e 	andeq	r8, r0, lr, lsl #12
     248:	74910200 	ldrvc	r0, [r1], #512	; 0x200
     24c:	022c1200 	eoreq	r1, ip, #0, 4
     250:	003e2000 	eorseq	r2, lr, r0
     254:	027f0000 	rsbseq	r0, pc, #0, 0
     258:	69130000 	ldmdbvs	r3, {}	; <UNPREDICTABLE>
     25c:	12450200 	subne	r0, r5, #0, 4
     260:	00000086 	andeq	r0, r0, r6, lsl #1
     264:	14709102 	ldrbtne	r9, [r0], #-258	; 0xfffffefe
     268:	20000232 	andcs	r0, r0, r2, lsr r2
     26c:	0000001a 	andeq	r0, r0, sl, lsl r0
     270:	02006a13 	andeq	r6, r0, #77824	; 0x13000
     274:	00861646 	addeq	r1, r6, r6, asr #12
     278:	91020000 	mrsls	r0, (UNDEF: 2)
     27c:	1400006c 	strne	r0, [r0], #-108	; 0xffffff94
     280:	2000026a 	andcs	r0, r0, sl, ror #4
     284:	0000001c 	andeq	r0, r0, ip, lsl r0
     288:	02006913 	andeq	r6, r0, #311296	; 0x4c000
     28c:	0086124d 	addeq	r1, r6, sp, asr #4
     290:	91020000 	mrsls	r0, (UNDEF: 2)
     294:	15000068 	strne	r0, [r0, #-104]	; 0xffffff98
     298:	00000175 	andeq	r0, r0, r5, ror r1
     29c:	680d2f01 	stmdavs	sp, {r0, r8, r9, sl, fp, sp}
     2a0:	3e200001 	cdpcc	0, 2, cr0, cr0, cr1, {0}
     2a4:	01000000 	mrseq	r0, (UNDEF: 0)
     2a8:	0002d29c 	muleq	r2, ip, r2
     2ac:	00621600 	rsbeq	r1, r2, r0, lsl #12
     2b0:	41222f01 			; <UNDEFINED> instruction: 0x41222f01
     2b4:	02000000 	andeq	r0, r0, #0, 0
     2b8:	74146f91 	ldrvc	r6, [r4], #-3985	; 0xfffff06f
     2bc:	28200001 	stmdacs	r0!, {r0}
     2c0:	13000000 	movwne	r0, #0
     2c4:	30010069 	andcc	r0, r1, r9, rrx
     2c8:	0000860d 	andeq	r8, r0, sp, lsl #12
     2cc:	74910200 	ldrvc	r0, [r1], #512	; 0x200
     2d0:	97150000 	ldrls	r0, [r5, -r0]
     2d4:	01000001 	tsteq	r0, r1
     2d8:	013c1429 	teqeq	ip, r9, lsr #8
     2dc:	002c2000 	eoreq	r2, ip, r0
     2e0:	9c010000 	stcls	0, cr0, [r1], {-0}
     2e4:	000002f8 	strdeq	r0, [r0], -r8
     2e8:	44454c16 	strbmi	r4, [r5], #-3094	; 0xfffff3ea
     2ec:	27290100 	strcs	r0, [r9, -r0, lsl #2]!
     2f0:	0000006c 	andeq	r0, r0, ip, rrx
     2f4:	00749102 	rsbseq	r9, r4, r2, lsl #2
     2f8:	0000ff17 	andeq	pc, r0, r7, lsl pc	; <UNPREDICTABLE>
     2fc:	141e0100 	ldrne	r0, [lr], #-256	; 0xffffff00
     300:	2000011c 	andcs	r0, r0, ip, lsl r1
     304:	00000020 	andeq	r0, r0, r0, lsr #32
     308:	62169c01 	andsvs	r9, r6, #256	; 0x100
     30c:	01007469 	tsteq	r0, r9, ror #8
     310:	006c251e 	rsbeq	r2, ip, lr, lsl r5
     314:	91020000 	mrsls	r0, (UNDEF: 2)
     318:	1e000074 	mcrne	0, 0, r0, cr0, cr4, {3}
     31c:	02000000 	andeq	r0, r0, #0, 0
     320:	00015900 	andeq	r5, r1, r0, lsl #18
     324:	de010400 	cfcpysle	mvf0, mvf1
     328:	00000001 	andeq	r0, r0, r1
     32c:	72000000 	andvc	r0, r0, #0, 0
     330:	7a000002 	bvc	340 <STACK_SIZE-0x23d0>
     334:	aa000002 	bge	344 <STACK_SIZE-0x23cc>
     338:	01000002 	tsteq	r0, r2
     33c:	0001a880 	andeq	sl, r1, r0, lsl #17
     340:	6b000400 	blvs	1348 <STACK_SIZE-0x13c8>
     344:	04000001 	streq	r0, [r0], #-1
     348:	00000001 	andeq	r0, r0, r1
     34c:	02b80c00 	adcseq	r0, r8, #0, 24
     350:	027a0000 	rsbseq	r0, sl, #0, 0
     354:	02b40000 	adcseq	r0, r4, #0, 0
     358:	00802000 	addeq	r2, r0, r0
     35c:	025f0000 	subseq	r0, pc, #0, 0
     360:	01020000 	mrseq	r0, (UNDEF: 2)
     364:	00018406 	andeq	r8, r1, r6, lsl #8
     368:	05020200 	streq	r0, [r2, #-512]	; 0xfffffe00
     36c:	000000aa 	andeq	r0, r0, sl, lsr #1
     370:	f6050402 			; <UNDEFINED> instruction: 0xf6050402
     374:	02000000 	andeq	r0, r0, #0, 0
     378:	00f10508 	rscseq	r0, r1, r8, lsl #10
     37c:	01020000 	mrseq	r0, (UNDEF: 2)
     380:	00018208 	andeq	r8, r1, r8, lsl #4
     384:	07020200 	streq	r0, [r2, -r0, lsl #4]
     388:	000001ca 	andeq	r0, r0, sl, asr #3
     38c:	0001b803 	andeq	fp, r1, r3, lsl #16
     390:	19340300 	ldmdbne	r4!, {r8, r9}
     394:	0000005b 	andeq	r0, r0, fp, asr r0
     398:	a6070402 	strge	r0, [r7], -r2, lsl #8
     39c:	02000001 	andeq	r0, r0, #1, 0
     3a0:	01a10708 			; <UNDEFINED> instruction: 0x01a10708
     3a4:	04040000 	streq	r0, [r4], #-0
     3a8:	746e6905 	strbtvc	r6, [lr], #-2309	; 0xfffff6fb
     3ac:	07040200 	streq	r0, [r4, -r0, lsl #4]
     3b0:	000001ab 	andeq	r0, r0, fp, lsr #3
     3b4:	70040705 	andvc	r0, r4, r5, lsl #14
     3b8:	05000000 	streq	r0, [r0, #-0]
     3bc:	008f061f 	addeq	r0, pc, pc, lsl r6	; <UNPREDICTABLE>
     3c0:	da060000 	ble	1803c8 <STACK_SIZE+0x17dcb8>
     3c4:	48000002 	stmdami	r0, {r1}
     3c8:	00400080 	subeq	r0, r0, r0, lsl #1
     3cc:	0c021007 	stceq	0, cr1, [r2], {7}
     3d0:	0000cb09 	andeq	ip, r0, r9, lsl #22
     3d4:	78740800 	ldmdavc	r4!, {fp}^
     3d8:	090d0200 	stmdbeq	sp, {r9}
     3dc:	00000069 	andeq	r0, r0, r9, rrx
     3e0:	78720800 	ldmdavc	r2!, {fp}^
     3e4:	0c0d0200 	sfmeq	f0, 4, [sp], {-0}
     3e8:	00000069 	andeq	r0, r0, r9, rrx
     3ec:	015d0904 	cmpeq	sp, r4, lsl #18
     3f0:	0e020000 	cdpeq	0, 0, cr0, cr2, cr0, {0}
     3f4:	0000700e 	andeq	r7, r0, lr
     3f8:	da090800 	ble	242400 <STACK_SIZE+0x23fcf0>
     3fc:	02000000 	andeq	r0, r0, #0, 0
     400:	00700e0f 	rsbseq	r0, r0, pc, lsl #28
     404:	000c0000 	andeq	r0, ip, r0
     408:	00024a03 	andeq	r4, r2, r3, lsl #20
     40c:	03100200 	tsteq	r0, #0, 4
     410:	0000008f 	andeq	r0, r0, pc, lsl #1
     414:	0001220a 	andeq	r2, r1, sl, lsl #4
     418:	0b120200 	bleq	480c20 <STACK_SIZE+0x47e510>
     41c:	000000cb 	andeq	r0, r0, fp, asr #1
     420:	f0100305 			; <UNDEFINED> instruction: 0xf0100305
     424:	08022000 	stmdaeq	r2, {sp}
     428:	00015104 	andeq	r5, r1, r4, lsl #2
     42c:	04100700 	ldreq	r0, [r0], #-1792	; 0xfffff900
     430:	012c0912 			; <UNDEFINED> instruction: 0x012c0912
     434:	74080000 	strvc	r0, [r8], #-0
     438:	13040078 	movwne	r0, #16504	; 0x4078
     43c:	00004f0e 	andeq	r4, r0, lr, lsl #30
     440:	72080000 	andvc	r0, r8, #0, 0
     444:	13040078 	movwne	r0, #16504	; 0x4078
     448:	00004f11 	andeq	r4, r0, r1, lsl pc
     44c:	e7090400 	str	r0, [r9, -r0, lsl #8]
     450:	04000000 	streq	r0, [r0], #-0
     454:	004f0e14 	subeq	r0, pc, r4, lsl lr	; <UNPREDICTABLE>
     458:	09080000 	stmdbeq	r8, {}	; <UNPREDICTABLE>
     45c:	0000009a 	muleq	r0, sl, r0
     460:	4f0e1504 	svcmi	0x000e1504
     464:	0c000000 	stceq	0, cr0, [r0], {-0}
     468:	01470300 	mrseq	r0, (UNDEF: 119)
     46c:	16040000 	strne	r0, [r4], -r0
     470:	0000f003 	andeq	pc, r0, r3
     474:	01dd0a00 	bicseq	r0, sp, r0, lsl #20
     478:	18040000 	stmdane	r4, {}	; <UNPREDICTABLE>
     47c:	00012c0b 	andeq	r2, r1, fp, lsl #24
     480:	00030500 	andeq	r0, r3, r0, lsl #10
     484:	0b2000f0 	bleq	80084c <STACK_SIZE+0x7fe13c>
     488:	000002c5 	andeq	r0, r0, r5, asr #5
     48c:	b4060a01 	strlt	r0, [r6], #-2561	; 0xfffff5ff
     490:	80200002 	eorhi	r0, r0, r2
     494:	01000000 	mrseq	r0, (UNDEF: 0)
     498:	0001a59c 	muleq	r1, ip, r5
     49c:	02cc0c00 	sbceq	r0, ip, #0, 24
     4a0:	0c010000 	stceq	0, cr0, [r1], {-0}
     4a4:	00004f15 	andeq	r4, r0, r5, lsl pc
     4a8:	02e80c00 	rsceq	r0, r8, #0, 24
     4ac:	0c010000 	stceq	0, cr0, [r1], {-0}
     4b0:	00004f23 	andeq	r4, r0, r3, lsr #30
     4b4:	02f40d00 	rscseq	r0, r4, #0, 26
     4b8:	0d010000 	stceq	0, cr0, [r1, #-0]
     4bc:	0001a50f 	andeq	sl, r1, pc, lsl #10
     4c0:	70910200 	addsvc	r0, r1, r0, lsl #4
     4c4:	7373620e 	cmnvc	r3, #-536870912	; 0xe0000000
     4c8:	0f0e0100 	svceq	0x000e0100
     4cc:	000001a5 	andeq	r0, r0, r5, lsr #3
     4d0:	0f749102 	svceq	0x00749102
     4d4:	00000190 	muleq	r0, r0, r1
     4d8:	69051d01 	stmdbvs	r5, {r0, r8, sl, fp, ip}
     4dc:	10000000 	andne	r0, r0, r0
     4e0:	04110000 	ldreq	r0, [r1], #-0
     4e4:	0000004f 	andeq	r0, r0, pc, asr #32
     4e8:	00034900 	andeq	r4, r3, r0, lsl #18
     4ec:	74000400 	strvc	r0, [r0], #-1024	; 0xfffffc00
     4f0:	04000002 	streq	r0, [r0], #-2
     4f4:	00000001 	andeq	r0, r0, r1
     4f8:	046d0c00 	strbteq	r0, [sp], #-3072	; 0xfffff400
     4fc:	027a0000 	rsbseq	r0, sl, #0, 0
     500:	03340000 	teqeq	r4, #0, 0
     504:	023c2000 	eorseq	r2, ip, #0, 0
     508:	03550000 	cmpeq	r5, #0, 0
     50c:	01020000 	mrseq	r0, (UNDEF: 2)
     510:	00018406 	andeq	r8, r1, r6, lsl #8
     514:	05020200 	streq	r0, [r2, #-512]	; 0xfffffe00
     518:	000000aa 	andeq	r0, r0, sl, lsr #1
     51c:	f6050402 			; <UNDEFINED> instruction: 0xf6050402
     520:	02000000 	andeq	r0, r0, #0, 0
     524:	00f10508 	rscseq	r0, r1, r8, lsl #10
     528:	01020000 	mrseq	r0, (UNDEF: 2)
     52c:	00018208 	andeq	r8, r1, r8, lsl #4
     530:	07020200 	streq	r0, [r2, -r0, lsl #4]
     534:	000001ca 	andeq	r0, r0, sl, asr #3
     538:	0001b803 	andeq	fp, r1, r3, lsl #16
     53c:	19340300 	ldmdbne	r4!, {r8, r9}
     540:	0000005b 	andeq	r0, r0, fp, asr r0
     544:	a6070402 	strge	r0, [r7], -r2, lsl #8
     548:	02000001 	andeq	r0, r0, #1, 0
     54c:	01a10708 			; <UNDEFINED> instruction: 0x01a10708
     550:	04040000 	streq	r0, [r4], #-0
     554:	746e6905 	strbtvc	r6, [lr], #-2309	; 0xfffff6fb
     558:	07040200 	streq	r0, [r4, -r0, lsl #4]
     55c:	000001ab 	andeq	r0, r0, fp, lsr #3
     560:	70040705 	andvc	r0, r4, r5, lsl #14
     564:	02000000 	andeq	r0, r0, #0, 0
     568:	0098060d 	addseq	r0, r8, sp, lsl #12
     56c:	1f060000 	svcne	0x00060000
     570:	00000003 	andeq	r0, r0, r3
     574:	06400140 	strbeq	r0, [r0], -r0, asr #2
     578:	00000437 	andeq	r0, r0, r7, lsr r4
     57c:	40014004 	andmi	r4, r1, r4
     580:	04070500 	streq	r0, [r7], #-1280	; 0xfffffb00
     584:	00000070 	andeq	r0, r0, r0, ror r0
     588:	e6061402 	str	r1, [r6], -r2, lsl #8
     58c:	06000000 	streq	r0, [r0], -r0
     590:	000003c5 	andeq	r0, r0, r5, asr #7
     594:	d0000004 	andle	r0, r0, r4
     598:	00049d06 	andeq	r9, r4, r6, lsl #26
     59c:	00001000 	andeq	r1, r0, r0
     5a0:	047806d0 	ldrbteq	r0, [r8], #-1744	; 0xfffff930
     5a4:	00140000 	andseq	r0, r4, r0
     5a8:	1206d000 	andne	sp, r6, #0, 0
     5ac:	18000003 	stmdane	r0, {r0, r1}
     5b0:	06d00000 	ldrbeq	r0, [r0], r0
     5b4:	000003e9 	andeq	r0, r0, r9, ror #7
     5b8:	d0000020 	andle	r0, r0, r0, lsr #32
     5bc:	0002fc06 	andeq	pc, r2, r6, lsl #24
     5c0:	00002800 	andeq	r2, r0, r0, lsl #16
     5c4:	046106d0 	strbteq	r0, [r1], #-1744	; 0xfffff930
     5c8:	00240000 	eoreq	r0, r4, r0
     5cc:	0500d000 	streq	sp, [r0, #-0]
     5d0:	00700407 	rsbseq	r0, r0, r7, lsl #8
     5d4:	21020000 	mrscs	r0, (UNDEF: 2)
     5d8:	00010706 	andeq	r0, r1, r6, lsl #14
     5dc:	03d80600 	bicseq	r0, r8, #0, 12
     5e0:	c0000000 	andgt	r0, r0, r0
     5e4:	33064001 	movwcc	r4, #24577	; 0x6001
     5e8:	04000003 	streq	r0, [r0], #-3
     5ec:	004001c0 	subeq	r0, r0, r0, asr #3
     5f0:	70040705 	andvc	r0, r4, r5, lsl #14
     5f4:	02000000 	andeq	r0, r0, #0, 0
     5f8:	013a0628 	teqeq	sl, r8, lsr #12
     5fc:	97060000 	strls	r0, [r6, -r0]
     600:	00000004 	andeq	r0, r0, r4
     604:	064000c0 	strbeq	r0, [r0], -r0, asr #1
     608:	000003b1 			; <UNDEFINED> instruction: 0x000003b1
     60c:	4000c004 	andmi	ip, r0, r4
     610:	0003cd06 	andeq	ip, r3, r6, lsl #26
     614:	00c00800 	sbceq	r0, r0, r0, lsl #16
     618:	04140640 	ldreq	r0, [r4], #-1600	; 0xfffff9c0
     61c:	f0000000 			; <UNDEFINED> instruction: 0xf0000000
     620:	05004000 	streq	r4, [r0, #-0]
     624:	00410107 	subeq	r0, r1, r7, lsl #2
     628:	30020000 	andcc	r0, r2, r0
     62c:	00017306 	andeq	r7, r1, r6, lsl #6
     630:	03920700 	orrseq	r0, r2, #0, 14
     634:	07050000 	streq	r0, [r5, -r0]
     638:	00000353 	andeq	r0, r0, r3, asr r3
     63c:	03fd0718 	mvnseq	r0, #24, 14	; 0x600000
     640:	07170000 	ldreq	r0, [r7, -r0]
     644:	000003f1 	strdeq	r0, [r0], -r1
     648:	03420716 	movteq	r0, #10006	; 0x2716
     64c:	07080000 	streq	r0, [r8, -r0]
     650:	00000370 	andeq	r0, r0, r0, ror r3
     654:	0449070a 	strbeq	r0, [r9], #-1802	; 0xfffff8f6
     658:	000b0000 	andeq	r0, fp, r0
     65c:	41010705 	tstmi	r1, r5, lsl #14
     660:	02000000 	andeq	r0, r0, #0, 0
     664:	01940e3b 	orrseq	r0, r4, fp, lsr lr
     668:	53080000 	movwpl	r0, #32768	; 0x8000
     66c:	05004f49 	streq	r4, [r0, #-3913]	; 0xfffff0b7
     670:	00037607 	andeq	r7, r3, r7, lsl #12
     674:	4f070600 	svcmi	0x00070600
     678:	07000004 	streq	r0, [r0, -r4]
     67c:	04080200 	streq	r0, [r8], #-512	; 0xfffffe00
     680:	00000151 	andeq	r0, r0, r1, asr r1
     684:	00030809 	andeq	r0, r3, r9, lsl #16
     688:	06510100 	ldrbeq	r0, [r1], -r0, lsl #2
     68c:	2000053c 	andcs	r0, r0, ip, lsr r5
     690:	00000034 	andeq	r0, r0, r4, lsr r0
     694:	01d09c01 	bicseq	r9, r0, r1, lsl #24
     698:	700a0000 	andvc	r0, sl, r0
     69c:	01006e69 	tsteq	r0, r9, ror #28
     6a0:	004f1951 	subeq	r1, pc, r1, asr r9	; <UNPREDICTABLE>
     6a4:	91020000 	mrsls	r0, (UNDEF: 2)
     6a8:	04300b6c 	ldrteq	r0, [r0], #-2924	; 0xfffff494
     6ac:	55010000 	strpl	r0, [r1, #-0]
     6b0:	00004f0e 	andeq	r4, r0, lr, lsl #30
     6b4:	74910200 	ldrvc	r0, [r1], #512	; 0x200
     6b8:	03bb0c00 			; <UNDEFINED> instruction: 0x03bb0c00
     6bc:	4d010000 	stcmi	0, cr0, [r1, #-0]
     6c0:	00052c06 	andeq	r2, r5, r6, lsl #24
     6c4:	00001020 	andeq	r1, r0, r0, lsr #32
     6c8:	0c9c0100 	ldfeqs	f0, [ip], {0}
     6cc:	00000409 	andeq	r0, r0, r9, lsl #8
     6d0:	1c064901 			; <UNDEFINED> instruction: 0x1c064901
     6d4:	10200005 	eorne	r0, r0, r5
     6d8:	01000000 	mrseq	r0, (UNDEF: 0)
     6dc:	0385099c 	orreq	r0, r5, #156, 18	; 0x270000
     6e0:	41010000 	mrsmi	r0, (UNDEF: 1)
     6e4:	0004ec06 	andeq	lr, r4, r6, lsl #24
     6e8:	00003020 	andeq	r3, r0, r0, lsr #32
     6ec:	1a9c0100 	bne	fe700af4 <__bss_end__+0xde6f1ad4>
     6f0:	0a000002 	beq	700 <STACK_SIZE-0x2010>
     6f4:	006e6970 	rsbeq	r6, lr, r0, ror r9
     6f8:	4f1c4101 	svcmi	0x001c4101
     6fc:	02000000 	andeq	r0, r0, #0, 0
     700:	09007491 	stmdbeq	r0, {r0, r4, r7, sl, ip, sp, lr}
     704:	000004a6 	andeq	r0, r0, r6, lsr #9
     708:	bc063a01 			; <UNDEFINED> instruction: 0xbc063a01
     70c:	30200004 	eorcc	r0, r0, r4
     710:	01000000 	mrseq	r0, (UNDEF: 0)
     714:	0002409c 	muleq	r2, ip, r0
     718:	69700a00 	ldmdbvs	r0!, {r9, fp}^
     71c:	3a01006e 	bcc	408dc <STACK_SIZE+0x3e1cc>
     720:	00004f1b 	andeq	r4, r0, fp, lsl pc
     724:	74910200 	ldrvc	r0, [r1], #512	; 0x200
     728:	03a10900 			; <UNDEFINED> instruction: 0x03a10900
     72c:	2d010000 	stccs	0, cr0, [r1, #-0]
     730:	00044006 	andeq	r4, r4, r6
     734:	00007c20 	andeq	r7, r0, r0, lsr #24
     738:	759c0100 	ldrvc	r0, [ip, #256]	; 0x100
     73c:	0a000002 	beq	74c <STACK_SIZE-0x1fc4>
     740:	006e6970 	rsbeq	r6, lr, r0, ror r9
     744:	4f1f2d01 	svcmi	0x001f2d01
     748:	02000000 	andeq	r0, r0, #0, 0
     74c:	300b6c91 	mulcc	fp, r1, ip
     750:	01000004 	tsteq	r0, r4
     754:	004f0e32 	subeq	r0, pc, r2, lsr lr	; <UNPREDICTABLE>
     758:	91020000 	mrsls	r0, (UNDEF: 2)
     75c:	7b0d0074 	blvc	340934 <STACK_SIZE+0x33e224>
     760:	01000003 	tsteq	r0, r3
     764:	004f0a26 	subeq	r0, pc, r6, lsr #20
     768:	040c0000 	streq	r0, [ip], #-0
     76c:	00342000 	eorseq	r2, r4, r0
     770:	9c010000 	stcls	0, cr0, [r1], {-0}
     774:	0000029f 	muleq	r0, pc, r2	; <UNPREDICTABLE>
     778:	6e69700a 	cdpvs	0, 6, cr7, cr9, cr10, {0}
     77c:	1d260100 	stfnes	f0, [r6, #-0]
     780:	0000004f 	andeq	r0, r0, pc, asr #32
     784:	00749102 	rsbseq	r9, r4, r2, lsl #2
     788:	00036109 	andeq	r6, r3, r9, lsl #2
     78c:	061d0100 	ldreq	r0, [sp], -r0, lsl #2
     790:	200003cc 	andcs	r0, r0, ip, asr #7
     794:	00000040 	andeq	r0, r0, r0, asr #32
     798:	02d49c01 	sbcseq	r9, r4, #256	; 0x100
     79c:	700a0000 	andvc	r0, sl, r0
     7a0:	01006e69 	tsteq	r0, r9, ror #28
     7a4:	004f1e1d 	subeq	r1, pc, sp, lsl lr	; <UNPREDICTABLE>
     7a8:	91020000 	mrsls	r0, (UNDEF: 2)
     7ac:	04300b6c 	ldrteq	r0, [r0], #-2924	; 0xfffff494
     7b0:	21010000 	mrscs	r0, (UNDEF: 1)
     7b4:	00004f0e 	andeq	r4, r0, lr, lsl #30
     7b8:	74910200 	ldrvc	r0, [r1], #512	; 0x200
     7bc:	04850900 	streq	r0, [r5], #2304	; 0x900
     7c0:	12010000 	andne	r0, r1, #0, 0
     7c4:	00038c06 	andeq	r8, r3, r6, lsl #24
     7c8:	00004020 	andeq	r4, r0, r0, lsr #32
     7cc:	189c0100 	ldmne	ip, {r8}
     7d0:	0a000003 	beq	7e4 <STACK_SIZE-0x1f2c>
     7d4:	006e6970 	rsbeq	r6, lr, r0, ror r9
     7d8:	4f211201 	svcmi	0x00211201
     7dc:	02000000 	andeq	r0, r0, #0, 0
     7e0:	8e0e6c91 	mcrhi	12, 0, r6, cr14, cr1, {4}
     7e4:	01000004 	tsteq	r0, r4
     7e8:	004f2f12 	subeq	r2, pc, r2, lsl pc	; <UNPREDICTABLE>
     7ec:	91020000 	mrsls	r0, (UNDEF: 2)
     7f0:	04300b68 	ldrteq	r0, [r0], #-2920	; 0xfffff498
     7f4:	19010000 	stmdbne	r1, {}	; <UNPREDICTABLE>
     7f8:	00004f0e 	andeq	r4, r0, lr, lsl #30
     7fc:	74910200 	ldrvc	r0, [r1], #512	; 0x200
     800:	04250c00 	strteq	r0, [r5], #-3072	; 0xfffff400
     804:	0e010000 	cdpeq	0, 0, cr0, cr1, cr0, {0}
     808:	00037c06 	andeq	r7, r3, r6, lsl #24
     80c:	00001020 	andeq	r1, r0, r0, lsr #32
     810:	0f9c0100 	svceq	0x009c0100
     814:	00000454 	andeq	r0, r0, r4, asr r4
     818:	34060901 	strcc	r0, [r6], #-2305	; 0xfffff6ff
     81c:	48200003 	stmdami	r0!, {r0, r1}
     820:	01000000 	mrseq	r0, (UNDEF: 0)
     824:	6f6c0a9c 	svcvs	0x006c0a9c
     828:	09010063 	stmdbeq	r1, {r0, r1, r5, r6}
     82c:	00004f1c 	andeq	r4, r0, ip, lsl pc
     830:	74910200 	ldrvc	r0, [r1], #512	; 0x200
     834:	01ad0000 			; <UNDEFINED> instruction: 0x01ad0000
     838:	00040000 	andeq	r0, r4, r0
     83c:	0000037a 	andeq	r0, r0, sl, ror r3
     840:	00000104 	andeq	r0, r0, r4, lsl #2
     844:	fb0c0000 	blx	30084e <STACK_SIZE+0x2fe13e>
     848:	7a000004 	bvc	860 <STACK_SIZE-0x1eb0>
     84c:	70000002 	andvc	r0, r0, r2
     850:	b8200005 	stmdalt	r0!, {r0, r2}
     854:	e3000001 	movw	r0, #1
     858:	02000004 	andeq	r0, r0, #4, 0
     85c:	01840601 	orreq	r0, r4, r1, lsl #12
     860:	02020000 	andeq	r0, r2, #0, 0
     864:	0000aa05 	andeq	sl, r0, r5, lsl #20
     868:	05040200 	streq	r0, [r4, #-512]	; 0xfffffe00
     86c:	000000f6 	strdeq	r0, [r0], -r6
     870:	f1050802 			; <UNDEFINED> instruction: 0xf1050802
     874:	02000000 	andeq	r0, r0, #0, 0
     878:	01820801 	orreq	r0, r2, r1, lsl #16
     87c:	02020000 	andeq	r0, r2, #0, 0
     880:	0001ca07 	andeq	ip, r1, r7, lsl #20
     884:	01b80300 			; <UNDEFINED> instruction: 0x01b80300
     888:	34030000 	strcc	r0, [r3], #-0
     88c:	00005b19 	andeq	r5, r0, r9, lsl fp
     890:	07040200 	streq	r0, [r4, -r0, lsl #4]
     894:	000001a6 	andeq	r0, r0, r6, lsr #3
     898:	a1070802 	tstge	r7, r2, lsl #16
     89c:	04000001 	streq	r0, [r0], #-1
     8a0:	6e690504 	cdpvs	5, 6, cr0, cr9, cr4, {0}
     8a4:	04020074 	streq	r0, [r2], #-116	; 0xffffff8c
     8a8:	0001ab07 	andeq	sl, r1, r7, lsl #22
     8ac:	04070500 	streq	r0, [r7], #-1280	; 0xfffffb00
     8b0:	00000070 	andeq	r0, r0, r0, ror r0
     8b4:	b3061402 	movwlt	r1, #25602	; 0x6402
     8b8:	06000000 	streq	r0, [r0], -r0
     8bc:	00000546 	andeq	r0, r0, r6, asr #10
     8c0:	40024000 	andmi	r4, r2, r0
     8c4:	0004e206 	andeq	lr, r4, r6, lsl #4
     8c8:	02400400 	subeq	r0, r0, #0, 8
     8cc:	04b20640 	ldrteq	r0, [r2], #1600	; 0x640
     8d0:	40080000 	andmi	r0, r8, r0
     8d4:	c5064002 	strgt	r4, [r6, #-2]
     8d8:	0c000004 	stceq	0, cr0, [r0], {4}
     8dc:	06400240 	strbeq	r0, [r0], -r0, asr #4
     8e0:	00000510 	andeq	r0, r0, r0, lsl r5
     8e4:	4002401c 	andmi	r4, r2, ip, lsl r0
     8e8:	04070500 	streq	r0, [r7], #-1280	; 0xfffffb00
     8ec:	00000070 	andeq	r0, r0, r0, ror r0
     8f0:	cb061f02 	blgt	188500 <STACK_SIZE+0x185df0>
     8f4:	06000000 	streq	r0, [r0], -r0
     8f8:	000002da 	ldrdeq	r0, [r0], -sl
     8fc:	40008048 	andmi	r8, r0, r8, asr #32
     900:	04d20700 	ldrbeq	r0, [r2], #1792	; 0x700
     904:	54010000 	strpl	r0, [r1], #-0
     908:	0006f006 	andeq	pc, r6, r6
     90c:	00003820 	andeq	r3, r0, r0, lsr #16
     910:	f19c0100 			; <UNDEFINED> instruction: 0xf19c0100
     914:	08000000 	stmdaeq	r0, {}	; <UNPREDICTABLE>
     918:	000004f4 	strdeq	r0, [r0], -r4
     91c:	4f1f5401 	svcmi	0x001f5401
     920:	02000000 	andeq	r0, r0, #0, 0
     924:	07007491 			; <UNDEFINED> instruction: 0x07007491
     928:	0000051b 	andeq	r0, r0, fp, lsl r5
     92c:	a8064b01 	stmdage	r6, {r0, r8, r9, fp, lr}
     930:	48200006 	stmdami	r0!, {r1, r2}
     934:	01000000 	mrseq	r0, (UNDEF: 0)
     938:	0001179c 	muleq	r1, ip, r7
     93c:	04bf0800 	ldrteq	r0, [pc], #2048	; 944 <STACK_SIZE-0x1dcc>
     940:	4b010000 	blmi	40948 <STACK_SIZE+0x3e238>
     944:	00004f23 	andeq	r4, r0, r3, lsr #30
     948:	74910200 	ldrvc	r0, [r1], #512	; 0x200
     94c:	05070700 	streq	r0, [r7, #-1792]	; 0xfffff900
     950:	37010000 	strcc	r0, [r1, -r0]
     954:	00065006 	andeq	r5, r6, r6
     958:	00005820 	andeq	r5, r0, r0, lsr #16
     95c:	629c0100 	addsvs	r0, ip, #0
     960:	09000001 	stmdbeq	r0, {r0}
     964:	01007375 	tsteq	r0, r5, ror r3
     968:	004f1837 	subeq	r1, pc, r7, lsr r8	; <UNPREDICTABLE>
     96c:	91020000 	mrsls	r0, (UNDEF: 2)
     970:	053c0a6c 	ldreq	r0, [ip, #-2668]!	; 0xfffff594
     974:	38010000 	stmdacc	r1, {}	; <UNPREDICTABLE>
     978:	00004f0e 	andeq	r4, r0, lr, lsl #30
     97c:	70910200 	addsvc	r0, r1, r0, lsl #4
     980:	0006660b 	andeq	r6, r6, fp, lsl #12
     984:	00003020 	andeq	r3, r0, r0, lsr #32
     988:	00690c00 	rsbeq	r0, r9, r0, lsl #24
     98c:	690e3901 	stmdbvs	lr, {r0, r8, fp, ip, sp}
     990:	02000000 	andeq	r0, r0, #0, 0
     994:	00007491 	muleq	r0, r1, r4
     998:	00052f07 	andeq	r2, r5, r7, lsl #30
     99c:	06170100 	ldreq	r0, [r7], -r0, lsl #2
     9a0:	200005cc 	andcs	r0, r0, ip, asr #11
     9a4:	00000084 	andeq	r0, r0, r4, lsl #1
     9a8:	01979c01 	orrseq	r9, r7, r1, lsl #24
     9ac:	50080000 	andpl	r0, r8, r0
     9b0:	01000005 	tsteq	r0, r5
     9b4:	01971817 	orrseq	r1, r7, r7, lsl r8
     9b8:	91020000 	mrsls	r0, (UNDEF: 2)
     9bc:	04ee0a6f 	strbteq	r0, [lr], #2671	; 0xa6f
     9c0:	19010000 	stmdbne	r1, {}	; <UNPREDICTABLE>
     9c4:	00004f0e 	andeq	r4, r0, lr, lsl #30
     9c8:	74910200 	ldrvc	r0, [r1], #512	; 0x200
     9cc:	02010200 	andeq	r0, r1, #0, 4
     9d0:	0000055b 	andeq	r0, r0, fp, asr r5
     9d4:	0005210d 	andeq	r2, r5, sp, lsl #2
     9d8:	060c0100 	streq	r0, [ip], -r0, lsl #2
     9dc:	20000570 	andcs	r0, r0, r0, ror r5
     9e0:	0000005c 	andeq	r0, r0, ip, asr r0
     9e4:	c4009c01 	strgt	r9, [r0], #-3073	; 0xfffff3ff
     9e8:	04000001 	streq	r0, [r0], #-1
     9ec:	00045000 	andeq	r5, r4, r0
     9f0:	00010400 	andeq	r0, r1, r0, lsl #8
     9f4:	0c000000 	stceq	0, cr0, [r0], {-0}
     9f8:	00000566 	andeq	r0, r0, r6, ror #10
     9fc:	0000027a 	andeq	r0, r0, sl, ror r2
     a00:	20000728 	andcs	r0, r0, r8, lsr #14
     a04:	00000110 	andeq	r0, r0, r0, lsl r1
     a08:	0000064b 	andeq	r0, r0, fp, asr #12
     a0c:	84060102 	strhi	r0, [r6], #-258	; 0xfffffefe
     a10:	02000001 	andeq	r0, r0, #1, 0
     a14:	00aa0502 	adceq	r0, sl, r2, lsl #10
     a18:	04020000 	streq	r0, [r2], #-0
     a1c:	0000f605 	andeq	pc, r0, r5, lsl #12
     a20:	05080200 	streq	r0, [r8, #-512]	; 0xfffffe00
     a24:	000000f1 	strdeq	r0, [r0], -r1
     a28:	82080102 	andhi	r0, r8, #-2147483648	; 0x80000000
     a2c:	02000001 	andeq	r0, r0, #1, 0
     a30:	01ca0702 	biceq	r0, sl, r2, lsl #14
     a34:	04020000 	streq	r0, [r2], #-0
     a38:	0001a607 	andeq	sl, r1, r7, lsl #12
     a3c:	07080200 	streq	r0, [r8, -r0, lsl #4]
     a40:	000001a1 	andeq	r0, r0, r1, lsr #3
     a44:	69050403 	stmdbvs	r5, {r0, r1, sl}
     a48:	0200746e 	andeq	r7, r0, #1845493760	; 0x6e000000
     a4c:	01ab0704 			; <UNDEFINED> instruction: 0x01ab0704
     a50:	10040000 	andne	r0, r4, r0
     a54:	a7090c02 	strge	r0, [r9, -r2, lsl #24]
     a58:	05000000 	streq	r0, [r0, #-0]
     a5c:	02007874 	andeq	r7, r0, #116, 16	; 0x740000
     a60:	005d090d 	subseq	r0, sp, sp, lsl #18
     a64:	05000000 	streq	r0, [r0, #-0]
     a68:	02007872 	andeq	r7, r0, #7471104	; 0x720000
     a6c:	005d0c0d 	subseq	r0, sp, sp, lsl #24
     a70:	06040000 	streq	r0, [r4], -r0
     a74:	0000015d 	andeq	r0, r0, sp, asr r1
     a78:	640e0e02 	strvs	r0, [lr], #-3586	; 0xfffff1fe
     a7c:	08000000 	stmdaeq	r0, {}	; <UNPREDICTABLE>
     a80:	0000da06 	andeq	sp, r0, r6, lsl #20
     a84:	0e0f0200 	cdpeq	2, 0, cr0, cr15, cr0, {0}
     a88:	00000064 	andeq	r0, r0, r4, rrx
     a8c:	4a07000c 	bmi	1c0ac4 <STACK_SIZE+0x1be3b4>
     a90:	02000002 	andeq	r0, r0, #2, 0
     a94:	006b0310 	rsbeq	r0, fp, r0, lsl r3
     a98:	22080000 	andcs	r0, r8, #0, 0
     a9c:	02000001 	andeq	r0, r0, #1, 0
     aa0:	00a70b12 	adceq	r0, r7, r2, lsl fp
     aa4:	03050000 	movweq	r0, #20480	; 0x5000
     aa8:	2000f010 	andcs	pc, r0, r0, lsl r0	; <UNPREDICTABLE>
     aac:	00058d09 	andeq	r8, r5, r9, lsl #26
     ab0:	051b0100 	ldreq	r0, [fp, #-256]	; 0xffffff00
     ab4:	0000005d 	andeq	r0, r0, sp, asr r0
     ab8:	20000800 	andcs	r0, r0, r0, lsl #16
     abc:	00000038 	andeq	r0, r0, r8, lsr r0
     ac0:	a00a9c01 	andge	r9, sl, r1, lsl #24
     ac4:	01000005 	tsteq	r0, r5
     ac8:	07c20615 	bfieq	r0, r5, (invalid: 12:2)
     acc:	003e2000 	eorseq	r2, lr, r0
     ad0:	9c010000 	stcls	0, cr0, [r1], {-0}
     ad4:	00000127 	andeq	r0, r0, r7, lsr #2
     ad8:	0001290b 	andeq	r2, r1, fp, lsl #18
     adc:	1e150100 	mufnes	f0, f5, f0
     ae0:	00000127 	andeq	r0, r0, r7, lsr #2
     ae4:	0c6c9102 	stfeqp	f1, [ip], #-8
     ae8:	0067736d 	rsbeq	r7, r7, sp, ror #6
     aec:	2d301501 	cfldr32cs	mvfx1, [r0, #-4]!
     af0:	02000001 	andeq	r0, r0, #1, 0
     af4:	cc0d6891 	stcgt	8, cr6, [sp], {145}	; 0x91
     af8:	2a200007 	bcs	800b1c <STACK_SIZE+0x7fe40c>
     afc:	0e000000 	cdpeq	0, 0, cr0, cr0, cr0, {0}
     b00:	16010069 	strne	r0, [r1], -r9, rrx
     b04:	00005d0d 	andeq	r5, r0, sp, lsl #26
     b08:	74910200 	ldrvc	r0, [r1], #512	; 0x200
     b0c:	040f0000 	streq	r0, [pc], #-0	; b14 <STACK_SIZE-0x1bfc>
     b10:	000000a7 	andeq	r0, r0, r7, lsr #1
     b14:	013a040f 	teqeq	sl, pc, lsl #8
     b18:	01020000 	mrseq	r0, (UNDEF: 2)
     b1c:	00018b08 	andeq	r8, r1, r8, lsl #22
     b20:	01331000 	teqeq	r3, r0
     b24:	740a0000 	strvc	r0, [sl], #-0
     b28:	01000005 	tsteq	r0, r5
     b2c:	075c060b 	ldrbeq	r0, [ip, -fp, lsl #12]
     b30:	00662000 	rsbeq	r2, r6, r0
     b34:	9c010000 	stcls	0, cr0, [r1], {-0}
     b38:	00000189 	andeq	r0, r0, r9, lsl #3
     b3c:	0001290b 	andeq	r2, r1, fp, lsl #18
     b40:	1e0b0100 	adfnee	f0, f3, f0
     b44:	00000127 	andeq	r0, r0, r7, lsr #2
     b48:	0c6c9102 	stfeqp	f1, [ip], #-8
     b4c:	0b010063 	bleq	40ce0 <STACK_SIZE+0x3e5d0>
     b50:	00004132 	andeq	r4, r0, r2, lsr r1
     b54:	6b910200 	blvs	fe44135c <__bss_end__+0xde43233c>
     b58:	00077a0d 	andeq	r7, r7, sp, lsl #20
     b5c:	00003020 	andeq	r3, r0, r0, lsr #32
     b60:	00690e00 	rsbeq	r0, r9, r0, lsl #28
     b64:	5d0e0e01 	stcpl	14, cr0, [lr, #-4]
     b68:	02000000 	andeq	r0, r0, #0, 0
     b6c:	00007491 	muleq	r0, r1, r4
     b70:	00058111 	andeq	r8, r5, r1, lsl r1
     b74:	14050100 	strne	r0, [r5], #-256	; 0xffffff00
     b78:	20000728 	andcs	r0, r0, r8, lsr #14
     b7c:	00000034 	andeq	r0, r0, r4, lsr r0
     b80:	700c9c01 	andvc	r9, ip, r1, lsl #24
     b84:	01006e69 	tsteq	r0, r9, ror #28
     b88:	005d2405 	subseq	r2, sp, r5, lsl #8
     b8c:	91020000 	mrsls	r0, (UNDEF: 2)
     b90:	00760c74 	rsbseq	r0, r6, r4, ror ip
     b94:	5d2d0501 	cfstr32pl	mvfx0, [sp, #-4]!
     b98:	02000000 	andeq	r0, r0, #0, 0
     b9c:	610b7091 	swpvs	r7, r1, [fp]
     ba0:	01000005 	tsteq	r0, r5
     ba4:	00643905 	rsbeq	r3, r4, r5, lsl #18
     ba8:	91020000 	mrsls	r0, (UNDEF: 2)
     bac:	dd00006c 	stcle	0, cr0, [r0, #-432]	; 0xfffffe50
     bb0:	0400000b 	streq	r0, [r0], #-11
     bb4:	00056700 	andeq	r6, r5, r0, lsl #14
     bb8:	00010400 	andeq	r0, r1, r0, lsl #8
     bbc:	0c000000 	stceq	0, cr0, [r0], {-0}
     bc0:	00000617 	andeq	r0, r0, r7, lsl r6
     bc4:	0000027a 	andeq	r0, r0, sl, ror r2
     bc8:	20000838 	andcs	r0, r0, r8, lsr r8
     bcc:	00000d44 	andeq	r0, r0, r4, asr #26
     bd0:	00000723 	andeq	r0, r0, r3, lsr #14
     bd4:	84060102 	strhi	r0, [r6], #-258	; 0xfffffefe
     bd8:	02000001 	andeq	r0, r0, #1, 0
     bdc:	00aa0502 	adceq	r0, sl, r2, lsl #10
     be0:	b9030000 	stmdblt	r3, {}	; <UNPREDICTABLE>
     be4:	03000001 	movweq	r0, #1
     be8:	003f1828 	eorseq	r1, pc, r8, lsr #16
     bec:	04020000 	streq	r0, [r2], #-0
     bf0:	0000f605 	andeq	pc, r0, r5, lsl #12
     bf4:	003f0400 	eorseq	r0, pc, r0, lsl #8
     bf8:	08020000 	stmdaeq	r2, {}	; <UNPREDICTABLE>
     bfc:	0000f105 	andeq	pc, r0, r5, lsl #2
     c00:	08010200 	stmdaeq	r1, {r9}
     c04:	00000182 	andeq	r0, r0, r2, lsl #3
     c08:	ca070202 	bgt	1c1418 <STACK_SIZE+0x1bed08>
     c0c:	03000001 	movweq	r0, #1
     c10:	000001b8 			; <UNDEFINED> instruction: 0x000001b8
     c14:	6c193403 	cfldrsvs	mvf3, [r9], {3}
     c18:	02000000 	andeq	r0, r0, #0, 0
     c1c:	01a60704 			; <UNDEFINED> instruction: 0x01a60704
     c20:	cd030000 	stcgt	0, cr0, [r3, #-0]
     c24:	03000005 	movweq	r0, #5
     c28:	007f1937 	rsbseq	r1, pc, r7, lsr r9	; <UNPREDICTABLE>
     c2c:	08020000 	stmdaeq	r2, {}	; <UNPREDICTABLE>
     c30:	0001a107 	andeq	sl, r1, r7, lsl #2
     c34:	05040500 	streq	r0, [r4, #-1280]	; 0xfffffb00
     c38:	00746e69 	rsbseq	r6, r4, r9, ror #28
     c3c:	00008604 	andeq	r8, r0, r4, lsl #12
     c40:	07040200 	streq	r0, [r4, -r0, lsl #4]
     c44:	000001ab 	andeq	r0, r0, fp, lsr #3
     c48:	00009204 	andeq	r9, r0, r4, lsl #4
     c4c:	06030300 	streq	r0, [r3], -r0, lsl #6
     c50:	56030000 	strpl	r0, [r3], -r0
     c54:	0000921a 	andeq	r9, r0, sl, lsl r2
     c58:	04100600 	ldreq	r0, [r0], #-1536	; 0xfffffa00
     c5c:	00e60912 	rsceq	r0, r6, r2, lsl r9
     c60:	74070000 	strvc	r0, [r7], #-0
     c64:	13040078 	movwne	r0, #16504	; 0x4078
     c68:	0000600e 	andeq	r6, r0, lr
     c6c:	72070000 	andvc	r0, r7, #0, 0
     c70:	13040078 	movwne	r0, #16504	; 0x4078
     c74:	00006011 	andeq	r6, r0, r1, lsl r0
     c78:	e7080400 	str	r0, [r8, -r0, lsl #8]
     c7c:	04000000 	streq	r0, [r0], #-0
     c80:	00600e14 	rsbeq	r0, r0, r4, lsl lr
     c84:	08080000 	stmdaeq	r8, {}	; <UNPREDICTABLE>
     c88:	0000009a 	muleq	r0, sl, r0
     c8c:	600e1504 	andvs	r1, lr, r4, lsl #10
     c90:	0c000000 	stceq	0, cr0, [r0], {-0}
     c94:	01470300 	mrseq	r0, (UNDEF: 119)
     c98:	16040000 	strne	r0, [r4], -r0
     c9c:	0000aa03 	andeq	sl, r0, r3, lsl #20
     ca0:	01dd0900 	bicseq	r0, sp, r0, lsl #18
     ca4:	18040000 	stmdane	r4, {}	; <UNPREDICTABLE>
     ca8:	0000e60b 	andeq	lr, r0, fp, lsl #12
     cac:	00030500 	andeq	r0, r3, r0, lsl #10
     cb0:	032000f0 			; <UNDEFINED> instruction: 0x032000f0
     cb4:	00000704 	andeq	r0, r0, r4, lsl #14
     cb8:	101b2805 	andsne	r2, fp, r5, lsl #16
     cbc:	0a000001 	beq	cc8 <STACK_SIZE-0x1a48>
     cc0:	0000063d 	andeq	r0, r0, sp, lsr r6
     cc4:	27000704 	strcs	r0, [r0, -r4, lsl #14]
     cc8:	0b000001 	bleq	cd4 <STACK_SIZE-0x1a3c>
     ccc:	00000686 	andeq	r0, r0, r6, lsl #13
     cd0:	00000127 	andeq	r0, r0, r7, lsr #2
     cd4:	040c0000 	streq	r0, [ip], #-0
     cd8:	00063f03 	andeq	r3, r6, r3, lsl #30
     cdc:	18630500 	stmdane	r3!, {r8, sl}^
     ce0:	00000104 	andeq	r0, r0, r4, lsl #2
     ce4:	0005d603 	andeq	sp, r5, r3, lsl #12
     ce8:	17d10600 	ldrbne	r0, [r1, r0, lsl #12]
     cec:	00000092 	muleq	r0, r2, r0
     cf0:	00013504 	andeq	r3, r1, r4, lsl #10
     cf4:	04080200 	streq	r0, [r8], #-512	; 0xfffffe00
     cf8:	00000151 	andeq	r0, r0, r1, asr r1
     cfc:	00066803 	andeq	r6, r6, r3, lsl #16
     d00:	10890200 	addne	r0, r9, r0, lsl #4
     d04:	00000159 	andeq	r0, r0, r9, asr r1
     d08:	015f040d 	cmpeq	pc, sp, lsl #8
     d0c:	790e0000 	stmdbvc	lr, {}	; <UNPREDICTABLE>
     d10:	0f000001 	svceq	0x00000001
     d14:	00000179 	andeq	r0, r0, r9, ror r1
     d18:	0001270f 	andeq	r2, r1, pc, lsl #14
     d1c:	01350f00 	teqeq	r5, r0, lsl #30
     d20:	350f0000 	strcc	r0, [pc, #-0]	; d28 <STACK_SIZE-0x19e8>
     d24:	00000001 	andeq	r0, r0, r1
     d28:	8b080102 	blhi	201138 <STACK_SIZE+0x1fea28>
     d2c:	04000001 	streq	r0, [r0], #-1
     d30:	00000179 	andeq	r0, r0, r9, ror r1
     d34:	8d020806 	stchi	8, cr0, [r2, #-24]	; 0xffffffe8
     d38:	0001a909 	andeq	sl, r1, r9, lsl #18
     d3c:	63660700 	cmnvs	r6, #0, 14
     d40:	8e020074 	mcrhi	0, 0, r0, cr2, cr4, {3}
     d44:	0001b90b 	andeq	fp, r1, fp, lsl #18
     d48:	61070000 	mrsvs	r0, (UNDEF: 7)
     d4c:	02006772 	andeq	r6, r0, #29884416	; 0x1c80000
     d50:	0127098f 	smlawbeq	r7, pc, r9, r0	; <UNPREDICTABLE>
     d54:	00040000 	andeq	r0, r4, r0
     d58:	0001b90e 	andeq	fp, r1, lr, lsl #18
     d5c:	01790f00 	cmneq	r9, r0, lsl #30
     d60:	270f0000 	strcs	r0, [pc, -r0]
     d64:	00000001 	andeq	r0, r0, r1
     d68:	01a9040d 			; <UNDEFINED> instruction: 0x01a9040d
     d6c:	ed030000 	stc	0, cr0, [r3, #-0]
     d70:	02000006 	andeq	r0, r0, #6, 0
     d74:	01850390 			; <UNDEFINED> instruction: 0x01850390
     d78:	bf040000 	svclt	0x00040000
     d7c:	10000001 	andne	r0, r0, r1
     d80:	0000062a 	andeq	r0, r0, sl, lsr #12
     d84:	05039902 	streq	r9, [r3, #-2306]	; 0xfffff6fe
     d88:	00000086 	andeq	r0, r0, r6, lsl #1
     d8c:	20001530 	andcs	r1, r0, r0, lsr r5
     d90:	0000004c 	andeq	r0, r0, ip, asr #32
     d94:	024c9c01 	subeq	r9, ip, #256	; 0x100
     d98:	6f110000 	svcvs	0x00110000
     d9c:	02007475 	andeq	r7, r0, #1962934272	; 0x75000000
     da0:	b9160399 	ldmdblt	r6, {r0, r3, r4, r7, r8, r9}
     da4:	02000001 	andeq	r0, r0, #1, 0
     da8:	61115491 			; <UNDEFINED> instruction: 0x61115491
     dac:	02006772 	andeq	r6, r0, #29884416	; 0x1c80000
     db0:	273d0399 			; <UNDEFINED> instruction: 0x273d0399
     db4:	02000001 	andeq	r0, r0, #1, 0
     db8:	52125091 	andspl	r5, r2, #145, 0	; 0x91
     dbc:	02000006 	andeq	r0, r0, #6, 0
     dc0:	4c4e0399 	mcrrmi	3, 9, r0, lr, cr9
     dc4:	02000002 	andeq	r0, r0, #2, 0
     dc8:	14137891 	ldrne	r7, [r3], #-2193	; 0xfffff76f
     dcc:	02006176 	andeq	r6, r0, #-2147483619	; 0x8000001d
     dd0:	290b039b 	stmdbcs	fp, {r0, r1, r3, r4, r7, r8, r9}
     dd4:	02000001 	andeq	r0, r0, #1, 0
     dd8:	b4156091 	ldrlt	r6, [r5], #-145	; 0xffffff6f
     ddc:	02000005 	andeq	r0, r0, #5, 0
     de0:	cb1b039d 	blgt	6c1c5c <STACK_SIZE+0x6bf54c>
     de4:	02000001 	andeq	r0, r0, #1, 0
     de8:	72145891 	andsvc	r5, r4, #9502720	; 0x910000
     dec:	02007465 	andeq	r7, r0, #1694498816	; 0x65000000
     df0:	8d0d039e 	stchi	3, cr0, [sp, #-632]	; 0xfffffd88
     df4:	02000000 	andeq	r0, r0, #0, 0
     df8:	0d006491 	cfstrseq	mvf6, [r0, #-580]	; 0xfffffdbc
     dfc:	00018004 	andeq	r8, r1, r4
     e00:	068b1000 	streq	r1, [fp], r0
     e04:	93020000 	movwls	r0, #8192	; 0x2000
     e08:	00860503 	addeq	r0, r6, r3, lsl #10
     e0c:	15000000 	strne	r0, [r0, #-0]
     e10:	00302000 	eorseq	r2, r0, r0
     e14:	9c010000 	stcls	0, cr0, [r1], {-0}
     e18:	000002ad 	andeq	r0, r0, sp, lsr #5
     e1c:	0005c612 	andeq	ip, r5, r2, lsl r6
     e20:	03930200 	orrseq	r0, r3, #0, 4
     e24:	0002ad16 	andeq	sl, r2, r6, lsl sp
     e28:	6c910200 	lfmvs	f0, 4, [r1], {0}
     e2c:	0004bf12 	andeq	fp, r4, r2, lsl pc
     e30:	03930200 	orrseq	r0, r3, #0, 4
     e34:	00013525 	andeq	r3, r1, r5, lsr #10
     e38:	68910200 	ldmvs	r1, {r9}
     e3c:	00065212 	andeq	r5, r6, r2, lsl r2
     e40:	03930200 	orrseq	r0, r3, #0, 4
     e44:	00024c38 	andeq	r4, r2, r8, lsr ip
     e48:	64910200 	ldrvs	r0, [r1], #512	; 0x200
     e4c:	00617611 	rsbeq	r7, r1, r1, lsl r6
     e50:	48039302 	stmdami	r3, {r1, r8, r9, ip, pc}
     e54:	00000129 	andeq	r0, r0, r9, lsr #2
     e58:	00609102 	rsbeq	r9, r0, r2, lsl #2
     e5c:	0179040d 	cmneq	r9, sp, lsl #8
     e60:	28100000 	ldmdacs	r0, {}	; <UNPREDICTABLE>
     e64:	02000007 	andeq	r0, r0, #7, 0
     e68:	8605038c 	strhi	r0, [r5], -ip, lsl #7
     e6c:	d0000000 	andle	r0, r0, r0
     e70:	30200014 	eorcc	r0, r0, r4, lsl r0
     e74:	01000000 	mrseq	r0, (UNDEF: 0)
     e78:	0002fe9c 	muleq	r2, ip, lr
     e7c:	06521200 	ldrbeq	r1, [r2], -r0, lsl #4
     e80:	8c020000 	stchi	0, cr0, [r2], {-0}
     e84:	024c1a03 	subeq	r1, ip, #12288	; 0x3000
     e88:	91020000 	mrsls	r0, (UNDEF: 2)
     e8c:	61761164 	cmnvs	r6, r4, ror #2
     e90:	038c0200 	orreq	r0, ip, #0, 4
     e94:	0001292a 	andeq	r2, r1, sl, lsr #18
     e98:	60910200 	addsvs	r0, r1, r0, lsl #4
     e9c:	0005c615 	andeq	ip, r5, r5, lsl r6
     ea0:	038e0200 	orreq	r0, lr, #0, 4
     ea4:	0002fe08 	andeq	pc, r2, r8, lsl #28
     ea8:	6c910200 	lfmvs	f0, 4, [r1], {0}
     eac:	01791600 	cmneq	r9, r0, lsl #12
     eb0:	030e0000 	movweq	r0, #57344	; 0xe000
     eb4:	92170000 	andsls	r0, r7, #0, 0
     eb8:	00000000 	andeq	r0, r0, r0
     ebc:	068c1000 	streq	r1, [ip], r0
     ec0:	82020000 	andhi	r0, r2, #0, 0
     ec4:	00860503 	addeq	r0, r6, r3, lsl #10
     ec8:	14940000 	ldrne	r0, [r4], #0
     ecc:	003c2000 	eorseq	r2, ip, r0
     ed0:	9c010000 	stcls	0, cr0, [r1], {-0}
     ed4:	0000037a 	andeq	r0, r0, sl, ror r3
     ed8:	0005c612 	andeq	ip, r5, r2, lsl r6
     edc:	03820200 	orreq	r0, r2, #0, 4
     ee0:	0002ad15 	andeq	sl, r2, r5, lsl sp
     ee4:	5c910200 	lfmpl	f0, 4, [r1], {0}
     ee8:	0004bf12 	andeq	fp, r4, r2, lsl pc
     eec:	03820200 	orreq	r0, r2, #0, 4
     ef0:	00013524 	andeq	r3, r1, r4, lsr #10
     ef4:	58910200 	ldmpl	r1, {r9}
     ef8:	00065212 	andeq	r5, r6, r2, lsl r2
     efc:	03820200 	orreq	r0, r2, #0, 4
     f00:	00024c37 	andeq	r4, r2, r7, lsr ip
     f04:	78910200 	ldmvc	r1, {r9}
     f08:	61761413 	cmnvs	r6, r3, lsl r4
     f0c:	03840200 	orreq	r0, r4, #0, 4
     f10:	0001290b 	andeq	r2, r1, fp, lsl #18
     f14:	60910200 	addsvs	r0, r1, r0, lsl #4
     f18:	74657214 	strbtvc	r7, [r5], #-532	; 0xfffffdec
     f1c:	03860200 	orreq	r0, r6, #0, 4
     f20:	00008d0d 	andeq	r8, r0, sp, lsl #26
     f24:	64910200 	ldrvs	r0, [r1], #512	; 0x200
     f28:	06ae1000 	strteq	r1, [lr], r0
     f2c:	78020000 	stmdavc	r2, {}	; <UNPREDICTABLE>
     f30:	00860503 	addeq	r0, r6, r3, lsl #10
     f34:	14580000 	ldrbne	r0, [r8], #-0
     f38:	003c2000 	eorseq	r2, ip, r0
     f3c:	9c010000 	stcls	0, cr0, [r1], {-0}
     f40:	000003d6 	ldrdeq	r0, [r0], -r6
     f44:	0005c612 	andeq	ip, r5, r2, lsl r6
     f48:	03780200 	cmneq	r8, #0, 4
     f4c:	0002ad14 	andeq	sl, r2, r4, lsl sp
     f50:	5c910200 	lfmpl	f0, 4, [r1], {0}
     f54:	00065212 	andeq	r5, r6, r2, lsl r2
     f58:	03780200 	cmneq	r8, #0, 4
     f5c:	00024c28 	andeq	r4, r2, r8, lsr #24
     f60:	74910200 	ldrvc	r0, [r1], #512	; 0x200
     f64:	61761413 	cmnvs	r6, r3, lsl r4
     f68:	037a0200 	cmneq	sl, #0, 4
     f6c:	0001290b 	andeq	r2, r1, fp, lsl #18
     f70:	60910200 	addsvs	r0, r1, r0, lsl #4
     f74:	74657214 	strbtvc	r7, [r5], #-532	; 0xfffffdec
     f78:	037c0200 	cmneq	ip, #0, 4
     f7c:	00008d0d 	andeq	r8, r0, sp, lsl #26
     f80:	64910200 	ldrvs	r0, [r1], #512	; 0x200
     f84:	068e1000 	streq	r1, [lr], r0
     f88:	6d020000 	stcvs	0, cr0, [r2, #-0]
     f8c:	00860503 	addeq	r0, r6, r3, lsl #10
     f90:	141e0000 	ldrne	r0, [lr], #-0
     f94:	003a2000 	eorseq	r2, sl, r0
     f98:	9c010000 	stcls	0, cr0, [r1], {-0}
     f9c:	00000432 	andeq	r0, r0, r2, lsr r4
     fa0:	00065212 	andeq	r5, r6, r2, lsl r2
     fa4:	036d0200 	cmneq	sp, #0, 4
     fa8:	00024c19 	andeq	r4, r2, r9, lsl ip
     fac:	70910200 	addsvc	r0, r1, r0, lsl #4
     fb0:	61761413 	cmnvs	r6, r3, lsl r4
     fb4:	036f0200 	cmneq	pc, #0, 4
     fb8:	0001290b 	andeq	r2, r1, fp, lsl #18
     fbc:	58910200 	ldmpl	r1, {r9}
     fc0:	0005c615 	andeq	ip, r5, r5, lsl r6
     fc4:	03710200 	cmneq	r1, #0, 4
     fc8:	0002fe08 	andeq	pc, r2, r8, lsl #28
     fcc:	54910200 	ldrpl	r0, [r1], #512	; 0x200
     fd0:	74657214 	strbtvc	r7, [r5], #-532	; 0xfffffdec
     fd4:	03720200 	cmneq	r2, #0, 4
     fd8:	00008d0d 	andeq	r8, r0, sp, lsl #26
     fdc:	5c910200 	lfmpl	f0, 4, [r1], {0}
     fe0:	06c11800 	strbeq	r1, [r1], r0, lsl #16
     fe4:	50020000 	andpl	r0, r2, r0
     fe8:	00860c02 	addeq	r0, r6, r2, lsl #24
     fec:	0e120000 	cdpeq	0, 1, cr0, cr2, cr0, {0}
     ff0:	060c2000 	streq	r2, [ip], -r0
     ff4:	9c010000 	stcls	0, cr0, [r1], {-0}
     ff8:	000005e3 	andeq	r0, r0, r3, ror #11
     ffc:	74756f11 	ldrbtvc	r6, [r5], #-3857	; 0xfffff0ef
    1000:	02500200 	subseq	r0, r0, #0, 4
    1004:	00014d24 	andeq	r4, r1, r4, lsr #26
    1008:	ac910300 	ldcge	3, cr0, [r1], {0}
    100c:	05c6127f 	strbeq	r1, [r6, #639]	; 0x27f
    1010:	50020000 	andpl	r0, r2, r0
    1014:	02ad2f02 	adceq	r2, sp, #2, 30
    1018:	91030000 	mrsls	r0, (UNDEF: 3)
    101c:	96127fa8 	ldrls	r7, [r2], -r8, lsr #31
    1020:	02000006 	andeq	r0, r0, #6, 0
    1024:	41440250 	cmpmi	r4, r0, asr r2
    1028:	03000001 	movweq	r0, #1
    102c:	127fa491 	rsbsne	sl, pc, #-1862270976	; 0x91000000
    1030:	00000652 	andeq	r0, r0, r2, asr r6
    1034:	58025002 	stmdapl	r2, {r1, ip, lr}
    1038:	0000024c 	andeq	r0, r0, ip, asr #4
    103c:	7fa09103 	svcvc	0x00a09103
    1040:	00617611 	rsbeq	r7, r1, r1, lsl r6
    1044:	68025002 	stmdavs	r2, {r1, ip, lr}
    1048:	00000129 	andeq	r0, r0, r9, lsr #2
    104c:	15009102 	strne	r9, [r0, #-258]	; 0xfffffefe
    1050:	00000680 	andeq	r0, r0, r0, lsl #13
    1054:	10025202 	andne	r5, r2, r2, lsl #4
    1058:	00000092 	muleq	r0, r2, r0
    105c:	15649102 	strbne	r9, [r4, #-258]!	; 0xfffffefe
    1060:	00000624 	andeq	r0, r0, r4, lsr #12
    1064:	17025202 	strne	r5, [r2, -r2, lsl #4]
    1068:	00000092 	muleq	r0, r2, r0
    106c:	15609102 	strbne	r9, [r0, #-258]!	; 0xfffffefe
    1070:	0000071e 	andeq	r0, r0, lr, lsl r7
    1074:	1e025202 	cdpne	2, 0, cr5, cr2, cr2, {0}
    1078:	00000092 	muleq	r0, r2, r0
    107c:	145c9102 	ldrbne	r9, [ip], #-258	; 0xfffffefe
    1080:	5202006e 	andpl	r0, r2, #110, 0	; 0x6e
    1084:	00922902 	addseq	r2, r2, r2, lsl #18
    1088:	91020000 	mrsls	r0, (UNDEF: 2)
    108c:	64691458 	strbtvs	r1, [r9], #-1112	; 0xfffffba8
    1090:	53020078 	movwpl	r0, #8312	; 0x2078
    1094:	01350a02 	teqeq	r5, r2, lsl #20
    1098:	91020000 	mrsls	r0, (UNDEF: 2)
    109c:	0f0a1954 	svceq	0x000a1954
    10a0:	002a2000 	eoreq	r2, sl, r0
    10a4:	050a0000 	streq	r0, [sl, #-0]
    10a8:	77140000 	ldrvc	r0, [r4, -r0]
    10ac:	027b0200 	rsbseq	r0, fp, #0, 4
    10b0:	00008d11 	andeq	r8, r0, r1, lsl sp
    10b4:	40910200 	addsmi	r0, r1, r0, lsl #4
    10b8:	0f741900 	svceq	0x00741900
    10bc:	001a2000 	andseq	r2, sl, r0
    10c0:	05290000 	streq	r0, [r9, #-0]!
    10c4:	ff150000 			; <UNDEFINED> instruction: 0xff150000
    10c8:	02000006 	andeq	r0, r0, #6, 0
    10cc:	8d13028f 	lfmhi	f0, 4, [r3, #-572]	; 0xfffffdc4
    10d0:	03000000 	movweq	r0, #0
    10d4:	007fbc91 			; <UNDEFINED> instruction: 0x007fbc91
    10d8:	00103c19 	andseq	r3, r0, r9, lsl ip
    10dc:	00020820 	andeq	r0, r2, r0, lsr #16
    10e0:	0005a000 	andeq	sl, r5, r0
    10e4:	07131500 	ldreq	r1, [r3, -r0, lsl #10]
    10e8:	c3020000 	movwgt	r0, #8192	; 0x2000
    10ec:	00921602 	addseq	r1, r2, r2, lsl #12
    10f0:	91020000 	mrsls	r0, (UNDEF: 2)
    10f4:	10da1950 	sbcsne	r1, sl, r0, asr r9
    10f8:	00422000 	subeq	r2, r2, r0
    10fc:	05650000 	strbeq	r0, [r5, #-0]!
    1100:	f4150000 			; <UNDEFINED> instruction: 0xf4150000
    1104:	02000005 	andeq	r0, r0, #5, 0
    1108:	461802ea 	ldrmi	r0, [r8], -sl, ror #5
    110c:	03000000 	movweq	r0, #0
    1110:	007fb091 			; <UNDEFINED> instruction: 0x007fb091
    1114:	00111e19 	andseq	r1, r1, r9, lsl lr
    1118:	00007820 	andeq	r7, r0, r0, lsr #16
    111c:	00058400 	andeq	r8, r5, r0, lsl #8
    1120:	05f41500 	ldrbeq	r1, [r4, #1280]!	; 0x500
    1124:	ee020000 	cdp	0, 0, cr0, cr2, cr0, {0}
    1128:	008d1702 	addeq	r1, sp, r2, lsl #14
    112c:	91030000 	mrsls	r0, (UNDEF: 3)
    1130:	1a007fb4 	bne	21008 <STACK_SIZE+0x1e8f8>
    1134:	200011e0 	andcs	r1, r0, r0, ror #3
    1138:	0000005c 	andeq	r0, r0, ip, asr r0
    113c:	0005f415 	andeq	pc, r5, r5, lsl r4	; <UNPREDICTABLE>
    1140:	02fd0200 	rscseq	r0, sp, #0, 4
    1144:	00009920 	andeq	r9, r0, r0, lsr #18
    1148:	b8910300 	ldmlt	r1, {r8, r9}
    114c:	1900007f 	stmdbne	r0, {r0, r1, r2, r3, r4, r5, r6}
    1150:	20001244 	andcs	r1, r0, r4, asr #4
    1154:	00000070 	andeq	r0, r0, r0, ror r0
    1158:	000005bc 			; <UNDEFINED> instruction: 0x000005bc
    115c:	02006c14 	andeq	r6, r0, #20, 24	; 0x1400
    1160:	92160318 	andsls	r0, r6, #24, 6	; 0x60000000
    1164:	02000000 	andeq	r0, r0, #0, 0
    1168:	1a004c91 	bne	143b4 <STACK_SIZE+0x11ca4>
    116c:	200012b4 			; <UNDEFINED> instruction: 0x200012b4
    1170:	000000c4 	andeq	r0, r0, r4, asr #1
    1174:	02007014 	andeq	r7, r0, #20, 0
    1178:	4c15032c 	ldcmi	3, cr0, [r5], {44}	; 0x2c
    117c:	02000002 	andeq	r0, r0, #2, 0
    1180:	6c144891 	ldcvs	8, cr4, [r4], {145}	; 0x91
    1184:	032d0200 			; <UNDEFINED> instruction: 0x032d0200
    1188:	00009216 	andeq	r9, r0, r6, lsl r2
    118c:	44910200 	ldrmi	r0, [r1], #512	; 0x200
    1190:	75180000 	ldrvc	r0, [r8, #-0]
    1194:	02000006 	andeq	r0, r0, #6, 0
    1198:	350f0128 	strcc	r0, [pc, #-296]	; 1078 <STACK_SIZE-0x1698>
    119c:	3c000001 	stccc	0, cr0, [r0], {1}
    11a0:	d620000d 	strtle	r0, [r0], -sp
    11a4:	01000000 	mrseq	r0, (UNDEF: 0)
    11a8:	0006db9c 	muleq	r6, ip, fp
    11ac:	756f1100 	strbvc	r1, [pc, #-256]!	; 10b4 <STACK_SIZE-0x165c>
    11b0:	28020074 	stmdacs	r2, {r2, r4, r5, r6}
    11b4:	014d2701 	cmpeq	sp, r1, lsl #14
    11b8:	91020000 	mrsls	r0, (UNDEF: 2)
    11bc:	05c61244 	strbeq	r1, [r6, #580]	; 0x244
    11c0:	28020000 	stmdacs	r2, {}	; <UNPREDICTABLE>
    11c4:	02ad3201 	adceq	r3, sp, #268435456	; 0x10000000
    11c8:	91020000 	mrsls	r0, (UNDEF: 2)
    11cc:	64691140 	strbtvs	r1, [r9], #-320	; 0xfffffec0
    11d0:	28020078 	stmdacs	r2, {r3, r4, r5, r6}
    11d4:	01354101 	teqeq	r5, r1, lsl #2
    11d8:	91030000 	mrsls	r0, (UNDEF: 3)
    11dc:	96127fbc 			; <UNDEFINED> instruction: 0x96127fbc
    11e0:	02000006 	andeq	r0, r0, #6, 0
    11e4:	354d0128 	strbcc	r0, [sp, #-296]	; 0xfffffed8
    11e8:	03000001 	movweq	r0, #1
    11ec:	127fb891 	rsbsne	fp, pc, #9502720	; 0x910000
    11f0:	000005f4 	strdeq	r0, [r0], -r4
    11f4:	63012802 	movwvs	r2, #6146	; 0x1802
    11f8:	0000006c 	andeq	r0, r0, ip, rrx
    11fc:	12009102 	andne	r9, r0, #-2147483648	; 0x80000000
    1200:	00000634 	andeq	r0, r0, r4, lsr r6
    1204:	6f012802 	svcvs	0x00012802
    1208:	000006db 	ldrdeq	r0, [r0], -fp
    120c:	12049102 	andne	r9, r4, #-2147483648	; 0x80000000
    1210:	00000713 	andeq	r0, r0, r3, lsl r7
    1214:	87012802 	strhi	r2, [r1, -r2, lsl #16]
    1218:	0000006c 	andeq	r0, r0, ip, rrx
    121c:	12089102 	andne	r9, r8, #-2147483648	; 0x80000000
    1220:	000006ff 	strdeq	r0, [r0], -pc	; <UNPREDICTABLE>
    1224:	9a012802 	bls	4b234 <STACK_SIZE+0x48b24>
    1228:	00000092 	muleq	r0, r2, r0
    122c:	120c9102 	andne	r9, ip, #-2147483648	; 0x80000000
    1230:	00000624 	andeq	r0, r0, r4, lsr #12
    1234:	ad012802 	stcge	8, cr2, [r1, #-8]
    1238:	00000092 	muleq	r0, r2, r0
    123c:	12109102 	andsne	r9, r0, #-2147483648	; 0x80000000
    1240:	00000680 	andeq	r0, r0, r0, lsl #13
    1244:	c1012802 	tstgt	r1, r2, lsl #16
    1248:	00000092 	muleq	r0, r2, r0
    124c:	14149102 	ldrne	r9, [r4], #-258	; 0xfffffefe
    1250:	00667562 	rsbeq	r7, r6, r2, ror #10
    1254:	08012a02 	stmdaeq	r1, {r1, r9, fp, sp}
    1258:	000006e2 	andeq	r0, r0, r2, ror #13
    125c:	14489102 	strbne	r9, [r8], #-258	; 0xfffffefe
    1260:	006e656c 	rsbeq	r6, lr, ip, ror #10
    1264:	0a012b02 	beq	4be74 <STACK_SIZE+0x49764>
    1268:	00000135 	andeq	r0, r0, r5, lsr r1
    126c:	1a6c9102 	bne	1b2567c <STACK_SIZE+0x1b22f6c>
    1270:	20000d6c 	andcs	r0, r0, ip, ror #26
    1274:	00000060 	andeq	r0, r0, r0, rrx
    1278:	0006bb15 	andeq	fp, r6, r5, lsl fp
    127c:	01350200 	teqeq	r5, r0, lsl #4
    1280:	00018012 	andeq	r8, r1, r2, lsl r0
    1284:	6b910200 	blvs	fe441a8c <__bss_end__+0xde432a6c>
    1288:	01020000 	mrseq	r0, (UNDEF: 2)
    128c:	00055b02 	andeq	r5, r5, r2, lsl #22
    1290:	01791600 	cmneq	r9, r0, lsl #12
    1294:	06f20000 	ldrbteq	r0, [r2], r0
    1298:	92170000 	andsls	r0, r7, #0, 0
    129c:	1f000000 	svcne	0x00000000
    12a0:	064c1b00 	strbeq	r1, [ip], -r0, lsl #22
    12a4:	f2020000 	vhadd.s8	d0, d2, d0
    12a8:	0001350f 	andeq	r3, r1, pc, lsl #10
    12ac:	000b9000 	andeq	r9, fp, r0
    12b0:	0001ac20 	andeq	sl, r1, r0, lsr #24
    12b4:	b29c0100 	addslt	r0, ip, #0
    12b8:	1c000007 	stcne	0, cr0, [r0], {7}
    12bc:	0074756f 	rsbseq	r7, r4, pc, ror #10
    12c0:	4d29f202 	sfmmi	f7, 1, [r9, #-8]!
    12c4:	02000001 	andeq	r0, r0, #1, 0
    12c8:	c61d6c91 			; <UNDEFINED> instruction: 0xc61d6c91
    12cc:	02000005 	andeq	r0, r0, #5, 0
    12d0:	02ad34f2 	adceq	r3, sp, #-234881024	; 0xf2000000
    12d4:	91020000 	mrsls	r0, (UNDEF: 2)
    12d8:	64691c68 	strbtvs	r1, [r9], #-3176	; 0xfffff398
    12dc:	f2020078 	vqadd.s8	q0, q1, q12
    12e0:	00013543 	andeq	r3, r1, r3, asr #10
    12e4:	64910200 	ldrvs	r0, [r1], #512	; 0x200
    12e8:	0006961d 	andeq	r9, r6, sp, lsl r6
    12ec:	4ff20200 	svcmi	0x00f20200
    12f0:	00000135 	andeq	r0, r0, r5, lsr r1
    12f4:	1c609102 	stfnep	f1, [r0], #-8
    12f8:	00667562 	rsbeq	r7, r6, r2, ror #10
    12fc:	ad5df202 	lfmge	f7, 3, [sp, #-8]
    1300:	02000002 	andeq	r0, r0, #2, 0
    1304:	6c1c0091 	ldcvs	0, cr0, [ip], {145}	; 0x91
    1308:	02006e65 	andeq	r6, r0, #1616	; 0x650
    130c:	013569f2 	teqeq	r5, r2	; <illegal shifter operand>
    1310:	91020000 	mrsls	r0, (UNDEF: 2)
    1314:	06341d04 	ldrteq	r1, [r4], -r4, lsl #26
    1318:	f2020000 	vhadd.s8	d0, d2, d0
    131c:	0006db73 	andeq	sp, r6, r3, ror fp
    1320:	08910200 	ldmeq	r1, {r9}
    1324:	0007131d 	andeq	r1, r7, sp, lsl r3
    1328:	8af20200 	bhi	ffc81b30 <__bss_end__+0xdfc72b10>
    132c:	00000092 	muleq	r0, r2, r0
    1330:	1d0c9102 	stfned	f1, [ip, #-8]
    1334:	000006ff 	strdeq	r0, [r0], -pc	; <UNPREDICTABLE>
    1338:	929df202 	addsls	pc, sp, #536870912	; 0x20000000
    133c:	02000000 	andeq	r0, r0, #0, 0
    1340:	241d1091 	ldrcs	r1, [sp], #-145	; 0xffffff6f
    1344:	02000006 	andeq	r0, r0, #6, 0
    1348:	0092b0f2 	ldrsheq	fp, [r2], r2
    134c:	91020000 	mrsls	r0, (UNDEF: 2)
    1350:	06801d14 	pkhbteq	r1, r0, r4, lsl #26
    1354:	f2020000 	vhadd.s8	d0, d2, d0
    1358:	000092c4 	andeq	r9, r0, r4, asr #5
    135c:	18910200 	ldmne	r1, {r9}
    1360:	06d61b00 	ldrbeq	r1, [r6], r0, lsl #22
    1364:	d6020000 	strle	r0, [r2], -r0
    1368:	0001350f 	andeq	r3, r1, pc, lsl #10
    136c:	000af600 	andeq	pc, sl, r0, lsl #12
    1370:	00009a20 	andeq	r9, r0, r0, lsr #20
    1374:	6b9c0100 	blvs	fe70177c <__bss_end__+0xde6f275c>
    1378:	1c000008 	stcne	0, cr0, [r0], {8}
    137c:	0074756f 	rsbseq	r7, r4, pc, ror #10
    1380:	4d25d602 	stcmi	6, cr13, [r5, #-8]!
    1384:	02000001 	andeq	r0, r0, #1, 0
    1388:	c61d6491 			; <UNDEFINED> instruction: 0xc61d6491
    138c:	02000005 	andeq	r0, r0, #5, 0
    1390:	02ad30d6 	adceq	r3, sp, #214, 0	; 0xd6
    1394:	91020000 	mrsls	r0, (UNDEF: 2)
    1398:	64691c60 	strbtvs	r1, [r9], #-3168	; 0xfffff3a0
    139c:	d6020078 			; <UNDEFINED> instruction: 0xd6020078
    13a0:	0001353f 	andeq	r3, r1, pc, lsr r5
    13a4:	5c910200 	lfmpl	f0, 4, [r1], {0}
    13a8:	0006961d 	andeq	r9, r6, sp, lsl r6
    13ac:	4bd60200 	blmi	ff581bb4 <__bss_end__+0xdf572b94>
    13b0:	00000135 	andeq	r0, r0, r5, lsr r1
    13b4:	1c589102 	ldfnep	f1, [r8], {2}
    13b8:	00667562 	rsbeq	r7, r6, r2, ror #10
    13bc:	4c5fd602 	mrrcmi	6, 0, sp, pc, cr2	; <UNPREDICTABLE>
    13c0:	02000002 	andeq	r0, r0, #2, 0
    13c4:	6c1c0091 	ldcvs	0, cr0, [ip], {145}	; 0x91
    13c8:	02006e65 	andeq	r6, r0, #1616	; 0x650
    13cc:	01356bd6 	teqeq	r5, r6	; <illegal shifter operand>
    13d0:	91020000 	mrsls	r0, (UNDEF: 2)
    13d4:	06241d04 	strteq	r1, [r4], -r4, lsl #26
    13d8:	d6020000 	strle	r0, [r2], -r0
    13dc:	0000927d 	andeq	r9, r0, sp, ror r2
    13e0:	08910200 	ldmeq	r1, {r9}
    13e4:	0006801d 	andeq	r8, r6, sp, lsl r0
    13e8:	91d60200 	bicsls	r0, r6, r0, lsl #4
    13ec:	00000092 	muleq	r0, r2, r0
    13f0:	1e0c9102 	mvfnee	f1, f2
    13f4:	0000060d 	andeq	r0, r0, sp, lsl #12
    13f8:	4110d802 	tstmi	r0, r2, lsl #16
    13fc:	02000001 	andeq	r0, r0, #1, 0
    1400:	181a6891 	ldmdane	sl, {r0, r4, r7, fp, sp, lr}
    1404:	2420000b 	strtcs	r0, [r0], #-11
    1408:	1f000000 	svcne	0x00000000
    140c:	dc020069 	stcle	0, cr0, [r2], {105}	; 0x69
    1410:	00013511 	andeq	r3, r1, r1, lsl r5
    1414:	6c910200 	lfmvs	f0, 4, [r1], {0}
    1418:	9d1b0000 	ldcls	0, cr0, [fp, #-0]
    141c:	02000006 	andeq	r0, r0, #6, 0
    1420:	009215cb 	addseq	r1, r2, fp, asr #11
    1424:	0ab00000 	beq	fec0142c <__bss_end__+0xdebf240c>
    1428:	00462000 	subeq	r2, r6, r0
    142c:	9c010000 	stcls	0, cr0, [r1], {-0}
    1430:	000008a2 	andeq	r0, r0, r2, lsr #17
    1434:	7274731c 	rsbsvc	r7, r4, #28, 6	; 0x70000000
    1438:	28cb0200 	stmiacs	fp, {r9}^
    143c:	000008a2 	andeq	r0, r0, r2, lsr #17
    1440:	1f6c9102 	svcne	0x006c9102
    1444:	cd020069 	stcgt	0, cr0, [r2, #-420]	; 0xfffffe5c
    1448:	00009210 	andeq	r9, r0, r0, lsl r2
    144c:	74910200 	ldrvc	r0, [r1], #512	; 0x200
    1450:	4c040d00 	stcmi	13, cr0, [r4], {-0}
    1454:	20000002 	andcs	r0, r0, r2
    1458:	000006b7 			; <UNDEFINED> instruction: 0x000006b7
    145c:	db14c402 	blle	53246c <STACK_SIZE+0x52fd5c>
    1460:	7e000006 	cdpvc	0, 0, cr0, cr0, cr6, {0}
    1464:	3220000a 	eorcc	r0, r0, #10, 0
    1468:	01000000 	mrseq	r0, (UNDEF: 0)
    146c:	0008d19c 	muleq	r8, ip, r1
    1470:	68631c00 	stmdavs	r3!, {sl, fp, ip}^
    1474:	23c40200 	biccs	r0, r4, #0, 4
    1478:	00000179 	andeq	r0, r0, r9, ror r1
    147c:	00779102 	rsbseq	r9, r7, r2, lsl #2
    1480:	0006a320 	andeq	sl, r6, r0, lsr #6
    1484:	1cba0200 	lfmne	f0, 4, [sl]
    1488:	00000092 	muleq	r0, r2, r0
    148c:	20000a48 	andcs	r0, r0, r8, asr #20
    1490:	00000036 	andeq	r0, r0, r6, lsr r0
    1494:	09179c01 	ldmdbeq	r7, {r0, sl, fp, ip, pc}
    1498:	731c0000 	tstvc	ip, #0, 0
    149c:	02007274 	andeq	r7, r0, #116, 4	; 0x40000007
    14a0:	024c33ba 	subeq	r3, ip, #-402653182	; 0xe8000002
    14a4:	91020000 	mrsls	r0, (UNDEF: 2)
    14a8:	05e71d6c 	strbeq	r1, [r7, #3436]!	; 0xd6c
    14ac:	ba020000 	blt	814b4 <STACK_SIZE+0x7eda4>
    14b0:	0001353f 	andeq	r3, r1, pc, lsr r5
    14b4:	68910200 	ldmvs	r1, {r9}
    14b8:	0200731f 	andeq	r7, r0, #2080374784	; 0x7c000000
    14bc:	024c0fbc 	subeq	r0, ip, #188, 30	; 0x2f0
    14c0:	91020000 	mrsls	r0, (UNDEF: 2)
    14c4:	fa210074 	blx	84169c <STACK_SIZE+0x83ef8c>
    14c8:	02000005 	andeq	r0, r0, #5, 0
    14cc:	0a1214ae 	beq	48678c <STACK_SIZE+0x48407c>
    14d0:	00362000 	eorseq	r2, r6, r0
    14d4:	9c010000 	stcls	0, cr0, [r1], {-0}
    14d8:	0000096a 	andeq	r0, r0, sl, ror #18
    14dc:	0006cc1d 	andeq	ip, r6, sp, lsl ip
    14e0:	22ae0200 	adccs	r0, lr, #0, 4
    14e4:	00000179 	andeq	r0, r0, r9, ror r1
    14e8:	1d779102 	ldfnep	f1, [r7, #-8]!
    14ec:	000005c6 	andeq	r0, r0, r6, asr #11
    14f0:	2733ae02 	ldrcs	sl, [r3, -r2, lsl #28]!
    14f4:	02000001 	andeq	r0, r0, #1, 0
    14f8:	691c7091 	ldmdbvs	ip, {r0, r4, r7, ip, sp, lr}
    14fc:	02007864 	andeq	r7, r0, #100, 16	; 0x640000
    1500:	013542ae 	teqeq	r5, lr, lsr #5
    1504:	91020000 	mrsls	r0, (UNDEF: 2)
    1508:	06961d6c 	ldreq	r1, [r6], ip, ror #26
    150c:	ae020000 	cdpge	0, 0, cr0, cr2, cr0, {0}
    1510:	0001354e 	andeq	r3, r1, lr, asr #10
    1514:	68910200 	ldmvs	r1, {r9}
    1518:	05dd2100 	ldrbeq	r2, [sp, #256]	; 0x100
    151c:	a4020000 	strge	r0, [r2], #-0
    1520:	0009e214 	andeq	lr, r9, r4, lsl r2
    1524:	00003020 	andeq	r3, r0, r0, lsr #32
    1528:	bd9c0100 	ldflts	f0, [ip]
    152c:	1d000009 	stcne	0, cr0, [r0, #-36]	; 0xffffffdc
    1530:	000006cc 	andeq	r0, r0, ip, asr #13
    1534:	7923a402 	stmdbvc	r3!, {r1, sl, sp, pc}
    1538:	02000001 	andeq	r0, r0, #1, 0
    153c:	c61d7791 			; <UNDEFINED> instruction: 0xc61d7791
    1540:	02000005 	andeq	r0, r0, #5, 0
    1544:	012734a4 			; <UNDEFINED> instruction: 0x012734a4
    1548:	91020000 	mrsls	r0, (UNDEF: 2)
    154c:	64691c70 	strbtvs	r1, [r9], #-3184	; 0xfffff390
    1550:	a4020078 	strge	r0, [r2], #-120	; 0xffffff88
    1554:	00013543 	andeq	r3, r1, r3, asr #10
    1558:	6c910200 	lfmvs	f0, 4, [r1], {0}
    155c:	0006961d 	andeq	r9, r6, sp, lsl r6
    1560:	4fa40200 	svcmi	0x00a40200
    1564:	00000135 	andeq	r0, r0, r5, lsr r1
    1568:	00689102 	rsbeq	r9, r8, r2, lsl #2
    156c:	00065922 	andeq	r5, r6, r2, lsr #18
    1570:	149d0200 	ldrne	r0, [sp], #512	; 0x200
    1574:	200009c6 	andcs	r0, r0, r6, asr #19
    1578:	0000001c 	andeq	r0, r0, ip, lsl r0
    157c:	0a109c01 	beq	428588 <STACK_SIZE+0x425e78>
    1580:	cc1d0000 	ldcgt	0, cr0, [sp], {-0}
    1584:	02000006 	andeq	r0, r0, #6, 0
    1588:	0179239d 			; <UNDEFINED> instruction: 0x0179239d
    158c:	91020000 	mrsls	r0, (UNDEF: 2)
    1590:	05c61d77 	strbeq	r1, [r6, #3447]	; 0xd77
    1594:	9d020000 	stcls	0, cr0, [r2, #-0]
    1598:	00012734 	andeq	r2, r1, r4, lsr r7
    159c:	70910200 	addsvc	r0, r1, r0, lsl #4
    15a0:	7864691c 	stmdavc	r4!, {r2, r3, r4, r8, fp, sp, lr}^
    15a4:	439d0200 	orrsmi	r0, sp, #0, 4
    15a8:	00000135 	andeq	r0, r0, r5, lsr r1
    15ac:	1d6c9102 	stfnep	f1, [ip, #-8]!
    15b0:	00000696 	muleq	r0, r6, r6
    15b4:	354f9d02 	strbcc	r9, [pc, #-3330]	; 8ba <STACK_SIZE-0x1e56>
    15b8:	02000001 	andeq	r0, r0, #1, 0
    15bc:	22006891 	andcs	r6, r0, #9502720	; 0x910000
    15c0:	000005c1 	andeq	r0, r0, r1, asr #11
    15c4:	96149402 	ldrls	r9, [r4], -r2, lsl #8
    15c8:	30200009 	eorcc	r0, r0, r9
    15cc:	01000000 	mrseq	r0, (UNDEF: 0)
    15d0:	000a639c 	muleq	sl, ip, r3
    15d4:	06cc1d00 	strbeq	r1, [ip], r0, lsl #26
    15d8:	94020000 	strls	r0, [r2], #-0
    15dc:	00017925 	andeq	r7, r1, r5, lsr #18
    15e0:	77910200 	ldrvc	r0, [r1, r0, lsl #4]
    15e4:	0005c61d 	andeq	ip, r5, sp, lsl r6
    15e8:	36940200 	ldrcc	r0, [r4], r0, lsl #4
    15ec:	00000127 	andeq	r0, r0, r7, lsr #2
    15f0:	1c709102 	ldfnep	f1, [r0], #-8
    15f4:	00786469 	rsbseq	r6, r8, r9, ror #8
    15f8:	35459402 	strbcc	r9, [r5, #-1026]	; 0xfffffbfe
    15fc:	02000001 	andeq	r0, r0, #1, 0
    1600:	961d6c91 			; <UNDEFINED> instruction: 0x961d6c91
    1604:	02000006 	andeq	r0, r0, #6, 0
    1608:	01355194 	teqeq	r5, r4	; <illegal shifter operand>
    160c:	91020000 	mrsls	r0, (UNDEF: 2)
    1610:	e4230068 	strt	r0, [r3], #-104	; 0xffffff98
    1614:	02000006 	andeq	r0, r0, #6, 0
    1618:	0978067e 	ldmdbeq	r8!, {r1, r2, r3, r4, r5, r6, r9, sl}^
    161c:	001e2000 	andseq	r2, lr, r0
    1620:	9c010000 	stcls	0, cr0, [r1], {-0}
    1624:	00000a89 	andeq	r0, r0, r9, lsl #21
    1628:	0006cc1d 	andeq	ip, r6, sp, lsl ip
    162c:	147e0200 	ldrbtne	r0, [lr], #-512	; 0xfffffe00
    1630:	00000179 	andeq	r0, r0, r9, ror r1
    1634:	00779102 	rsbseq	r9, r7, r2, lsl #2
    1638:	0005ef1b 	andeq	lr, r5, fp, lsl pc
    163c:	174c0100 	strbne	r0, [ip, -r0, lsl #2]
    1640:	00000033 	andeq	r0, r0, r3, lsr r0
    1644:	20000942 	andcs	r0, r0, r2, asr #18
    1648:	00000036 	andeq	r0, r0, r6, lsr r0
    164c:	0acd9c01 	beq	ff368658 <__bss_end__+0xdf359638>
    1650:	611c0000 	tstvs	ip, r0
    1654:	244c0100 	strbcs	r0, [ip], #-256	; 0xffffff00
    1658:	00000033 	andeq	r0, r0, r3, lsr r0
    165c:	1c6c9102 	stfnep	f1, [ip], #-8
    1660:	4c010062 	stcmi	0, cr0, [r1], {98}	; 0x62
    1664:	0000332f 	andeq	r3, r0, pc, lsr #6
    1668:	68910200 	ldmvs	r1, {r9}
    166c:	6c756d1f 	ldclvs	13, cr6, [r5], #-124	; 0xffffff84
    1670:	0b4e0100 	bleq	1381a78 <STACK_SIZE+0x137f368>
    1674:	00000033 	andeq	r0, r0, r3, lsr r0
    1678:	00749102 	rsbseq	r9, r4, r2, lsl #2
    167c:	0006df1b 	andeq	sp, r6, fp, lsl pc
    1680:	13420100 	movtne	r0, #8448	; 0x2100
    1684:	00000086 	andeq	r0, r0, r6, lsl #1
    1688:	200008e6 	andcs	r0, r0, r6, ror #17
    168c:	0000005c 	andeq	r0, r0, ip, asr r0
    1690:	0b119c01 	bleq	46869c <STACK_SIZE+0x465f8c>
    1694:	611c0000 	tstvs	ip, r0
    1698:	20420100 	subcs	r0, r2, r0, lsl #2
    169c:	00000033 	andeq	r0, r0, r3, lsr r0
    16a0:	1c649102 	stfnep	f1, [r4], #-8
    16a4:	42010062 	andmi	r0, r1, #98, 0	; 0x62
    16a8:	0000332b 	andeq	r3, r0, fp, lsr #6
    16ac:	60910200 	addsvs	r0, r1, r0, lsl #4
    16b0:	0005ad1e 	andeq	sl, r5, lr, lsl sp
    16b4:	0c440100 	stfeqe	f0, [r4], {-0}
    16b8:	00000060 	andeq	r0, r0, r0, rrx
    16bc:	006c9102 	rsbeq	r9, ip, r2, lsl #2
    16c0:	0006631b 	andeq	r6, r6, fp, lsl r3
    16c4:	13390100 	teqne	r9, #0
    16c8:	00000086 	andeq	r0, r0, r6, lsl #1
    16cc:	200008be 			; <UNDEFINED> instruction: 0x200008be
    16d0:	00000028 	andeq	r0, r0, r8, lsr #32
    16d4:	0b469c01 	bleq	11a86e0 <STACK_SIZE+0x11a5fd0>
    16d8:	611c0000 	tstvs	ip, r0
    16dc:	21390100 	teqcs	r9, r0, lsl #2
    16e0:	00000060 	andeq	r0, r0, r0, rrx
    16e4:	1c6c9102 	stfnep	f1, [ip], #-8
    16e8:	39010062 	stmdbcc	r1, {r1, r5, r6}
    16ec:	0000602d 	andeq	r6, r0, sp, lsr #32
    16f0:	68910200 	ldmvs	r1, {r9}
    16f4:	07182000 	ldreq	r2, [r8, -r0]
    16f8:	20010000 	andcs	r0, r1, r0
    16fc:	00006018 	andeq	r6, r0, r8, lsl r0
    1700:	00085000 	andeq	r5, r8, r0
    1704:	00006e20 	andeq	r6, r0, r0, lsr #28
    1708:	bc9c0100 	ldflts	f0, [ip], {0}
    170c:	1c00000b 	stcne	0, cr0, [r0], {11}
    1710:	20010061 	andcs	r0, r1, r1, rrx
    1714:	00007327 	andeq	r7, r0, r7, lsr #6
    1718:	50910200 	addspl	r0, r1, r0, lsl #4
    171c:	0100621c 	tsteq	r0, ip, lsl r2
    1720:	00603320 	rsbeq	r3, r0, r0, lsr #6
    1724:	91020000 	mrsls	r0, (UNDEF: 2)
    1728:	00691f4c 	rsbeq	r1, r9, ip, asr #30
    172c:	86072101 	strhi	r2, [r7], -r1, lsl #2
    1730:	02000000 	andeq	r0, r0, #0, 0
    1734:	781f6c91 	ldmdavc	pc, {r0, r4, r7, sl, fp, sp, lr}	; <UNPREDICTABLE>
    1738:	0c240100 	stfeqs	f0, [r4], #-0
    173c:	00000060 	andeq	r0, r0, r0, rrx
    1740:	1f689102 	svcne	0x00689102
    1744:	25010079 	strcs	r0, [r1, #-121]	; 0xffffff87
    1748:	0000600c 	andeq	r6, r0, ip
    174c:	64910200 	ldrvs	r0, [r1], #512	; 0x200
    1750:	01007a1f 	tsteq	r0, pc, lsl sl
    1754:	00600c26 	rsbeq	r0, r0, r6, lsr #24
    1758:	91020000 	mrsls	r0, (UNDEF: 2)
    175c:	00741f60 	rsbseq	r1, r4, r0, ror #30
    1760:	600c2701 	andvs	r2, ip, r1, lsl #14
    1764:	02000000 	andeq	r0, r0, #0, 0
    1768:	24005c91 	strcs	r5, [r0], #-3217	; 0xfffff36f
    176c:	00000647 	andeq	r0, r0, r7, asr #12
    1770:	92181001 	andsls	r1, r8, #1, 0
    1774:	38000000 	stmdacc	r0, {}	; <UNPREDICTABLE>
    1778:	18200008 	stmdane	r0!, {r3}
    177c:	01000000 	mrseq	r0, (UNDEF: 0)
    1780:	00781c9c 			; <UNDEFINED> instruction: 0x00781c9c
    1784:	86211001 	strthi	r1, [r1], -r1
    1788:	02000000 	andeq	r0, r0, #0, 0
    178c:	00007491 	muleq	r0, r1, r4
    1790:	000002ff 	strdeq	r0, [r0], -pc	; <UNPREDICTABLE>
    1794:	07b60004 	ldreq	r0, [r6, r4]!
    1798:	01040000 	mrseq	r0, (UNDEF: 4)
    179c:	00000000 	andeq	r0, r0, r0
    17a0:	00073b0c 	andeq	r3, r7, ip, lsl #22
    17a4:	00027a00 	andeq	r7, r2, r0, lsl #20
    17a8:	00157c00 	andseq	r7, r5, r0, lsl #24
    17ac:	00025a20 	andeq	r5, r2, r0, lsr #20
    17b0:	000ebf00 	andeq	fp, lr, r0, lsl #30
    17b4:	06010200 	streq	r0, [r1], -r0, lsl #4
    17b8:	00000184 	andeq	r0, r0, r4, lsl #3
    17bc:	aa050202 	bge	141fcc <STACK_SIZE+0x13f8bc>
    17c0:	02000000 	andeq	r0, r0, #0, 0
    17c4:	00f60504 	rscseq	r0, r6, r4, lsl #10
    17c8:	08020000 	stmdaeq	r2, {}	; <UNPREDICTABLE>
    17cc:	0000f105 	andeq	pc, r0, r5, lsl #2
    17d0:	08010200 	stmdaeq	r1, {r9}
    17d4:	00000182 	andeq	r0, r0, r2, lsl #3
    17d8:	ca070202 	bgt	1c1fe8 <STACK_SIZE+0x1bf8d8>
    17dc:	03000001 	movweq	r0, #1
    17e0:	000001b8 			; <UNDEFINED> instruction: 0x000001b8
    17e4:	5b193403 	blpl	64e7f8 <STACK_SIZE+0x64c0e8>
    17e8:	02000000 	andeq	r0, r0, #0, 0
    17ec:	01a60704 			; <UNDEFINED> instruction: 0x01a60704
    17f0:	cd030000 	stcgt	0, cr0, [r3, #-0]
    17f4:	03000005 	movweq	r0, #5
    17f8:	006e1937 	rsbeq	r1, lr, r7, lsr r9
    17fc:	08020000 	stmdaeq	r2, {}	; <UNPREDICTABLE>
    1800:	0001a107 	andeq	sl, r1, r7, lsl #2
    1804:	05040400 	streq	r0, [r4, #-1024]	; 0xfffffc00
    1808:	00746e69 	rsbseq	r6, r4, r9, ror #28
    180c:	ab070402 	blge	1c281c <STACK_SIZE+0x1c010c>
    1810:	05000001 	streq	r0, [r0, #-1]
    1814:	00410107 	subeq	r0, r1, r7, lsl #2
    1818:	30040000 	andcc	r0, r4, r0
    181c:	0000bc06 	andeq	fp, r0, r6, lsl #24
    1820:	03920600 	orrseq	r0, r2, #0, 12
    1824:	06050000 	streq	r0, [r5], -r0
    1828:	00000353 	andeq	r0, r0, r3, asr r3
    182c:	03fd0618 	mvnseq	r0, #24, 12	; 0x1800000
    1830:	06170000 	ldreq	r0, [r7], -r0
    1834:	000003f1 	strdeq	r0, [r0], -r1
    1838:	03420616 	movteq	r0, #9750	; 0x2616
    183c:	06080000 	streq	r0, [r8], -r0
    1840:	00000370 	andeq	r0, r0, r0, ror r3
    1844:	0449060a 	strbeq	r0, [r9], #-1546	; 0xfffff9f6
    1848:	000b0000 	andeq	r0, fp, r0
    184c:	41010705 	tstmi	r1, r5, lsl #14
    1850:	04000000 	streq	r0, [r0], #-0
    1854:	00d60642 	sbcseq	r0, r6, r2, asr #12
    1858:	46060000 	strmi	r0, [r6], -r0
    185c:	05000007 	streq	r0, [r0, #-7]
    1860:	00324607 	eorseq	r4, r2, r7, lsl #12
    1864:	07050002 	streq	r0, [r5, -r2]
    1868:	00004101 	andeq	r4, r0, r1, lsl #2
    186c:	06080500 	streq	r0, [r8], -r0, lsl #10
    1870:	0000010f 	andeq	r0, r0, pc, lsl #2
    1874:	00079f06 	andeq	r9, r7, r6, lsl #30
    1878:	ba060000 	blt	181880 <STACK_SIZE+0x17f170>
    187c:	04000007 	streq	r0, [r0], #-7
    1880:	00081d06 	andeq	r1, r8, r6, lsl #26
    1884:	4f061800 	svcmi	0x00061800
    1888:	24000007 	strcs	r0, [r0], #-7
    188c:	00080c06 	andeq	r0, r8, r6, lsl #24
    1890:	8f062800 	svchi	0x00062800
    1894:	2c000007 	stccs	0, cr0, [r0], {7}
    1898:	00077006 	andeq	r7, r7, r6
    189c:	08003000 	stmdaeq	r0, {ip, sp}
    18a0:	09120510 	ldmdbeq	r2, {r4, r8, sl}
    18a4:	0000014b 	andeq	r0, r0, fp, asr #2
    18a8:	00787409 	rsbseq	r7, r8, r9, lsl #8
    18ac:	4f0e1305 	svcmi	0x000e1305
    18b0:	00000000 	andeq	r0, r0, r0
    18b4:	00787209 	rsbseq	r7, r8, r9, lsl #4
    18b8:	4f111305 	svcmi	0x00111305
    18bc:	04000000 	streq	r0, [r0], #-0
    18c0:	0000e70a 	andeq	lr, r0, sl, lsl #14
    18c4:	0e140500 	cfmul32eq	mvfx0, mvfx4, mvfx0
    18c8:	0000004f 	andeq	r0, r0, pc, asr #32
    18cc:	009a0a08 	addseq	r0, sl, r8, lsl #20
    18d0:	15050000 	strne	r0, [r5, #-0]
    18d4:	00004f0e 	andeq	r4, r0, lr, lsl #30
    18d8:	03000c00 	movweq	r0, #3072	; 0xc00
    18dc:	00000147 	andeq	r0, r0, r7, asr #2
    18e0:	0f031605 	svceq	0x00031605
    18e4:	0b000001 	bleq	18f0 <STACK_SIZE-0xe20>
    18e8:	000001dd 	ldrdeq	r0, [r0], -sp
    18ec:	4b0b1805 	blmi	2c7908 <STACK_SIZE+0x2c51f8>
    18f0:	05000001 	streq	r0, [r0, #-1]
    18f4:	00f00003 	rscseq	r0, r0, r3
    18f8:	04080220 	streq	r0, [r8], #-544	; 0xfffffde0
    18fc:	00000151 	andeq	r0, r0, r1, asr r1
    1900:	0007600c 	andeq	r6, r7, ip
    1904:	05400200 	strbeq	r0, [r0, #-512]	; 0xfffffe00
    1908:	00000075 	andeq	r0, r0, r5, ror r0
    190c:	200017b8 			; <UNDEFINED> instruction: 0x200017b8
    1910:	0000001e 	andeq	r0, r0, lr, lsl r0
    1914:	e10c9c01 	tst	ip, r1, lsl #24
    1918:	02000007 	andeq	r0, r0, #7, 0
    191c:	0075053c 	rsbseq	r0, r5, ip, lsr r5
    1920:	17a80000 	strne	r0, [r8, r0]!
    1924:	00102000 	andseq	r2, r0, r0
    1928:	9c010000 	stcls	0, cr0, [r1], {-0}
    192c:	0005770d 	andeq	r7, r5, sp, lsl #14
    1930:	06340200 	ldrteq	r0, [r4], -r0, lsl #4
    1934:	20001774 	andcs	r1, r0, r4, ror r7
    1938:	00000034 	andeq	r0, r0, r4, lsr r0
    193c:	01c09c01 	biceq	r9, r0, r1, lsl #24
    1940:	630e0000 	movwvs	r0, #57344	; 0xe000
    1944:	1e340200 	cdpne	2, 3, cr0, cr4, cr0, {0}
    1948:	00000041 	andeq	r0, r0, r1, asr #32
    194c:	00779102 	rsbseq	r9, r7, r2, lsl #2
    1950:	0007810c 	andeq	r8, r7, ip, lsl #2
    1954:	052e0200 	streq	r0, [lr, #-512]!	; 0xfffffe00
    1958:	00000075 	andeq	r0, r0, r5, ror r0
    195c:	2000174c 	andcs	r1, r0, ip, asr #14
    1960:	00000028 	andeq	r0, r0, r8, lsr #32
    1964:	b00f9c01 	andlt	r9, pc, r1, lsl #24
    1968:	02000007 	andeq	r0, r0, #7, 0
    196c:	00750529 	rsbseq	r0, r5, r9, lsr #10
    1970:	17400000 	strbne	r0, [r0, -r0]
    1974:	000c2000 	andeq	r2, ip, r0
    1978:	9c010000 	stcls	0, cr0, [r1], {-0}
    197c:	0007fe10 	andeq	pc, r7, r0, lsl lr	; <UNPREDICTABLE>
    1980:	0c230200 	sfmeq	f0, 4, [r3], #-0
    1984:	00000075 	andeq	r0, r0, r5, ror r0
    1988:	20001734 	andcs	r1, r0, r4, lsr r7
    198c:	0000000c 	andeq	r0, r0, ip
    1990:	310d9c01 	tstcc	sp, r1, lsl #24
    1994:	02000007 	andeq	r0, r0, #7, 0
    1998:	16120608 	ldrne	r0, [r2], -r8, lsl #12
    199c:	01222000 			; <UNDEFINED> instruction: 0x01222000
    19a0:	9c010000 	stcls	0, cr0, [r1], {-0}
    19a4:	00000255 	andeq	r0, r0, r5, asr r2
    19a8:	00012911 	andeq	r2, r1, r1, lsl r9
    19ac:	1b080200 	blne	2021b4 <STACK_SIZE+0x1ffaa4>
    19b0:	00000255 	andeq	r0, r0, r5, asr r2
    19b4:	12649102 	rsbne	r9, r4, #-2147483648	; 0x80000000
    19b8:	000007cf 	andeq	r0, r0, pc, asr #15
    19bc:	4f0e1002 	svcmi	0x000e1002
    19c0:	02000000 	andeq	r0, r0, #0, 0
    19c4:	ef127491 	svc	0x00127491
    19c8:	02000007 	andeq	r0, r0, #7, 0
    19cc:	004f0e12 	subeq	r0, pc, r2, lsl lr	; <UNPREDICTABLE>
    19d0:	91020000 	mrsls	r0, (UNDEF: 2)
    19d4:	07ca1270 			; <UNDEFINED> instruction: 0x07ca1270
    19d8:	13020000 	movwne	r0, #8192	; 0x2000
    19dc:	00004f0e 	andeq	r4, r0, lr, lsl #30
    19e0:	6c910200 	lfmvs	f0, 4, [r1], {0}
    19e4:	4b041300 	blmi	1065ec <STACK_SIZE+0x103edc>
    19e8:	14000001 	strne	r0, [r0], #-1
    19ec:	00000663 	andeq	r0, r0, r3, ror #12
    19f0:	75133901 	ldrvc	r3, [r3, #-2305]	; 0xfffff6ff
    19f4:	ea000000 	b	19fc <STACK_SIZE-0xd14>
    19f8:	28200015 	stmdacs	r0!, {r0, r2, r4}
    19fc:	01000000 	mrseq	r0, (UNDEF: 0)
    1a00:	0002909c 	muleq	r2, ip, r0
    1a04:	00610e00 	rsbeq	r0, r1, r0, lsl #28
    1a08:	4f213901 	svcmi	0x00213901
    1a0c:	02000000 	andeq	r0, r0, #0, 0
    1a10:	620e6c91 	andvs	r6, lr, #37120	; 0x9100
    1a14:	2d390100 	ldfcss	f0, [r9, #-0]
    1a18:	0000004f 	andeq	r0, r0, pc, asr #32
    1a1c:	00689102 	rsbeq	r9, r8, r2, lsl #2
    1a20:	00071815 	andeq	r1, r7, r5, lsl r8
    1a24:	18200100 	stmdane	r0!, {r8}
    1a28:	0000004f 	andeq	r0, r0, pc, asr #32
    1a2c:	2000157c 	andcs	r1, r0, ip, ror r5
    1a30:	0000006e 	andeq	r0, r0, lr, rrx
    1a34:	610e9c01 	tstvs	lr, r1, lsl #24
    1a38:	27200100 	strcs	r0, [r0, -r0, lsl #2]!
    1a3c:	00000062 	andeq	r0, r0, r2, rrx
    1a40:	0e509102 	logeqs	f1, f2
    1a44:	20010062 	andcs	r0, r1, r2, rrx
    1a48:	00004f33 	andeq	r4, r0, r3, lsr pc
    1a4c:	4c910200 	lfmmi	f0, 4, [r1], {0}
    1a50:	01006916 	tsteq	r0, r6, lsl r9
    1a54:	00750721 	rsbseq	r0, r5, r1, lsr #14
    1a58:	91020000 	mrsls	r0, (UNDEF: 2)
    1a5c:	0078166c 	rsbseq	r1, r8, ip, ror #12
    1a60:	4f0c2401 	svcmi	0x000c2401
    1a64:	02000000 	andeq	r0, r0, #0, 0
    1a68:	79166891 	ldmdbvc	r6, {r0, r4, r7, fp, sp, lr}
    1a6c:	0c250100 	stfeqs	f0, [r5], #-0
    1a70:	0000004f 	andeq	r0, r0, pc, asr #32
    1a74:	16649102 	strbtne	r9, [r4], -r2, lsl #2
    1a78:	2601007a 			; <UNDEFINED> instruction: 0x2601007a
    1a7c:	00004f0c 	andeq	r4, r0, ip, lsl #30
    1a80:	60910200 	addsvs	r0, r1, r0, lsl #4
    1a84:	01007416 	tsteq	r0, r6, lsl r4
    1a88:	004f0c27 	subeq	r0, pc, r7, lsr #24
    1a8c:	91020000 	mrsls	r0, (UNDEF: 2)
    1a90:	Address 0x0000000000001a90 is out of bounds.


Disassembly of section .debug_abbrev:

00000000 <.debug_abbrev>:
   0:	25011101 	strcs	r1, [r1, #-257]	; 0xfffffeff
   4:	030b130e 	movweq	r1, #45838	; 0xb30e
   8:	110e1b0e 	tstne	lr, lr, lsl #22
   c:	10061201 	andne	r1, r6, r1, lsl #4
  10:	02000017 	andeq	r0, r0, #23, 0
  14:	0b0b0024 	bleq	2c00ac <STACK_SIZE+0x2bd99c>
  18:	0e030b3e 	vmoveq.16	d3[0], r0
  1c:	16030000 	strne	r0, [r3], -r0
  20:	3a0e0300 	bcc	380c28 <STACK_SIZE+0x37e518>
  24:	390b3b0b 	stmdbcc	fp, {r0, r1, r3, r8, r9, fp, ip, sp}
  28:	0013490b 	andseq	r4, r3, fp, lsl #18
  2c:	00260400 	eoreq	r0, r6, r0, lsl #8
  30:	00001349 	andeq	r1, r0, r9, asr #6
  34:	0b002405 	bleq	9050 <STACK_SIZE+0x6940>
  38:	030b3e0b 	movweq	r3, #48651	; 0xbe0b
  3c:	06000008 	streq	r0, [r0], -r8
  40:	0b3e0104 	bleq	f80458 <STACK_SIZE+0xf7dd48>
  44:	13490b0b 	movtne	r0, #39691	; 0x9b0b
  48:	0b3b0b3a 	bleq	ec2d38 <STACK_SIZE+0xec0628>
  4c:	13010b39 	movwne	r0, #6969	; 0x1b39
  50:	28070000 	stmdacs	r7, {}	; <UNPREDICTABLE>
  54:	1c080300 	stcne	3, cr0, [r8], {-0}
  58:	0800000b 	stmdaeq	r0, {r0, r1, r3}
  5c:	0e030028 	cdpeq	0, 0, cr0, cr3, cr8, {1}
  60:	00000b1c 	andeq	r0, r0, ip, lsl fp
  64:	0b011309 	bleq	44c90 <STACK_SIZE+0x42580>
  68:	3b0b3a0b 	blcc	2ce89c <STACK_SIZE+0x2cc18c>
  6c:	010b390b 	tsteq	fp, fp, lsl #18
  70:	0a000013 	beq	c4 <STACK_SIZE-0x264c>
  74:	0803000d 	stmdaeq	r3, {r0, r2, r3}
  78:	0b3b0b3a 	bleq	ec2d68 <STACK_SIZE+0xec0658>
  7c:	13490b39 	movtne	r0, #39737	; 0x9b39
  80:	00000b38 	andeq	r0, r0, r8, lsr fp
  84:	03000d0b 	movweq	r0, #3339	; 0xd0b
  88:	3b0b3a0e 	blcc	2ce8c8 <STACK_SIZE+0x2cc1b8>
  8c:	490b390b 	stmdbmi	fp, {r0, r1, r3, r8, fp, ip, sp}
  90:	000b3813 	andeq	r3, fp, r3, lsl r8
  94:	00340c00 	eorseq	r0, r4, r0, lsl #24
  98:	0b3a0e03 	bleq	e838ac <STACK_SIZE+0xe8119c>
  9c:	0b390b3b 	bleq	e42d90 <STACK_SIZE+0xe40680>
  a0:	193f1349 	ldmdbne	pc!, {r0, r3, r6, r8, r9, ip}	; <UNPREDICTABLE>
  a4:	00001802 	andeq	r1, r0, r2, lsl #16
  a8:	0300280d 	movweq	r2, #2061	; 0x80d
  ac:	00061c0e 	andeq	r1, r6, lr, lsl #24
  b0:	01010e00 	tsteq	r1, r0, lsl #28
  b4:	13011349 	movwne	r1, #4937	; 0x1349
  b8:	210f0000 	mrscs	r0, CPSR
  bc:	2f134900 	svccs	0x00134900
  c0:	1000000b 	andne	r0, r0, fp
  c4:	0e030034 	mcreq	0, 0, r0, cr3, cr4, {1}
  c8:	0b3b0b3a 	bleq	ec2db8 <STACK_SIZE+0xec06a8>
  cc:	13490b39 	movtne	r0, #39737	; 0x9b39
  d0:	00001802 	andeq	r1, r0, r2, lsl #16
  d4:	3f012e11 	svccc	0x00012e11
  d8:	3a0e0319 	bcc	380d44 <STACK_SIZE+0x37e634>
  dc:	390b3b0b 	stmdbcc	fp, {r0, r1, r3, r8, r9, fp, ip, sp}
  e0:	1113490b 	tstne	r3, fp, lsl #18
  e4:	40061201 	andmi	r1, r6, r1, lsl #4
  e8:	19429618 	stmdbne	r2, {r3, r4, r9, sl, ip, pc}^
  ec:	00001301 	andeq	r1, r0, r1, lsl #6
  f0:	11010b12 	tstne	r1, r2, lsl fp
  f4:	01061201 	tsteq	r6, r1, lsl #4
  f8:	13000013 	movwne	r0, #19
  fc:	08030034 	stmdaeq	r3, {r2, r4, r5}
 100:	0b3b0b3a 	bleq	ec2df0 <STACK_SIZE+0xec06e0>
 104:	13490b39 	movtne	r0, #39737	; 0x9b39
 108:	00001802 	andeq	r1, r0, r2, lsl #16
 10c:	11010b14 	tstne	r1, r4, lsl fp
 110:	00061201 	andeq	r1, r6, r1, lsl #4
 114:	012e1500 			; <UNDEFINED> instruction: 0x012e1500
 118:	0b3a0e03 	bleq	e8392c <STACK_SIZE+0xe8121c>
 11c:	0b390b3b 	bleq	e42e10 <STACK_SIZE+0xe40700>
 120:	01111927 	tsteq	r1, r7, lsr #18
 124:	18400612 	stmdane	r0, {r1, r4, r9, sl}^
 128:	01194296 			; <UNDEFINED> instruction: 0x01194296
 12c:	16000013 			; <UNDEFINED> instruction: 0x16000013
 130:	08030005 	stmdaeq	r3, {r0, r2}
 134:	0b3b0b3a 	bleq	ec2e24 <STACK_SIZE+0xec0714>
 138:	13490b39 	movtne	r0, #39737	; 0x9b39
 13c:	00001802 	andeq	r1, r0, r2, lsl #16
 140:	03012e17 	movweq	r2, #7703	; 0x1e17
 144:	3b0b3a0e 	blcc	2ce984 <STACK_SIZE+0x2cc274>
 148:	270b390b 	strcs	r3, [fp, -fp, lsl #18]
 14c:	12011119 	andne	r1, r1, #1073741830	; 0x40000006
 150:	96184006 	ldrls	r4, [r8], -r6
 154:	00001942 	andeq	r1, r0, r2, asr #18
 158:	00110100 	andseq	r0, r1, r0, lsl #2
 15c:	06550610 			; <UNDEFINED> instruction: 0x06550610
 160:	0e1b0e03 	cdpeq	14, 1, cr0, cr11, cr3, {0}
 164:	05130e25 	ldreq	r0, [r3, #-3621]	; 0xfffff1db
 168:	01000000 	mrseq	r0, (UNDEF: 0)
 16c:	0e250111 	mcreq	1, 1, r0, cr5, cr1, {0}
 170:	0e030b13 	vmoveq.32	d3[0], r0
 174:	01110e1b 	tsteq	r1, fp, lsl lr
 178:	17100612 			; <UNDEFINED> instruction: 0x17100612
 17c:	24020000 	strcs	r0, [r2], #-0
 180:	3e0b0b00 	vmlacc.f64	d0, d11, d0
 184:	000e030b 	andeq	r0, lr, fp, lsl #6
 188:	00160300 	andseq	r0, r6, r0, lsl #6
 18c:	0b3a0e03 	bleq	e839a0 <STACK_SIZE+0xe81290>
 190:	0b390b3b 	bleq	e42e84 <STACK_SIZE+0xe40774>
 194:	00001349 	andeq	r1, r0, r9, asr #6
 198:	0b002404 	bleq	91b0 <STACK_SIZE+0x6aa0>
 19c:	030b3e0b 	movweq	r3, #48651	; 0xbe0b
 1a0:	05000008 	streq	r0, [r0, #-8]
 1a4:	0b3e0104 	bleq	f805bc <STACK_SIZE+0xf7deac>
 1a8:	13490b0b 	movtne	r0, #39691	; 0x9b0b
 1ac:	0b3b0b3a 	bleq	ec2e9c <STACK_SIZE+0xec078c>
 1b0:	13010b39 	movwne	r0, #6969	; 0x1b39
 1b4:	28060000 	stmdacs	r6, {}	; <UNPREDICTABLE>
 1b8:	1c0e0300 	stcne	3, cr0, [lr], {-0}
 1bc:	07000006 	streq	r0, [r0, -r6]
 1c0:	0b0b0113 	bleq	2c0614 <STACK_SIZE+0x2bdf04>
 1c4:	0b3b0b3a 	bleq	ec2eb4 <STACK_SIZE+0xec07a4>
 1c8:	13010b39 	movwne	r0, #6969	; 0x1b39
 1cc:	0d080000 	stceq	0, cr0, [r8, #-0]
 1d0:	3a080300 	bcc	200dd8 <STACK_SIZE+0x1fe6c8>
 1d4:	390b3b0b 	stmdbcc	fp, {r0, r1, r3, r8, r9, fp, ip, sp}
 1d8:	3813490b 	ldmdacc	r3, {r0, r1, r3, r8, fp, lr}
 1dc:	0900000b 	stmdbeq	r0, {r0, r1, r3}
 1e0:	0e03000d 	cdpeq	0, 0, cr0, cr3, cr13, {0}
 1e4:	0b3b0b3a 	bleq	ec2ed4 <STACK_SIZE+0xec07c4>
 1e8:	13490b39 	movtne	r0, #39737	; 0x9b39
 1ec:	00000b38 	andeq	r0, r0, r8, lsr fp
 1f0:	0300340a 	movweq	r3, #1034	; 0x40a
 1f4:	3b0b3a0e 	blcc	2cea34 <STACK_SIZE+0x2cc324>
 1f8:	490b390b 	stmdbmi	fp, {r0, r1, r3, r8, fp, ip, sp}
 1fc:	02193f13 	andseq	r3, r9, #76	; 0x4c
 200:	0b000018 	bleq	268 <STACK_SIZE-0x24a8>
 204:	193f012e 	ldmdbne	pc!, {r1, r2, r3, r5, r8}	; <UNPREDICTABLE>
 208:	0b3a0e03 	bleq	e83a1c <STACK_SIZE+0xe8130c>
 20c:	0b390b3b 	bleq	e42f00 <STACK_SIZE+0xe407f0>
 210:	06120111 			; <UNDEFINED> instruction: 0x06120111
 214:	42961840 	addsmi	r1, r6, #64, 16	; 0x400000
 218:	00130119 	andseq	r0, r3, r9, lsl r1
 21c:	00340c00 	eorseq	r0, r4, r0, lsl #24
 220:	0b3a0e03 	bleq	e83a34 <STACK_SIZE+0xe81324>
 224:	0b390b3b 	bleq	e42f18 <STACK_SIZE+0xe40808>
 228:	193f1349 	ldmdbne	pc!, {r0, r3, r6, r8, r9, ip}	; <UNPREDICTABLE>
 22c:	0000193c 	andeq	r1, r0, ip, lsr r9
 230:	0300340d 	movweq	r3, #1037	; 0x40d
 234:	3b0b3a0e 	blcc	2cea74 <STACK_SIZE+0x2cc364>
 238:	490b390b 	stmdbmi	fp, {r0, r1, r3, r8, fp, ip, sp}
 23c:	00180213 	andseq	r0, r8, r3, lsl r2
 240:	00340e00 	eorseq	r0, r4, r0, lsl #28
 244:	0b3a0803 	bleq	e82258 <STACK_SIZE+0xe7fb48>
 248:	0b390b3b 	bleq	e42f3c <STACK_SIZE+0xe4082c>
 24c:	18021349 	stmdane	r2, {r0, r3, r6, r8, r9, ip}
 250:	2e0f0000 	cdpcs	0, 0, cr0, cr15, cr0, {0}
 254:	03193f01 	tsteq	r9, #1, 30
 258:	3b0b3a0e 	blcc	2cea98 <STACK_SIZE+0x2cc388>
 25c:	490b390b 	stmdbmi	fp, {r0, r1, r3, r8, fp, ip, sp}
 260:	00193c13 	andseq	r3, r9, r3, lsl ip
 264:	00181000 	andseq	r1, r8, r0
 268:	0f110000 	svceq	0x00110000
 26c:	490b0b00 	stmdbmi	fp, {r8, r9, fp}
 270:	00000013 	andeq	r0, r0, r3, lsl r0
 274:	25011101 	strcs	r1, [r1, #-257]	; 0xfffffeff
 278:	030b130e 	movweq	r1, #45838	; 0xb30e
 27c:	110e1b0e 	tstne	lr, lr, lsl #22
 280:	10061201 	andne	r1, r6, r1, lsl #4
 284:	02000017 	andeq	r0, r0, #23, 0
 288:	0b0b0024 	bleq	2c0320 <STACK_SIZE+0x2bdc10>
 28c:	0e030b3e 	vmoveq.16	d3[0], r0
 290:	16030000 	strne	r0, [r3], -r0
 294:	3a0e0300 	bcc	380e9c <STACK_SIZE+0x37e78c>
 298:	390b3b0b 	stmdbcc	fp, {r0, r1, r3, r8, r9, fp, ip, sp}
 29c:	0013490b 	andseq	r4, r3, fp, lsl #18
 2a0:	00240400 	eoreq	r0, r4, r0, lsl #8
 2a4:	0b3e0b0b 	bleq	f82ed8 <STACK_SIZE+0xf807c8>
 2a8:	00000803 	andeq	r0, r0, r3, lsl #16
 2ac:	3e010405 	cdpcc	4, 0, cr0, cr1, cr5, {0}
 2b0:	490b0b0b 	stmdbmi	fp, {r0, r1, r3, r8, r9, fp}
 2b4:	3b0b3a13 	blcc	2ceb08 <STACK_SIZE+0x2cc3f8>
 2b8:	010b390b 	tsteq	fp, fp, lsl #18
 2bc:	06000013 			; <UNDEFINED> instruction: 0x06000013
 2c0:	0e030028 	cdpeq	0, 0, cr0, cr3, cr8, {1}
 2c4:	0000061c 	andeq	r0, r0, ip, lsl r6
 2c8:	03002807 	movweq	r2, #2055	; 0x807
 2cc:	000b1c0e 	andeq	r1, fp, lr, lsl #24
 2d0:	00280800 	eoreq	r0, r8, r0, lsl #16
 2d4:	0b1c0803 	bleq	7022e8 <STACK_SIZE+0x6ffbd8>
 2d8:	2e090000 	cdpcs	0, 0, cr0, cr9, cr0, {0}
 2dc:	03193f01 	tsteq	r9, #1, 30
 2e0:	3b0b3a0e 	blcc	2ceb20 <STACK_SIZE+0x2cc410>
 2e4:	270b390b 	strcs	r3, [fp, -fp, lsl #18]
 2e8:	12011119 	andne	r1, r1, #1073741830	; 0x40000006
 2ec:	96184006 	ldrls	r4, [r8], -r6
 2f0:	13011942 	movwne	r1, #6466	; 0x1942
 2f4:	050a0000 	streq	r0, [sl, #-0]
 2f8:	3a080300 	bcc	200f00 <STACK_SIZE+0x1fe7f0>
 2fc:	390b3b0b 	stmdbcc	fp, {r0, r1, r3, r8, r9, fp, ip, sp}
 300:	0213490b 	andseq	r4, r3, #180224	; 0x2c000
 304:	0b000018 	bleq	36c <STACK_SIZE-0x23a4>
 308:	0e030034 	mcreq	0, 0, r0, cr3, cr4, {1}
 30c:	0b3b0b3a 	bleq	ec2ffc <STACK_SIZE+0xec08ec>
 310:	13490b39 	movtne	r0, #39737	; 0x9b39
 314:	00001802 	andeq	r1, r0, r2, lsl #16
 318:	3f002e0c 	svccc	0x00002e0c
 31c:	3a0e0319 	bcc	380f88 <STACK_SIZE+0x37e878>
 320:	390b3b0b 	stmdbcc	fp, {r0, r1, r3, r8, r9, fp, ip, sp}
 324:	1201110b 	andne	r1, r1, #-1073741822	; 0xc0000002
 328:	96184006 	ldrls	r4, [r8], -r6
 32c:	00001942 	andeq	r1, r0, r2, asr #18
 330:	3f012e0d 	svccc	0x00012e0d
 334:	3a0e0319 	bcc	380fa0 <STACK_SIZE+0x37e890>
 338:	390b3b0b 	stmdbcc	fp, {r0, r1, r3, r8, r9, fp, ip, sp}
 33c:	4919270b 	ldmdbmi	r9, {r0, r1, r3, r8, r9, sl, sp}
 340:	12011113 	andne	r1, r1, #-1073741820	; 0xc0000004
 344:	96184006 	ldrls	r4, [r8], -r6
 348:	13011942 	movwne	r1, #6466	; 0x1942
 34c:	050e0000 	streq	r0, [lr, #-0]
 350:	3a0e0300 	bcc	380f58 <STACK_SIZE+0x37e848>
 354:	390b3b0b 	stmdbcc	fp, {r0, r1, r3, r8, r9, fp, ip, sp}
 358:	0213490b 	andseq	r4, r3, #180224	; 0x2c000
 35c:	0f000018 	svceq	0x00000018
 360:	193f012e 	ldmdbne	pc!, {r1, r2, r3, r5, r8}	; <UNPREDICTABLE>
 364:	0b3a0e03 	bleq	e83b78 <STACK_SIZE+0xe81468>
 368:	0b390b3b 	bleq	e4305c <STACK_SIZE+0xe4094c>
 36c:	01111927 	tsteq	r1, r7, lsr #18
 370:	18400612 	stmdane	r0, {r1, r4, r9, sl}^
 374:	00194296 	mulseq	r9, r6, r2
 378:	11010000 	mrsne	r0, (UNDEF: 1)
 37c:	130e2501 	movwne	r2, #58625	; 0xe501
 380:	1b0e030b 	blne	380fb4 <STACK_SIZE+0x37e8a4>
 384:	1201110e 	andne	r1, r1, #-2147483645	; 0x80000003
 388:	00171006 	andseq	r1, r7, r6
 38c:	00240200 	eoreq	r0, r4, r0, lsl #4
 390:	0b3e0b0b 	bleq	f82fc4 <STACK_SIZE+0xf808b4>
 394:	00000e03 	andeq	r0, r0, r3, lsl #28
 398:	03001603 	movweq	r1, #1539	; 0x603
 39c:	3b0b3a0e 	blcc	2cebdc <STACK_SIZE+0x2cc4cc>
 3a0:	490b390b 	stmdbmi	fp, {r0, r1, r3, r8, fp, ip, sp}
 3a4:	04000013 	streq	r0, [r0], #-19	; 0xffffffed
 3a8:	0b0b0024 	bleq	2c0440 <STACK_SIZE+0x2bdd30>
 3ac:	08030b3e 	stmdaeq	r3, {r1, r2, r3, r4, r5, r8, r9, fp}
 3b0:	04050000 	streq	r0, [r5], #-0
 3b4:	0b0b3e01 	bleq	2cfbc0 <STACK_SIZE+0x2cd4b0>
 3b8:	3a13490b 	bcc	4d27ec <STACK_SIZE+0x4d00dc>
 3bc:	390b3b0b 	stmdbcc	fp, {r0, r1, r3, r8, r9, fp, ip, sp}
 3c0:	0013010b 	andseq	r0, r3, fp, lsl #2
 3c4:	00280600 	eoreq	r0, r8, r0, lsl #12
 3c8:	061c0e03 	ldreq	r0, [ip], -r3, lsl #28
 3cc:	2e070000 	cdpcs	0, 0, cr0, cr7, cr0, {0}
 3d0:	03193f01 	tsteq	r9, #1, 30
 3d4:	3b0b3a0e 	blcc	2cec14 <STACK_SIZE+0x2cc504>
 3d8:	270b390b 	strcs	r3, [fp, -fp, lsl #18]
 3dc:	12011119 	andne	r1, r1, #1073741830	; 0x40000006
 3e0:	96184006 	ldrls	r4, [r8], -r6
 3e4:	13011942 	movwne	r1, #6466	; 0x1942
 3e8:	05080000 	streq	r0, [r8, #-0]
 3ec:	3a0e0300 	bcc	380ff4 <STACK_SIZE+0x37e8e4>
 3f0:	390b3b0b 	stmdbcc	fp, {r0, r1, r3, r8, r9, fp, ip, sp}
 3f4:	0213490b 	andseq	r4, r3, #180224	; 0x2c000
 3f8:	09000018 	stmdbeq	r0, {r3, r4}
 3fc:	08030005 	stmdaeq	r3, {r0, r2}
 400:	0b3b0b3a 	bleq	ec30f0 <STACK_SIZE+0xec09e0>
 404:	13490b39 	movtne	r0, #39737	; 0x9b39
 408:	00001802 	andeq	r1, r0, r2, lsl #16
 40c:	0300340a 	movweq	r3, #1034	; 0x40a
 410:	3b0b3a0e 	blcc	2cec50 <STACK_SIZE+0x2cc540>
 414:	490b390b 	stmdbmi	fp, {r0, r1, r3, r8, fp, ip, sp}
 418:	00180213 	andseq	r0, r8, r3, lsl r2
 41c:	010b0b00 	tsteq	fp, r0, lsl #22
 420:	06120111 			; <UNDEFINED> instruction: 0x06120111
 424:	340c0000 	strcc	r0, [ip], #-0
 428:	3a080300 	bcc	201030 <STACK_SIZE+0x1fe920>
 42c:	390b3b0b 	stmdbcc	fp, {r0, r1, r3, r8, r9, fp, ip, sp}
 430:	0213490b 	andseq	r4, r3, #180224	; 0x2c000
 434:	0d000018 	stceq	0, cr0, [r0, #-96]	; 0xffffffa0
 438:	193f002e 	ldmdbne	pc!, {r1, r2, r3, r5}	; <UNPREDICTABLE>
 43c:	0b3a0e03 	bleq	e83c50 <STACK_SIZE+0xe81540>
 440:	0b390b3b 	bleq	e43134 <STACK_SIZE+0xe40a24>
 444:	06120111 			; <UNDEFINED> instruction: 0x06120111
 448:	42961840 	addsmi	r1, r6, #64, 16	; 0x400000
 44c:	00000019 	andeq	r0, r0, r9, lsl r0
 450:	25011101 	strcs	r1, [r1, #-257]	; 0xfffffeff
 454:	030b130e 	movweq	r1, #45838	; 0xb30e
 458:	110e1b0e 	tstne	lr, lr, lsl #22
 45c:	10061201 	andne	r1, r6, r1, lsl #4
 460:	02000017 	andeq	r0, r0, #23, 0
 464:	0b0b0024 	bleq	2c04fc <STACK_SIZE+0x2bddec>
 468:	0e030b3e 	vmoveq.16	d3[0], r0
 46c:	24030000 	strcs	r0, [r3], #-0
 470:	3e0b0b00 	vmlacc.f64	d0, d11, d0
 474:	0008030b 	andeq	r0, r8, fp, lsl #6
 478:	01130400 	tsteq	r3, r0, lsl #8
 47c:	0b3a0b0b 	bleq	e830b0 <STACK_SIZE+0xe809a0>
 480:	0b390b3b 	bleq	e43174 <STACK_SIZE+0xe40a64>
 484:	00001301 	andeq	r1, r0, r1, lsl #6
 488:	03000d05 	movweq	r0, #3333	; 0xd05
 48c:	3b0b3a08 	blcc	2cecb4 <STACK_SIZE+0x2cc5a4>
 490:	490b390b 	stmdbmi	fp, {r0, r1, r3, r8, fp, ip, sp}
 494:	000b3813 	andeq	r3, fp, r3, lsl r8
 498:	000d0600 	andeq	r0, sp, r0, lsl #12
 49c:	0b3a0e03 	bleq	e83cb0 <STACK_SIZE+0xe815a0>
 4a0:	0b390b3b 	bleq	e43194 <STACK_SIZE+0xe40a84>
 4a4:	0b381349 	bleq	e051d0 <STACK_SIZE+0xe02ac0>
 4a8:	16070000 	strne	r0, [r7], -r0
 4ac:	3a0e0300 	bcc	3810b4 <STACK_SIZE+0x37e9a4>
 4b0:	390b3b0b 	stmdbcc	fp, {r0, r1, r3, r8, r9, fp, ip, sp}
 4b4:	0013490b 	andseq	r4, r3, fp, lsl #18
 4b8:	00340800 	eorseq	r0, r4, r0, lsl #16
 4bc:	0b3a0e03 	bleq	e83cd0 <STACK_SIZE+0xe815c0>
 4c0:	0b390b3b 	bleq	e431b4 <STACK_SIZE+0xe40aa4>
 4c4:	193f1349 	ldmdbne	pc!, {r0, r3, r6, r8, r9, ip}	; <UNPREDICTABLE>
 4c8:	00001802 	andeq	r1, r0, r2, lsl #16
 4cc:	3f002e09 	svccc	0x00002e09
 4d0:	3a0e0319 	bcc	38113c <STACK_SIZE+0x37ea2c>
 4d4:	390b3b0b 	stmdbcc	fp, {r0, r1, r3, r8, r9, fp, ip, sp}
 4d8:	1113490b 	tstne	r3, fp, lsl #18
 4dc:	40061201 	andmi	r1, r6, r1, lsl #4
 4e0:	19429618 	stmdbne	r2, {r3, r4, r9, sl, ip, pc}^
 4e4:	2e0a0000 	cdpcs	0, 0, cr0, cr10, cr0, {0}
 4e8:	03193f01 	tsteq	r9, #1, 30
 4ec:	3b0b3a0e 	blcc	2ced2c <STACK_SIZE+0x2cc61c>
 4f0:	270b390b 	strcs	r3, [fp, -fp, lsl #18]
 4f4:	12011119 	andne	r1, r1, #1073741830	; 0x40000006
 4f8:	96184006 	ldrls	r4, [r8], -r6
 4fc:	13011942 	movwne	r1, #6466	; 0x1942
 500:	050b0000 	streq	r0, [fp, #-0]
 504:	3a0e0300 	bcc	38110c <STACK_SIZE+0x37e9fc>
 508:	390b3b0b 	stmdbcc	fp, {r0, r1, r3, r8, r9, fp, ip, sp}
 50c:	0213490b 	andseq	r4, r3, #180224	; 0x2c000
 510:	0c000018 	stceq	0, cr0, [r0], {24}
 514:	08030005 	stmdaeq	r3, {r0, r2}
 518:	0b3b0b3a 	bleq	ec3208 <STACK_SIZE+0xec0af8>
 51c:	13490b39 	movtne	r0, #39737	; 0x9b39
 520:	00001802 	andeq	r1, r0, r2, lsl #16
 524:	11010b0d 	tstne	r1, sp, lsl #22
 528:	00061201 	andeq	r1, r6, r1, lsl #4
 52c:	00340e00 	eorseq	r0, r4, r0, lsl #28
 530:	0b3a0803 	bleq	e82544 <STACK_SIZE+0xe7fe34>
 534:	0b390b3b 	bleq	e43228 <STACK_SIZE+0xe40b18>
 538:	18021349 	stmdane	r2, {r0, r3, r6, r8, r9, ip}
 53c:	0f0f0000 	svceq	0x000f0000
 540:	490b0b00 	stmdbmi	fp, {r8, r9, fp}
 544:	10000013 	andne	r0, r0, r3, lsl r0
 548:	13490026 	movtne	r0, #36902	; 0x9026
 54c:	2e110000 	cdpcs	0, 1, cr0, cr1, cr0, {0}
 550:	3a0e0301 	bcc	38115c <STACK_SIZE+0x37ea4c>
 554:	390b3b0b 	stmdbcc	fp, {r0, r1, r3, r8, r9, fp, ip, sp}
 558:	1119270b 	tstne	r9, fp, lsl #14
 55c:	40061201 	andmi	r1, r6, r1, lsl #4
 560:	19429618 	stmdbne	r2, {r3, r4, r9, sl, ip, pc}^
 564:	01000000 	mrseq	r0, (UNDEF: 0)
 568:	0e250111 	mcreq	1, 1, r0, cr5, cr1, {0}
 56c:	0e030b13 	vmoveq.32	d3[0], r0
 570:	01110e1b 	tsteq	r1, fp, lsl lr
 574:	17100612 			; <UNDEFINED> instruction: 0x17100612
 578:	24020000 	strcs	r0, [r2], #-0
 57c:	3e0b0b00 	vmlacc.f64	d0, d11, d0
 580:	000e030b 	andeq	r0, lr, fp, lsl #6
 584:	00160300 	andseq	r0, r6, r0, lsl #6
 588:	0b3a0e03 	bleq	e83d9c <STACK_SIZE+0xe8168c>
 58c:	0b390b3b 	bleq	e43280 <STACK_SIZE+0xe40b70>
 590:	00001349 	andeq	r1, r0, r9, asr #6
 594:	49002604 	stmdbmi	r0, {r2, r9, sl, sp}
 598:	05000013 	streq	r0, [r0, #-19]	; 0xffffffed
 59c:	0b0b0024 	bleq	2c0634 <STACK_SIZE+0x2bdf24>
 5a0:	08030b3e 	stmdaeq	r3, {r1, r2, r3, r4, r5, r8, r9, fp}
 5a4:	13060000 	movwne	r0, #24576	; 0x6000
 5a8:	3a0b0b01 	bcc	2c31b4 <STACK_SIZE+0x2c0aa4>
 5ac:	390b3b0b 	stmdbcc	fp, {r0, r1, r3, r8, r9, fp, ip, sp}
 5b0:	0013010b 	andseq	r0, r3, fp, lsl #2
 5b4:	000d0700 	andeq	r0, sp, r0, lsl #14
 5b8:	0b3a0803 	bleq	e825cc <STACK_SIZE+0xe7febc>
 5bc:	0b390b3b 	bleq	e432b0 <STACK_SIZE+0xe40ba0>
 5c0:	0b381349 	bleq	e052ec <STACK_SIZE+0xe02bdc>
 5c4:	0d080000 	stceq	0, cr0, [r8, #-0]
 5c8:	3a0e0300 	bcc	3811d0 <STACK_SIZE+0x37eac0>
 5cc:	390b3b0b 	stmdbcc	fp, {r0, r1, r3, r8, r9, fp, ip, sp}
 5d0:	3813490b 	ldmdacc	r3, {r0, r1, r3, r8, fp, lr}
 5d4:	0900000b 	stmdbeq	r0, {r0, r1, r3}
 5d8:	0e030034 	mcreq	0, 0, r0, cr3, cr4, {1}
 5dc:	0b3b0b3a 	bleq	ec32cc <STACK_SIZE+0xec0bbc>
 5e0:	13490b39 	movtne	r0, #39737	; 0x9b39
 5e4:	1802193f 	stmdane	r2, {r0, r1, r2, r3, r4, r5, r8, fp, ip}
 5e8:	130a0000 	movwne	r0, #40960	; 0xa000
 5ec:	0b0e0301 	bleq	3811f8 <STACK_SIZE+0x37eae8>
 5f0:	3b0b3a0b 	blcc	2cee24 <STACK_SIZE+0x2cc714>
 5f4:	0013010b 	andseq	r0, r3, fp, lsl #2
 5f8:	000d0b00 	andeq	r0, sp, r0, lsl #22
 5fc:	13490e03 	movtne	r0, #40451	; 0x9e03
 600:	19340b38 	ldmdbne	r4!, {r3, r4, r5, r8, r9, fp}
 604:	0f0c0000 	svceq	0x000c0000
 608:	000b0b00 	andeq	r0, fp, r0, lsl #22
 60c:	000f0d00 	andeq	r0, pc, r0, lsl #26
 610:	13490b0b 	movtne	r0, #39691	; 0x9b0b
 614:	150e0000 	strne	r0, [lr, #-0]
 618:	01192701 	tsteq	r9, r1, lsl #14
 61c:	0f000013 	svceq	0x00000013
 620:	13490005 	movtne	r0, #36869	; 0x9005
 624:	2e100000 	cdpcs	0, 1, cr0, cr0, cr0, {0}
 628:	03193f01 	tsteq	r9, #1, 30
 62c:	3b0b3a0e 	blcc	2cee6c <STACK_SIZE+0x2cc75c>
 630:	270b3905 	strcs	r3, [fp, -r5, lsl #18]
 634:	11134919 	tstne	r3, r9, lsl r9
 638:	40061201 	andmi	r1, r6, r1, lsl #4
 63c:	19429618 	stmdbne	r2, {r3, r4, r9, sl, ip, pc}^
 640:	00001301 	andeq	r1, r0, r1, lsl #6
 644:	03000511 	movweq	r0, #1297	; 0x511
 648:	3b0b3a08 	blcc	2cee70 <STACK_SIZE+0x2cc760>
 64c:	490b3905 	stmdbmi	fp, {r0, r2, r8, fp, ip, sp}
 650:	00180213 	andseq	r0, r8, r3, lsl r2
 654:	00051200 	andeq	r1, r5, r0, lsl #4
 658:	0b3a0e03 	bleq	e83e6c <STACK_SIZE+0xe8175c>
 65c:	0b39053b 	bleq	e41b50 <STACK_SIZE+0xe3f440>
 660:	18021349 	stmdane	r2, {r0, r3, r6, r8, r9, ip}
 664:	18130000 	ldmdane	r3, {}	; <UNPREDICTABLE>
 668:	14000000 	strne	r0, [r0], #-0
 66c:	08030034 	stmdaeq	r3, {r2, r4, r5}
 670:	053b0b3a 	ldreq	r0, [fp, #-2874]!	; 0xfffff4c6
 674:	13490b39 	movtne	r0, #39737	; 0x9b39
 678:	00001802 	andeq	r1, r0, r2, lsl #16
 67c:	03003415 	movweq	r3, #1045	; 0x415
 680:	3b0b3a0e 	blcc	2ceec0 <STACK_SIZE+0x2cc7b0>
 684:	490b3905 	stmdbmi	fp, {r0, r2, r8, fp, ip, sp}
 688:	00180213 	andseq	r0, r8, r3, lsl r2
 68c:	01011600 	tsteq	r1, r0, lsl #12
 690:	13011349 	movwne	r1, #4937	; 0x1349
 694:	21170000 	tstcs	r7, r0
 698:	2f134900 	svccs	0x00134900
 69c:	1800000b 	stmdane	r0, {r0, r1, r3}
 6a0:	0e03012e 	adfeqsp	f0, f3, #0.5
 6a4:	053b0b3a 	ldreq	r0, [fp, #-2874]!	; 0xfffff4c6
 6a8:	19270b39 	stmdbne	r7!, {r0, r3, r4, r5, r8, r9, fp}
 6ac:	01111349 	tsteq	r1, r9, asr #6
 6b0:	18400612 	stmdane	r0, {r1, r4, r9, sl}^
 6b4:	01194296 			; <UNDEFINED> instruction: 0x01194296
 6b8:	19000013 	stmdbne	r0, {r0, r1, r4}
 6bc:	0111010b 	tsteq	r1, fp, lsl #2
 6c0:	13010612 	movwne	r0, #5650	; 0x1612
 6c4:	0b1a0000 	bleq	6806cc <STACK_SIZE+0x67dfbc>
 6c8:	12011101 	andne	r1, r1, #1073741824	; 0x40000000
 6cc:	1b000006 	blne	6ec <STACK_SIZE-0x2024>
 6d0:	0e03012e 	adfeqsp	f0, f3, #0.5
 6d4:	0b3b0b3a 	bleq	ec33c4 <STACK_SIZE+0xec0cb4>
 6d8:	19270b39 	stmdbne	r7!, {r0, r3, r4, r5, r8, r9, fp}
 6dc:	01111349 	tsteq	r1, r9, asr #6
 6e0:	18400612 	stmdane	r0, {r1, r4, r9, sl}^
 6e4:	01194296 			; <UNDEFINED> instruction: 0x01194296
 6e8:	1c000013 	stcne	0, cr0, [r0], {19}
 6ec:	08030005 	stmdaeq	r3, {r0, r2}
 6f0:	0b3b0b3a 	bleq	ec33e0 <STACK_SIZE+0xec0cd0>
 6f4:	13490b39 	movtne	r0, #39737	; 0x9b39
 6f8:	00001802 	andeq	r1, r0, r2, lsl #16
 6fc:	0300051d 	movweq	r0, #1309	; 0x51d
 700:	3b0b3a0e 	blcc	2cef40 <STACK_SIZE+0x2cc830>
 704:	490b390b 	stmdbmi	fp, {r0, r1, r3, r8, fp, ip, sp}
 708:	00180213 	andseq	r0, r8, r3, lsl r2
 70c:	00341e00 	eorseq	r1, r4, r0, lsl #28
 710:	0b3a0e03 	bleq	e83f24 <STACK_SIZE+0xe81814>
 714:	0b390b3b 	bleq	e43408 <STACK_SIZE+0xe40cf8>
 718:	18021349 	stmdane	r2, {r0, r3, r6, r8, r9, ip}
 71c:	341f0000 	ldrcc	r0, [pc], #-0	; 724 <STACK_SIZE-0x1fec>
 720:	3a080300 	bcc	201328 <STACK_SIZE+0x1fec18>
 724:	390b3b0b 	stmdbcc	fp, {r0, r1, r3, r8, r9, fp, ip, sp}
 728:	0213490b 	andseq	r4, r3, #180224	; 0x2c000
 72c:	20000018 	andcs	r0, r0, r8, lsl r0
 730:	0e03012e 	adfeqsp	f0, f3, #0.5
 734:	0b3b0b3a 	bleq	ec3424 <STACK_SIZE+0xec0d14>
 738:	19270b39 	stmdbne	r7!, {r0, r3, r4, r5, r8, r9, fp}
 73c:	01111349 	tsteq	r1, r9, asr #6
 740:	18400612 	stmdane	r0, {r1, r4, r9, sl}^
 744:	01194297 			; <UNDEFINED> instruction: 0x01194297
 748:	21000013 	tstcs	r0, r3, lsl r0
 74c:	0e03012e 	adfeqsp	f0, f3, #0.5
 750:	0b3b0b3a 	bleq	ec3440 <STACK_SIZE+0xec0d30>
 754:	19270b39 	stmdbne	r7!, {r0, r3, r4, r5, r8, r9, fp}
 758:	06120111 			; <UNDEFINED> instruction: 0x06120111
 75c:	42961840 	addsmi	r1, r6, #64, 16	; 0x400000
 760:	00130119 	andseq	r0, r3, r9, lsl r1
 764:	012e2200 			; <UNDEFINED> instruction: 0x012e2200
 768:	0b3a0e03 	bleq	e83f7c <STACK_SIZE+0xe8186c>
 76c:	0b390b3b 	bleq	e43460 <STACK_SIZE+0xe40d50>
 770:	01111927 	tsteq	r1, r7, lsr #18
 774:	18400612 	stmdane	r0, {r1, r4, r9, sl}^
 778:	01194297 			; <UNDEFINED> instruction: 0x01194297
 77c:	23000013 	movwcs	r0, #19
 780:	193f012e 	ldmdbne	pc!, {r1, r2, r3, r5, r8}	; <UNPREDICTABLE>
 784:	0b3a0e03 	bleq	e83f98 <STACK_SIZE+0xe81888>
 788:	0b390b3b 	bleq	e4347c <STACK_SIZE+0xe40d6c>
 78c:	01111927 	tsteq	r1, r7, lsr #18
 790:	18400612 	stmdane	r0, {r1, r4, r9, sl}^
 794:	01194296 			; <UNDEFINED> instruction: 0x01194296
 798:	24000013 	strcs	r0, [r0], #-19	; 0xffffffed
 79c:	0e03012e 	adfeqsp	f0, f3, #0.5
 7a0:	0b3b0b3a 	bleq	ec3490 <STACK_SIZE+0xec0d80>
 7a4:	19270b39 	stmdbne	r7!, {r0, r3, r4, r5, r8, r9, fp}
 7a8:	01111349 	tsteq	r1, r9, asr #6
 7ac:	18400612 	stmdane	r0, {r1, r4, r9, sl}^
 7b0:	00194297 	mulseq	r9, r7, r2
 7b4:	11010000 	mrsne	r0, (UNDEF: 1)
 7b8:	130e2501 	movwne	r2, #58625	; 0xe501
 7bc:	1b0e030b 	blne	3813f0 <STACK_SIZE+0x37ece0>
 7c0:	1201110e 	andne	r1, r1, #-2147483645	; 0x80000003
 7c4:	00171006 	andseq	r1, r7, r6
 7c8:	00240200 	eoreq	r0, r4, r0, lsl #4
 7cc:	0b3e0b0b 	bleq	f83400 <STACK_SIZE+0xf80cf0>
 7d0:	00000e03 	andeq	r0, r0, r3, lsl #28
 7d4:	03001603 	movweq	r1, #1539	; 0x603
 7d8:	3b0b3a0e 	blcc	2cf018 <STACK_SIZE+0x2cc908>
 7dc:	490b390b 	stmdbmi	fp, {r0, r1, r3, r8, fp, ip, sp}
 7e0:	04000013 	streq	r0, [r0], #-19	; 0xffffffed
 7e4:	0b0b0024 	bleq	2c087c <STACK_SIZE+0x2be16c>
 7e8:	08030b3e 	stmdaeq	r3, {r1, r2, r3, r4, r5, r8, r9, fp}
 7ec:	04050000 	streq	r0, [r5], #-0
 7f0:	0b0b3e01 	bleq	2cfffc <STACK_SIZE+0x2cd8ec>
 7f4:	3a13490b 	bcc	4d2c28 <STACK_SIZE+0x4d0518>
 7f8:	390b3b0b 	stmdbcc	fp, {r0, r1, r3, r8, r9, fp, ip, sp}
 7fc:	0013010b 	andseq	r0, r3, fp, lsl #2
 800:	00280600 	eoreq	r0, r8, r0, lsl #12
 804:	0b1c0e03 	bleq	704018 <STACK_SIZE+0x701908>
 808:	28070000 	stmdacs	r7, {}	; <UNPREDICTABLE>
 80c:	1c080300 	stcne	3, cr0, [r8], {-0}
 810:	0800000b 	stmdaeq	r0, {r0, r1, r3}
 814:	0b0b0113 	bleq	2c0c68 <STACK_SIZE+0x2be558>
 818:	0b3b0b3a 	bleq	ec3508 <STACK_SIZE+0xec0df8>
 81c:	13010b39 	movwne	r0, #6969	; 0x1b39
 820:	0d090000 	stceq	0, cr0, [r9, #-0]
 824:	3a080300 	bcc	20142c <STACK_SIZE+0x1fed1c>
 828:	390b3b0b 	stmdbcc	fp, {r0, r1, r3, r8, r9, fp, ip, sp}
 82c:	3813490b 	ldmdacc	r3, {r0, r1, r3, r8, fp, lr}
 830:	0a00000b 	beq	864 <STACK_SIZE-0x1eac>
 834:	0e03000d 	cdpeq	0, 0, cr0, cr3, cr13, {0}
 838:	0b3b0b3a 	bleq	ec3528 <STACK_SIZE+0xec0e18>
 83c:	13490b39 	movtne	r0, #39737	; 0x9b39
 840:	00000b38 	andeq	r0, r0, r8, lsr fp
 844:	0300340b 	movweq	r3, #1035	; 0x40b
 848:	3b0b3a0e 	blcc	2cf088 <STACK_SIZE+0x2cc978>
 84c:	490b390b 	stmdbmi	fp, {r0, r1, r3, r8, fp, ip, sp}
 850:	02193f13 	andseq	r3, r9, #76	; 0x4c
 854:	0c000018 	stceq	0, cr0, [r0], {24}
 858:	193f002e 	ldmdbne	pc!, {r1, r2, r3, r5}	; <UNPREDICTABLE>
 85c:	0b3a0e03 	bleq	e84070 <STACK_SIZE+0xe81960>
 860:	0b390b3b 	bleq	e43554 <STACK_SIZE+0xe40e44>
 864:	13491927 	movtne	r1, #39207	; 0x9927
 868:	06120111 			; <UNDEFINED> instruction: 0x06120111
 86c:	42961840 	addsmi	r1, r6, #64, 16	; 0x400000
 870:	0d000019 	stceq	0, cr0, [r0, #-100]	; 0xffffff9c
 874:	193f012e 	ldmdbne	pc!, {r1, r2, r3, r5, r8}	; <UNPREDICTABLE>
 878:	0b3a0e03 	bleq	e8408c <STACK_SIZE+0xe8197c>
 87c:	0b390b3b 	bleq	e43570 <STACK_SIZE+0xe40e60>
 880:	01111927 	tsteq	r1, r7, lsr #18
 884:	18400612 	stmdane	r0, {r1, r4, r9, sl}^
 888:	01194296 			; <UNDEFINED> instruction: 0x01194296
 88c:	0e000013 	mcreq	0, 0, r0, cr0, cr3, {0}
 890:	08030005 	stmdaeq	r3, {r0, r2}
 894:	0b3b0b3a 	bleq	ec3584 <STACK_SIZE+0xec0e74>
 898:	13490b39 	movtne	r0, #39737	; 0x9b39
 89c:	00001802 	andeq	r1, r0, r2, lsl #16
 8a0:	3f002e0f 	svccc	0x00002e0f
 8a4:	3a0e0319 	bcc	381510 <STACK_SIZE+0x37ee00>
 8a8:	390b3b0b 	stmdbcc	fp, {r0, r1, r3, r8, r9, fp, ip, sp}
 8ac:	4919270b 	ldmdbmi	r9, {r0, r1, r3, r8, r9, sl, sp}
 8b0:	12011113 	andne	r1, r1, #-1073741820	; 0xc0000004
 8b4:	97184006 	ldrls	r4, [r8, -r6]
 8b8:	00001942 	andeq	r1, r0, r2, asr #18
 8bc:	03002e10 	movweq	r2, #3600	; 0xe10
 8c0:	3b0b3a0e 	blcc	2cf100 <STACK_SIZE+0x2cc9f0>
 8c4:	270b390b 	strcs	r3, [fp, -fp, lsl #18]
 8c8:	11134919 	tstne	r3, r9, lsl r9
 8cc:	40061201 	andmi	r1, r6, r1, lsl #4
 8d0:	19429718 	stmdbne	r2, {r3, r4, r8, r9, sl, ip, pc}^
 8d4:	05110000 	ldreq	r0, [r1, #-0]
 8d8:	3a0e0300 	bcc	3814e0 <STACK_SIZE+0x37edd0>
 8dc:	390b3b0b 	stmdbcc	fp, {r0, r1, r3, r8, r9, fp, ip, sp}
 8e0:	0213490b 	andseq	r4, r3, #180224	; 0x2c000
 8e4:	12000018 	andne	r0, r0, #24, 0
 8e8:	0e030034 	mcreq	0, 0, r0, cr3, cr4, {1}
 8ec:	0b3b0b3a 	bleq	ec35dc <STACK_SIZE+0xec0ecc>
 8f0:	13490b39 	movtne	r0, #39737	; 0x9b39
 8f4:	00001802 	andeq	r1, r0, r2, lsl #16
 8f8:	0b000f13 	bleq	454c <STACK_SIZE+0x1e3c>
 8fc:	0013490b 	andseq	r4, r3, fp, lsl #18
 900:	012e1400 			; <UNDEFINED> instruction: 0x012e1400
 904:	0b3a0e03 	bleq	e84118 <STACK_SIZE+0xe81a08>
 908:	0b390b3b 	bleq	e435fc <STACK_SIZE+0xe40eec>
 90c:	13491927 	movtne	r1, #39207	; 0x9927
 910:	06120111 			; <UNDEFINED> instruction: 0x06120111
 914:	42961840 	addsmi	r1, r6, #64, 16	; 0x400000
 918:	00130119 	andseq	r0, r3, r9, lsl r1
 91c:	012e1500 			; <UNDEFINED> instruction: 0x012e1500
 920:	0b3a0e03 	bleq	e84134 <STACK_SIZE+0xe81a24>
 924:	0b390b3b 	bleq	e43618 <STACK_SIZE+0xe40f08>
 928:	13491927 	movtne	r1, #39207	; 0x9927
 92c:	06120111 			; <UNDEFINED> instruction: 0x06120111
 930:	42971840 	addsmi	r1, r7, #64, 16	; 0x400000
 934:	16000019 			; <UNDEFINED> instruction: 0x16000019
 938:	08030034 	stmdaeq	r3, {r2, r4, r5}
 93c:	0b3b0b3a 	bleq	ec362c <STACK_SIZE+0xec0f1c>
 940:	13490b39 	movtne	r0, #39737	; 0x9b39
 944:	00001802 	andeq	r1, r0, r2, lsl #16
	...

Disassembly of section .debug_aranges:

00000000 <.debug_aranges>:
   0:	0000001c 	andeq	r0, r0, ip, lsl r0
   4:	00000002 	andeq	r0, r0, r2
   8:	00040000 	andeq	r0, r4, r0
   c:	00000000 	andeq	r0, r0, r0
  10:	2000011c 	andcs	r0, r0, ip, lsl r1
  14:	00000198 	muleq	r0, r8, r1
	...
  20:	00000024 	andeq	r0, r0, r4, lsr #32
  24:	031b0002 	tsteq	fp, #2, 0
  28:	00040000 	andeq	r0, r4, r0
  2c:	00000000 	andeq	r0, r0, r0
  30:	20000000 	andcs	r0, r0, r0
  34:	00000074 	andeq	r0, r0, r4, ror r0
  38:	20000100 	andcs	r0, r0, r0, lsl #2
  3c:	0000001c 	andeq	r0, r0, ip, lsl r0
	...
  48:	0000001c 	andeq	r0, r0, ip, lsl r0
  4c:	033d0002 	teqeq	sp, #2, 0
  50:	00040000 	andeq	r0, r4, r0
  54:	00000000 	andeq	r0, r0, r0
  58:	200002b4 			; <UNDEFINED> instruction: 0x200002b4
  5c:	00000080 	andeq	r0, r0, r0, lsl #1
	...
  68:	0000001c 	andeq	r0, r0, ip, lsl r0
  6c:	04e90002 	strbteq	r0, [r9], #2
  70:	00040000 	andeq	r0, r4, r0
  74:	00000000 	andeq	r0, r0, r0
  78:	20000334 	andcs	r0, r0, r4, lsr r3
  7c:	0000023c 	andeq	r0, r0, ip, lsr r2
	...
  88:	0000001c 	andeq	r0, r0, ip, lsl r0
  8c:	08360002 	ldmdaeq	r6!, {r1}
  90:	00040000 	andeq	r0, r4, r0
  94:	00000000 	andeq	r0, r0, r0
  98:	20000570 	andcs	r0, r0, r0, ror r5
  9c:	000001b8 			; <UNDEFINED> instruction: 0x000001b8
	...
  a8:	0000001c 	andeq	r0, r0, ip, lsl r0
  ac:	09e70002 	stmibeq	r7!, {r1}^
  b0:	00040000 	andeq	r0, r4, r0
  b4:	00000000 	andeq	r0, r0, r0
  b8:	20000728 	andcs	r0, r0, r8, lsr #14
  bc:	00000110 	andeq	r0, r0, r0, lsl r1
	...
  c8:	0000001c 	andeq	r0, r0, ip, lsl r0
  cc:	0baf0002 	bleq	febc00dc <__bss_end__+0xdebb10bc>
  d0:	00040000 	andeq	r0, r4, r0
  d4:	00000000 	andeq	r0, r0, r0
  d8:	20000838 	andcs	r0, r0, r8, lsr r8
  dc:	00000d44 	andeq	r0, r0, r4, asr #26
	...
  e8:	0000001c 	andeq	r0, r0, ip, lsl r0
  ec:	17900002 	ldrne	r0, [r0, r2]
  f0:	00040000 	andeq	r0, r4, r0
  f4:	00000000 	andeq	r0, r0, r0
  f8:	2000157c 	andcs	r1, r0, ip, ror r5
  fc:	0000025a 	andeq	r0, r0, sl, asr r2
	...

Disassembly of section .debug_line:

00000000 <.debug_line>:
       0:	000001da 	ldrdeq	r0, [r0], -sl
       4:	00d70003 	sbcseq	r0, r7, r3
       8:	01020000 	mrseq	r0, (UNDEF: 2)
       c:	000d0efb 	strdeq	r0, [sp], -fp
      10:	01010101 	tsteq	r1, r1, lsl #2
      14:	01000000 	mrseq	r0, (UNDEF: 0)
      18:	2f010000 	svccs	0x00010000
      1c:	2f727375 	svccs	0x00727375
      20:	61636f6c 	cmnvs	r3, ip, ror #30
      24:	65432f6c 	strbvs	r2, [r3, #-3948]	; 0xfffff094
      28:	72616c6c 	rsbvc	r6, r1, #108, 24	; 0x6c00
      2c:	6d72612f 	ldfvse	f6, [r2, #-188]!	; 0xffffff44
      30:	6e6f6e2d 	cdpvs	14, 6, cr6, cr15, cr13, {1}
      34:	61652d65 	cmnvs	r5, r5, ror #26
      38:	742d6962 	strtvc	r6, [sp], #-2402	; 0xfffff69e
      3c:	2f747365 	svccs	0x00747365
      40:	30322d39 	eorscc	r2, r2, r9, lsr sp
      44:	34713931 	ldrbtcc	r3, [r1], #-2353	; 0xfffff6cf
      48:	3173632d 	cmncc	r3, sp, lsr #6
      4c:	2f653730 	svccs	0x00653730
      50:	2f62696c 	svccs	0x0062696c
      54:	2f636367 	svccs	0x00636367
      58:	2d6d7261 	sfmcs	f7, 2, [sp, #-388]!	; 0xfffffe7c
      5c:	656e6f6e 	strbvs	r6, [lr, #-3950]!	; 0xfffff092
      60:	6261652d 	rsbvs	r6, r1, #188743680	; 0xb400000
      64:	2e392f69 	cdpcs	15, 3, cr2, cr9, cr9, {3}
      68:	2f312e32 	svccs	0x00312e32
      6c:	6c636e69 	stclvs	14, cr6, [r3], #-420	; 0xfffffe5c
      70:	00656475 	rsbeq	r6, r5, r5, ror r4
      74:	2e2f2e2e 	cdpcs	14, 2, cr2, cr15, cr14, {1}
      78:	696c2f2e 	stmdbvs	ip!, {r1, r2, r3, r5, r8, r9, sl, fp, sp}^
      7c:	2f697062 	svccs	0x00697062
      80:	6c636e69 	stclvs	14, cr6, [r3], #-420	; 0xfffffe5c
      84:	00656475 	rsbeq	r6, r5, r5, ror r4
      88:	32535700 	subscc	r5, r3, #0, 14
      8c:	42323138 	eorsmi	r3, r2, #14
      90:	0000682e 	andeq	r6, r0, lr, lsr #16
      94:	65730000 	ldrbvs	r0, [r3, #-0]!
      98:	625f646e 	subsvs	r6, pc, #1845493760	; 0x6e000000
      9c:	6b6e696c 	blvs	1b9a654 <STACK_SIZE+0x1b97f44>
      a0:	0000632e 	andeq	r6, r0, lr, lsr #6
      a4:	74730000 	ldrbtvc	r0, [r3], #-0
      a8:	746e6964 	strbtvc	r6, [lr], #-2404	; 0xfffff69c
      ac:	6363672d 	cmnvs	r3, #11796480	; 0xb40000
      b0:	0100682e 	tsteq	r0, lr, lsr #16
      b4:	77730000 	ldrbvc	r0, [r3, -r0]!
      b8:	7261752d 	rsbvc	r7, r1, #188743680	; 0xb400000
      bc:	00682e74 	rsbeq	r2, r8, r4, ror lr
      c0:	75000002 	strvc	r0, [r0, #-2]
      c4:	2e747261 	cdpcs	2, 7, cr7, cr4, cr1, {3}
      c8:	00020068 	andeq	r0, r2, r8, rrx
      cc:	69706700 	ldmdbvs	r0!, {r8, r9, sl, sp, lr}^
      d0:	00682e6f 	rsbeq	r2, r8, pc, ror #28
      d4:	70000002 	andvc	r0, r0, r2
      d8:	682e6f69 	stmdavs	lr!, {r0, r3, r5, r6, r8, r9, sl, fp, sp, lr}
      dc:	00000000 	andeq	r0, r0, r0
      e0:	002a0500 	eoreq	r0, sl, r0, lsl #10
      e4:	011c0205 	tsteq	ip, r5, lsl #4
      e8:	1d032000 	stcne	0, cr2, [r3, #-0]
      ec:	51090501 	tstpl	r9, r1, lsl #10
      f0:	05670105 	strbeq	r0, [r7, #-261]!	; 0xfffffefb
      f4:	0505692c 	streq	r6, [r5, #-2348]	; 0xfffff6d4
      f8:	05594b4b 	ldrbeq	r4, [r9, #-2891]	; 0xfffff4b5
      fc:	25055901 	strcs	r5, [r5, #-2305]	; 0xfffff6ff
     100:	670d054c 	strvs	r0, [sp, -ip, asr #10]
     104:	052e0505 	streq	r0, [lr, #-1285]!	; 0xfffffafb
     108:	04020014 	streq	r0, [r2], #-20	; 0xffffffec
     10c:	1a052203 	bne	148920 <STACK_SIZE+0x146210>
     110:	03040200 	movweq	r0, #16896	; 0x4200
     114:	00090558 	andeq	r0, r9, r8, asr r5
     118:	20030402 	andcs	r0, r3, r2, lsl #8
     11c:	02001d05 	andeq	r1, r0, #320	; 0x140
     120:	05560304 	ldrbeq	r0, [r6, #-772]	; 0xfffffcfc
     124:	04020005 	streq	r0, [r2], #-5
     128:	01053c01 	tsteq	r5, r1, lsl #24
     12c:	05020440 	streq	r0, [r2, #-1088]	; 0xfffffbc0
     130:	5863030e 	stmdapl	r3!, {r1, r2, r3, r8, r9}^
     134:	3e3d0505 	cdpcc	5, 3, cr0, cr13, cr5, {0}
     138:	09053030 	stmdbeq	r5, {r4, r5, ip, sp}
     13c:	2f0e054c 	svccs	0x000e054c
     140:	052e0505 	streq	r0, [lr, #-1285]!	; 0xfffffafb
     144:	04020023 	streq	r0, [r2], #-35	; 0xffffffdd
     148:	09052103 	stmdbeq	r5, {r0, r1, r8, sp}
     14c:	03040200 	movweq	r0, #16896	; 0x4200
     150:	003e0558 	eorseq	r0, lr, r8, asr r5
     154:	20030402 	andcs	r0, r3, r2, lsl #8
     158:	02000905 	andeq	r0, r0, #81920	; 0x14000
     15c:	054a0304 	strbeq	r0, [sl, #-772]	; 0xfffffcfc
     160:	0402003e 	streq	r0, [r2], #-62	; 0xffffffc2
     164:	09053d03 	stmdbeq	r5, {r0, r1, r8, sl, fp, ip, sp}
     168:	03040200 	movweq	r0, #16896	; 0x4200
     16c:	0020054a 	eoreq	r0, r0, sl, asr #10
     170:	64030402 	strvs	r0, [r3], #-1026	; 0xfffffbfe
     174:	02000505 	andeq	r0, r0, #20971520	; 0x1400000
     178:	4f3c0104 	svcmi	0x003c0104
     17c:	0567414d 	strbeq	r4, [r7, #-333]!	; 0xfffffeb3
     180:	58160312 	ldmdapl	r6, {r1, r4, r8, r9}
     184:	052e0905 	streq	r0, [lr, #-2309]!	; 0xfffff6fb
     188:	0d052116 	stfeqs	f2, [r5, #-88]	; 0xffffffa8
     18c:	0011052e 	andseq	r0, r1, lr, lsr #10
     190:	21030402 	tstcs	r3, r2, lsl #8
     194:	02002505 	andeq	r2, r0, #20971520	; 0x1400000
     198:	053b0304 	ldreq	r0, [fp, #-772]!	; 0xfffffcfc
     19c:	0402000d 	streq	r0, [r2], #-13
     1a0:	02003c01 	andeq	r3, r0, #256	; 0x100
     1a4:	004d0204 	subeq	r0, sp, r4, lsl #4
     1a8:	3d020402 	cfstrscc	mvf0, [r2, #-8]
     1ac:	02002d05 	andeq	r2, r0, #320	; 0x140
     1b0:	05450204 	strbeq	r0, [r5, #-516]	; 0xfffffdfc
     1b4:	04020009 	streq	r0, [r2], #-9
     1b8:	12053c01 	andne	r3, r5, #256	; 0x100
     1bc:	2e090560 	cfsh32cs	mvfx0, mvfx9, #48
     1c0:	02000d05 	andeq	r0, r0, #320	; 0x140
     1c4:	05210304 	streq	r0, [r1, #-772]!	; 0xfffffcfc
     1c8:	0402002f 	streq	r0, [r2], #-47	; 0xffffffd1
     1cc:	09053b03 	stmdbeq	r5, {r0, r1, r8, r9, fp, ip, sp}
     1d0:	01040200 	mrseq	r0, R12_usr
     1d4:	033d5c3c 	teqeq	sp, #60, 24	; 0x3c00
     1d8:	00083c73 	andeq	r3, r8, r3, ror ip
     1dc:	007d0101 	rsbseq	r0, sp, r1, lsl #2
     1e0:	00030000 	andeq	r0, r3, r0
     1e4:	0000001e 	andeq	r0, r0, lr, lsl r0
     1e8:	0efb0102 	cdpeq	1, 15, cr0, cr11, cr2, {0}
     1ec:	0101000d 	tsteq	r1, sp
     1f0:	00000101 	andeq	r0, r0, r1, lsl #2
     1f4:	00000100 	andeq	r0, r0, r0, lsl #2
     1f8:	74730001 	ldrbtvc	r0, [r3], #-1
     1fc:	2e747261 	cdpcs	2, 7, cr7, cr4, cr1, {3}
     200:	00000053 	andeq	r0, r0, r3, asr r0
     204:	05000000 	streq	r0, [r0, #-0]
     208:	00000002 	andeq	r0, r0, r2
     20c:	010c0320 	tsteq	ip, r0, lsr #6
     210:	21232121 			; <UNDEFINED> instruction: 0x21232121
     214:	21212321 			; <UNDEFINED> instruction: 0x21212321
     218:	23212123 			; <UNDEFINED> instruction: 0x23212123
     21c:	21232121 			; <UNDEFINED> instruction: 0x21232121
     220:	22212221 	eorcs	r2, r1, #268435458	; 0x10000002
     224:	21212122 			; <UNDEFINED> instruction: 0x21212122
     228:	21222121 			; <UNDEFINED> instruction: 0x21222121
     22c:	2f2e5603 	svccs	0x002e5603
     230:	2f322f32 	svccs	0x00322f32
     234:	34322f32 	ldrtcc	r2, [r2], #-3890	; 0xfffff0ce
     238:	03302f31 	teqeq	r0, #196	; 0xc4
     23c:	02022e09 	andeq	r2, r2, #144	; 0x90
     240:	00010100 	andeq	r0, r1, r0, lsl #2
     244:	01000205 	tsteq	r0, r5, lsl #4
     248:	3f032000 	svccc	0x00032000
     24c:	2f212101 	svccs	0x00212101
     250:	21252125 			; <UNDEFINED> instruction: 0x21252125
     254:	03212126 			; <UNDEFINED> instruction: 0x03212126
     258:	02022069 	andeq	r2, r2, #105, 0	; 0x69
     25c:	f2010100 	vrhadd.s8	d0, d1, d0
     260:	03000000 	movweq	r0, #0
     264:	0000b600 	andeq	fp, r0, r0, lsl #12
     268:	fb010200 	blx	40a72 <STACK_SIZE+0x3e362>
     26c:	01000d0e 	tsteq	r0, lr, lsl #26
     270:	00010101 	andeq	r0, r1, r1, lsl #2
     274:	00010000 	andeq	r0, r1, r0
     278:	72730100 	rsbsvc	r0, r3, #0
     27c:	6e690063 	cdpvs	0, 6, cr0, cr9, cr3, {3}
     280:	64756c63 	ldrbtvs	r6, [r5], #-3171	; 0xfffff39d
     284:	752f0065 	strvc	r0, [pc, #-101]!	; 227 <STACK_SIZE-0x24e9>
     288:	6c2f7273 	sfmvs	f7, 4, [pc], #-460	; c4 <STACK_SIZE-0x264c>
     28c:	6c61636f 	stclvs	3, cr6, [r1], #-444	; 0xfffffe44
     290:	6c65432f 	stclvs	3, cr4, [r5], #-188	; 0xffffff44
     294:	2f72616c 	svccs	0x0072616c
     298:	2d6d7261 	sfmcs	f7, 2, [sp, #-388]!	; 0xfffffe7c
     29c:	656e6f6e 	strbvs	r6, [lr, #-3950]!	; 0xfffff092
     2a0:	6261652d 	rsbvs	r6, r1, #188743680	; 0xb400000
     2a4:	65742d69 	ldrbvs	r2, [r4, #-3433]!	; 0xfffff297
     2a8:	392f7473 	stmdbcc	pc!, {r0, r1, r4, r5, r6, sl, ip, sp, lr}	; <UNPREDICTABLE>
     2ac:	3130322d 	teqcc	r0, sp, lsr #4
     2b0:	2d347139 	ldfcss	f7, [r4, #-228]!	; 0xffffff1c
     2b4:	30317363 	eorscc	r7, r1, r3, ror #6
     2b8:	6c2f6537 	cfstr32vs	mvfx6, [pc], #-220	; 1e4 <STACK_SIZE-0x252c>
     2bc:	672f6269 	strvs	r6, [pc, -r9, ror #4]!
     2c0:	612f6363 			; <UNDEFINED> instruction: 0x612f6363
     2c4:	6e2d6d72 	mcrvs	13, 1, r6, cr13, cr2, {3}
     2c8:	2d656e6f 	stclcs	14, cr6, [r5, #-444]!	; 0xfffffe44
     2cc:	69626165 	stmdbvs	r2!, {r0, r2, r5, r6, r8, sp, lr}^
     2d0:	322e392f 	eorcc	r3, lr, #770048	; 0xbc000
     2d4:	692f312e 	stmdbvs	pc!, {r1, r2, r3, r5, r8, ip, sp}	; <UNPREDICTABLE>
     2d8:	756c636e 	strbvc	r6, [ip, #-878]!	; 0xfffffc92
     2dc:	00006564 	andeq	r6, r0, r4, ror #10
     2e0:	61747363 	cmnvs	r4, r3, ror #6
     2e4:	632e7472 			; <UNDEFINED> instruction: 0x632e7472
     2e8:	00000100 	andeq	r0, r0, r0, lsl #2
     2ec:	752d7773 	strvc	r7, [sp, #-1907]!	; 0xfffff88d
     2f0:	2e747261 	cdpcs	2, 7, cr7, cr4, cr1, {3}
     2f4:	00020068 	andeq	r0, r2, r8, rrx
     2f8:	64747300 	ldrbtvs	r7, [r4], #-768	; 0xfffffd00
     2fc:	2d746e69 	ldclcs	14, cr6, [r4, #-420]!	; 0xfffffe5c
     300:	2e636367 	cdpcs	3, 6, cr6, cr3, cr7, {3}
     304:	00030068 	andeq	r0, r3, r8, rrx
     308:	72617500 	rsbvc	r7, r1, #0, 10
     30c:	00682e74 	rsbeq	r2, r8, r4, ror lr
     310:	63000002 	movwvs	r0, #2
     314:	6b636f6c 	blvs	18dc0cc <STACK_SIZE+0x18d99bc>
     318:	0200682e 	andeq	r6, r0, #3014656	; 0x2e0000
     31c:	05000000 	streq	r0, [r0, #-0]
     320:	0205000f 	andeq	r0, r5, #15, 0
     324:	200002b4 			; <UNDEFINED> instruction: 0x200002b4
     328:	3f010903 	svccc	0x00010903
     32c:	2f0b052f 	svccs	0x000b052f
     330:	05210d05 	streq	r0, [r1, #-3333]!	; 0xfffff2fb
     334:	0b053c10 	bleq	14f37c <STACK_SIZE+0x14cc6c>
     338:	4d05052d 	cfstr32mi	mvfx0, [r5, #-180]	; 0xffffff4c
     33c:	052f763d 	streq	r7, [pc, #-1597]!	; fffffd07 <__bss_end__+0xdfff0ce7>
     340:	053d2f17 	ldreq	r2, [sp, #-3863]!	; 0xfffff0e9
     344:	1a053d1e 	bne	14f7c4 <STACK_SIZE+0x14d0b4>
     348:	3d05054b 	cfstr32cc	mvfx0, [r5, #-300]	; 0xfffffed4
     34c:	2f01054c 	svccs	0x0001054c
     350:	01000e02 	tsteq	r0, r2, lsl #28
     354:	00018a01 	andeq	r8, r1, r1, lsl #20
     358:	9c000300 	stcls	3, cr0, [r0], {-0}
     35c:	02000000 	andeq	r0, r0, #0, 0
     360:	0d0efb01 	vstreq	d15, [lr, #-4]
     364:	01010100 	mrseq	r0, (UNDEF: 17)
     368:	00000001 	andeq	r0, r0, r1
     36c:	01000001 	tsteq	r0, r1
     370:	00637273 	rsbeq	r7, r3, r3, ror r2
     374:	6c636e69 	stclvs	14, cr6, [r3], #-420	; 0xfffffe5c
     378:	00656475 	rsbeq	r6, r5, r5, ror r4
     37c:	7273752f 	rsbsvc	r7, r3, #197132288	; 0xbc00000
     380:	636f6c2f 	cmnvs	pc, #12032	; 0x2f00
     384:	432f6c61 			; <UNDEFINED> instruction: 0x432f6c61
     388:	616c6c65 	cmnvs	ip, r5, ror #24
     38c:	72612f72 	rsbvc	r2, r1, #456	; 0x1c8
     390:	6f6e2d6d 	svcvs	0x006e2d6d
     394:	652d656e 	strvs	r6, [sp, #-1390]!	; 0xfffffa92
     398:	2d696261 	sfmcs	f6, 2, [r9, #-388]!	; 0xfffffe7c
     39c:	74736574 	ldrbtvc	r6, [r3], #-1396	; 0xfffffa8c
     3a0:	322d392f 	eorcc	r3, sp, #770048	; 0xbc000
     3a4:	71393130 	teqvc	r9, r0, lsr r1
     3a8:	73632d34 	cmnvc	r3, #52, 26	; 0xd00
     3ac:	65373031 	ldrvs	r3, [r7, #-49]!	; 0xffffffcf
     3b0:	62696c2f 	rsbvs	r6, r9, #12032	; 0x2f00
     3b4:	6363672f 	cmnvs	r3, #12320768	; 0xbc0000
     3b8:	6d72612f 	ldfvse	f6, [r2, #-188]!	; 0xffffff44
     3bc:	6e6f6e2d 	cdpvs	14, 6, cr6, cr15, cr13, {1}
     3c0:	61652d65 	cmnvs	r5, r5, ror #26
     3c4:	392f6962 	stmdbcc	pc!, {r1, r5, r6, r8, fp, sp, lr}	; <UNPREDICTABLE>
     3c8:	312e322e 			; <UNDEFINED> instruction: 0x312e322e
     3cc:	636e692f 	cmnvs	lr, #770048	; 0xbc000
     3d0:	6564756c 	strbvs	r7, [r4, #-1388]!	; 0xfffffa94
     3d4:	70670000 	rsbvc	r0, r7, r0
     3d8:	632e6f69 			; <UNDEFINED> instruction: 0x632e6f69
     3dc:	00000100 	andeq	r0, r0, r0, lsl #2
     3e0:	6f697067 	svcvs	0x00697067
     3e4:	0200682e 	andeq	r6, r0, #3014656	; 0x2e0000
     3e8:	74730000 	ldrbtvc	r0, [r3], #-0
     3ec:	746e6964 	strbtvc	r6, [lr], #-2404	; 0xfffff69c
     3f0:	6363672d 	cmnvs	r3, #11796480	; 0xb40000
     3f4:	0300682e 	movweq	r6, #2094	; 0x82e
     3f8:	05000000 	streq	r0, [r0, #-0]
     3fc:	02050021 	andeq	r0, r5, #33, 0	; 0x21
     400:	20000334 	andcs	r0, r0, r4, lsr r3
     404:	05054b1a 	streq	r4, [r5, #-2842]	; 0xfffff4e6
     408:	670a054a 	strvs	r0, [sl, -sl, asr #10]
     40c:	02000e05 	andeq	r0, r0, #80	; 0x50
     410:	05200104 	streq	r0, [r0, #-260]!	; 0xfffffefc
     414:	04020020 	streq	r0, [r2], #-32	; 0xffffffe0
     418:	28055801 	stmdacs	r5, {r0, fp, ip, lr}
     41c:	01040200 	mrseq	r0, R12_usr
     420:	000a053c 	andeq	r0, sl, ip, lsr r5
     424:	2e010402 	cdpcs	4, 0, cr0, cr1, cr2, {0}
     428:	05210105 	streq	r0, [r1, #-261]!	; 0xfffffefb
     42c:	0505a013 	streq	sl, [r5, #-19]	; 0xffffffed
     430:	3d01052f 	cfstr32cc	mvfx0, [r1, #-188]	; 0xffffff44
     434:	053e3905 	ldreq	r3, [lr, #-2309]!	; 0xfffff6fb
     438:	053f5908 	ldreq	r5, [pc, #-2312]!	; fffffb38 <__bss_end__+0xdfff0b18>
     43c:	05053f0e 	streq	r3, [r5, #-3854]	; 0xfffff0f2
     440:	0309053d 	movweq	r0, #38205	; 0x953d
     444:	05319e7a 	ldreq	r9, [r1, #-3706]!	; 0xfffff186
     448:	23052401 	movwcs	r2, #21505	; 0x5401
     44c:	4b08055a 	blmi	2019bc <STACK_SIZE+0x1ff2ac>
     450:	053f0e05 	ldreq	r0, [pc, #-3589]!	; fffff653 <__bss_end__+0xdfff0633>
     454:	05833d05 	streq	r3, [r3, #3333]	; 0xd05
     458:	01056209 	tsteq	r5, r9, lsl #4
     45c:	76220525 	strtvc	r0, [r2], -r5, lsr #10
     460:	054b0805 	strbeq	r0, [fp, #-2053]	; 0xfffff7fb
     464:	0d053d10 	stceq	13, cr3, [r5, #-64]	; 0xffffffc0
     468:	581c0530 	ldmdapl	ip, {r4, r5, r8, sl}
     46c:	053c2405 	ldreq	r2, [ip, #-1029]!	; 0xfffffbfb
     470:	24052f01 	strcs	r2, [r5], #-3841	; 0xfffff0ff
     474:	4c080576 	cfstr32mi	mvfx0, [r8], {118}	; 0x76
     478:	053f0e05 	ldreq	r0, [pc, #-3589]!	; fffff67b <__bss_end__+0xdfff065b>
     47c:	05053d1a 	streq	r3, [r5, #-3354]	; 0xfffff2e6
     480:	671b054a 	ldrvs	r0, [fp, -sl, asr #10]
     484:	674a0505 	strbvs	r0, [sl, -r5, lsl #10]
     488:	05831a05 	streq	r1, [r3, #2565]	; 0xa05
     48c:	09054a05 	stmdbeq	r5, {r0, r2, r9, fp, lr}
     490:	05747a03 	ldrbeq	r7, [r4, #-2563]!	; 0xfffff5fd
     494:	20052701 	andcs	r2, r5, r1, lsl #14
     498:	4b0805bd 	blmi	201b94 <STACK_SIZE+0x1ff484>
     49c:	053f1b05 	ldreq	r1, [pc, #-2821]!	; fffff99f <__bss_end__+0xdfff097f>
     4a0:	09054a05 	stmdbeq	r5, {r0, r2, r9, fp, lr}
     4a4:	23010572 	movwcs	r0, #5490	; 0x1572
     4a8:	055a2105 	ldrbeq	r2, [sl, #-261]	; 0xfffffefb
     4ac:	1b054b08 	blne	1530d4 <STACK_SIZE+0x1509c4>
     4b0:	4a05053f 	bmi	1419b4 <STACK_SIZE+0x13f2a4>
     4b4:	05720905 	ldrbeq	r0, [r2, #-2309]!	; 0xfffff6fb
     4b8:	13052301 	movwne	r2, #21249	; 0x5301
     4bc:	2f05055b 	svccs	0x0005055b
     4c0:	053d0105 	ldreq	r0, [sp, #-261]!	; 0xfffffefb
     4c4:	05053e12 	streq	r3, [r5, #-3602]	; 0xfffff1ee
     4c8:	3d01052f 	cfstr32cc	mvfx0, [r1, #-188]	; 0xffffff44
     4cc:	053e1e05 	ldreq	r1, [lr, #-3589]!	; 0xfffff1fb
     4d0:	0e054b08 	vmlaeq.f64	d4, d5, d8
     4d4:	3d05053f 	cfstr32cc	mvfx0, [r5, #-252]	; 0xffffff04
     4d8:	058d0905 	streq	r0, [sp, #2309]	; 0x905
     4dc:	06022401 	streq	r2, [r2], -r1, lsl #8
     4e0:	64010100 	strvs	r0, [r1], #-256	; 0xffffff00
     4e4:	03000001 	movweq	r0, #1
     4e8:	00009e00 	andeq	r9, r0, r0, lsl #28
     4ec:	fb010200 	blx	40cf6 <STACK_SIZE+0x3e5e6>
     4f0:	01000d0e 	tsteq	r0, lr, lsl #26
     4f4:	00010101 	andeq	r0, r1, r1, lsl #2
     4f8:	00010000 	andeq	r0, r1, r0
     4fc:	72730100 	rsbsvc	r0, r3, #0
     500:	6e690063 	cdpvs	0, 6, cr0, cr9, cr3, {3}
     504:	64756c63 	ldrbtvs	r6, [r5], #-3171	; 0xfffff39d
     508:	752f0065 	strvc	r0, [pc, #-101]!	; 4ab <STACK_SIZE-0x2265>
     50c:	6c2f7273 	sfmvs	f7, 4, [pc], #-460	; 348 <STACK_SIZE-0x23c8>
     510:	6c61636f 	stclvs	3, cr6, [r1], #-444	; 0xfffffe44
     514:	6c65432f 	stclvs	3, cr4, [r5], #-188	; 0xffffff44
     518:	2f72616c 	svccs	0x0072616c
     51c:	2d6d7261 	sfmcs	f7, 2, [sp, #-388]!	; 0xfffffe7c
     520:	656e6f6e 	strbvs	r6, [lr, #-3950]!	; 0xfffff092
     524:	6261652d 	rsbvs	r6, r1, #188743680	; 0xb400000
     528:	65742d69 	ldrbvs	r2, [r4, #-3433]!	; 0xfffff297
     52c:	392f7473 	stmdbcc	pc!, {r0, r1, r4, r5, r6, sl, ip, sp, lr}	; <UNPREDICTABLE>
     530:	3130322d 	teqcc	r0, sp, lsr #4
     534:	2d347139 	ldfcss	f7, [r4, #-228]!	; 0xffffff1c
     538:	30317363 	eorscc	r7, r1, r3, ror #6
     53c:	6c2f6537 	cfstr32vs	mvfx6, [pc], #-220	; 468 <STACK_SIZE-0x22a8>
     540:	672f6269 	strvs	r6, [pc, -r9, ror #4]!
     544:	612f6363 			; <UNDEFINED> instruction: 0x612f6363
     548:	6e2d6d72 	mcrvs	13, 1, r6, cr13, cr2, {3}
     54c:	2d656e6f 	stclcs	14, cr6, [r5, #-444]!	; 0xfffffe44
     550:	69626165 	stmdbvs	r2!, {r0, r2, r5, r6, r8, sp, lr}^
     554:	322e392f 	eorcc	r3, lr, #770048	; 0xbc000
     558:	692f312e 	stmdbvs	pc!, {r1, r2, r3, r5, r8, ip, sp}	; <UNPREDICTABLE>
     55c:	756c636e 	strbvc	r6, [ip, #-878]!	; 0xfffffc92
     560:	00006564 	andeq	r6, r0, r4, ror #10
     564:	636f6c63 	cmnvs	pc, #25344	; 0x6300
     568:	00632e6b 	rsbeq	r2, r3, fp, ror #28
     56c:	63000001 	movwvs	r0, #1
     570:	6b636f6c 	blvs	18dc328 <STACK_SIZE+0x18d9c18>
     574:	0200682e 	andeq	r6, r0, #3014656	; 0x2e0000
     578:	74730000 	ldrbtvc	r0, [r3], #-0
     57c:	746e6964 	strbtvc	r6, [lr], #-2404	; 0xfffff69c
     580:	6363672d 	cmnvs	r3, #11796480	; 0xb40000
     584:	0300682e 	movweq	r6, #2094	; 0x82e
     588:	05000000 	streq	r0, [r0, #-0]
     58c:	02050016 	andeq	r0, r5, #22, 0
     590:	20000570 	andcs	r0, r0, r0, ror r5
     594:	05010b03 	streq	r0, [r1, #-2819]	; 0xfffff4fd
     598:	68592f05 	ldmdavs	r9, {r0, r2, r8, r9, sl, fp, sp}^
     59c:	590a0559 	stmdbpl	sl, {r0, r3, r4, r6, r8, sl}
     5a0:	02000e05 	andeq	r0, r0, #80	; 0x50
     5a4:	05200104 	streq	r0, [r0, #-260]!	; 0xfffffefc
     5a8:	0402001d 	streq	r0, [r2], #-29	; 0xffffffe3
     5ac:	24055801 	strcs	r5, [r5], #-2049	; 0xfffff7ff
     5b0:	01040200 	mrseq	r0, R12_usr
     5b4:	000a0520 	andeq	r0, sl, r0, lsr #10
     5b8:	2e010402 	cdpcs	4, 0, cr0, cr1, cr2, {0}
     5bc:	05210105 	streq	r0, [r1, #-261]!	; 0xfffffefb
     5c0:	0e05cc24 	cdpeq	12, 0, cr12, cr5, cr4, {1}
     5c4:	2f050568 	svccs	0x00050568
     5c8:	0b056775 	bleq	15a3a4 <STACK_SIZE+0x157c94>
     5cc:	000e0569 	andeq	r0, lr, r9, ror #10
     5d0:	20010402 	andcs	r0, r1, r2, lsl #8
     5d4:	02000b05 	andeq	r0, r0, #5120	; 0x1400
     5d8:	05580104 	ldrbeq	r0, [r8, #-260]	; 0xfffffefc
     5dc:	09052208 	stmdbeq	r5, {r3, r9, sp}
     5e0:	0105594b 	tsteq	r5, fp, asr #18
     5e4:	031c055a 	tsteq	ip, #377487360	; 0x16800000
     5e8:	05200812 	streq	r0, [r0, #-2066]!	; 0xfffff7ee
     5ec:	0e054b1e 	vmoveq.32	d5[0], r4
     5f0:	05052f58 	streq	r2, [r5, #-3928]	; 0xfffff0a8
     5f4:	2109052e 	tstcs	r9, lr, lsr #10
     5f8:	05590f05 	ldrbeq	r0, [r9, #-3845]	; 0xfffff0fb
     5fc:	04020011 	streq	r0, [r2], #-17	; 0xffffffef
     600:	23052001 	movwcs	r2, #20481	; 0x5001
     604:	01040200 	mrseq	r0, R12_usr
     608:	000f0558 	andeq	r0, pc, r8, asr r5	; <UNPREDICTABLE>
     60c:	2e010402 	cdpcs	4, 0, cr0, cr1, cr2, {0}
     610:	02002505 	andeq	r2, r0, #20971520	; 0x1400000
     614:	051e0204 	ldreq	r0, [lr, #-516]	; 0xfffffdfc
     618:	04020017 	streq	r0, [r2], #-23	; 0xffffffe9
     61c:	05053c01 	streq	r3, [r5, #-3073]	; 0xfffff3ff
     620:	01040200 	mrseq	r0, R12_usr
     624:	40010520 	andmi	r0, r1, r0, lsr #10
     628:	0e032a05 	vmlaeq.f32	s4, s6, s10
     62c:	4b050590 	blmi	141c74 <STACK_SIZE+0x13f564>
     630:	05596859 	ldrbeq	r6, [r9, #-2137]	; 0xfffff7a7
     634:	27055901 	strcs	r5, [r5, -r1, lsl #18]
     638:	4b0805af 	blmi	201cfc <STACK_SIZE+0x1ff5ec>
     63c:	753f0505 	ldrvc	r0, [pc, #-1285]!	; 13f <STACK_SIZE-0x25d1>
     640:	057f0905 	ldrbeq	r0, [pc, #-2309]!	; fffffd43 <__bss_end__+0xdfff0d23>
     644:	05022401 	streq	r2, [r2, #-1025]	; 0xfffffbff
     648:	d4010100 	strle	r0, [r1], #-256	; 0xffffff00
     64c:	03000000 	movweq	r0, #0
     650:	00003900 	andeq	r3, r0, r0, lsl #18
     654:	fb010200 	blx	40e5e <STACK_SIZE+0x3e74e>
     658:	01000d0e 	tsteq	r0, lr, lsl #26
     65c:	00010101 	andeq	r0, r1, r1, lsl #2
     660:	00010000 	andeq	r0, r1, r0
     664:	72730100 	rsbsvc	r0, r3, #0
     668:	6e690063 	cdpvs	0, 6, cr0, cr9, cr3, {3}
     66c:	64756c63 	ldrbtvs	r6, [r5], #-3171	; 0xfffff39d
     670:	73000065 	movwvc	r0, #101	; 0x65
     674:	61752d77 	cmnvs	r5, r7, ror sp
     678:	632e7472 			; <UNDEFINED> instruction: 0x632e7472
     67c:	00000100 	andeq	r0, r0, r0, lsl #2
     680:	752d7773 	strvc	r7, [sp, #-1907]!	; 0xfffff88d
     684:	2e747261 	cdpcs	2, 7, cr7, cr4, cr1, {3}
     688:	00020068 	andeq	r0, r2, r8, rrx
     68c:	3f050000 	svccc	0x00050000
     690:	28020500 	stmdacs	r2, {r8, sl}
     694:	16200007 	strtne	r0, [r0], -r7
     698:	05670805 	strbeq	r0, [r7, #-2053]!	; 0xfffff7fb
     69c:	0402000c 	streq	r0, [r2], #-12
     6a0:	0a053c01 	beq	14f6ac <STACK_SIZE+0x14cf9c>
     6a4:	4b050559 	blmi	141c10 <STACK_SIZE+0x13f500>
     6a8:	054b0105 	strbeq	r0, [fp, #-261]	; 0xfffffefb
     6ac:	05054c35 	streq	r4, [r5, #-3125]	; 0xfffff3cb
     6b0:	830e0576 	movwhi	r0, #58742	; 0xe576
     6b4:	052e0505 	streq	r0, [lr, #-1285]!	; 0xfffffafb
     6b8:	04020009 	streq	r0, [r2], #-9
     6bc:	22052103 	andcs	r2, r5, #-1073741824	; 0xc0000000
     6c0:	03040200 	movweq	r0, #16896	; 0x4200
     6c4:	0009052e 	andeq	r0, r9, lr, lsr #10
     6c8:	58030402 	stmdapl	r3, {r1, sl}
     6cc:	02001d05 	andeq	r1, r0, #320	; 0x140
     6d0:	05810304 	streq	r0, [r1, #772]	; 0x304
     6d4:	04020005 	streq	r0, [r2], #-5
     6d8:	05403c01 	strbeq	r3, [r0, #-3073]	; 0xfffff3ff
     6dc:	35058301 	strcc	r8, [r5, #-769]	; 0xfffffcff
     6e0:	590d054c 	stmdbpl	sp, {r2, r3, r6, r8, sl}
     6e4:	052e0505 	streq	r0, [lr, #-1285]!	; 0xfffffafb
     6e8:	0402001f 	streq	r0, [r2], #-31	; 0xffffffe1
     6ec:	09052103 	stmdbeq	r5, {r0, r1, r8, sp}
     6f0:	03040200 	movweq	r0, #16896	; 0x4200
     6f4:	0025053c 	eoreq	r0, r5, ip, lsr r5
     6f8:	65030402 	strvs	r0, [r3, #-1026]	; 0xfffffbfe
     6fc:	02001705 	andeq	r1, r0, #1310720	; 0x140000
     700:	053c0104 	ldreq	r0, [ip, #-260]!	; 0xfffffefc
     704:	04020005 	streq	r0, [r2], #-5
     708:	01054a01 	tsteq	r5, r1, lsl #20
     70c:	5a1a0531 	bpl	681bd8 <STACK_SIZE+0x67f4c8>
     710:	3d3d0505 	cfldr32cc	mvfx0, [sp, #-20]!	; 0xffffffec
     714:	3d11053d 	cfldr32cc	mvfx0, [r1, #-244]	; 0xffffff0c
     718:	05670c05 	strbeq	r0, [r7, #-3077]!	; 0xfffff3fb
     71c:	09022101 	stmdbeq	r2, {r0, r8, sp}
     720:	98010100 	stmdals	r1, {r8}
     724:	03000007 	movweq	r0, #7
     728:	0000d600 	andeq	sp, r0, r0, lsl #12
     72c:	fb010200 	blx	40f36 <STACK_SIZE+0x3e826>
     730:	01000d0e 	tsteq	r0, lr, lsl #26
     734:	00010101 	andeq	r0, r1, r1, lsl #2
     738:	00010000 	andeq	r0, r1, r0
     73c:	6e690100 	powvse	f0, f1, f0
     740:	64756c63 	ldrbtvs	r6, [r5], #-3171	; 0xfffff39d
     744:	72730065 	rsbsvc	r0, r3, #101, 0	; 0x65
     748:	752f0063 	strvc	r0, [pc, #-99]!	; 6ed <STACK_SIZE-0x2023>
     74c:	6c2f7273 	sfmvs	f7, 4, [pc], #-460	; 588 <STACK_SIZE-0x2188>
     750:	6c61636f 	stclvs	3, cr6, [r1], #-444	; 0xfffffe44
     754:	6c65432f 	stclvs	3, cr4, [r5], #-188	; 0xffffff44
     758:	2f72616c 	svccs	0x0072616c
     75c:	2d6d7261 	sfmcs	f7, 2, [sp, #-388]!	; 0xfffffe7c
     760:	656e6f6e 	strbvs	r6, [lr, #-3950]!	; 0xfffff092
     764:	6261652d 	rsbvs	r6, r1, #188743680	; 0xb400000
     768:	65742d69 	ldrbvs	r2, [r4, #-3433]!	; 0xfffff297
     76c:	392f7473 	stmdbcc	pc!, {r0, r1, r4, r5, r6, sl, ip, sp, lr}	; <UNPREDICTABLE>
     770:	3130322d 	teqcc	r0, sp, lsr #4
     774:	2d347139 	ldfcss	f7, [r4, #-228]!	; 0xffffff1c
     778:	30317363 	eorscc	r7, r1, r3, ror #6
     77c:	6c2f6537 	cfstr32vs	mvfx6, [pc], #-220	; 6a8 <STACK_SIZE-0x2068>
     780:	672f6269 	strvs	r6, [pc, -r9, ror #4]!
     784:	612f6363 			; <UNDEFINED> instruction: 0x612f6363
     788:	6e2d6d72 	mcrvs	13, 1, r6, cr13, cr2, {3}
     78c:	2d656e6f 	stclcs	14, cr6, [r5, #-444]!	; 0xfffffe44
     790:	69626165 	stmdbvs	r2!, {r0, r2, r5, r6, r8, sp, lr}^
     794:	322e392f 	eorcc	r3, lr, #770048	; 0xbc000
     798:	692f312e 	stmdbvs	pc!, {r1, r2, r3, r5, r8, ip, sp}	; <UNPREDICTABLE>
     79c:	756c636e 	strbvc	r6, [ip, #-878]!	; 0xfffffc92
     7a0:	00006564 	andeq	r6, r0, r4, ror #10
     7a4:	65746e69 	ldrbvs	r6, [r4, #-3689]!	; 0xfffff197
     7a8:	2d726567 	cfldr64cs	mvdx6, [r2, #-412]!	; 0xfffffe64
     7ac:	6874616d 	ldmdavs	r4!, {r0, r2, r3, r5, r6, r8, sp, lr}^
     7b0:	0100682e 	tsteq	r0, lr, lsr #16
     7b4:	72700000 	rsbsvc	r0, r0, #0, 0
     7b8:	66746e69 	ldrbtvs	r6, [r4], -r9, ror #28
     7bc:	0200632e 	andeq	r6, r0, #-1207959552	; 0xb8000000
     7c0:	74730000 	ldrbtvc	r0, [r3], #-0
     7c4:	746e6964 	strbtvc	r6, [lr], #-2404	; 0xfffff69c
     7c8:	6363672d 	cmnvs	r3, #11796480	; 0xb40000
     7cc:	0300682e 	movweq	r6, #2094	; 0x82e
     7d0:	61750000 	cmnvs	r5, r0
     7d4:	682e7472 	stmdavs	lr!, {r1, r4, r5, r6, sl, ip, sp, lr}
     7d8:	00000100 	andeq	r0, r0, r0, lsl #2
     7dc:	61647473 	smcvs	18243	; 0x4743
     7e0:	682e6772 	stmdavs	lr!, {r1, r4, r5, r6, r8, r9, sl, sp, lr}
     7e4:	00000300 	andeq	r0, r0, r0, lsl #6
     7e8:	64647473 	strbtvs	r7, [r4], #-1139	; 0xfffffb8d
     7ec:	682e6665 	stmdavs	lr!, {r0, r2, r5, r6, r9, sl, sp, lr}
     7f0:	00000300 	andeq	r0, r0, r0, lsl #6
     7f4:	6975623c 	ldmdbvs	r5!, {r2, r3, r4, r5, r9, sp, lr}^
     7f8:	692d746c 	pushvs	{r2, r3, r5, r6, sl, ip, sp, lr}
     7fc:	00003e6e 	andeq	r3, r0, lr, ror #28
     800:	05000000 	streq	r0, [r0, #-0]
     804:	02050024 	andeq	r0, r5, #36, 0	; 0x24
     808:	20000838 	andcs	r0, r0, r8, lsr r8
     80c:	05010f03 	streq	r0, [r1, #-3843]	; 0xfffff0fd
     810:	01054b0a 	tsteq	r5, sl, lsl #22
     814:	0336054b 	teqeq	r6, #314572800	; 0x12c00000
     818:	18054a0e 	stmdane	r5, {r1, r2, r3, r9, fp, lr}
     81c:	4a0c056a 	bmi	301dcc <STACK_SIZE+0x2ff6bc>
     820:	0a052f2f 	beq	14c4e4 <STACK_SIZE+0x149dd4>
     824:	2e030531 	mcrcs	5, 0, r0, cr3, cr1, {1}
     828:	05210905 	streq	r0, [r1, #-2309]!	; 0xfffff6fb
     82c:	07052010 	smladeq	r5, r0, r0, r2
     830:	210c0520 	tstcs	ip, r0, lsr #10
     834:	052e1705 	streq	r1, [lr, #-1797]!	; 0xfffff8fb
     838:	052f2e07 	streq	r2, [pc, #-3591]!	; fffffa39 <__bss_end__+0xdfff0a19>
     83c:	08053d0c 	stmdaeq	r5, {r2, r3, r8, sl, fp, ip, sp}
     840:	3d09053c 	cfstr32cc	mvfx0, [r9, #-240]	; 0xffffff10
     844:	0019054b 	andseq	r0, r9, fp, asr #10
     848:	03020402 	movweq	r0, #9218	; 0x2402
     84c:	03053c7a 	movweq	r3, #23674	; 0x5c7a
     850:	01040200 	mrseq	r0, R12_usr
     854:	030a053c 	movweq	r0, #42300	; 0xa53c
     858:	01053c09 	tsteq	r5, r9, lsl #24
     85c:	50300521 	eorspl	r0, r0, r1, lsr #10
     860:	05590a05 	ldrbeq	r0, [r9, #-2565]	; 0xfffff5fb
     864:	2e05ad01 	cdpcs	13, 0, cr10, cr5, cr1, {0}
     868:	59060551 	stmdbpl	r6, {r0, r4, r6, r8, sl}
     86c:	02001605 	andeq	r1, r0, #5242880	; 0x500000
     870:	053c0104 	ldreq	r0, [ip, #-260]!	; 0xfffffefc
     874:	23052f1a 	movwcs	r2, #24346	; 0x5f1a
     878:	58150558 	ldmdapl	r5, {r3, r4, r6, r8, sl}
     87c:	05580c05 	ldrbeq	r0, [r8, #-3077]	; 0xfffff3fb
     880:	0e052106 	adfeqs	f2, f5, f6
     884:	01040200 	mrseq	r0, R12_usr
     888:	0018053c 	andseq	r0, r8, ip, lsr r5
     88c:	3c030402 	cfstrscc	mvf0, [r3], {2}
     890:	02002205 	andeq	r2, r0, #1342177280	; 0x50000000
     894:	053c0404 	ldreq	r0, [ip, #-1028]!	; 0xfffffbfc
     898:	05303d0c 	ldreq	r3, [r0, #-3340]!	; 0xfffff2f4
     89c:	32053001 	andcc	r3, r5, #1, 0
     8a0:	5906054c 	stmdbpl	r6, {r2, r3, r6, r8, sl}
     8a4:	02001605 	andeq	r1, r0, #5242880	; 0x500000
     8a8:	053c0104 	ldreq	r0, [ip, #-260]!	; 0xfffffefc
     8ac:	05832f11 	streq	r2, [r3, #3857]	; 0xf11
     8b0:	01053c0c 	tsteq	r5, ip, lsl #24
     8b4:	0502042f 	streq	r0, [r2, #-1071]	; 0xfffffbd1
     8b8:	4a2e031e 	bmi	b81538 <STACK_SIZE+0xb7ee28>
     8bc:	056d0505 	strbeq	r0, [sp, #-1285]!	; 0xfffffafb
     8c0:	0f035901 	svceq	0x00035901
     8c4:	9f06054a 	svcls	0x0006054a
     8c8:	054b1405 	strbeq	r1, [fp, #-1029]	; 0xfffffbfb
     8cc:	01053c1a 	tsteq	r5, sl, lsl ip
     8d0:	4fa04f3e 	svcmi	0x00a04f3e
     8d4:	05a00605 	streq	r0, [r0, #1541]!	; 0x605
     8d8:	01055905 	tsteq	r5, r5, lsl #18
     8dc:	06054f5a 			; <UNDEFINED> instruction: 0x06054f5a
     8e0:	5a2105a0 	bpl	841f68 <STACK_SIZE+0x83f858>
     8e4:	052e0605 	streq	r0, [lr, #-1541]!	; 0xfffff9fb
     8e8:	05506801 	ldrbeq	r6, [r0, #-2049]	; 0xfffff7ff
     8ec:	03055a0a 	movweq	r5, #23050	; 0x5a0a
     8f0:	0022052e 	eoreq	r0, r2, lr, lsr #10
     8f4:	20040402 	andcs	r0, r4, r2, lsl #8
     8f8:	02001105 	andeq	r1, r0, #1073741825	; 0x40000001
     8fc:	053c0104 	ldreq	r0, [ip, #-260]!	; 0xfffffefc
     900:	04020003 	streq	r0, [r2], #-3
     904:	1e052e01 	cdpne	14, 0, cr2, cr5, cr1, {0}
     908:	03040200 	movweq	r0, #16896	; 0x4200
     90c:	0014052e 	andseq	r0, r4, lr, lsr #10
     910:	3c030402 	cfstrscc	mvf0, [r3], {2}
     914:	052f1b05 	streq	r1, [pc, #-2821]!	; fffffe17 <__bss_end__+0xdfff0df7>
     918:	05503d01 	ldrbeq	r3, [r0, #-3329]	; 0xfffff2ff
     91c:	02006716 	andeq	r6, r0, #5767168	; 0x580000
     920:	4a060104 	bmi	180d38 <STACK_SIZE+0x17e628>
     924:	03040200 	movweq	r0, #16896	; 0x4200
     928:	0402004a 	streq	r0, [r2], #-74	; 0xffffffb6
     92c:	02002e04 	andeq	r2, r0, #4, 28	; 0x40
     930:	05200604 	streq	r0, [r0, #-1540]!	; 0xfffff9fc
     934:	04020001 	streq	r0, [r2], #-1
     938:	4f4b0606 	svcmi	0x004b0606
     93c:	054b1005 	strbeq	r1, [fp, #-5]
     940:	0b052f09 	bleq	14c56c <STACK_SIZE+0x149e5c>
     944:	66250521 	strtvs	r0, [r5], -r1, lsr #10
     948:	052e2a05 	streq	r2, [lr, #-2565]!	; 0xfffff5fb
     94c:	11053c22 	tstne	r5, r2, lsr #24
     950:	20070520 	andcs	r0, r7, r0, lsr #10
     954:	052d1505 	streq	r1, [sp, #-1285]!	; 0xfffffafb
     958:	09052e0a 	stmdbeq	r5, {r1, r3, r9, sl, fp, sp}
     95c:	230a0558 	movwcs	r0, #42328	; 0xa558
     960:	4f210105 	svcmi	0x00210105
     964:	05751005 	ldrbeq	r1, [r5, #-5]!
     968:	0605310f 	streq	r3, [r5], -pc, lsl #2
     96c:	0028053c 	eoreq	r0, r8, ip, lsr r5
     970:	20010402 	andcs	r0, r1, r2, lsl #8
     974:	02001d05 	andeq	r1, r0, #320	; 0x140
     978:	053c0104 	ldreq	r0, [ip, #-260]!	; 0xfffffefc
     97c:	05052111 	streq	r2, [r5, #-273]	; 0xfffffeef
     980:	0007052e 	andeq	r0, r7, lr, lsr #10
     984:	21030402 	tstcs	r3, r2, lsl #8
     988:	02002605 	andeq	r2, r0, #5242880	; 0x500000
     98c:	05810304 	streq	r0, [r1, #772]	; 0x304
     990:	04020005 	streq	r0, [r2], #-5
     994:	09053c01 	stmdbeq	r5, {r0, sl, fp, ip, sp}
     998:	21050550 	tstcs	r5, r0, asr r5
     99c:	053c0c05 	ldreq	r0, [ip, #-3077]!	; 0xfffff3fb
     9a0:	09053c05 	stmdbeq	r5, {r0, r2, sl, fp, ip, sp}
     9a4:	410d0581 	smlabbmi	sp, r1, r5, r0
     9a8:	053c0605 	ldreq	r0, [ip, #-1541]!	; 0xfffff9fb
     9ac:	0705210b 	streq	r2, [r5, -fp, lsl #2]
     9b0:	81100521 	tsthi	r0, r1, lsr #10
     9b4:	053c0b05 	ldreq	r0, [ip, #-2821]!	; 0xfffff4fb
     9b8:	0105410a 	tsteq	r5, sl, lsl #2
     9bc:	0f054f21 	svceq	0x00054f21
     9c0:	3c060576 	cfstr32cc	mvfx0, [r6], {118}	; 0x76
     9c4:	05210805 	streq	r0, [r1, #-2053]!	; 0xfffff7fb
     9c8:	04020019 	streq	r0, [r2], #-25	; 0xffffffe7
     9cc:	0f053c01 	svceq	0x00053c01
     9d0:	01040200 	mrseq	r0, R12_usr
     9d4:	002a053c 	eoreq	r0, sl, ip, lsr r5
     9d8:	20020402 	andcs	r0, r2, r2, lsl #8
     9dc:	02004105 	andeq	r4, r0, #1073741825	; 0x40000001
     9e0:	05580304 	ldrbeq	r0, [r8, #-772]	; 0xfffffcfc
     9e4:	04020037 	streq	r0, [r2], #-55	; 0xffffffc9
     9e8:	0c053c03 	stceq	12, cr3, [r5], {3}
     9ec:	3e0b0521 	cfsh32cc	mvfx0, mvfx11, #17
     9f0:	05210e05 	streq	r0, [r1, #-3589]!	; 0xfffff1fb
     9f4:	12053c0a 	andne	r3, r5, #2560	; 0xa00
     9f8:	2d0b052e 	cfstr32cs	mvfx0, [fp, #-184]	; 0xffffff48
     9fc:	02001905 	andeq	r1, r0, #81920	; 0x14000
     a00:	054a0104 	strbeq	r0, [sl, #-260]	; 0xfffffefc
     a04:	0e053f0b 	cdpeq	15, 0, cr3, cr5, cr11, {0}
     a08:	3c0a0521 	cfstr32cc	mvfx0, [sl], {33}	; 0x21
     a0c:	052e1205 	streq	r1, [lr, #-517]!	; 0xfffffdfb
     a10:	0b052d13 	bleq	14be64 <STACK_SIZE+0x149754>
     a14:	0024053c 	eoreq	r0, r4, ip, lsr r5
     a18:	20010402 	andcs	r0, r1, r2, lsl #8
     a1c:	02003505 	andeq	r3, r0, #20971520	; 0x1400000
     a20:	054a0204 	strbeq	r0, [sl, #-516]	; 0xfffffdfc
     a24:	0605420d 	streq	r4, [r5], -sp, lsl #4
     a28:	2111053c 	tstcs	r1, ip, lsr r5
     a2c:	054a0805 	strbeq	r0, [sl, #-2053]	; 0xfffff7fb
     a30:	04020024 	streq	r0, [r2], #-36	; 0xffffffdc
     a34:	2b052001 	blcs	148a40 <STACK_SIZE+0x146330>
     a38:	02040200 	andeq	r0, r4, #0, 4
     a3c:	003d053c 	eorseq	r0, sp, ip, lsr r5
     a40:	4a030402 	bmi	c1a50 <STACK_SIZE+0xbf340>
     a44:	3d4b0a05 	vstrcc	s1, [fp, #-20]	; 0xffffffec
     a48:	02000f05 	andeq	r0, r0, #5, 30
     a4c:	053c0104 	ldreq	r0, [ip, #-260]!	; 0xfffffefc
     a50:	08053d0c 	stmdaeq	r5, {r2, r3, r8, sl, fp, ip, sp}
     a54:	0022053f 	eoreq	r0, r2, pc, lsr r5
     a58:	3c010402 	cfstrscc	mvf0, [r1], {2}
     a5c:	02001705 	andeq	r1, r0, #1310720	; 0x140000
     a60:	053c0104 	ldreq	r0, [ip, #-260]!	; 0xfffffefc
     a64:	04020035 	streq	r0, [r2], #-53	; 0xffffffcb
     a68:	0e052002 	cdpeq	0, 0, cr2, cr5, cr2, {0}
     a6c:	3c0a053d 	cfstr32cc	mvfx0, [sl], {61}	; 0x3d
     a70:	052e1205 	streq	r1, [lr, #-517]!	; 0xfffffdfb
     a74:	26053e0d 	strcs	r3, [r5], -sp, lsl #28
     a78:	01040200 	mrseq	r0, R12_usr
     a7c:	001c053c 	andseq	r0, ip, ip, lsr r5
     a80:	3c010402 	cfstrscc	mvf0, [r1], {2}
     a84:	02003905 	andeq	r3, r0, #81920	; 0x14000
     a88:	05200204 	streq	r0, [r0, #-516]!	; 0xfffffdfc
     a8c:	0a053d0e 	beq	14fecc <STACK_SIZE+0x14d7bc>
     a90:	2e12053c 	mrccs	5, 0, r0, cr2, cr12, {1}
     a94:	053e0d05 	ldreq	r0, [lr, #-3333]!	; 0xfffff2fb
     a98:	0402001b 	streq	r0, [r2], #-27	; 0xffffffe5
     a9c:	0e053c01 	cdpeq	12, 0, cr3, cr5, cr1, {0}
     aa0:	3c0a053d 	cfstr32cc	mvfx0, [sl], {61}	; 0x3d
     aa4:	052e1205 	streq	r1, [lr, #-517]!	; 0xfffffdfb
     aa8:	0e053008 	cdpeq	0, 0, cr3, cr5, cr8, {0}
     aac:	3c0a053d 	cfstr32cc	mvfx0, [sl], {61}	; 0x3d
     ab0:	052e1205 	streq	r1, [lr, #-517]!	; 0xfffffdfb
     ab4:	08053206 	stmdaeq	r5, {r1, r2, r9, ip, sp}
     ab8:	590e053d 	stmdbpl	lr, {r0, r2, r3, r4, r5, r8, sl}
     abc:	053c0a05 	ldreq	r0, [ip, #-2565]!	; 0xfffff5fb
     ac0:	14052e12 	strne	r2, [r5], #-3602	; 0xfffff1ee
     ac4:	3c0d053e 	cfstr32cc	mvfx0, [sp], {62}	; 0x3e
     ac8:	05210e05 	streq	r0, [r1, #-3589]!	; 0xfffff1fb
     acc:	12053c0a 	andne	r3, r5, #2560	; 0xa00
     ad0:	3e14052e 	cfmul64cc	mvdx0, mvdx4, mvdx14
     ad4:	053c0d05 	ldreq	r0, [ip, #-3333]!	; 0xfffff2fb
     ad8:	0a05210e 	beq	148f18 <STACK_SIZE+0x146808>
     adc:	2e12053c 	mrccs	5, 0, r0, cr2, cr12, {1}
     ae0:	05320a05 	ldreq	r0, [r2, #-2565]!	; 0xfffff5fb
     ae4:	054ff301 	strbeq	pc, [pc, #-769]	; 7eb <STACK_SIZE-0x1f25>	; <UNPREDICTABLE>
     ae8:	0605760a 	streq	r7, [r5], -sl, lsl #12
     aec:	3d0b0531 	cfstr32cc	mvfx0, [fp, #-196]	; 0xffffff3c
     af0:	054e0f05 	strbeq	r0, [lr, #-3845]	; 0xfffff0fb
     af4:	22054a06 	andcs	r4, r5, #24576	; 0x6000
     af8:	01040200 	mrseq	r0, R12_usr
     afc:	3e210520 	cfsh64cc	mvdx0, mvdx1, #16
     b00:	3d741205 	lfmcc	f1, 2, [r4, #-20]!	; 0xffffffec
     b04:	01040200 	mrseq	r0, R12_usr
     b08:	36055806 	strcc	r5, [r5], -r6, lsl #16
     b0c:	02040200 	andeq	r0, r4, #0, 4
     b10:	55055806 	strpl	r5, [r5, #-2054]	; 0xfffff7fa
     b14:	02040200 	andeq	r0, r4, #0, 4
     b18:	0402003c 	streq	r0, [r2], #-60	; 0xffffffc4
     b1c:	00200604 	eoreq	r0, r0, r4, lsl #12
     b20:	2e050402 	cdpcs	4, 0, cr0, cr5, cr2, {0}
     b24:	07040200 	streq	r0, [r4, -r0, lsl #4]
     b28:	00120520 	andseq	r0, r2, r0, lsr #10
     b2c:	06070402 	streq	r0, [r7], -r2, lsl #8
     b30:	000e0558 	andeq	r0, lr, r8, asr r5
     b34:	2e080402 	cdpcs	4, 0, cr0, cr8, cr2, {0}
     b38:	02001205 	andeq	r1, r0, #1342177280	; 0x50000000
     b3c:	053c0804 	ldreq	r0, [ip, #-2052]!	; 0xfffff7fc
     b40:	0402000f 	streq	r0, [r2], #-15
     b44:	0d053d08 	stceq	13, cr3, [r5, #-32]	; 0xffffffe0
     b48:	08040200 	stmdaeq	r4, {r9}
     b4c:	00050574 	andeq	r0, r5, r4, ror r5
     b50:	21080402 	tstcs	r8, r2, lsl #8
     b54:	02001405 	andeq	r1, r0, #83886080	; 0x5000000
     b58:	053c0104 	ldreq	r0, [ip, #-260]!	; 0xfffffefc
     b5c:	01053f0a 	tsteq	r5, sl, lsl #30
     b60:	95038308 	strls	r8, [r3, #-776]	; 0xfffffcf8
     b64:	0a054a02 	beq	153374 <STACK_SIZE+0x150c64>
     b68:	30060576 	andcc	r0, r6, r6, ror r5
     b6c:	314c0905 	cmpcc	ip, r5, lsl #18
     b70:	2e080523 	cfsh32cs	mvfx0, mvfx8, #19
     b74:	05300705 	ldreq	r0, [r0, #-1797]!	; 0xfffff8fb
     b78:	0705910d 	streq	r9, [r5, -sp, lsl #2]
     b7c:	240d053d 	strcs	r0, [sp], #-1341	; 0xfffffac3
     b80:	05400b05 	strbeq	r0, [r0, #-2821]	; 0xfffff4fb
     b84:	1905300f 	stmdbne	r5, {r0, r1, r2, r3, ip, sp}
     b88:	4a31059f 	bmi	c4220c <STACK_SIZE+0xc3fafc>
     b8c:	053c3705 	ldreq	r3, [ip, #-1797]!	; 0xfffff8fb
     b90:	19052e09 	stmdbne	r5, {r0, r3, r9, sl, fp, sp}
     b94:	4a310521 	bmi	c42020 <STACK_SIZE+0xc3f910>
     b98:	053c3705 	ldreq	r3, [ip, #-1797]!	; 0xfffff8fb
     b9c:	19052e09 	stmdbne	r5, {r0, r3, r9, sl, fp, sp}
     ba0:	4a310521 	bmi	c4202c <STACK_SIZE+0xc3f91c>
     ba4:	053c3705 	ldreq	r3, [ip, #-1797]!	; 0xfffff8fb
     ba8:	19052e09 	stmdbne	r5, {r0, r3, r9, sl, fp, sp}
     bac:	4a310521 	bmi	c42038 <STACK_SIZE+0xc3f928>
     bb0:	053c3705 	ldreq	r3, [ip, #-1797]!	; 0xfffff8fb
     bb4:	19052e09 	stmdbne	r5, {r0, r3, r9, sl, fp, sp}
     bb8:	4a310521 	bmi	c42044 <STACK_SIZE+0xc3f934>
     bbc:	053c3705 	ldreq	r3, [ip, #-1797]!	; 0xfffff8fb
     bc0:	37052e09 	strcc	r2, [r5, -r9, lsl #28]
     bc4:	2e090521 	cfsh32cs	mvfx0, mvfx9, #17
     bc8:	05220505 	streq	r0, [r2, #-1285]!	; 0xfffffafb
     bcc:	09053f0b 	stmdbeq	r5, {r0, r1, r3, r8, r9, sl, fp, ip, sp}
     bd0:	6608052f 	strvs	r0, [r8], -pc, lsr #10
     bd4:	05210f05 	streq	r0, [r1, #-3845]!	; 0xfffff0fb
     bd8:	0d05760e 	stceq	6, cr7, [r5, #-56]	; 0xffffffc8
     bdc:	2f11052e 	svccs	0x0011052e
     be0:	05590a05 	ldrbeq	r0, [r9, #-2565]	; 0xfffff5fb
     be4:	1f053d0f 	svcne	0x00053d0f
     be8:	2e0f054b 	cfsh32cs	mvfx0, mvfx15, #43
     bec:	300d0531 	andcc	r0, sp, r1, lsr r5
     bf0:	05400f05 	strbeq	r0, [r0, #-3845]	; 0xfffff0fb
     bf4:	08052f09 	stmdaeq	r5, {r0, r3, r8, r9, sl, fp, sp}
     bf8:	2f0d052e 	svccs	0x000d052e
     bfc:	3d0b0559 	cfstr32cc	mvfx0, [fp, #-356]	; 0xfffffe9c
     c00:	05660a05 	strbeq	r0, [r6, #-2565]!	; 0xfffff5fb
     c04:	10052115 	andne	r2, r5, r5, lsl r1
     c08:	2e0f0576 	cfrshl64cs	mvdx15, mvdx6, r0
     c0c:	052f1305 	streq	r1, [pc, #-773]!	; 90f <STACK_SIZE-0x1e01>
     c10:	13055933 	movwne	r5, #22835	; 0x5933
     c14:	210f054a 	tstcs	pc, sl, asr #10
     c18:	05410d05 	strbeq	r0, [r1, #-3333]	; 0xfffff2fb
     c1c:	09052e05 	stmdbeq	r5, {r0, r2, r9, sl, fp, sp}
     c20:	059e2003 	ldreq	r2, [lr, #3]
     c24:	2062030f 	rsbcs	r0, r2, pc, lsl #6
     c28:	3d0d0559 	cfstr32cc	mvfx0, [sp, #-356]	; 0xfffffe9c
     c2c:	052e0c05 	streq	r0, [lr, #-3077]!	; 0xfffff3fb
     c30:	05592f11 	ldrbeq	r2, [r9, #-3857]	; 0xfffff0ef
     c34:	0f053e09 	svceq	0x00053e09
     c38:	0d054b22 	vstreq	d4, [r5, #-136]	; 0xffffff78
     c3c:	2e0c053d 	mcrcs	5, 0, r0, cr12, cr13, {1}
     c40:	4b2f1105 	blmi	bc505c <STACK_SIZE+0xbc294c>
     c44:	053e0905 	ldreq	r0, [lr, #-2309]!	; 0xfffff6fb
     c48:	0559280f 	ldrbeq	r2, [r9, #-2063]	; 0xfffff7f1
     c4c:	0f053d09 	svceq	0x00053d09
     c50:	09055922 	stmdbeq	r5, {r1, r5, r8, fp, ip, lr}
     c54:	6803223d 	stmdavs	r3, {r0, r2, r3, r4, r5, r9, sp}
     c58:	0d05362e 	stceq	6, cr3, [r5, #-184]	; 0xffffff48
     c5c:	03201403 			; <UNDEFINED> instruction: 0x03201403
     c60:	0c05ac0a 	stceq	12, cr10, [r5], {10}
     c64:	001f052e 	andseq	r0, pc, lr, lsr #10
     c68:	2e010402 	cdpcs	4, 0, cr0, cr1, cr2, {0}
     c6c:	02001c05 	andeq	r1, r0, #1280	; 0x500
     c70:	052e0104 	streq	r0, [lr, #-260]!	; 0xfffffefc
     c74:	12052f10 	andne	r2, r5, #16, 30	; 0x40
     c78:	2e11053e 	mrccs	5, 0, r0, cr1, cr14, {1}
     c7c:	052f1005 	streq	r1, [pc, #-5]!	; c7f <STACK_SIZE-0x1a91>
     c80:	11053e12 	tstne	r5, r2, lsl lr
     c84:	2f10052e 	svccs	0x0010052e
     c88:	2f11053f 	svccs	0x0011053f
     c8c:	054d0d05 	strbeq	r0, [sp, #-3333]	; 0xfffff2fb
     c90:	11052e0c 	tstne	r5, ip, lsl #28
     c94:	4e0e052f 	cfsh32mi	mvfx0, mvfx14, #31
     c98:	052e0c05 	streq	r0, [lr, #-3077]!	; 0xfffff3fb
     c9c:	04020022 	streq	r0, [r2], #-34	; 0xffffffde
     ca0:	1e052e01 	cdpne	14, 0, cr2, cr5, cr1, {0}
     ca4:	01040200 	mrseq	r0, R12_usr
     ca8:	2f11052e 	svccs	0x0011052e
     cac:	054e1305 	strbeq	r1, [lr, #-773]	; 0xfffffcfb
     cb0:	11054a0c 	tstne	r5, ip, lsl #20
     cb4:	4e0e0521 	cfsh32mi	mvfx0, mvfx14, #17
     cb8:	052e0c05 	streq	r0, [lr, #-3077]!	; 0xfffff3fb
     cbc:	04020022 	streq	r0, [r2], #-34	; 0xffffffde
     cc0:	1e052e01 	cdpne	14, 0, cr2, cr5, cr1, {0}
     cc4:	01040200 	mrseq	r0, R12_usr
     cc8:	3015052e 	andscc	r0, r5, lr, lsr #10
     ccc:	054a0e05 	strbeq	r0, [sl, #-3589]	; 0xfffff1fb
     cd0:	1305341a 	movwne	r3, #21530	; 0x541a
     cd4:	2118054a 	tstcs	r8, sl, asr #10
     cd8:	05593805 	ldrbeq	r3, [r9, #-2053]	; 0xfffff7fb
     cdc:	0e054a13 			; <UNDEFINED> instruction: 0x0e054a13
     ce0:	74087803 	strvc	r7, [r8], #-2051	; 0xfffff7fd
     ce4:	0b032605 	bleq	ca500 <STACK_SIZE+0xc7df0>
     ce8:	3c4c0520 	cfstr64cc	mvdx0, [ip], {32}
     cec:	05203c05 	streq	r3, [r0, #-3077]!	; 0xfffff3fb
     cf0:	55054a36 	strpl	r4, [r5, #-2614]	; 0xfffff5ca
     cf4:	02040200 	andeq	r0, r4, #0, 4
     cf8:	0181052e 	orreq	r0, r1, lr, lsr #10
     cfc:	02040200 	andeq	r0, r4, #0, 4
     d00:	2071053c 	rsbscs	r0, r1, ip, lsr r5
     d04:	054a6605 	strbeq	r6, [sl, #-1541]	; 0xfffff9fb
     d08:	05900181 	ldreq	r0, [r0, #385]	; 0x181
     d0c:	04020017 	streq	r0, [r2], #-23	; 0xffffffe9
     d10:	38054a08 	stmdacc	r5, {r3, r9, fp, lr}
     d14:	08040200 	stmdaeq	r4, {r9}
     d18:	00130521 	andseq	r0, r3, r1, lsr #10
     d1c:	4a080402 	bmi	201d2c <STACK_SIZE+0x1ff61c>
     d20:	02000e05 	andeq	r0, r0, #80	; 0x50
     d24:	74030804 	strvc	r0, [r3], #-2052	; 0xfffff7fc
     d28:	15057408 	strne	r7, [r5, #-1032]	; 0xfffffbf8
     d2c:	05201103 	streq	r1, [r0, #-259]!	; 0xfffffefd
     d30:	1a054a0e 	bne	153570 <STACK_SIZE+0x150e60>
     d34:	4a130525 	bmi	4c21d0 <STACK_SIZE+0x4bfac0>
     d38:	082f0521 	stmdaeq	pc!, {r0, r5, r8, sl}	; <UNPREDICTABLE>
     d3c:	3c670593 	cfstr64cc	mvdx0, [r7], #-588	; 0xfffffdb4
     d40:	05204e05 	streq	r4, [r0, #-3589]!	; 0xfffff1fb
     d44:	70054a3f 	andvc	r4, r5, pc, lsr sl
     d48:	02040200 	andeq	r0, r4, #0, 4
     d4c:	01ae052e 			; <UNDEFINED> instruction: 0x01ae052e
     d50:	02040200 	andeq	r0, r4, #0, 4
     d54:	0195053c 	orrseq	r0, r5, ip, lsr r5
     d58:	01810520 	orreq	r0, r1, r0, lsr #10
     d5c:	01ae054a 			; <UNDEFINED> instruction: 0x01ae054a
     d60:	0020052e 	eoreq	r0, r0, lr, lsr #10
     d64:	4a080402 	bmi	201d74 <STACK_SIZE+0x1ff664>
     d68:	02001305 	andeq	r1, r0, #335544320	; 0x14000000
     d6c:	05210804 	streq	r0, [r1, #-2052]!	; 0xfffff7fc
     d70:	054d080f 	strbeq	r0, [sp, #-2063]	; 0xfffff7f1
     d74:	16053d09 	strne	r3, [r5], -r9, lsl #26
     d78:	05201603 	streq	r1, [r0, #-1539]!	; 0xfffff9fd
     d7c:	0c053015 	stceq	0, cr3, [r5], {21}
     d80:	2111053c 	tstcs	r1, ip, lsr r5
     d84:	05210d05 	streq	r0, [r1, #-3333]!	; 0xfffff2fb
     d88:	11058113 	tstne	r5, r3, lsl r1
     d8c:	4113053c 	tstmi	r3, ip, lsr r5
     d90:	054a0905 	strbeq	r0, [sl, #-2309]	; 0xfffff6fb
     d94:	0c058413 	cfstrseq	mvf8, [r5], {19}
     d98:	2111053c 	tstcs	r1, ip, lsr r5
     d9c:	05210d05 	streq	r0, [r1, #-3333]!	; 0xfffff2fb
     da0:	11058113 	tstne	r5, r3, lsl r1
     da4:	400f053c 	andmi	r0, pc, ip, lsr r5	; <UNPREDICTABLE>
     da8:	053d0905 	ldreq	r0, [sp, #-2309]!	; 0xfffff6fb
     dac:	1a052415 	bne	149e08 <STACK_SIZE+0x1476f8>
     db0:	04020059 	streq	r0, [r2], #-89	; 0xffffffa7
     db4:	003c0601 	eorseq	r0, ip, r1, lsl #12
     db8:	2e020402 	cdpcs	4, 0, cr0, cr2, cr2, {0}
     dbc:	04040200 	streq	r0, [r4], #-512	; 0xfffffe00
     dc0:	0013052e 	andseq	r0, r3, lr, lsr #10
     dc4:	06040402 	streq	r0, [r4], -r2, lsl #8
     dc8:	000c0576 	andeq	r0, ip, r6, ror r5
     dcc:	4a040402 	bmi	101ddc <STACK_SIZE+0xff6cc>
     dd0:	05210d05 	streq	r0, [r1, #-3333]!	; 0xfffff2fb
     dd4:	0c056815 	stceq	8, cr6, [r5], {21}
     dd8:	2111053c 	tstcs	r1, ip, lsr r5
     ddc:	05210d05 	streq	r0, [r1, #-3333]!	; 0xfffff2fb
     de0:	11058113 	tstne	r5, r3, lsl r1
     de4:	410f053c 	tstmi	pc, ip, lsr r5	; <UNPREDICTABLE>
     de8:	05211205 	streq	r1, [r1, #-517]!	; 0xfffffdfb
     dec:	11053c0b 	tstne	r5, fp, lsl #24
     df0:	2e0f0581 	cfsh32cs	mvfx0, mvfx15, #-63
     df4:	02002605 	andeq	r2, r0, #5242880	; 0x500000
     df8:	052e0104 	streq	r0, [lr, #-260]!	; 0xfffffefc
     dfc:	0402001a 	streq	r0, [r2], #-26	; 0xffffffe6
     e00:	45054a01 	strmi	r4, [r5, #-2561]	; 0xfffff5ff
     e04:	02040200 	andeq	r0, r4, #0, 4
     e08:	00390520 	eorseq	r0, r9, r0, lsr #10
     e0c:	3c020402 	cfstrscc	mvf0, [r2], {2}
     e10:	05321305 	ldreq	r1, [r2, #-773]!	; 0xfffffcfb
     e14:	11053c0c 	tstne	r5, ip, lsl #24
     e18:	210d0521 	tstcs	sp, r1, lsr #10
     e1c:	05811305 	streq	r1, [r1, #773]	; 0x305
     e20:	0f053c11 	svceq	0x00053c11
     e24:	3d090540 	cfstr32cc	mvfx0, [r9, #-256]	; 0xffffff00
     e28:	2f240f05 	svccs	0x00240f05
     e2c:	05525105 	ldrbeq	r5, [r2, #-261]	; 0xfffffefb
     e30:	0f054a11 	svceq	0x00054a11
     e34:	09054e08 	stmdbeq	r5, {r3, r9, sl, fp, lr}
     e38:	0f05243d 	svceq	0x0005243d
     e3c:	3d090583 	cfstr32cc	mvfx0, [r9, #-524]	; 0xfffffdf4
     e40:	910f0523 	tstls	pc, r3, lsr #10
     e44:	053d0905 	ldreq	r0, [sp, #-2309]!	; 0xfffff6fb
     e48:	7dfb030a 	ldclvc	3, cr0, [fp, #40]!	; 0x28
     e4c:	2e090520 	cfsh32cs	mvfx0, mvfx9, #16
     e50:	8a030305 	bhi	c1a6c <STACK_SIZE+0xbf35c>
     e54:	02003c02 	andeq	r3, r0, #512	; 0x200
     e58:	4a060104 	bmi	181270 <STACK_SIZE+0x17eb60>
     e5c:	02040200 	andeq	r0, r4, #0, 4
     e60:	0402003c 	streq	r0, [r2], #-60	; 0xffffffc4
     e64:	0a052004 	beq	148e7c <STACK_SIZE+0x14676c>
     e68:	04040200 	streq	r0, [r4], #-512	; 0xfffffe00
     e6c:	01055b06 	tsteq	r5, r6, lsl #22
     e70:	04040200 	streq	r0, [r4], #-512	; 0xfffffe00
     e74:	03055021 	movweq	r5, #20513	; 0x5021
     e78:	3e13054c 	cfmac32cc	mvfx0, mvfx3, mvfx12
     e7c:	05bc0a05 	ldreq	r0, [ip, #2565]!	; 0xa05
     e80:	05942101 	ldreq	r2, [r4, #257]	; 0x101
     e84:	13055a03 	movwne	r5, #23043	; 0x5a03
     e88:	bc0a053d 	cfstr32lt	mvfx0, [sl], {61}	; 0x3d
     e8c:	94210105 	strtls	r0, [r1], #-261	; 0xfffffefb
     e90:	05680305 	strbeq	r0, [r8, #-773]!	; 0xfffffcfb
     e94:	0a053d13 	beq	1502e8 <STACK_SIZE+0x14dbd8>
     e98:	210105ae 	smlatbcs	r1, lr, r5, r0
     e9c:	5a0a0594 	bpl	2824f4 <STACK_SIZE+0x27fde4>
     ea0:	78bb0105 	ldmvc	fp!, {r0, r2, r8}
     ea4:	05750a05 	ldrbeq	r0, [r5, #-2565]!	; 0xfffff5fb
     ea8:	05789f01 	ldrbeq	r9, [r8, #-3841]!	; 0xfffff0ff
     eac:	1b056803 	blne	15aec0 <STACK_SIZE+0x1587b0>
     eb0:	7513053d 	ldrvc	r0, [r3, #-1341]	; 0xfffffac3
     eb4:	05bc0a05 	ldreq	r0, [ip, #2565]!	; 0xa05
     eb8:	09022101 	stmdbeq	r2, {r0, r8, sp}
     ebc:	eb010100 	bl	412c4 <STACK_SIZE+0x3ebb4>
     ec0:	03000001 	movweq	r0, #1
     ec4:	0000b800 	andeq	fp, r0, r0, lsl #16
     ec8:	fb010200 	blx	416d2 <STACK_SIZE+0x3efc2>
     ecc:	01000d0e 	tsteq	r0, lr, lsl #26
     ed0:	00010101 	andeq	r0, r1, r1, lsl #2
     ed4:	00010000 	andeq	r0, r1, r0
     ed8:	6e690100 	powvse	f0, f1, f0
     edc:	64756c63 	ldrbtvs	r6, [r5], #-3171	; 0xfffff39d
     ee0:	72730065 	rsbsvc	r0, r3, #101, 0	; 0x65
     ee4:	752f0063 	strvc	r0, [pc, #-99]!	; e89 <STACK_SIZE-0x1887>
     ee8:	6c2f7273 	sfmvs	f7, 4, [pc], #-460	; d24 <STACK_SIZE-0x19ec>
     eec:	6c61636f 	stclvs	3, cr6, [r1], #-444	; 0xfffffe44
     ef0:	6c65432f 	stclvs	3, cr4, [r5], #-188	; 0xffffff44
     ef4:	2f72616c 	svccs	0x0072616c
     ef8:	2d6d7261 	sfmcs	f7, 2, [sp, #-388]!	; 0xfffffe7c
     efc:	656e6f6e 	strbvs	r6, [lr, #-3950]!	; 0xfffff092
     f00:	6261652d 	rsbvs	r6, r1, #188743680	; 0xb400000
     f04:	65742d69 	ldrbvs	r2, [r4, #-3433]!	; 0xfffff297
     f08:	392f7473 	stmdbcc	pc!, {r0, r1, r4, r5, r6, sl, ip, sp, lr}	; <UNPREDICTABLE>
     f0c:	3130322d 	teqcc	r0, sp, lsr #4
     f10:	2d347139 	ldfcss	f7, [r4, #-228]!	; 0xffffff1c
     f14:	30317363 	eorscc	r7, r1, r3, ror #6
     f18:	6c2f6537 	cfstr32vs	mvfx6, [pc], #-220	; e44 <STACK_SIZE-0x18cc>
     f1c:	672f6269 	strvs	r6, [pc, -r9, ror #4]!
     f20:	612f6363 			; <UNDEFINED> instruction: 0x612f6363
     f24:	6e2d6d72 	mcrvs	13, 1, r6, cr13, cr2, {3}
     f28:	2d656e6f 	stclcs	14, cr6, [r5, #-444]!	; 0xfffffe44
     f2c:	69626165 	stmdbvs	r2!, {r0, r2, r5, r6, r8, sp, lr}^
     f30:	322e392f 	eorcc	r3, lr, #770048	; 0xbc000
     f34:	692f312e 	stmdbvs	pc!, {r1, r2, r3, r5, r8, ip, sp}	; <UNPREDICTABLE>
     f38:	756c636e 	strbvc	r6, [ip, #-878]!	; 0xfffffc92
     f3c:	00006564 	andeq	r6, r0, r4, ror #10
     f40:	65746e69 	ldrbvs	r6, [r4, #-3689]!	; 0xfffff197
     f44:	2d726567 	cfldr64cs	mvdx6, [r2, #-412]!	; 0xfffffe64
     f48:	6874616d 	ldmdavs	r4!, {r0, r2, r3, r5, r6, r8, sp, lr}^
     f4c:	0100682e 	tsteq	r0, lr, lsr #16
     f50:	61750000 	cmnvs	r5, r0
     f54:	632e7472 			; <UNDEFINED> instruction: 0x632e7472
     f58:	00000200 	andeq	r0, r0, r0, lsl #4
     f5c:	69647473 	stmdbvs	r4!, {r0, r1, r4, r5, r6, sl, ip, sp, lr}^
     f60:	672d746e 	strvs	r7, [sp, -lr, ror #8]!
     f64:	682e6363 	stmdavs	lr!, {r0, r1, r5, r6, r8, r9, sp, lr}
     f68:	00000300 	andeq	r0, r0, r0, lsl #6
     f6c:	6f697067 	svcvs	0x00697067
     f70:	0100682e 	tsteq	r0, lr, lsr #16
     f74:	61750000 	cmnvs	r5, r0
     f78:	682e7472 	stmdavs	lr!, {r1, r4, r5, r6, sl, ip, sp, lr}
     f7c:	00000100 	andeq	r0, r0, r0, lsl #2
     f80:	00360500 	eorseq	r0, r6, r0, lsl #10
     f84:	157c0205 	ldrbne	r0, [ip, #-517]!	; 0xfffffdfb
     f88:	1f032000 	svcne	0x00032000
     f8c:	6a180501 	bvs	602398 <STACK_SIZE+0x5ffc88>
     f90:	2f4a0c05 	svccs	0x004a0c05
     f94:	310a052f 	tstcc	sl, pc, lsr #10
     f98:	052e0305 	streq	r0, [lr, #-773]!	; 0xfffffcfb
     f9c:	10052109 	andne	r2, r5, r9, lsl #2
     fa0:	20070520 	andcs	r0, r7, r0, lsr #10
     fa4:	05210c05 	streq	r0, [r1, #-3077]!	; 0xfffff3fb
     fa8:	07052e17 	smladeq	r5, r7, lr, r2
     fac:	0c052f2e 	stceq	15, cr2, [r5], {46}	; 0x2e
     fb0:	3c08053d 	cfstr32cc	mvfx0, [r8], {61}	; 0x3d
     fb4:	4b3d0905 	blmi	f433d0 <STACK_SIZE+0xf40cc0>
     fb8:	02001905 	andeq	r1, r0, #81920	; 0x14000
     fbc:	7a030204 	bvc	c17d4 <STACK_SIZE+0xbf0c4>
     fc0:	0003053c 	andeq	r0, r3, ip, lsr r5
     fc4:	3c010402 	cfstrscc	mvf0, [r1], {2}
     fc8:	09030a05 	stmdbeq	r3, {r0, r2, r9, fp}
     fcc:	2101053c 	tstcs	r1, ip, lsr r5
     fd0:	05503005 	ldrbeq	r3, [r0, #-5]
     fd4:	0105590a 	tsteq	r5, sl, lsl #18
     fd8:	050204ad 	streq	r0, [r2, #-1197]	; 0xfffffb53
     fdc:	4a4d0321 	bmi	1341c68 <STACK_SIZE+0x133f558>
     fe0:	674b0505 	strbvs	r0, [fp, -r5, lsl #10]
     fe4:	05670d05 	strbeq	r0, [r7, #-3333]!	; 0xfffff2fb
     fe8:	25052e08 	strcs	r2, [r5, #-3592]	; 0xfffff1f8
     fec:	01040200 	mrseq	r0, R12_usr
     ff0:	001e053c 	andseq	r0, lr, ip, lsr r5
     ff4:	2e010402 	cdpcs	4, 0, cr0, cr1, cr2, {0}
     ff8:	053f0505 	ldreq	r0, [pc, #-1285]!	; afb <STACK_SIZE-0x1c15>
     ffc:	22053e48 	andcs	r3, r5, #72, 28	; 0x480
    1000:	740e052e 	strvc	r0, [lr], #-1326	; 0xfffffad2
    1004:	05224b05 	streq	r4, [r2, #-2821]!	; 0xfffff4fb
    1008:	6d052e1f 	stcvs	14, cr2, [r5, #-124]	; 0xffffff84
    100c:	3c0e0582 	cfstr32cc	mvfx0, [lr], {130}	; 0x82
    1010:	052f1505 	streq	r1, [pc, #-1285]!	; b13 <STACK_SIZE-0x1bfd>
    1014:	0f05740e 	svceq	0x0005740e
    1018:	2e050523 	cfsh32cs	mvfx0, mvfx5, #19
    101c:	05670f05 	strbeq	r0, [r7, #-3845]!	; 0xfffff0fb
    1020:	0f052e05 	svceq	0x00052e05
    1024:	2e050568 	cfsh32cs	mvfx0, mvfx5, #56
    1028:	05760f05 	ldrbeq	r0, [r6, #-3845]!	; 0xfffff0fb
    102c:	0f052e05 	svceq	0x00052e05
    1030:	2e050576 	cfrshl64cs	mvdx5, mvdx6, r0
    1034:	05910f05 	ldreq	r0, [r1, #3845]	; 0xf05
    1038:	0f052e05 	svceq	0x00052e05
    103c:	2e050591 	mcrcs	5, 0, r0, cr5, cr1, {4}
    1040:	6d030905 	vstrvs.16	s0, [r3, #-10]	; <UNPREDICTABLE>
    1044:	03010582 	movweq	r0, #5506	; 0x1582
    1048:	20052014 	andcs	r2, r5, r4, lsl r0
    104c:	2f0c05f5 	svccs	0x000c05f5
    1050:	05210105 	streq	r0, [r1, #-261]!	; 0xfffffefb
    1054:	09054015 	stmdbeq	r5, {r0, r2, r4, lr}
    1058:	2101052f 	tstcs	r1, pc, lsr #10
    105c:	053f1905 	ldreq	r1, [pc, #-2309]!	; 75f <STACK_SIZE-0x1fb1>
    1060:	0f052f23 	svceq	0x00052f23
    1064:	583c052e 	ldmdapl	ip!, {r1, r2, r3, r5, r8, sl}
    1068:	05204205 	streq	r4, [r0, #-517]!	; 0xfffffdfb
    106c:	01052e0c 	tsteq	r5, ip, lsl #28
    1070:	5c21053d 	cfstr32pl	mvfx0, [r1], #-244	; 0xffffff0c
    1074:	05670a05 	strbeq	r0, [r7, #-2565]!	; 0xfffff5fb
    1078:	0402000c 	streq	r0, [r2], #-12
    107c:	0a052001 	beq	149088 <STACK_SIZE+0x146978>
    1080:	01040200 	mrseq	r0, R12_usr
    1084:	2119053c 	tstcs	r9, ip, lsr r5
    1088:	052e0505 	streq	r0, [lr, #-1285]!	; 0xfffffafb
    108c:	19056701 	stmdbne	r5, {r0, r8, r9, sl, sp, lr}
    1090:	2f0c0579 	svccs	0x000c0579
    1094:	053d0105 	ldreq	r0, [sp, #-261]!	; 0xfffffefb
    1098:	09053e1b 	stmdbeq	r5, {r0, r1, r3, r4, r9, sl, fp, ip, sp}
    109c:	3c07052f 	cfstr32cc	mvfx0, [r7], {47}	; 0x2f
    10a0:	05211005 	streq	r1, [r1, #-5]!
    10a4:	01053d0c 	tsteq	r5, ip, lsl #26
    10a8:	0003023d 	andeq	r0, r3, sp, lsr r2
    10ac:	Address 0x00000000000010ac is out of bounds.


Disassembly of section .debug_str:

00000000 <.debug_str>:
   0:	20554e47 	subscs	r4, r5, r7, asr #28
   4:	20373143 	eorscs	r3, r7, r3, asr #2
   8:	2e322e39 	mrccs	14, 1, r2, cr2, cr9, {1}
   c:	30322031 	eorscc	r2, r2, r1, lsr r0
  10:	30313931 	eorscc	r3, r1, r1, lsr r9
  14:	28203532 	stmdacs	r0!, {r1, r4, r5, r8, sl, ip, sp}
  18:	656c6572 	strbvs	r6, [ip, #-1394]!	; 0xfffffa8e
  1c:	29657361 	stmdbcs	r5!, {r0, r5, r6, r8, r9, ip, sp, lr}^
  20:	52415b20 	subpl	r5, r1, #32, 22	; 0x8000
  24:	72612f4d 	rsbvc	r2, r1, #308	; 0x134
  28:	2d392d6d 	ldccs	13, cr2, [r9, #-436]!	; 0xfffffe4c
  2c:	6e617262 	cdpvs	2, 6, cr7, cr1, cr2, {3}
  30:	72206863 	eorvc	r6, r0, #6488064	; 0x630000
  34:	73697665 	cmnvc	r9, #105906176	; 0x6500000
  38:	206e6f69 	rsbcs	r6, lr, r9, ror #30
  3c:	35373732 	ldrcc	r3, [r7, #-1842]!	; 0xfffff8ce
  40:	205d3939 	subscs	r3, sp, r9, lsr r9
  44:	68746d2d 	ldmdavs	r4!, {r0, r2, r3, r5, r8, sl, fp, sp, lr}^
  48:	20626d75 	rsbcs	r6, r2, r5, ror sp
  4c:	70636d2d 	rsbvc	r6, r3, sp, lsr #26
  50:	6f633d75 	svcvs	0x00633d75
  54:	78657472 	stmdavc	r5!, {r1, r4, r5, r6, sl, ip, sp, lr}^
  58:	20306d2d 	eorscs	r6, r0, sp, lsr #26
  5c:	6c666d2d 	stclvs	13, cr6, [r6], #-180	; 0xffffff4c
  60:	2d74616f 	ldfcse	f6, [r4, #-444]!	; 0xfffffe44
  64:	3d696261 	sfmcc	f6, 2, [r9, #-388]!	; 0xfffffe7c
  68:	74666f73 	strbtvc	r6, [r6], #-3955	; 0xfffff08d
  6c:	616d2d20 	cmnvs	sp, r0, lsr #26
  70:	3d686372 	stclcc	3, cr6, [r8, #-456]!	; 0xfffffe38
  74:	766d7261 	strbtvc	r7, [sp], -r1, ror #4
  78:	6d2d7336 	stcvs	3, cr7, [sp, #-216]!	; 0xffffff28
  7c:	20672d20 	rsbcs	r2, r7, r0, lsr #26
  80:	7266662d 	rsbvc	r6, r6, #47185920	; 0x2d00000
  84:	74736565 	ldrbtvc	r6, [r3], #-1381	; 0xfffffa9b
  88:	69646e61 	stmdbvs	r4!, {r0, r5, r6, r9, sl, fp, sp, lr}^
  8c:	5000676e 	andpl	r6, r0, lr, ror #14
  90:	5f304f49 	svcpl	0x00304f49
  94:	41545346 	cmpmi	r4, r6, asr #6
  98:	6e690054 	mcrvs	0, 3, r0, cr9, cr4, {2}
  9c:	00786564 	rsbseq	r6, r8, r4, ror #10
  a0:	304f4950 	subcc	r4, pc, r0, asr r9	; <UNPREDICTABLE>
  a4:	5254435f 	subspl	r4, r4, #2080374785	; 0x7c000001
  a8:	6873004c 	ldmdavs	r3!, {r2, r3, r6}^
  ac:	2074726f 	rsbscs	r7, r4, pc, ror #4
  b0:	00746e69 	rsbseq	r6, r4, r9, ror #28
  b4:	304f4950 	subcc	r4, pc, r0, asr r9	; <UNPREDICTABLE>
  b8:	304d535f 	subcc	r5, sp, pc, asr r3
  bc:	4558455f 	ldrbmi	r4, [r8, #-1375]	; 0xfffffaa1
  c0:	52544343 	subspl	r4, r4, #201326593	; 0xc000001
  c4:	4950004c 	ldmdbmi	r0, {r2, r3, r6}^
  c8:	465f304f 	ldrbmi	r3, [pc], -pc, asr #32
  cc:	55424544 	strbpl	r4, [r2, #-1348]	; 0xfffffabc
  d0:	69750047 	ldmdbvs	r5!, {r0, r1, r2, r6}^
  d4:	5f38746e 	svcpl	0x0038746e
  d8:	73750074 	cmnvc	r5, #116, 0	; 0x74
  dc:	705f6365 	subsvc	r6, pc, r5, ror #6
  e0:	625f7265 	subsvs	r7, pc, #1342177286	; 0x50000006
  e4:	62007469 	andvs	r7, r0, #1761607680	; 0x69000000
  e8:	5f647561 	svcpl	0x00647561
  ec:	65746172 	ldrbvs	r6, [r4, #-370]!	; 0xfffffe8e
  f0:	6e6f6c00 	cdpvs	12, 6, cr6, cr15, cr0, {0}
  f4:	6f6c2067 	svcvs	0x006c2067
  f8:	6920676e 	stmdbvs	r0!, {r1, r2, r3, r5, r6, r8, r9, sl, sp, lr}
  fc:	7300746e 	movwvc	r7, #1134	; 0x46e
 100:	62646e65 	rsbvs	r6, r4, #1616	; 0x650
 104:	50007469 	andpl	r7, r0, r9, ror #8
 108:	5f304f49 	svcpl	0x00304f49
 10c:	5f304d53 	svcpl	0x00304d53
 110:	434e4950 	movtmi	r4, #59728	; 0xe950
 114:	004c5254 	subeq	r5, ip, r4, asr r2
 118:	304f4950 	subcc	r4, pc, r0, asr r9	; <UNPREDICTABLE>
 11c:	4658525f 			; <UNDEFINED> instruction: 0x4658525f
 120:	6c670030 	stclvs	0, cr0, [r7], #-192	; 0xffffff40
 124:	6c61626f 	sfmvs	f6, 2, [r1], #-444	; 0xfffffe44
 128:	7261755f 	rsbvc	r7, r1, #398458880	; 0x17c00000
 12c:	65730074 	ldrbvs	r0, [r3, #-116]!	; 0xffffff8c
 130:	625f646e 	subsvs	r6, pc, #1845493760	; 0x6e000000
 134:	6b6e696c 	blvs	1b9a6ec <STACK_SIZE+0x1b97fdc>
 138:	5000632e 	andpl	r6, r0, lr, lsr #6
 13c:	5f304f49 	svcpl	0x00304f49
 140:	56454c46 	strbpl	r4, [r5], -r6, asr #24
 144:	68004c45 	stmdavs	r0, {r0, r2, r6, sl, fp, lr}
 148:	61755f77 	cmnvs	r5, r7, ror pc
 14c:	745f7472 	ldrbvc	r7, [pc], #-1138	; 154 <STACK_SIZE-0x25bc>
 150:	6e6f6c00 	cdpvs	12, 6, cr6, cr15, cr0, {0}
 154:	6f642067 	svcvs	0x00642067
 158:	656c6275 	strbvs	r6, [ip, #-629]!	; 0xfffffd8b
 15c:	75616200 	strbvc	r6, [r1, #-512]!	; 0xfffffe00
 160:	49500064 	ldmdbmi	r0, {r2, r5, r6}^
 164:	535f304f 	cmppl	pc, #79, 0	; 0x4f
 168:	535f304d 	cmppl	pc, #77, 0	; 0x4d
 16c:	54464948 	strbpl	r4, [r6], #-2376	; 0xfffff6b8
 170:	4c525443 	cfldrdmi	mvd5, [r2], {67}	; 0x43
 174:	78697000 	stmdavc	r9!, {ip, sp, lr}^
 178:	6e65735f 	mcrvs	3, 3, r7, cr5, cr15, {2}
 17c:	74796264 	ldrbtvc	r6, [r9], #-612	; 0xfffffd9c
 180:	6e750065 	cdpvs	0, 7, cr0, cr5, cr5, {3}
 184:	6e676973 			; <UNDEFINED> instruction: 0x6e676973
 188:	63206465 			; <UNDEFINED> instruction: 0x63206465
 18c:	00726168 	rsbseq	r6, r2, r8, ror #2
 190:	616d796d 	cmnvs	sp, sp, ror #18
 194:	70006e69 	andvc	r6, r0, r9, ror #28
 198:	665f7869 	ldrbvs	r7, [pc], -r9, ror #16
 19c:	6873756c 	ldmdavs	r3!, {r2, r3, r5, r6, r8, sl, ip, sp, lr}^
 1a0:	6e6f6c00 	cdpvs	12, 6, cr6, cr15, cr0, {0}
 1a4:	6f6c2067 	svcvs	0x006c2067
 1a8:	7520676e 	strvc	r6, [r0, #-1902]!	; 0xfffff892
 1ac:	6769736e 	strbvs	r7, [r9, -lr, ror #6]!
 1b0:	2064656e 	rsbcs	r6, r4, lr, ror #10
 1b4:	00746e69 	rsbseq	r6, r4, r9, ror #28
 1b8:	746e6975 	strbtvc	r6, [lr], #-2421	; 0xfffff68b
 1bc:	745f3233 	ldrbvc	r3, [pc], #-563	; 1c4 <STACK_SIZE-0x254c>
 1c0:	6e697500 	cdpvs	5, 6, cr7, cr9, cr0, {0}
 1c4:	5f363174 	svcpl	0x00363174
 1c8:	68730074 	ldmdavs	r3!, {r2, r4, r5, r6}^
 1cc:	2074726f 	rsbscs	r7, r4, pc, ror #4
 1d0:	69736e75 	ldmdbvs	r3!, {r0, r2, r4, r5, r6, r9, sl, fp, sp, lr}^
 1d4:	64656e67 	strbtvs	r6, [r5], #-3687	; 0xfffff199
 1d8:	746e6920 	strbtvc	r6, [lr], #-2336	; 0xfffff6e0
 1dc:	6f6c6700 	svcvs	0x006c6700
 1e0:	5f6c6162 	svcpl	0x006c6162
 1e4:	755f7768 	ldrbvc	r7, [pc, #-1896]	; fffffa84 <__bss_end__+0xdfff0a64>
 1e8:	00747261 	rsbseq	r7, r4, r1, ror #4
 1ec:	6573552f 	ldrbvs	r5, [r3, #-1327]!	; 0xfffffad1
 1f0:	652f7372 	strvs	r7, [pc, #-882]!	; fffffe86 <__bss_end__+0xdfff0e66>
 1f4:	736e6176 	cmnvc	lr, #-2147483619	; 0x8000001d
 1f8:	63617261 	cmnvs	r1, #268435462	; 0x10000006
 1fc:	442f7961 	strtmi	r7, [pc], #-2401	; 204 <STACK_SIZE-0x250c>
 200:	746b7365 	strbtvc	r7, [fp], #-869	; 0xfffffc9b
 204:	502f706f 	eorpl	r7, pc, pc, rrx
 208:	2f6f6369 	svccs	0x006f6369
 20c:	6f636970 	svcvs	0x00636970
 210:	6f72702d 	svcvs	0x0072702d
 214:	72702f6a 	rsbsvc	r2, r0, #424	; 0x1a8
 218:	6172676f 	cmnvs	r2, pc, ror #14
 21c:	372f736d 	strcc	r7, [pc, -sp, ror #6]!
 220:	3273772d 	rsbscc	r7, r3, #11796480	; 0xb40000
 224:	62323138 	eorsvs	r3, r2, #14
 228:	6f697000 	svcvs	0x00697000
 22c:	736e695f 	cmnvc	lr, #1556480	; 0x17c000
 230:	63757274 	cmnvs	r5, #116, 4	; 0x40000007
 234:	6e6f6974 			; <UNDEFINED> instruction: 0x6e6f6974
 238:	49500073 	ldmdbmi	r0, {r0, r1, r4, r5, r6}^
 23c:	535f304f 	cmppl	pc, #79, 0	; 0x4f
 240:	435f304d 	cmpmi	pc, #77, 0	; 0x4d
 244:	49444b4c 	stmdbmi	r4, {r2, r3, r6, r8, r9, fp, lr}^
 248:	77730056 			; <UNDEFINED> instruction: 0x77730056
 24c:	7261755f 	rsbvc	r7, r1, #398458880	; 0x17c00000
 250:	00745f74 	rsbseq	r5, r4, r4, ror pc
 254:	304f4950 	subcc	r4, pc, r0, asr r9	; <UNPREDICTABLE>
 258:	4658545f 			; <UNDEFINED> instruction: 0x4658545f
 25c:	49500030 	ldmdbmi	r0, {r4, r5}^
 260:	495f304f 	ldmdbmi	pc, {r0, r1, r2, r3, r6, ip, sp}^	; <UNPREDICTABLE>
 264:	5254534e 	subspl	r5, r4, #939524097	; 0x38000001
 268:	4d454d5f 	stclmi	13, cr4, [r5, #-380]	; 0xfffffe84
 26c:	5341425f 	movtpl	r4, #4703	; 0x125f
 270:	74730045 	ldrbtvc	r0, [r3], #-69	; 0xffffffbb
 274:	2e747261 	cdpcs	2, 7, cr7, cr4, cr1, {3}
 278:	552f0053 	strpl	r0, [pc, #-83]!	; 22d <STACK_SIZE-0x24e3>
 27c:	73726573 	cmnvc	r2, #482344960	; 0x1cc00000
 280:	6176652f 	cmnvs	r6, pc, lsr #10
 284:	7261736e 	rsbvc	r7, r1, #-1207959551	; 0xb8000001
 288:	79616361 	stmdbvc	r1!, {r0, r5, r6, r8, r9, sp, lr}^
 28c:	7365442f 	cmnvc	r5, #788529152	; 0x2f000000
 290:	706f746b 	rsbvc	r7, pc, fp, ror #8
 294:	6369502f 	cmnvs	r9, #47, 0	; 0x2f
 298:	69702f6f 	ldmdbvs	r0!, {r0, r1, r2, r3, r5, r6, r8, r9, sl, fp, sp}^
 29c:	702d6f63 	eorvc	r6, sp, r3, ror #30
 2a0:	2f6a6f72 	svccs	0x006a6f72
 2a4:	7062696c 	rsbvc	r6, r2, ip, ror #18
 2a8:	4e470069 	cdpmi	0, 4, cr0, cr7, cr9, {3}
 2ac:	53412055 	movtpl	r2, #4181	; 0x1055
 2b0:	332e3220 			; <UNDEFINED> instruction: 0x332e3220
 2b4:	00312e33 	eorseq	r2, r1, r3, lsr lr
 2b8:	2f637273 	svccs	0x00637273
 2bc:	61747363 	cmnvs	r4, r3, ror #6
 2c0:	632e7472 			; <UNDEFINED> instruction: 0x632e7472
 2c4:	74736300 	ldrbtvc	r6, [r3], #-768	; 0xfffffd00
 2c8:	00747261 	rsbseq	r7, r4, r1, ror #4
 2cc:	73625f5f 	cmnvc	r2, #380	; 0x17c
 2d0:	74735f73 	ldrbtvc	r5, [r3], #-3955	; 0xfffff08d
 2d4:	5f747261 	svcpl	0x00747261
 2d8:	4c43005f 	mcrrmi	0, 5, r0, r3, cr15
 2dc:	45505f4b 	ldrbmi	r5, [r0, #-3915]	; 0xfffff0b5
 2e0:	435f4952 	cmpmi	pc, #1343488	; 0x148000
 2e4:	004c5254 	subeq	r5, ip, r4, asr r2
 2e8:	73625f5f 	cmnvc	r2, #380	; 0x17c
 2ec:	6e655f73 	mcrvs	15, 3, r5, cr5, cr3, {3}
 2f0:	005f5f64 	subseq	r5, pc, r4, ror #30
 2f4:	5f737362 	svcpl	0x00737362
 2f8:	00646e65 	rsbeq	r6, r4, r5, ror #28
 2fc:	4f495047 	svcmi	0x00495047
 300:	5f454f5f 	svcpl	0x00454f5f
 304:	00524c43 	subseq	r4, r2, r3, asr #24
 308:	76697264 	strbtvc	r7, [r9], -r4, ror #4
 30c:	61705f65 	cmnvs	r0, r5, ror #30
 310:	50470064 	subpl	r0, r7, r4, rrx
 314:	4f5f4f49 	svcmi	0x005f4f49
 318:	435f5455 	cmpmi	pc, #1426063360	; 0x55000000
 31c:	4900524c 	stmdbmi	r0, {r2, r3, r6, r9, ip, lr}
 320:	41425f4f 	cmpmi	r2, pc, asr #30
 324:	425f4b4e 	subsmi	r4, pc, #79872	; 0x13800
 328:	5f455341 	svcpl	0x00455341
 32c:	54415453 	strbpl	r5, [r1], #-1107	; 0xfffffbad
 330:	50005355 	andpl	r5, r0, r5, asr r3
 334:	5f534441 	svcpl	0x00534441
 338:	4f495047 	svcmi	0x00495047
 33c:	5341425f 	movtpl	r4, #4703	; 0x125f
 340:	45520045 	ldrbmi	r0, [r2, #-69]	; 0xffffffbb
 344:	5f544553 	svcpl	0x00544553
 348:	53444150 	movtpl	r4, #16720	; 0x4150
 34c:	4e41425f 	mcrmi	2, 2, r4, cr1, cr15, {2}
 350:	5200304b 	andpl	r3, r0, #75, 0	; 0x4b
 354:	54455345 	strbpl	r5, [r5], #-837	; 0xfffffcbb
 358:	4253555f 	subsmi	r5, r3, #398458880	; 0x17c00000
 35c:	4c525443 	cfldrdmi	mvd5, [r2], {67}	; 0x43
 360:	69706700 	ldmdbvs	r0!, {r8, r9, sl, sp, lr}^
 364:	65735f6f 	ldrbvs	r5, [r3, #-3951]!	; 0xfffff091
 368:	6e695f74 	mcrvs	15, 3, r5, cr9, cr4, {3}
 36c:	00747570 	rsbseq	r7, r4, r0, ror r5
 370:	45534552 	ldrbmi	r4, [r3, #-1362]	; 0xfffffaae
 374:	49505f54 	ldmdbmi	r0, {r2, r4, r6, r8, r9, sl, fp, ip, lr}^
 378:	6700304f 	strvs	r3, [r0, -pc, asr #32]
 37c:	5f6f6970 	svcpl	0x006f6970
 380:	64616572 	strbtvs	r6, [r1], #-1394	; 0xfffffa8e
 384:	69706700 	ldmdbvs	r0!, {r8, r9, sl, sp, lr}^
 388:	65735f6f 	ldrbvs	r5, [r3, #-3951]!	; 0xfffff091
 38c:	666f5f74 	uqsub16vs	r5, pc, r4	; <UNPREDICTABLE>
 390:	45520066 	ldrbmi	r0, [r2, #-102]	; 0xffffff9a
 394:	5f544553 	svcpl	0x00544553
 398:	425f4f49 	subsmi	r4, pc, #292	; 0x124
 39c:	304b4e41 	subcc	r4, fp, r1, asr #28
 3a0:	69706700 	ldmdbvs	r0!, {r8, r9, sl, sp, lr}^
 3a4:	65735f6f 	ldrbvs	r5, [r3, #-3951]!	; 0xfffff091
 3a8:	756f5f74 	strbvc	r5, [pc, #-3956]!	; fffff43c <__bss_end__+0xdfff041c>
 3ac:	74757074 	ldrbtvc	r7, [r5], #-116	; 0xffffff8c
 3b0:	54415700 	strbpl	r5, [r1], #-1792	; 0xfffff900
 3b4:	445f4843 	ldrbmi	r4, [pc], #-2115	; 3bc <STACK_SIZE-0x2354>
 3b8:	7200474f 	andvc	r4, r0, #20709376	; 0x13c0000
 3bc:	74657365 	strbtvc	r7, [r5], #-869	; 0xfffffc9b
 3c0:	6f69705f 	svcvs	0x0069705f
 3c4:	49504700 	ldmdbmi	r0, {r8, r9, sl, lr}^
 3c8:	4e495f4f 	cdpmi	15, 4, cr5, cr9, cr15, {2}
 3cc:	53455200 	movtpl	r5, #20992	; 0x5200
 3d0:	445f5445 	ldrbmi	r5, [pc], #-1093	; 3d8 <STACK_SIZE-0x2338>
 3d4:	00454e4f 	subeq	r4, r5, pc, asr #28
 3d8:	53444150 	movtpl	r4, #16720	; 0x4150
 3dc:	4c4f565f 	mcrrmi	6, 5, r5, pc, cr15
 3e0:	45535f54 	ldrbmi	r5, [r3, #-3924]	; 0xfffff0ac
 3e4:	5443454c 	strbpl	r4, [r3], #-1356	; 0xfffffab4
 3e8:	49504700 	ldmdbmi	r0, {r8, r9, sl, lr}^
 3ec:	454f5f4f 	strbmi	r5, [pc, #-3919]	; fffff4a5 <__bss_end__+0xdfff0485>
 3f0:	53455200 	movtpl	r5, #20992	; 0x5200
 3f4:	555f5445 	ldrbpl	r5, [pc, #-1093]	; ffffffb7 <__bss_end__+0xdfff0f97>
 3f8:	30545241 	subscc	r5, r4, r1, asr #4
 3fc:	53455200 	movtpl	r5, #20992	; 0x5200
 400:	555f5445 	ldrbpl	r5, [pc, #-1093]	; ffffffc3 <__bss_end__+0xdfff0fa3>
 404:	31545241 	cmpcc	r4, r1, asr #4
 408:	73657200 	cmnvc	r5, #0, 4
 40c:	705f7465 	subsvc	r7, pc, r5, ror #8
 410:	00736461 	rsbseq	r6, r3, r1, ror #8
 414:	45534552 	ldrbmi	r4, [r3, #-1362]	; 0xfffffaae
 418:	525f5354 	subspl	r5, pc, #84, 6	; 0x50000001
 41c:	54455345 	strbpl	r5, [r5], #-837	; 0xfffffcbb
 420:	524c435f 	subpl	r4, ip, #2080374785	; 0x7c000001
 424:	69706700 	ldmdbvs	r0!, {r8, r9, sl, sp, lr}^
 428:	65725f6f 	ldrbvs	r5, [r2, #-3951]!	; 0xfffff091
 42c:	00746573 	rsbseq	r6, r4, r3, ror r5
 430:	7366666f 	cmnvc	r6, #116391936	; 0x6f00000
 434:	49007465 	stmdbmi	r0, {r0, r2, r5, r6, sl, ip, sp, lr}
 438:	41425f4f 	cmpmi	r2, pc, asr #30
 43c:	425f4b4e 	subsmi	r4, pc, #79872	; 0x13800
 440:	5f455341 	svcpl	0x00455341
 444:	4c525443 	cfldrdmi	mvd5, [r2], {67}	; 0x43
 448:	53455200 	movtpl	r5, #20992	; 0x5200
 44c:	505f5445 	subspl	r5, pc, r5, asr #8
 450:	00314f49 	eorseq	r4, r1, r9, asr #30
 454:	65736572 	ldrbvs	r6, [r3, #-1394]!	; 0xfffffa8e
 458:	65705f74 	ldrbvs	r5, [r0, #-3956]!	; 0xfffff08c
 45c:	68706972 	ldmdavs	r0!, {r1, r4, r5, r6, r8, fp, sp, lr}^
 460:	49504700 	ldmdbmi	r0, {r8, r9, sl, lr}^
 464:	454f5f4f 	strbmi	r5, [pc, #-3919]	; fffff51d <__bss_end__+0xdfff04fd>
 468:	5445535f 	strbpl	r5, [r5], #-863	; 0xfffffca1
 46c:	63727300 	cmnvs	r2, #0, 6
 470:	6970672f 	ldmdbvs	r0!, {r0, r1, r2, r3, r5, r8, r9, sl, sp, lr}^
 474:	00632e6f 	rsbeq	r2, r3, pc, ror #28
 478:	4f495047 	svcmi	0x00495047
 47c:	54554f5f 	ldrbpl	r4, [r5], #-3935	; 0xfffff0a1
 480:	5445535f 	strbpl	r5, [r5], #-863	; 0xfffffca1
 484:	69706700 	ldmdbvs	r0!, {r8, r9, sl, sp, lr}^
 488:	65735f6f 	ldrbvs	r5, [r3, #-3951]!	; 0xfffff091
 48c:	75665f74 	strbvc	r5, [r6, #-3956]!	; 0xfffff08c
 490:	6974636e 	ldmdbvs	r4!, {r1, r2, r3, r5, r6, r8, r9, sp, lr}^
 494:	52006e6f 	andpl	r6, r0, #1776	; 0x6f0
 498:	54455345 	strbpl	r5, [r5], #-837	; 0xfffffcbb
 49c:	49504700 	ldmdbmi	r0, {r8, r9, sl, lr}^
 4a0:	554f5f4f 	strbpl	r5, [pc, #-3919]	; fffff559 <__bss_end__+0xdfff0539>
 4a4:	70670054 	rsbvc	r0, r7, r4, asr r0
 4a8:	735f6f69 	cmpvc	pc, #420	; 0x1a4
 4ac:	6f5f7465 	svcvs	0x005f7465
 4b0:	4f58006e 	svcmi	0x0058006e
 4b4:	445f4353 	ldrbmi	r4, [pc], #-851	; 4bc <STACK_SIZE-0x2254>
 4b8:	414d524f 	cmpmi	sp, pc, asr #4
 4bc:	6300544e 	movwvs	r5, #1102	; 0x44e
 4c0:	746e756f 	strbtvc	r7, [lr], #-1391	; 0xfffffa91
 4c4:	534f5800 	movtpl	r5, #63488	; 0xf800
 4c8:	54535f43 	ldrbpl	r5, [r3], #-3907	; 0xfffff0bd
 4cc:	55545241 	ldrbpl	r5, [r4, #-577]	; 0xfffffdbf
 4d0:	6e650050 	mcrvs	0, 3, r0, cr5, cr0, {2}
 4d4:	656c6261 	strbvs	r6, [ip, #-609]!	; 0xfffffd9f
 4d8:	6b6c635f 	blvs	1b1925c <STACK_SIZE+0x1b16b4c>
 4dc:	7265705f 	rsbvc	r7, r5, #95, 0	; 0x5f
 4e0:	4f580069 	svcmi	0x00580069
 4e4:	535f4353 	cmppl	pc, #1275068417	; 0x4c000001
 4e8:	55544154 	ldrbpl	r4, [r4, #-340]	; 0xfffffeac
 4ec:	65640053 	strbvs	r0, [r4, #-83]!	; 0xffffffad
 4f0:	0079616c 	rsbseq	r6, r9, ip, ror #2
 4f4:	72756f73 	rsbsvc	r6, r5, #460	; 0x1cc
 4f8:	73006563 	movwvc	r6, #1379	; 0x563
 4fc:	632f6372 			; <UNDEFINED> instruction: 0x632f6372
 500:	6b636f6c 	blvs	18dc2b8 <STACK_SIZE+0x18d9ba8>
 504:	6400632e 	strvs	r6, [r0], #-814	; 0xfffffcd2
 508:	79616c65 	stmdbvc	r1!, {r0, r2, r5, r6, sl, fp, sp, lr}^
 50c:	0073755f 	rsbseq	r7, r3, pc, asr r5
 510:	43534f58 	cmpmi	r3, #88, 30	; 0x160
 514:	554f435f 	strbpl	r4, [pc, #-863]	; 1bd <STACK_SIZE-0x2553>
 518:	6d00544e 	cfstrsvs	mvf5, [r0, #-312]	; 0xfffffec8
 51c:	6f726369 	svcvs	0x00726369
 520:	6365735f 	cmnvs	r5, #2080374785	; 0x7c000001
 524:	73646e6f 	cmnvc	r4, #1776	; 0x6f0
 528:	6174735f 	cmnvs	r4, pc, asr r3
 52c:	65007472 	strvs	r7, [r0, #-1138]	; 0xfffffb8e
 530:	6c62616e 	stfvse	f6, [r2], #-440	; 0xfffffe48
 534:	6c635f65 	stclvs	15, cr5, [r3], #-404	; 0xfffffe6c
 538:	006b636f 	rsbeq	r6, fp, pc, ror #6
 53c:	5f6d756e 	svcpl	0x006d756e
 540:	706f6f6c 	rsbvc	r6, pc, ip, ror #30
 544:	4f580073 	svcmi	0x00580073
 548:	435f4353 	cmpmi	pc, #1275068417	; 0x4c000001
 54c:	004c5254 	subeq	r5, ip, r4, asr r2
 550:	62616e65 	rsbvs	r6, r1, #1616	; 0x650
 554:	735f656c 	cmpvc	pc, #108, 10	; 0x1b000000
 558:	5f007379 	svcpl	0x00007379
 55c:	6c6f6f42 	stclvs	15, cr6, [pc], #-264	; 45c <STACK_SIZE-0x22b4>
 560:	65737500 	ldrbvs	r7, [r3, #-1280]!	; 0xfffffb00
 564:	72730063 	rsbsvc	r0, r3, #99, 0	; 0x63
 568:	77732f63 	ldrbvc	r2, [r3, -r3, ror #30]!
 56c:	7261752d 	rsbvc	r7, r1, #188743680	; 0xb400000
 570:	00632e74 	rsbeq	r2, r3, r4, ror lr
 574:	755f7773 	ldrbvc	r7, [pc, #-1907]	; fffffe09 <__bss_end__+0xdfff0de9>
 578:	5f747261 	svcpl	0x00747261
 57c:	63747570 	cmnvs	r4, #112, 10	; 0x1c000000
 580:	6d697400 	cfstrdvs	mvd7, [r9, #-0]
 584:	775f6465 	ldrbvc	r6, [pc, -r5, ror #8]
 588:	65746972 	ldrbvs	r6, [r4, #-2418]!	; 0xfffff68e
 58c:	696e6900 	stmdbvs	lr!, {r8, fp, sp, lr}^
 590:	61755f74 	cmnvs	r5, r4, ror pc
 594:	705f7472 	subsvc	r7, pc, r2, ror r4	; <UNPREDICTABLE>
 598:	746e6972 	strbtvc	r6, [lr], #-2418	; 0xfffff68e
 59c:	00676e69 	rsbeq	r6, r7, r9, ror #28
 5a0:	755f7773 	ldrbvc	r7, [pc, #-1907]	; fffffe35 <__bss_end__+0xdfff0e15>
 5a4:	5f747261 	svcpl	0x00747261
 5a8:	6b747570 	blvs	1d1db70 <STACK_SIZE+0x1d1b460>
 5ac:	73657200 	cmnvc	r5, #0, 4
 5b0:	00746c75 	rsbseq	r6, r4, r5, ror ip
 5b4:	5f74756f 	svcpl	0x0074756f
 5b8:	5f746366 	svcpl	0x00746366
 5bc:	70617277 	rsbvc	r7, r1, r7, ror r2
 5c0:	756f5f00 	strbvc	r5, [pc, #-3840]!	; fffff6c8 <__bss_end__+0xdfff06a8>
 5c4:	75625f74 	strbvc	r5, [r2, #-3956]!	; 0xfffff08c
 5c8:	72656666 	rsbvc	r6, r5, #106954752	; 0x6600000
 5cc:	6e697500 	cdpvs	5, 6, cr7, cr9, cr0, {0}
 5d0:	5f343674 	svcpl	0x00343674
 5d4:	69730074 	ldmdbvs	r3!, {r2, r4, r5, r6}^
 5d8:	745f657a 	ldrbvc	r6, [pc], #-1402	; 5e0 <STACK_SIZE-0x2130>
 5dc:	756f5f00 	strbvc	r5, [pc, #-3840]!	; fffff6e4 <__bss_end__+0xdfff06c4>
 5e0:	68635f74 	stmdavs	r3!, {r2, r4, r5, r6, r8, r9, sl, fp, ip, lr}^
 5e4:	6d007261 	sfmvs	f7, 4, [r0, #-388]	; 0xfffffe7c
 5e8:	69737861 	ldmdbvs	r3!, {r0, r5, r6, fp, ip, sp, lr}^
 5ec:	6900657a 	stmdbvs	r0, {r1, r3, r4, r5, r6, r8, sl, sp, lr}
 5f0:	00646f6d 	rsbeq	r6, r4, sp, ror #30
 5f4:	756c6176 	strbvc	r6, [ip, #-374]!	; 0xfffffe8a
 5f8:	6f5f0065 	svcvs	0x005f0065
 5fc:	665f7475 			; <UNDEFINED> instruction: 0x665f7475
 600:	75007463 	strvc	r7, [r0, #-1123]	; 0xfffffb9d
 604:	70746e69 	rsbsvc	r6, r4, r9, ror #28
 608:	745f7274 	ldrbvc	r7, [pc], #-628	; 610 <STACK_SIZE-0x2100>
 60c:	61747300 	cmnvs	r4, r0, lsl #6
 610:	695f7472 	ldmdbvs	pc, {r1, r4, r5, r6, sl, ip, sp, lr}^	; <UNPREDICTABLE>
 614:	73007864 	movwvc	r7, #2148	; 0x864
 618:	702f6372 	eorvc	r6, pc, r2, ror r3	; <UNPREDICTABLE>
 61c:	746e6972 	strbtvc	r6, [lr], #-2418	; 0xfffff68e
 620:	00632e66 	rsbeq	r2, r3, r6, ror #28
 624:	74646977 	strbtvc	r6, [r4], #-2423	; 0xfffff689
 628:	63660068 	cmnvs	r6, #104, 0	; 0x68
 62c:	69727074 	ldmdbvs	r2!, {r2, r4, r5, r6, ip, sp, lr}^
 630:	0066746e 	rsbeq	r7, r6, lr, ror #8
 634:	6167656e 	cmnvs	r7, lr, ror #10
 638:	65766974 	ldrbvs	r6, [r6, #-2420]!	; 0xfffff68c
 63c:	765f5f00 	ldrbvc	r5, [pc], -r0, lsl #30
 640:	696c5f61 	stmdbvs	ip!, {r0, r5, r6, r8, r9, sl, fp, ip, lr}^
 644:	69007473 	stmdbvs	r0, {r0, r1, r4, r5, r6, sl, ip, sp, lr}
 648:	00736261 	rsbseq	r6, r3, r1, ror #4
 64c:	6f746e5f 	svcvs	0x00746e5f
 650:	6f665f61 	svcvs	0x00665f61
 654:	74616d72 	strbtvc	r6, [r1], #-3442	; 0xfffff28e
 658:	756f5f00 	strbvc	r5, [pc, #-3840]!	; fffff760 <__bss_end__+0xdfff0740>
 65c:	756e5f74 	strbvc	r5, [lr, #-3956]!	; 0xfffff08c
 660:	75006c6c 	strvc	r6, [r0, #-3180]	; 0xfffff394
 664:	00766964 	rsbseq	r6, r6, r4, ror #18
 668:	5f74756f 	svcpl	0x0074756f
 66c:	5f746366 	svcpl	0x00746366
 670:	65707974 	ldrbvs	r7, [r0, #-2420]!	; 0xfffff68c
 674:	746e5f00 	strbtvc	r5, [lr], #-3840	; 0xfffff100
 678:	6c5f616f 	ldfvse	f6, [pc], {111}	; 0x6f
 67c:	00676e6f 	rsbeq	r6, r7, pc, ror #28
 680:	67616c66 	strbvs	r6, [r1, -r6, ror #24]!
 684:	5f5f0073 	svcpl	0x005f0073
 688:	76007061 	strvc	r7, [r0], -r1, rrx
 68c:	72706e73 	rsbsvc	r6, r0, #1840	; 0x730
 690:	66746e69 	ldrbtvs	r6, [r4], -r9, ror #28
 694:	616d005f 	qdsubvs	r0, pc, sp	; <UNPREDICTABLE>
 698:	6e656c78 	mcrvs	12, 3, r6, cr5, cr8, {3}
 69c:	74615f00 	strbtvc	r5, [r1], #-3840	; 0xfffff100
 6a0:	5f00696f 	svcpl	0x0000696f
 6a4:	6e727473 	mrcvs	4, 3, r7, cr2, cr3, {3}
 6a8:	5f6e656c 	svcpl	0x006e656c
 6ac:	70730073 	rsbsvc	r0, r3, r3, ror r0
 6b0:	746e6972 	strbtvc	r6, [lr], #-2418	; 0xfffff68e
 6b4:	5f005f66 	svcpl	0x00005f66
 6b8:	645f7369 	ldrbvs	r7, [pc], #-873	; 6c0 <STACK_SIZE-0x2050>
 6bc:	74696769 	strbtvc	r6, [r9], #-1897	; 0xfffff897
 6c0:	73765f00 	cmnvc	r6, #0, 30
 6c4:	6972706e 	ldmdbvs	r2!, {r1, r2, r3, r5, r6, ip, sp, lr}^
 6c8:	0066746e 	rsbeq	r7, r6, lr, ror #8
 6cc:	72616863 	rsbvc	r6, r1, #6488064	; 0x630000
 6d0:	65746361 	ldrbvs	r6, [r4, #-865]!	; 0xfffffc9f
 6d4:	6f5f0072 	svcvs	0x005f0072
 6d8:	725f7475 	subsvc	r7, pc, #1962934272	; 0x75000000
 6dc:	69007665 	stmdbvs	r0, {r0, r2, r5, r6, r9, sl, ip, sp, lr}
 6e0:	00766964 	rsbseq	r6, r6, r4, ror #18
 6e4:	7475705f 	ldrbtvc	r7, [r5], #-95	; 0xffffffa1
 6e8:	72616863 	rsbvc	r6, r1, #6488064	; 0x630000
 6ec:	74756f00 	ldrbtvc	r6, [r5], #-3840	; 0xfffff100
 6f0:	7463665f 	strbtvc	r6, [r3], #-1631	; 0xfffff9a1
 6f4:	6172775f 	cmnvs	r2, pc, asr r7
 6f8:	79745f70 	ldmdbvc	r4!, {r4, r5, r6, r8, r9, sl, fp, ip, lr}^
 6fc:	70006570 	andvc	r6, r0, r0, ror r5
 700:	00636572 	rsbeq	r6, r3, r2, ror r5
 704:	6e675f5f 	mcrvs	15, 3, r5, cr7, cr15, {2}
 708:	765f6375 			; <UNDEFINED> instruction: 0x765f6375
 70c:	696c5f61 	stmdbvs	ip!, {r0, r5, r6, r8, r9, sl, fp, ip, lr}^
 710:	62007473 	andvs	r7, r0, #1929379840	; 0x73000000
 714:	00657361 	rsbeq	r7, r5, r1, ror #6
 718:	6c766964 			; <UNDEFINED> instruction: 0x6c766964
 71c:	72700075 	rsbsvc	r0, r0, #117, 0	; 0x75
 720:	73696365 	cmnvc	r9, #-1811939327	; 0x94000001
 724:	006e6f69 	rsbeq	r6, lr, r9, ror #30
 728:	69727076 	ldmdbvs	r2!, {r1, r2, r4, r5, r6, ip, sp, lr}^
 72c:	5f66746e 	svcpl	0x0066746e
 730:	72617500 	rsbvc	r7, r1, #0, 10
 734:	6e695f74 	mcrvs	15, 3, r5, cr9, cr4, {3}
 738:	73007469 	movwvc	r7, #1129	; 0x469
 73c:	752f6372 	strvc	r6, [pc, #-882]!	; 3d2 <STACK_SIZE-0x233e>
 740:	2e747261 	cdpcs	2, 7, cr7, cr4, cr1, {3}
 744:	55460063 	strbpl	r0, [r6, #-99]	; 0xffffff9d
 748:	535f434e 	cmppl	pc, #939524097	; 0x38000001
 74c:	55004f49 	strpl	r4, [r0, #-3913]	; 0xfffff0b7
 750:	5f545241 	svcpl	0x00545241
 754:	44524249 	ldrbmi	r4, [r2], #-585	; 0xfffffdb7
 758:	46464f5f 			; <UNDEFINED> instruction: 0x46464f5f
 75c:	00544553 	subseq	r4, r4, r3, asr r5
 760:	74726175 	ldrbtvc	r6, [r2], #-373	; 0xfffffe8b
 764:	7465675f 	strbtvc	r6, [r5], #-1887	; 0xfffff8a1
 768:	73615f63 	cmnvc	r1, #396	; 0x18c
 76c:	00636e79 	rsbeq	r6, r3, r9, ror lr
 770:	54524155 	ldrbpl	r4, [r2], #-341	; 0xfffffeab
 774:	5254435f 	subspl	r4, r4, #2080374785	; 0x7c000001
 778:	464f5f4c 	strbmi	r5, [pc], -ip, asr #30
 77c:	54455346 	strbpl	r5, [r5], #-838	; 0xfffffcba
 780:	72617500 	rsbvc	r7, r1, #0, 10
 784:	61635f74 	smcvs	13812	; 0x35f4
 788:	75705f6e 	ldrbvc	r5, [r0, #-3950]!	; 0xfffff092
 78c:	55006374 	strpl	r6, [r0, #-884]	; 0xfffffc8c
 790:	5f545241 	svcpl	0x00545241
 794:	5f52434c 	svcpl	0x0052434c
 798:	5346464f 	movtpl	r4, #26191	; 0x664f
 79c:	55005445 	strpl	r5, [r0, #-1093]	; 0xfffffbbb
 7a0:	5f545241 	svcpl	0x00545241
 7a4:	41544144 	cmpmi	r4, r4, asr #2
 7a8:	46464f5f 			; <UNDEFINED> instruction: 0x46464f5f
 7ac:	00544553 	subseq	r4, r4, r3, asr r5
 7b0:	74726175 	ldrbtvc	r6, [r2], #-373	; 0xfffffe8b
 7b4:	7465675f 	strbtvc	r6, [r5], #-1887	; 0xfffff8a1
 7b8:	41550063 	cmpmi	r5, r3, rrx
 7bc:	525f5452 	subspl	r5, pc, #1375731712	; 0x52000000
 7c0:	4f5f5253 	svcmi	0x005f5253
 7c4:	45534646 	ldrbmi	r4, [r3, #-1606]	; 0xfffff9ba
 7c8:	62660054 	rsbvs	r0, r6, #84, 0	; 0x54
 7cc:	62006472 	andvs	r6, r0, #1912602624	; 0x72000000
 7d0:	5f647561 	svcpl	0x00647561
 7d4:	65746172 	ldrbvs	r6, [r4, #-370]!	; 0xfffffe8e
 7d8:	7669645f 			; <UNDEFINED> instruction: 0x7669645f
 7dc:	726f7369 	rsbvc	r7, pc, #-1543503871	; 0xa4000001
 7e0:	72617500 	rsbvc	r7, r1, #0, 10
 7e4:	61685f74 	smcvs	34292	; 0x85f4
 7e8:	61645f73 	smcvs	17907	; 0x45f3
 7ec:	62006174 	andvs	r6, r0, #29
 7f0:	5f647561 	svcpl	0x00647561
 7f4:	65746172 	ldrbvs	r6, [r4, #-370]!	; 0xfffffe8e
 7f8:	6172665f 	cmnvs	r2, pc, asr r6
 7fc:	61750063 	cmnvs	r5, r3, rrx
 800:	635f7472 	cmpvs	pc, #1912602624	; 0x72000000
 804:	675f6e61 	ldrbvs	r6, [pc, -r1, ror #28]
 808:	00637465 	rsbeq	r7, r3, r5, ror #8
 80c:	54524155 	ldrbpl	r4, [r2], #-341	; 0xfffffeab
 810:	5242465f 	subpl	r4, r2, #99614720	; 0x5f00000
 814:	464f5f44 	strbmi	r5, [pc], -r4, asr #30
 818:	54455346 	strbpl	r5, [r5], #-838	; 0xfffffcba
 81c:	52415500 	subpl	r5, r1, #0, 10
 820:	52465f54 	subpl	r5, r6, #84, 30	; 0x150
 824:	46464f5f 			; <UNDEFINED> instruction: 0x46464f5f
 828:	00544553 	subseq	r4, r4, r3, asr r5

Disassembly of section .comment:

00000000 <.comment>:
   0:	3a434347 	bcc	10d0d24 <STACK_SIZE+0x10ce614>
   4:	4e472820 	cdpmi	8, 4, cr2, cr7, cr0, {1}
   8:	6f542055 	svcvs	0x00542055
   c:	20736c6f 	rsbscs	r6, r3, pc, ror #24
  10:	20726f66 	rsbscs	r6, r2, r6, ror #30
  14:	206d7241 	rsbcs	r7, sp, r1, asr #4
  18:	65626d45 	strbvs	r6, [r2, #-3397]!	; 0xfffff2bb
  1c:	64656464 	strbtvs	r6, [r5], #-1124	; 0xfffffb9c
  20:	6f725020 	svcvs	0x00725020
  24:	73736563 	cmnvc	r3, #415236096	; 0x18c00000
  28:	2073726f 	rsbscs	r7, r3, pc, ror #4
  2c:	30322d39 	eorscc	r2, r2, r9, lsr sp
  30:	712d3931 			; <UNDEFINED> instruction: 0x712d3931
  34:	616d2d34 	cmnvs	sp, r4, lsr sp
  38:	29726f6a 	ldmdbcs	r2!, {r1, r3, r5, r6, r8, r9, sl, fp, sp, lr}^
  3c:	322e3920 	eorcc	r3, lr, #32, 18	; 0x80000
  40:	3220312e 	eorcc	r3, r0, #-2147483637	; 0x8000000b
  44:	31393130 	teqcc	r9, r0, lsr r1
  48:	20353230 	eorscs	r3, r5, r0, lsr r2
  4c:	6c657228 	sfmvs	f7, 2, [r5], #-160	; 0xffffff60
  50:	65736165 	ldrbvs	r6, [r3, #-357]!	; 0xfffffe9b
  54:	415b2029 	cmpmi	fp, r9, lsr #32
  58:	612f4d52 			; <UNDEFINED> instruction: 0x612f4d52
  5c:	392d6d72 	pushcc	{r1, r4, r5, r6, r8, sl, fp, sp, lr}
  60:	6172622d 	cmnvs	r2, sp, lsr #4
  64:	2068636e 	rsbcs	r6, r8, lr, ror #6
  68:	69766572 	ldmdbvs	r6!, {r1, r4, r5, r6, r8, sl, sp, lr}^
  6c:	6e6f6973 			; <UNDEFINED> instruction: 0x6e6f6973
  70:	37373220 	ldrcc	r3, [r7, -r0, lsr #4]!
  74:	5d393935 			; <UNDEFINED> instruction: 0x5d393935
	...

Disassembly of section .ARM.attributes:

00000000 <.ARM.attributes>:
   0:	00002941 	andeq	r2, r0, r1, asr #18
   4:	61656100 	cmnvs	r5, r0, lsl #2
   8:	01006962 	tsteq	r0, r2, ror #18
   c:	0000001f 	andeq	r0, r0, pc, lsl r0
  10:	2d533605 	ldclcs	6, cr3, [r3, #-20]	; 0xffffffec
  14:	0c06004d 	stceq	0, cr0, [r6], {77}	; 0x4d
  18:	01094d07 	tsteq	r9, r7, lsl #26
  1c:	01140412 	tsteq	r4, r2, lsl r4
  20:	03170115 	tsteq	r7, #1073741829	; 0x40000005
  24:	011a0118 	tsteq	sl, r8, lsl r1
  28:	Address 0x0000000000000028 is out of bounds.


Disassembly of section .debug_frame:

00000000 <.debug_frame>:
   0:	0000000c 	andeq	r0, r0, ip
   4:	ffffffff 			; <UNDEFINED> instruction: 0xffffffff
   8:	7c020001 	stcvc	0, cr0, [r2], {1}
   c:	000d0c0e 	andeq	r0, sp, lr, lsl #24
  10:	0000001c 	andeq	r0, r0, ip, lsl r0
  14:	00000000 	andeq	r0, r0, r0
  18:	2000011c 	andcs	r0, r0, ip, lsl r1
  1c:	00000020 	andeq	r0, r0, r0, lsr #32
  20:	87080e41 	strhi	r0, [r8, -r1, asr #28]
  24:	41018e02 	tstmi	r1, r2, lsl #28
  28:	0d41100e 	stcleq	0, cr1, [r1, #-56]	; 0xffffffc8
  2c:	00000007 	andeq	r0, r0, r7
  30:	0000001c 	andeq	r0, r0, ip, lsl r0
  34:	00000000 	andeq	r0, r0, r0
  38:	2000013c 	andcs	r0, r0, ip, lsr r1
  3c:	0000002c 	andeq	r0, r0, ip, lsr #32
  40:	87080e41 	strhi	r0, [r8, -r1, asr #28]
  44:	41018e02 	tstmi	r1, r2, lsl #28
  48:	0d41100e 	stcleq	0, cr1, [r1, #-56]	; 0xffffffc8
  4c:	00000007 	andeq	r0, r0, r7
  50:	0000001c 	andeq	r0, r0, ip, lsl r0
  54:	00000000 	andeq	r0, r0, r0
  58:	20000168 	andcs	r0, r0, r8, ror #2
  5c:	0000003e 	andeq	r0, r0, lr, lsr r0
  60:	87080e41 	strhi	r0, [r8, -r1, asr #28]
  64:	41018e02 	tstmi	r1, r2, lsl #28
  68:	0d41180e 	stcleq	8, cr1, [r1, #-56]	; 0xffffffc8
  6c:	00000007 	andeq	r0, r0, r7
  70:	0000001c 	andeq	r0, r0, ip, lsl r0
  74:	00000000 	andeq	r0, r0, r0
  78:	200001a6 	andcs	r0, r0, r6, lsr #3
  7c:	0000010e 	andeq	r0, r0, lr, lsl #2
  80:	87080e41 	strhi	r0, [r8, -r1, asr #28]
  84:	41018e02 	tstmi	r1, r2, lsl #28
  88:	0d41200e 	stcleq	0, cr2, [r1, #-56]	; 0xffffffc8
  8c:	00000007 	andeq	r0, r0, r7
  90:	0000000c 	andeq	r0, r0, ip
  94:	ffffffff 			; <UNDEFINED> instruction: 0xffffffff
  98:	7c020001 	stcvc	0, cr0, [r2], {1}
  9c:	000d0c0e 	andeq	r0, sp, lr, lsl #24
  a0:	0000001c 	andeq	r0, r0, ip, lsl r0
  a4:	00000090 	muleq	r0, r0, r0
  a8:	200002b4 			; <UNDEFINED> instruction: 0x200002b4
  ac:	00000080 	andeq	r0, r0, r0, lsl #1
  b0:	87080e41 	strhi	r0, [r8, -r1, asr #28]
  b4:	41018e02 	tstmi	r1, r2, lsl #28
  b8:	0d41100e 	stcleq	0, cr1, [r1, #-56]	; 0xffffffc8
  bc:	00000007 	andeq	r0, r0, r7
  c0:	0000000c 	andeq	r0, r0, ip
  c4:	ffffffff 			; <UNDEFINED> instruction: 0xffffffff
  c8:	7c020001 	stcvc	0, cr0, [r2], {1}
  cc:	000d0c0e 	andeq	r0, sp, lr, lsl #24
  d0:	0000001c 	andeq	r0, r0, ip, lsl r0
  d4:	000000c0 	andeq	r0, r0, r0, asr #1
  d8:	20000334 	andcs	r0, r0, r4, lsr r3
  dc:	00000048 	andeq	r0, r0, r8, asr #32
  e0:	87080e41 	strhi	r0, [r8, -r1, asr #28]
  e4:	41018e02 	tstmi	r1, r2, lsl #28
  e8:	0d41100e 	stcleq	0, cr1, [r1, #-56]	; 0xffffffc8
  ec:	00000007 	andeq	r0, r0, r7
  f0:	00000018 	andeq	r0, r0, r8, lsl r0
  f4:	000000c0 	andeq	r0, r0, r0, asr #1
  f8:	2000037c 	andcs	r0, r0, ip, ror r3
  fc:	00000010 	andeq	r0, r0, r0, lsl r0
 100:	87080e41 	strhi	r0, [r8, -r1, asr #28]
 104:	41018e02 	tstmi	r1, r2, lsl #28
 108:	0000070d 	andeq	r0, r0, sp, lsl #14
 10c:	0000001c 	andeq	r0, r0, ip, lsl r0
 110:	000000c0 	andeq	r0, r0, r0, asr #1
 114:	2000038c 	andcs	r0, r0, ip, lsl #7
 118:	00000040 	andeq	r0, r0, r0, asr #32
 11c:	87080e41 	strhi	r0, [r8, -r1, asr #28]
 120:	41018e02 	tstmi	r1, r2, lsl #28
 124:	0d41180e 	stcleq	8, cr1, [r1, #-56]	; 0xffffffc8
 128:	00000007 	andeq	r0, r0, r7
 12c:	0000001c 	andeq	r0, r0, ip, lsl r0
 130:	000000c0 	andeq	r0, r0, r0, asr #1
 134:	200003cc 	andcs	r0, r0, ip, asr #7
 138:	00000040 	andeq	r0, r0, r0, asr #32
 13c:	87080e41 	strhi	r0, [r8, -r1, asr #28]
 140:	41018e02 	tstmi	r1, r2, lsl #28
 144:	0d41180e 	stcleq	8, cr1, [r1, #-56]	; 0xffffffc8
 148:	00000007 	andeq	r0, r0, r7
 14c:	0000001c 	andeq	r0, r0, ip, lsl r0
 150:	000000c0 	andeq	r0, r0, r0, asr #1
 154:	2000040c 	andcs	r0, r0, ip, lsl #8
 158:	00000034 	andeq	r0, r0, r4, lsr r0
 15c:	87080e41 	strhi	r0, [r8, -r1, asr #28]
 160:	41018e02 	tstmi	r1, r2, lsl #28
 164:	0d41100e 	stcleq	0, cr1, [r1, #-56]	; 0xffffffc8
 168:	00000007 	andeq	r0, r0, r7
 16c:	0000001c 	andeq	r0, r0, ip, lsl r0
 170:	000000c0 	andeq	r0, r0, r0, asr #1
 174:	20000440 	andcs	r0, r0, r0, asr #8
 178:	0000007c 	andeq	r0, r0, ip, ror r0
 17c:	87080e41 	strhi	r0, [r8, -r1, asr #28]
 180:	41018e02 	tstmi	r1, r2, lsl #28
 184:	0d41180e 	stcleq	8, cr1, [r1, #-56]	; 0xffffffc8
 188:	00000007 	andeq	r0, r0, r7
 18c:	0000001c 	andeq	r0, r0, ip, lsl r0
 190:	000000c0 	andeq	r0, r0, r0, asr #1
 194:	200004bc 			; <UNDEFINED> instruction: 0x200004bc
 198:	00000030 	andeq	r0, r0, r0, lsr r0
 19c:	87080e41 	strhi	r0, [r8, -r1, asr #28]
 1a0:	41018e02 	tstmi	r1, r2, lsl #28
 1a4:	0d41100e 	stcleq	0, cr1, [r1, #-56]	; 0xffffffc8
 1a8:	00000007 	andeq	r0, r0, r7
 1ac:	0000001c 	andeq	r0, r0, ip, lsl r0
 1b0:	000000c0 	andeq	r0, r0, r0, asr #1
 1b4:	200004ec 	andcs	r0, r0, ip, ror #9
 1b8:	00000030 	andeq	r0, r0, r0, lsr r0
 1bc:	87080e41 	strhi	r0, [r8, -r1, asr #28]
 1c0:	41018e02 	tstmi	r1, r2, lsl #28
 1c4:	0d41100e 	stcleq	0, cr1, [r1, #-56]	; 0xffffffc8
 1c8:	00000007 	andeq	r0, r0, r7
 1cc:	00000018 	andeq	r0, r0, r8, lsl r0
 1d0:	000000c0 	andeq	r0, r0, r0, asr #1
 1d4:	2000051c 	andcs	r0, r0, ip, lsl r5
 1d8:	00000010 	andeq	r0, r0, r0, lsl r0
 1dc:	87080e41 	strhi	r0, [r8, -r1, asr #28]
 1e0:	41018e02 	tstmi	r1, r2, lsl #28
 1e4:	0000070d 	andeq	r0, r0, sp, lsl #14
 1e8:	00000018 	andeq	r0, r0, r8, lsl r0
 1ec:	000000c0 	andeq	r0, r0, r0, asr #1
 1f0:	2000052c 	andcs	r0, r0, ip, lsr #10
 1f4:	00000010 	andeq	r0, r0, r0, lsl r0
 1f8:	87080e41 	strhi	r0, [r8, -r1, asr #28]
 1fc:	41018e02 	tstmi	r1, r2, lsl #28
 200:	0000070d 	andeq	r0, r0, sp, lsl #14
 204:	0000001c 	andeq	r0, r0, ip, lsl r0
 208:	000000c0 	andeq	r0, r0, r0, asr #1
 20c:	2000053c 	andcs	r0, r0, ip, lsr r5
 210:	00000034 	andeq	r0, r0, r4, lsr r0
 214:	87080e41 	strhi	r0, [r8, -r1, asr #28]
 218:	41018e02 	tstmi	r1, r2, lsl #28
 21c:	0d41180e 	stcleq	8, cr1, [r1, #-56]	; 0xffffffc8
 220:	00000007 	andeq	r0, r0, r7
 224:	0000000c 	andeq	r0, r0, ip
 228:	ffffffff 			; <UNDEFINED> instruction: 0xffffffff
 22c:	7c020001 	stcvc	0, cr0, [r2], {1}
 230:	000d0c0e 	andeq	r0, sp, lr, lsl #24
 234:	00000018 	andeq	r0, r0, r8, lsl r0
 238:	00000224 	andeq	r0, r0, r4, lsr #4
 23c:	20000570 	andcs	r0, r0, r0, ror r5
 240:	0000005c 	andeq	r0, r0, ip, asr r0
 244:	87080e41 	strhi	r0, [r8, -r1, asr #28]
 248:	41018e02 	tstmi	r1, r2, lsl #28
 24c:	0000070d 	andeq	r0, r0, sp, lsl #14
 250:	0000001c 	andeq	r0, r0, ip, lsl r0
 254:	00000224 	andeq	r0, r0, r4, lsr #4
 258:	200005cc 	andcs	r0, r0, ip, asr #11
 25c:	00000084 	andeq	r0, r0, r4, lsl #1
 260:	87080e41 	strhi	r0, [r8, -r1, asr #28]
 264:	41018e02 	tstmi	r1, r2, lsl #28
 268:	0d41180e 	stcleq	8, cr1, [r1, #-56]	; 0xffffffc8
 26c:	00000007 	andeq	r0, r0, r7
 270:	0000001c 	andeq	r0, r0, ip, lsl r0
 274:	00000224 	andeq	r0, r0, r4, lsr #4
 278:	20000650 	andcs	r0, r0, r0, asr r6
 27c:	00000058 	andeq	r0, r0, r8, asr r0
 280:	87080e41 	strhi	r0, [r8, -r1, asr #28]
 284:	41018e02 	tstmi	r1, r2, lsl #28
 288:	0d41180e 	stcleq	8, cr1, [r1, #-56]	; 0xffffffc8
 28c:	00000007 	andeq	r0, r0, r7
 290:	0000001c 	andeq	r0, r0, ip, lsl r0
 294:	00000224 	andeq	r0, r0, r4, lsr #4
 298:	200006a8 	andcs	r0, r0, r8, lsr #13
 29c:	00000048 	andeq	r0, r0, r8, asr #32
 2a0:	87080e41 	strhi	r0, [r8, -r1, asr #28]
 2a4:	41018e02 	tstmi	r1, r2, lsl #28
 2a8:	0d41100e 	stcleq	0, cr1, [r1, #-56]	; 0xffffffc8
 2ac:	00000007 	andeq	r0, r0, r7
 2b0:	0000001c 	andeq	r0, r0, ip, lsl r0
 2b4:	00000224 	andeq	r0, r0, r4, lsr #4
 2b8:	200006f0 	strdcs	r0, [r0], -r0	; <UNPREDICTABLE>
 2bc:	00000038 	andeq	r0, r0, r8, lsr r0
 2c0:	87080e41 	strhi	r0, [r8, -r1, asr #28]
 2c4:	41018e02 	tstmi	r1, r2, lsl #28
 2c8:	0d41100e 	stcleq	0, cr1, [r1, #-56]	; 0xffffffc8
 2cc:	00000007 	andeq	r0, r0, r7
 2d0:	0000000c 	andeq	r0, r0, ip
 2d4:	ffffffff 			; <UNDEFINED> instruction: 0xffffffff
 2d8:	7c020001 	stcvc	0, cr0, [r2], {1}
 2dc:	000d0c0e 	andeq	r0, sp, lr, lsl #24
 2e0:	0000001c 	andeq	r0, r0, ip, lsl r0
 2e4:	000002d0 	ldrdeq	r0, [r0], -r0	; <UNPREDICTABLE>
 2e8:	20000728 	andcs	r0, r0, r8, lsr #14
 2ec:	00000034 	andeq	r0, r0, r4, lsr r0
 2f0:	87080e41 	strhi	r0, [r8, -r1, asr #28]
 2f4:	41018e02 	tstmi	r1, r2, lsl #28
 2f8:	0d41180e 	stcleq	8, cr1, [r1, #-56]	; 0xffffffc8
 2fc:	00000007 	andeq	r0, r0, r7
 300:	0000001c 	andeq	r0, r0, ip, lsl r0
 304:	000002d0 	ldrdeq	r0, [r0], -r0	; <UNPREDICTABLE>
 308:	2000075c 	andcs	r0, r0, ip, asr r7
 30c:	00000066 	andeq	r0, r0, r6, rrx
 310:	87080e41 	strhi	r0, [r8, -r1, asr #28]
 314:	41018e02 	tstmi	r1, r2, lsl #28
 318:	0d41180e 	stcleq	8, cr1, [r1, #-56]	; 0xffffffc8
 31c:	00000007 	andeq	r0, r0, r7
 320:	0000001c 	andeq	r0, r0, ip, lsl r0
 324:	000002d0 	ldrdeq	r0, [r0], -r0	; <UNPREDICTABLE>
 328:	200007c2 	andcs	r0, r0, r2, asr #15
 32c:	0000003e 	andeq	r0, r0, lr, lsr r0
 330:	87080e41 	strhi	r0, [r8, -r1, asr #28]
 334:	41018e02 	tstmi	r1, r2, lsl #28
 338:	0d41180e 	stcleq	8, cr1, [r1, #-56]	; 0xffffffc8
 33c:	00000007 	andeq	r0, r0, r7
 340:	0000001c 	andeq	r0, r0, ip, lsl r0
 344:	000002d0 	ldrdeq	r0, [r0], -r0	; <UNPREDICTABLE>
 348:	20000800 	andcs	r0, r0, r0, lsl #16
 34c:	00000038 	andeq	r0, r0, r8, lsr r0
 350:	840c0e41 	strhi	r0, [ip], #-3649	; 0xfffff1bf
 354:	8e028703 	cdphi	7, 0, cr8, cr2, cr3, {0}
 358:	200e4101 	andcs	r4, lr, r1, lsl #2
 35c:	00070d41 	andeq	r0, r7, r1, asr #26
 360:	0000000c 	andeq	r0, r0, ip
 364:	ffffffff 			; <UNDEFINED> instruction: 0xffffffff
 368:	7c020001 	stcvc	0, cr0, [r2], {1}
 36c:	000d0c0e 	andeq	r0, sp, lr, lsl #24
 370:	0000001c 	andeq	r0, r0, ip, lsl r0
 374:	00000360 	andeq	r0, r0, r0, ror #6
 378:	20000838 	andcs	r0, r0, r8, lsr r8
 37c:	00000018 	andeq	r0, r0, r8, lsl r0
 380:	87080e41 	strhi	r0, [r8, -r1, asr #28]
 384:	41018e02 	tstmi	r1, r2, lsl #28
 388:	0d41100e 	stcleq	0, cr1, [r1, #-56]	; 0xffffffc8
 38c:	00000007 	andeq	r0, r0, r7
 390:	00000020 	andeq	r0, r0, r0, lsr #32
 394:	00000360 	andeq	r0, r0, r0, ror #6
 398:	20000850 	andcs	r0, r0, r0, asr r8
 39c:	0000006e 	andeq	r0, r0, lr, rrx
 3a0:	84100e41 	ldrhi	r0, [r0], #-3649	; 0xfffff1bf
 3a4:	87038504 	strhi	r8, [r3, -r4, lsl #10]
 3a8:	41018e02 	tstmi	r1, r2, lsl #28
 3ac:	0d41380e 	stcleq	8, cr3, [r1, #-56]	; 0xffffffc8
 3b0:	00000007 	andeq	r0, r0, r7
 3b4:	00000020 	andeq	r0, r0, r0, lsr #32
 3b8:	00000360 	andeq	r0, r0, r0, ror #6
 3bc:	200008be 			; <UNDEFINED> instruction: 0x200008be
 3c0:	00000028 	andeq	r0, r0, r8, lsr #32
 3c4:	84100e41 	ldrhi	r0, [r0], #-3649	; 0xfffff1bf
 3c8:	87038504 	strhi	r8, [r3, -r4, lsl #10]
 3cc:	41018e02 	tstmi	r1, r2, lsl #28
 3d0:	0d41180e 	stcleq	8, cr1, [r1, #-56]	; 0xffffffc8
 3d4:	00000007 	andeq	r0, r0, r7
 3d8:	0000001c 	andeq	r0, r0, ip, lsl r0
 3dc:	00000360 	andeq	r0, r0, r0, ror #6
 3e0:	200008e6 	andcs	r0, r0, r6, ror #17
 3e4:	0000005c 	andeq	r0, r0, ip, asr r0
 3e8:	840c0e41 	strhi	r0, [ip], #-3649	; 0xfffff1bf
 3ec:	8e028703 	cdphi	7, 0, cr8, cr2, cr3, {0}
 3f0:	200e4101 	andcs	r4, lr, r1, lsl #2
 3f4:	00070d41 	andeq	r0, r7, r1, asr #26
 3f8:	0000001c 	andeq	r0, r0, ip, lsl r0
 3fc:	00000360 	andeq	r0, r0, r0, ror #6
 400:	20000942 	andcs	r0, r0, r2, asr #18
 404:	00000036 	andeq	r0, r0, r6, lsr r0
 408:	87080e41 	strhi	r0, [r8, -r1, asr #28]
 40c:	41018e02 	tstmi	r1, r2, lsl #28
 410:	0d41180e 	stcleq	8, cr1, [r1, #-56]	; 0xffffffc8
 414:	00000007 	andeq	r0, r0, r7
 418:	0000001c 	andeq	r0, r0, ip, lsl r0
 41c:	00000360 	andeq	r0, r0, r0, ror #6
 420:	20000978 	andcs	r0, r0, r8, ror r9
 424:	0000001e 	andeq	r0, r0, lr, lsl r0
 428:	87080e41 	strhi	r0, [r8, -r1, asr #28]
 42c:	41018e02 	tstmi	r1, r2, lsl #28
 430:	0d41100e 	stcleq	0, cr1, [r1, #-56]	; 0xffffffc8
 434:	00000007 	andeq	r0, r0, r7
 438:	0000001c 	andeq	r0, r0, ip, lsl r0
 43c:	00000360 	andeq	r0, r0, r0, ror #6
 440:	20000996 	mulcs	r0, r6, r9
 444:	00000030 	andeq	r0, r0, r0, lsr r0
 448:	87080e41 	strhi	r0, [r8, -r1, asr #28]
 44c:	41018e02 	tstmi	r1, r2, lsl #28
 450:	0d41180e 	stcleq	8, cr1, [r1, #-56]	; 0xffffffc8
 454:	00000007 	andeq	r0, r0, r7
 458:	0000001c 	andeq	r0, r0, ip, lsl r0
 45c:	00000360 	andeq	r0, r0, r0, ror #6
 460:	200009c6 	andcs	r0, r0, r6, asr #19
 464:	0000001c 	andeq	r0, r0, ip, lsl r0
 468:	87080e41 	strhi	r0, [r8, -r1, asr #28]
 46c:	41018e02 	tstmi	r1, r2, lsl #28
 470:	0d41180e 	stcleq	8, cr1, [r1, #-56]	; 0xffffffc8
 474:	00000007 	andeq	r0, r0, r7
 478:	0000001c 	andeq	r0, r0, ip, lsl r0
 47c:	00000360 	andeq	r0, r0, r0, ror #6
 480:	200009e2 	andcs	r0, r0, r2, ror #19
 484:	00000030 	andeq	r0, r0, r0, lsr r0
 488:	87080e41 	strhi	r0, [r8, -r1, asr #28]
 48c:	41018e02 	tstmi	r1, r2, lsl #28
 490:	0d41180e 	stcleq	8, cr1, [r1, #-56]	; 0xffffffc8
 494:	00000007 	andeq	r0, r0, r7
 498:	0000001c 	andeq	r0, r0, ip, lsl r0
 49c:	00000360 	andeq	r0, r0, r0, ror #6
 4a0:	20000a12 	andcs	r0, r0, r2, lsl sl
 4a4:	00000036 	andeq	r0, r0, r6, lsr r0
 4a8:	87080e41 	strhi	r0, [r8, -r1, asr #28]
 4ac:	41018e02 	tstmi	r1, r2, lsl #28
 4b0:	0d41180e 	stcleq	8, cr1, [r1, #-56]	; 0xffffffc8
 4b4:	00000007 	andeq	r0, r0, r7
 4b8:	0000001c 	andeq	r0, r0, ip, lsl r0
 4bc:	00000360 	andeq	r0, r0, r0, ror #6
 4c0:	20000a48 	andcs	r0, r0, r8, asr #20
 4c4:	00000036 	andeq	r0, r0, r6, lsr r0
 4c8:	87080e41 	strhi	r0, [r8, -r1, asr #28]
 4cc:	41018e02 	tstmi	r1, r2, lsl #28
 4d0:	0d41180e 	stcleq	8, cr1, [r1, #-56]	; 0xffffffc8
 4d4:	00000007 	andeq	r0, r0, r7
 4d8:	0000001c 	andeq	r0, r0, ip, lsl r0
 4dc:	00000360 	andeq	r0, r0, r0, ror #6
 4e0:	20000a7e 	andcs	r0, r0, lr, ror sl
 4e4:	00000032 	andeq	r0, r0, r2, lsr r0
 4e8:	87080e41 	strhi	r0, [r8, -r1, asr #28]
 4ec:	41018e02 	tstmi	r1, r2, lsl #28
 4f0:	0d41100e 	stcleq	0, cr1, [r1, #-56]	; 0xffffffc8
 4f4:	00000007 	andeq	r0, r0, r7
 4f8:	0000001c 	andeq	r0, r0, ip, lsl r0
 4fc:	00000360 	andeq	r0, r0, r0, ror #6
 500:	20000ab0 			; <UNDEFINED> instruction: 0x20000ab0
 504:	00000046 	andeq	r0, r0, r6, asr #32
 508:	87080e41 	strhi	r0, [r8, -r1, asr #28]
 50c:	41018e02 	tstmi	r1, r2, lsl #28
 510:	0d41180e 	stcleq	8, cr1, [r1, #-56]	; 0xffffffc8
 514:	00000007 	andeq	r0, r0, r7
 518:	0000001c 	andeq	r0, r0, ip, lsl r0
 51c:	00000360 	andeq	r0, r0, r0, ror #6
 520:	20000af6 	strdcs	r0, [r0], -r6
 524:	0000009a 	muleq	r0, sl, r0
 528:	840c0e41 	strhi	r0, [ip], #-3649	; 0xfffff1bf
 52c:	8e028703 	cdphi	7, 0, cr8, cr2, cr3, {0}
 530:	280e4101 	stmdacs	lr, {r0, r8, lr}
 534:	00070d41 	andeq	r0, r7, r1, asr #26
 538:	0000001c 	andeq	r0, r0, ip, lsl r0
 53c:	00000360 	andeq	r0, r0, r0, ror #6
 540:	20000b90 	mulcs	r0, r0, fp
 544:	000001ac 	andeq	r0, r0, ip, lsr #3
 548:	840c0e41 	strhi	r0, [ip], #-3649	; 0xfffff1bf
 54c:	8e028703 	cdphi	7, 0, cr8, cr2, cr3, {0}
 550:	300e4101 	andcc	r4, lr, r1, lsl #2
 554:	20070c41 	andcs	r0, r7, r1, asr #24
 558:	0000001c 	andeq	r0, r0, ip, lsl r0
 55c:	00000360 	andeq	r0, r0, r0, ror #6
 560:	20000d3c 	andcs	r0, r0, ip, lsr sp
 564:	000000d6 	ldrdeq	r0, [r0], -r6
 568:	840c0e41 	strhi	r0, [ip], #-3649	; 0xfffff1bf
 56c:	8e028703 	cdphi	7, 0, cr8, cr2, cr3, {0}
 570:	680e4101 	stmdavs	lr, {r0, r8, lr}
 574:	48070c41 	stmdami	r7, {r0, r6, sl, fp}
 578:	00000020 	andeq	r0, r0, r0, lsr #32
 57c:	00000360 	andeq	r0, r0, r0, ror #6
 580:	20000e12 	andcs	r0, r0, r2, lsl lr
 584:	0000060c 	andeq	r0, r0, ip, lsl #12
 588:	84140e41 	ldrhi	r0, [r4], #-3649	; 0xfffff1bf
 58c:	86048505 	strhi	r8, [r4], -r5, lsl #10
 590:	8e028703 	cdphi	7, 0, cr8, cr2, cr3, {0}
 594:	780e4101 	stmdavc	lr, {r0, r8, lr}
 598:	60070c41 	andvs	r0, r7, r1, asr #24
 59c:	00000020 	andeq	r0, r0, r0, lsr #32
 5a0:	00000360 	andeq	r0, r0, r0, ror #6
 5a4:	2000141e 	andcs	r1, r0, lr, lsl r4
 5a8:	0000003a 	andeq	r0, r0, sl, lsr r0
 5ac:	41100e41 	tstmi	r0, r1, asr #28
 5b0:	07841c0e 	streq	r1, [r4, lr, lsl #24]
 5b4:	058e0687 	streq	r0, [lr, #1671]	; 0x687
 5b8:	41380e41 	teqmi	r8, r1, asr #28
 5bc:	0030070c 	eorseq	r0, r0, ip, lsl #14
 5c0:	00000020 	andeq	r0, r0, r0, lsr #32
 5c4:	00000360 	andeq	r0, r0, r0, ror #6
 5c8:	20001458 	andcs	r1, r0, r8, asr r4
 5cc:	0000003c 	andeq	r0, r0, ip, lsr r0
 5d0:	410c0e41 	tstmi	ip, r1, asr #28
 5d4:	0684180e 	streq	r1, [r4], lr, lsl #16
 5d8:	048e0587 	streq	r0, [lr], #1415	; 0x587
 5dc:	41300e41 	teqmi	r0, r1, asr #28
 5e0:	0028070c 	eoreq	r0, r8, ip, lsl #14
 5e4:	00000020 	andeq	r0, r0, r0, lsr #32
 5e8:	00000360 	andeq	r0, r0, r0, ror #6
 5ec:	20001494 	mulcs	r0, r4, r4
 5f0:	0000003c 	andeq	r0, r0, ip, lsr r0
 5f4:	41080e41 	tstmi	r8, r1, asr #28
 5f8:	0584140e 	streq	r1, [r4, #1038]	; 0x40e
 5fc:	038e0487 	orreq	r0, lr, #-2030043136	; 0x87000000
 600:	41300e41 	teqmi	r0, r1, asr #28
 604:	0028070c 	eoreq	r0, r8, ip, lsl #14
 608:	0000001c 	andeq	r0, r0, ip, lsl r0
 60c:	00000360 	andeq	r0, r0, r0, ror #6
 610:	200014d0 	ldrdcs	r1, [r0], -r0
 614:	00000030 	andeq	r0, r0, r0, lsr r0
 618:	840c0e41 	strhi	r0, [ip], #-3649	; 0xfffff1bf
 61c:	8e028703 	cdphi	7, 0, cr8, cr2, cr3, {0}
 620:	280e4101 	stmdacs	lr, {r0, r8, lr}
 624:	20070c41 	andcs	r0, r7, r1, asr #24
 628:	0000001c 	andeq	r0, r0, ip, lsl r0
 62c:	00000360 	andeq	r0, r0, r0, ror #6
 630:	20001500 	andcs	r1, r0, r0, lsl #10
 634:	00000030 	andeq	r0, r0, r0, lsr r0
 638:	840c0e41 	strhi	r0, [ip], #-3649	; 0xfffff1bf
 63c:	8e028703 	cdphi	7, 0, cr8, cr2, cr3, {0}
 640:	280e4101 	stmdacs	lr, {r0, r8, lr}
 644:	20070c41 	andcs	r0, r7, r1, asr #24
 648:	00000020 	andeq	r0, r0, r0, lsr #32
 64c:	00000360 	andeq	r0, r0, r0, ror #6
 650:	20001530 	andcs	r1, r0, r0, lsr r5
 654:	0000004c 	andeq	r0, r0, ip, asr #32
 658:	41080e41 	tstmi	r8, r1, asr #28
 65c:	0584140e 	streq	r1, [r4, #1038]	; 0x40e
 660:	038e0487 	orreq	r0, lr, #-2030043136	; 0x87000000
 664:	41380e41 	teqmi	r8, r1, asr #28
 668:	0030070c 	eorseq	r0, r0, ip, lsl #14
 66c:	0000000c 	andeq	r0, r0, ip
 670:	ffffffff 			; <UNDEFINED> instruction: 0xffffffff
 674:	7c020001 	stcvc	0, cr0, [r2], {1}
 678:	000d0c0e 	andeq	r0, sp, lr, lsl #24
 67c:	00000020 	andeq	r0, r0, r0, lsr #32
 680:	0000066c 	andeq	r0, r0, ip, ror #12
 684:	2000157c 	andcs	r1, r0, ip, ror r5
 688:	0000006e 	andeq	r0, r0, lr, rrx
 68c:	84100e41 	ldrhi	r0, [r0], #-3649	; 0xfffff1bf
 690:	87038504 	strhi	r8, [r3, -r4, lsl #10]
 694:	41018e02 	tstmi	r1, r2, lsl #28
 698:	0d41380e 	stcleq	8, cr3, [r1, #-56]	; 0xffffffc8
 69c:	00000007 	andeq	r0, r0, r7
 6a0:	00000020 	andeq	r0, r0, r0, lsr #32
 6a4:	0000066c 	andeq	r0, r0, ip, ror #12
 6a8:	200015ea 	andcs	r1, r0, sl, ror #11
 6ac:	00000028 	andeq	r0, r0, r8, lsr #32
 6b0:	84100e41 	ldrhi	r0, [r0], #-3649	; 0xfffff1bf
 6b4:	87038504 	strhi	r8, [r3, -r4, lsl #10]
 6b8:	41018e02 	tstmi	r1, r2, lsl #28
 6bc:	0d41180e 	stcleq	8, cr1, [r1, #-56]	; 0xffffffc8
 6c0:	00000007 	andeq	r0, r0, r7
 6c4:	0000001c 	andeq	r0, r0, ip, lsl r0
 6c8:	0000066c 	andeq	r0, r0, ip, ror #12
 6cc:	20001612 	andcs	r1, r0, r2, lsl r6
 6d0:	00000122 	andeq	r0, r0, r2, lsr #2
 6d4:	87080e41 	strhi	r0, [r8, -r1, asr #28]
 6d8:	41018e02 	tstmi	r1, r2, lsl #28
 6dc:	0d41200e 	stcleq	0, cr2, [r1, #-56]	; 0xffffffc8
 6e0:	00000007 	andeq	r0, r0, r7
 6e4:	00000018 	andeq	r0, r0, r8, lsl r0
 6e8:	0000066c 	andeq	r0, r0, ip, ror #12
 6ec:	20001734 	andcs	r1, r0, r4, lsr r7
 6f0:	0000000c 	andeq	r0, r0, ip
 6f4:	87080e41 	strhi	r0, [r8, -r1, asr #28]
 6f8:	41018e02 	tstmi	r1, r2, lsl #28
 6fc:	0000070d 	andeq	r0, r0, sp, lsl #14
 700:	00000018 	andeq	r0, r0, r8, lsl r0
 704:	0000066c 	andeq	r0, r0, ip, ror #12
 708:	20001740 	andcs	r1, r0, r0, asr #14
 70c:	0000000c 	andeq	r0, r0, ip
 710:	87080e41 	strhi	r0, [r8, -r1, asr #28]
 714:	41018e02 	tstmi	r1, r2, lsl #28
 718:	0000070d 	andeq	r0, r0, sp, lsl #14
 71c:	00000018 	andeq	r0, r0, r8, lsl r0
 720:	0000066c 	andeq	r0, r0, ip, ror #12
 724:	2000174c 	andcs	r1, r0, ip, asr #14
 728:	00000028 	andeq	r0, r0, r8, lsr #32
 72c:	87080e41 	strhi	r0, [r8, -r1, asr #28]
 730:	41018e02 	tstmi	r1, r2, lsl #28
 734:	0000070d 	andeq	r0, r0, sp, lsl #14
 738:	0000001c 	andeq	r0, r0, ip, lsl r0
 73c:	0000066c 	andeq	r0, r0, ip, ror #12
 740:	20001774 	andcs	r1, r0, r4, ror r7
 744:	00000034 	andeq	r0, r0, r4, lsr r0
 748:	87080e41 	strhi	r0, [r8, -r1, asr #28]
 74c:	41018e02 	tstmi	r1, r2, lsl #28
 750:	0d41100e 	stcleq	0, cr1, [r1, #-56]	; 0xffffffc8
 754:	00000007 	andeq	r0, r0, r7
 758:	00000018 	andeq	r0, r0, r8, lsl r0
 75c:	0000066c 	andeq	r0, r0, ip, ror #12
 760:	200017a8 	andcs	r1, r0, r8, lsr #15
 764:	00000010 	andeq	r0, r0, r0, lsl r0
 768:	87080e41 	strhi	r0, [r8, -r1, asr #28]
 76c:	41018e02 	tstmi	r1, r2, lsl #28
 770:	0000070d 	andeq	r0, r0, sp, lsl #14
 774:	00000018 	andeq	r0, r0, r8, lsl r0
 778:	0000066c 	andeq	r0, r0, ip, ror #12
 77c:	200017b8 			; <UNDEFINED> instruction: 0x200017b8
 780:	0000001e 	andeq	r0, r0, lr, lsl r0
 784:	87080e41 	strhi	r0, [r8, -r1, asr #28]
 788:	41018e02 	tstmi	r1, r2, lsl #28
 78c:	0000070d 	andeq	r0, r0, sp, lsl #14

Disassembly of section .debug_ranges:

00000000 <.debug_ranges>:
   0:	ffffffff 			; <UNDEFINED> instruction: 0xffffffff
   4:	00000000 	andeq	r0, r0, r0
   8:	20000000 	andcs	r0, r0, r0
   c:	20000074 	andcs	r0, r0, r4, ror r0
  10:	20000100 	andcs	r0, r0, r0, lsl #2
  14:	2000011c 	andcs	r0, r0, ip, lsl r1
	...
