
./build/mymain.elf:     file format elf32-littlearm


Disassembly of section .text:

20000000 <__boot_start__>:
20000000:	480e      	ldr	r0, [pc, #56]	; (2000003c <_boot_start_loop+0x12>)
20000002:	490f      	ldr	r1, [pc, #60]	; (20000040 <_boot_start_loop+0x16>)
20000004:	6001      	str	r1, [r0, #0]
20000006:	480f      	ldr	r0, [pc, #60]	; (20000044 <_boot_start_loop+0x1a>)
20000008:	490f      	ldr	r1, [pc, #60]	; (20000048 <_boot_start_loop+0x1e>)
2000000a:	6001      	str	r1, [r0, #0]
2000000c:	480f      	ldr	r0, [pc, #60]	; (2000004c <_boot_start_loop+0x22>)
2000000e:	4910      	ldr	r1, [pc, #64]	; (20000050 <_boot_start_loop+0x26>)
20000010:	6001      	str	r1, [r0, #0]
20000012:	4810      	ldr	r0, [pc, #64]	; (20000054 <_boot_start_loop+0x2a>)
20000014:	4910      	ldr	r1, [pc, #64]	; (20000058 <_boot_start_loop+0x2e>)
20000016:	6001      	str	r1, [r0, #0]
20000018:	4810      	ldr	r0, [pc, #64]	; (2000005c <_boot_start_loop+0x32>)
2000001a:	4809      	ldr	r0, [pc, #36]	; (20000040 <_boot_start_loop+0x16>)
2000001c:	6001      	str	r1, [r0, #0]
2000001e:	4807      	ldr	r0, [pc, #28]	; (2000003c <_boot_start_loop+0x12>)
20000020:	490f      	ldr	r1, [pc, #60]	; (20000060 <_boot_start_loop+0x36>)
20000022:	6001      	str	r1, [r0, #0]
20000024:	480f      	ldr	r0, [pc, #60]	; (20000064 <_boot_start_loop+0x3a>)
20000026:	4910      	ldr	r1, [pc, #64]	; (20000068 <_boot_start_loop+0x3e>)
20000028:	4a10      	ldr	r2, [pc, #64]	; (2000006c <_boot_start_loop+0x42>)

2000002a <_boot_start_loop>:
2000002a:	6803      	ldr	r3, [r0, #0]
2000002c:	600b      	str	r3, [r1, #0]
2000002e:	3004      	adds	r0, #4
20000030:	3104      	adds	r1, #4
20000032:	4291      	cmp	r1, r2
20000034:	d1f9      	bne.n	2000002a <_boot_start_loop>
20000036:	480e      	ldr	r0, [pc, #56]	; (20000070 <_boot_start_loop+0x46>)
20000038:	4700      	bx	r0
2000003a:	00080000 	andeq	r0, r8, r0
2000003e:	00001800 	andeq	r1, r0, r0, lsl #16
20000042:	00140000 	andseq	r0, r4, r0
20000046:	00081800 	andeq	r1, r8, r0, lsl #16
2000004a:	00000000 	andeq	r0, r0, r0
2000004e:	03001800 	movweq	r1, #2048	; 0x800
20000052:	00f4001f 	rscseq	r0, r4, pc, lsl r0
20000056:	02181800 	andseq	r1, r8, #0, 16
2000005a:	00040300 	andeq	r0, r4, r0, lsl #6
2000005e:	00011800 	andeq	r1, r1, r0, lsl #16
20000062:	00000000 	andeq	r0, r0, r0
20000066:	00001000 	andeq	r1, r0, r0
2000006a:	f0002000 			; <UNDEFINED> instruction: 0xf0002000
2000006e:	01012000 	mrseq	r2, (UNDEF: 1)
20000072:	00002000 	andeq	r2, r0, r0
	...

20000100 <_start>:
20000100:	4805      	ldr	r0, [pc, #20]	; (20000118 <DELAY+0x6>)
20000102:	4685      	mov	sp, r0
20000104:	f000 f87e 	bl	20000204 <cstart>
20000108:	e7fe      	b.n	20000108 <_start+0x8>

2000010a <PUT32>:
2000010a:	6001      	str	r1, [r0, #0]
2000010c:	4770      	bx	lr

2000010e <GET32>:
2000010e:	6800      	ldr	r0, [r0, #0]
20000110:	4770      	bx	lr

20000112 <DELAY>:
20000112:	3801      	subs	r0, #1
20000114:	d1fd      	bne.n	20000112 <DELAY>
20000116:	4770      	bx	lr
20000118:	20010000 	andcs	r0, r1, r0

2000011c <mymain>:
2000011c:	b580      	push	{r7, lr}
2000011e:	b082      	sub	sp, #8
20000120:	af00      	add	r7, sp, #0
20000122:	f000 f9a3 	bl	2000046c <reset_pads>
20000126:	f000 f9a9 	bl	2000047c <reset_pio>
2000012a:	4b2b      	ldr	r3, [pc, #172]	; (200001d8 <mymain+0xbc>)
2000012c:	0018      	movs	r0, r3
2000012e:	f001 f91e 	bl	2000136e <printf_>
20000132:	2304      	movs	r3, #4
20000134:	603b      	str	r3, [r7, #0]
20000136:	2300      	movs	r3, #0
20000138:	607b      	str	r3, [r7, #4]
2000013a:	e019      	b.n	20000170 <mymain+0x54>
2000013c:	687b      	ldr	r3, [r7, #4]
2000013e:	4a27      	ldr	r2, [pc, #156]	; (200001dc <mymain+0xc0>)
20000140:	4694      	mov	ip, r2
20000142:	4463      	add	r3, ip
20000144:	009b      	lsls	r3, r3, #2
20000146:	0018      	movs	r0, r3
20000148:	4b25      	ldr	r3, [pc, #148]	; (200001e0 <mymain+0xc4>)
2000014a:	687a      	ldr	r2, [r7, #4]
2000014c:	0052      	lsls	r2, r2, #1
2000014e:	5ad3      	ldrh	r3, [r2, r3]
20000150:	0019      	movs	r1, r3
20000152:	f7ff ffda 	bl	2000010a <PUT32>
20000156:	687b      	ldr	r3, [r7, #4]
20000158:	4a20      	ldr	r2, [pc, #128]	; (200001dc <mymain+0xc0>)
2000015a:	4694      	mov	ip, r2
2000015c:	4463      	add	r3, ip
2000015e:	009a      	lsls	r2, r3, #2
20000160:	4b20      	ldr	r3, [pc, #128]	; (200001e4 <mymain+0xc8>)
20000162:	0011      	movs	r1, r2
20000164:	0018      	movs	r0, r3
20000166:	f001 f902 	bl	2000136e <printf_>
2000016a:	687b      	ldr	r3, [r7, #4]
2000016c:	3301      	adds	r3, #1
2000016e:	607b      	str	r3, [r7, #4]
20000170:	687a      	ldr	r2, [r7, #4]
20000172:	683b      	ldr	r3, [r7, #0]
20000174:	429a      	cmp	r2, r3
20000176:	dbe1      	blt.n	2000013c <mymain+0x20>
20000178:	2106      	movs	r1, #6
2000017a:	2019      	movs	r0, #25
2000017c:	f000 f8ae 	bl	200002dc <gpio_set_function>
20000180:	2019      	movs	r0, #25
20000182:	f000 f983 	bl	2000048c <drive_pad>
20000186:	4a18      	ldr	r2, [pc, #96]	; (200001e8 <mymain+0xcc>)
20000188:	4b18      	ldr	r3, [pc, #96]	; (200001ec <mymain+0xd0>)
2000018a:	0011      	movs	r1, r2
2000018c:	0018      	movs	r0, r3
2000018e:	f7ff ffbc 	bl	2000010a <PUT32>
20000192:	4b17      	ldr	r3, [pc, #92]	; (200001f0 <mymain+0xd4>)
20000194:	2101      	movs	r1, #1
20000196:	0018      	movs	r0, r3
20000198:	f7ff ffb7 	bl	2000010a <PUT32>
2000019c:	4b15      	ldr	r3, [pc, #84]	; (200001f4 <mymain+0xd8>)
2000019e:	0018      	movs	r0, r3
200001a0:	f001 f8e5 	bl	2000136e <printf_>
200001a4:	2301      	movs	r3, #1
200001a6:	425b      	negs	r3, r3
200001a8:	4a13      	ldr	r2, [pc, #76]	; (200001f8 <mymain+0xdc>)
200001aa:	0019      	movs	r1, r3
200001ac:	0010      	movs	r0, r2
200001ae:	f7ff ffac 	bl	2000010a <PUT32>
200001b2:	4b12      	ldr	r3, [pc, #72]	; (200001fc <mymain+0xe0>)
200001b4:	0018      	movs	r0, r3
200001b6:	f000 f9f3 	bl	200005a0 <delay_us>
200001ba:	4b11      	ldr	r3, [pc, #68]	; (20000200 <mymain+0xe4>)
200001bc:	0018      	movs	r0, r3
200001be:	f001 f8d6 	bl	2000136e <printf_>
200001c2:	4b0d      	ldr	r3, [pc, #52]	; (200001f8 <mymain+0xdc>)
200001c4:	2100      	movs	r1, #0
200001c6:	0018      	movs	r0, r3
200001c8:	f7ff ff9f 	bl	2000010a <PUT32>
200001cc:	4b0b      	ldr	r3, [pc, #44]	; (200001fc <mymain+0xe0>)
200001ce:	0018      	movs	r0, r3
200001d0:	f000 f9e6 	bl	200005a0 <delay_us>
200001d4:	e7e6      	b.n	200001a4 <mymain+0x88>
200001d6:	46c0      	nop			; (mov r8, r8)
200001d8:	10001730 	andne	r1, r0, r0, lsr r7
200001dc:	14080012 	strne	r0, [r8], #-18	; 0xffffffee
200001e0:	10001728 	andne	r1, r0, r8, lsr #14
200001e4:	10001740 	andne	r1, r0, r0, asr #14
200001e8:	04100339 	ldreq	r0, [r0], #-825	; 0xfffffcc7
200001ec:	502000dc 	ldrdpl	r0, [r0], -ip	; <UNPREDICTABLE>
200001f0:	50200000 	eorpl	r0, r0, r0
200001f4:	10001758 	andne	r1, r0, r8, asr r7
200001f8:	50200010 	eorpl	r0, r0, r0, lsl r0
200001fc:	000f4240 	andeq	r4, pc, r0, asr #4
20000200:	10001770 	andne	r1, r0, r0, ror r7

20000204 <cstart>:
20000204:	b580      	push	{r7, lr}
20000206:	b082      	sub	sp, #8
20000208:	af00      	add	r7, sp, #0
2000020a:	4b19      	ldr	r3, [pc, #100]	; (20000270 <cstart+0x6c>)
2000020c:	603b      	str	r3, [r7, #0]
2000020e:	4b19      	ldr	r3, [pc, #100]	; (20000274 <cstart+0x70>)
20000210:	607b      	str	r3, [r7, #4]
20000212:	e004      	b.n	2000021e <cstart+0x1a>
20000214:	687b      	ldr	r3, [r7, #4]
20000216:	1d1a      	adds	r2, r3, #4
20000218:	607a      	str	r2, [r7, #4]
2000021a:	2200      	movs	r2, #0
2000021c:	601a      	str	r2, [r3, #0]
2000021e:	687a      	ldr	r2, [r7, #4]
20000220:	683b      	ldr	r3, [r7, #0]
20000222:	429a      	cmp	r2, r3
20000224:	d3f6      	bcc.n	20000214 <cstart+0x10>
20000226:	2000      	movs	r0, #0
20000228:	f000 f978 	bl	2000051c <enable_clock>
2000022c:	2388      	movs	r3, #136	; 0x88
2000022e:	011b      	lsls	r3, r3, #4
20000230:	4a11      	ldr	r2, [pc, #68]	; (20000278 <cstart+0x74>)
20000232:	0019      	movs	r1, r3
20000234:	0010      	movs	r0, r2
20000236:	f7ff ff68 	bl	2000010a <PUT32>
2000023a:	f000 f847 	bl	200002cc <gpio_reset>
2000023e:	f000 fa87 	bl	20000750 <init_uart_printing>
20000242:	4b0e      	ldr	r3, [pc, #56]	; (2000027c <cstart+0x78>)
20000244:	220c      	movs	r2, #12
20000246:	601a      	str	r2, [r3, #0]
20000248:	4b0c      	ldr	r3, [pc, #48]	; (2000027c <cstart+0x78>)
2000024a:	220d      	movs	r2, #13
2000024c:	605a      	str	r2, [r3, #4]
2000024e:	4b0b      	ldr	r3, [pc, #44]	; (2000027c <cstart+0x78>)
20000250:	22e1      	movs	r2, #225	; 0xe1
20000252:	0252      	lsls	r2, r2, #9
20000254:	609a      	str	r2, [r3, #8]
20000256:	4b09      	ldr	r3, [pc, #36]	; (2000027c <cstart+0x78>)
20000258:	4a09      	ldr	r2, [pc, #36]	; (20000280 <cstart+0x7c>)
2000025a:	60da      	str	r2, [r3, #12]
2000025c:	4b07      	ldr	r3, [pc, #28]	; (2000027c <cstart+0x78>)
2000025e:	0018      	movs	r0, r3
20000260:	f001 f97f 	bl	20001562 <uart_init>
20000264:	f7ff ff5a 	bl	2000011c <mymain>
20000268:	46c0      	nop			; (mov r8, r8)
2000026a:	46bd      	mov	sp, r7
2000026c:	b002      	add	sp, #8
2000026e:	bd80      	pop	{r7, pc}
20000270:	2000f020 	andcs	pc, r0, r0, lsr #32
20000274:	2000f000 	andcs	pc, r0, r0
20000278:	40008048 	andmi	r8, r0, r8, asr #32
2000027c:	2000f000 	andcs	pc, r0, r0
20000280:	40034000 	andmi	r4, r3, r0

20000284 <reset_periph>:
20000284:	b580      	push	{r7, lr}
20000286:	b082      	sub	sp, #8
20000288:	af00      	add	r7, sp, #0
2000028a:	6078      	str	r0, [r7, #4]
2000028c:	2201      	movs	r2, #1
2000028e:	687b      	ldr	r3, [r7, #4]
20000290:	409a      	lsls	r2, r3
20000292:	0013      	movs	r3, r2
20000294:	001a      	movs	r2, r3
20000296:	4b0b      	ldr	r3, [pc, #44]	; (200002c4 <reset_periph+0x40>)
20000298:	0011      	movs	r1, r2
2000029a:	0018      	movs	r0, r3
2000029c:	f7ff ff35 	bl	2000010a <PUT32>
200002a0:	46c0      	nop			; (mov r8, r8)
200002a2:	4b09      	ldr	r3, [pc, #36]	; (200002c8 <reset_periph+0x44>)
200002a4:	0018      	movs	r0, r3
200002a6:	f7ff ff32 	bl	2000010e <GET32>
200002aa:	0002      	movs	r2, r0
200002ac:	687b      	ldr	r3, [r7, #4]
200002ae:	40da      	lsrs	r2, r3
200002b0:	0013      	movs	r3, r2
200002b2:	2201      	movs	r2, #1
200002b4:	4013      	ands	r3, r2
200002b6:	d0f4      	beq.n	200002a2 <reset_periph+0x1e>
200002b8:	46c0      	nop			; (mov r8, r8)
200002ba:	46c0      	nop			; (mov r8, r8)
200002bc:	46bd      	mov	sp, r7
200002be:	b002      	add	sp, #8
200002c0:	bd80      	pop	{r7, pc}
200002c2:	46c0      	nop			; (mov r8, r8)
200002c4:	4000f000 	andmi	pc, r0, r0
200002c8:	4000c008 	andmi	ip, r0, r8

200002cc <gpio_reset>:
200002cc:	b580      	push	{r7, lr}
200002ce:	af00      	add	r7, sp, #0
200002d0:	2005      	movs	r0, #5
200002d2:	f7ff ffd7 	bl	20000284 <reset_periph>
200002d6:	46c0      	nop			; (mov r8, r8)
200002d8:	46bd      	mov	sp, r7
200002da:	bd80      	pop	{r7, pc}

200002dc <gpio_set_function>:
200002dc:	b580      	push	{r7, lr}
200002de:	b084      	sub	sp, #16
200002e0:	af00      	add	r7, sp, #0
200002e2:	6078      	str	r0, [r7, #4]
200002e4:	6039      	str	r1, [r7, #0]
200002e6:	687b      	ldr	r3, [r7, #4]
200002e8:	2b1d      	cmp	r3, #29
200002ea:	d80f      	bhi.n	2000030c <gpio_set_function+0x30>
200002ec:	683b      	ldr	r3, [r7, #0]
200002ee:	2b07      	cmp	r3, #7
200002f0:	d80e      	bhi.n	20000310 <gpio_set_function+0x34>
200002f2:	687b      	ldr	r3, [r7, #4]
200002f4:	00db      	lsls	r3, r3, #3
200002f6:	60fb      	str	r3, [r7, #12]
200002f8:	68fb      	ldr	r3, [r7, #12]
200002fa:	4a07      	ldr	r2, [pc, #28]	; (20000318 <gpio_set_function+0x3c>)
200002fc:	4694      	mov	ip, r2
200002fe:	4463      	add	r3, ip
20000300:	683a      	ldr	r2, [r7, #0]
20000302:	0011      	movs	r1, r2
20000304:	0018      	movs	r0, r3
20000306:	f7ff ff00 	bl	2000010a <PUT32>
2000030a:	e002      	b.n	20000312 <gpio_set_function+0x36>
2000030c:	46c0      	nop			; (mov r8, r8)
2000030e:	e000      	b.n	20000312 <gpio_set_function+0x36>
20000310:	46c0      	nop			; (mov r8, r8)
20000312:	46bd      	mov	sp, r7
20000314:	b004      	add	sp, #16
20000316:	bd80      	pop	{r7, pc}
20000318:	40014004 	andmi	r4, r1, r4

2000031c <gpio_set_input>:
2000031c:	b580      	push	{r7, lr}
2000031e:	b084      	sub	sp, #16
20000320:	af00      	add	r7, sp, #0
20000322:	6078      	str	r0, [r7, #4]
20000324:	687b      	ldr	r3, [r7, #4]
20000326:	2b1d      	cmp	r3, #29
20000328:	d810      	bhi.n	2000034c <gpio_set_input+0x30>
2000032a:	687b      	ldr	r3, [r7, #4]
2000032c:	00db      	lsls	r3, r3, #3
2000032e:	60fb      	str	r3, [r7, #12]
20000330:	68fb      	ldr	r3, [r7, #12]
20000332:	4a08      	ldr	r2, [pc, #32]	; (20000354 <gpio_set_input+0x38>)
20000334:	4694      	mov	ip, r2
20000336:	4463      	add	r3, ip
20000338:	2105      	movs	r1, #5
2000033a:	0018      	movs	r0, r3
2000033c:	f7ff fee5 	bl	2000010a <PUT32>
20000340:	4b05      	ldr	r3, [pc, #20]	; (20000358 <gpio_set_input+0x3c>)
20000342:	2100      	movs	r1, #0
20000344:	0018      	movs	r0, r3
20000346:	f7ff fee0 	bl	2000010a <PUT32>
2000034a:	e000      	b.n	2000034e <gpio_set_input+0x32>
2000034c:	46c0      	nop			; (mov r8, r8)
2000034e:	46bd      	mov	sp, r7
20000350:	b004      	add	sp, #16
20000352:	bd80      	pop	{r7, pc}
20000354:	40014004 	andmi	r4, r1, r4
20000358:	d0002020 	andle	r2, r0, r0, lsr #32

2000035c <gpio_read>:
2000035c:	b580      	push	{r7, lr}
2000035e:	b082      	sub	sp, #8
20000360:	af00      	add	r7, sp, #0
20000362:	6078      	str	r0, [r7, #4]
20000364:	687b      	ldr	r3, [r7, #4]
20000366:	2b1d      	cmp	r3, #29
20000368:	d901      	bls.n	2000036e <gpio_read+0x12>
2000036a:	2300      	movs	r3, #0
2000036c:	e009      	b.n	20000382 <gpio_read+0x26>
2000036e:	4b07      	ldr	r3, [pc, #28]	; (2000038c <gpio_read+0x30>)
20000370:	0018      	movs	r0, r3
20000372:	f7ff fecc 	bl	2000010e <GET32>
20000376:	0002      	movs	r2, r0
20000378:	687b      	ldr	r3, [r7, #4]
2000037a:	40da      	lsrs	r2, r3
2000037c:	0013      	movs	r3, r2
2000037e:	2201      	movs	r2, #1
20000380:	4013      	ands	r3, r2
20000382:	0018      	movs	r0, r3
20000384:	46bd      	mov	sp, r7
20000386:	b002      	add	sp, #8
20000388:	bd80      	pop	{r7, pc}
2000038a:	46c0      	nop			; (mov r8, r8)
2000038c:	d0000004 	andle	r0, r0, r4

20000390 <gpio_set_output>:
20000390:	b580      	push	{r7, lr}
20000392:	b084      	sub	sp, #16
20000394:	af00      	add	r7, sp, #0
20000396:	6078      	str	r0, [r7, #4]
20000398:	687b      	ldr	r3, [r7, #4]
2000039a:	2b1d      	cmp	r3, #29
2000039c:	d829      	bhi.n	200003f2 <gpio_set_output+0x62>
2000039e:	687b      	ldr	r3, [r7, #4]
200003a0:	00db      	lsls	r3, r3, #3
200003a2:	60fb      	str	r3, [r7, #12]
200003a4:	2201      	movs	r2, #1
200003a6:	687b      	ldr	r3, [r7, #4]
200003a8:	409a      	lsls	r2, r3
200003aa:	0013      	movs	r3, r2
200003ac:	001a      	movs	r2, r3
200003ae:	4b13      	ldr	r3, [pc, #76]	; (200003fc <gpio_set_output+0x6c>)
200003b0:	0011      	movs	r1, r2
200003b2:	0018      	movs	r0, r3
200003b4:	f7ff fea9 	bl	2000010a <PUT32>
200003b8:	2201      	movs	r2, #1
200003ba:	687b      	ldr	r3, [r7, #4]
200003bc:	409a      	lsls	r2, r3
200003be:	0013      	movs	r3, r2
200003c0:	001a      	movs	r2, r3
200003c2:	4b0f      	ldr	r3, [pc, #60]	; (20000400 <gpio_set_output+0x70>)
200003c4:	0011      	movs	r1, r2
200003c6:	0018      	movs	r0, r3
200003c8:	f7ff fe9f 	bl	2000010a <PUT32>
200003cc:	68fb      	ldr	r3, [r7, #12]
200003ce:	4a0d      	ldr	r2, [pc, #52]	; (20000404 <gpio_set_output+0x74>)
200003d0:	4694      	mov	ip, r2
200003d2:	4463      	add	r3, ip
200003d4:	2105      	movs	r1, #5
200003d6:	0018      	movs	r0, r3
200003d8:	f7ff fe97 	bl	2000010a <PUT32>
200003dc:	2201      	movs	r2, #1
200003de:	687b      	ldr	r3, [r7, #4]
200003e0:	409a      	lsls	r2, r3
200003e2:	0013      	movs	r3, r2
200003e4:	001a      	movs	r2, r3
200003e6:	4b08      	ldr	r3, [pc, #32]	; (20000408 <gpio_set_output+0x78>)
200003e8:	0011      	movs	r1, r2
200003ea:	0018      	movs	r0, r3
200003ec:	f7ff fe8d 	bl	2000010a <PUT32>
200003f0:	e000      	b.n	200003f4 <gpio_set_output+0x64>
200003f2:	46c0      	nop			; (mov r8, r8)
200003f4:	46bd      	mov	sp, r7
200003f6:	b004      	add	sp, #16
200003f8:	bd80      	pop	{r7, pc}
200003fa:	46c0      	nop			; (mov r8, r8)
200003fc:	d0000028 	andle	r0, r0, r8, lsr #32
20000400:	d0000018 	andle	r0, r0, r8, lsl r0
20000404:	40014004 	andmi	r4, r1, r4
20000408:	d0000024 	andle	r0, r0, r4, lsr #32

2000040c <gpio_set_on>:
2000040c:	b580      	push	{r7, lr}
2000040e:	b082      	sub	sp, #8
20000410:	af00      	add	r7, sp, #0
20000412:	6078      	str	r0, [r7, #4]
20000414:	687b      	ldr	r3, [r7, #4]
20000416:	2b1d      	cmp	r3, #29
20000418:	d80a      	bhi.n	20000430 <gpio_set_on+0x24>
2000041a:	2201      	movs	r2, #1
2000041c:	687b      	ldr	r3, [r7, #4]
2000041e:	409a      	lsls	r2, r3
20000420:	0013      	movs	r3, r2
20000422:	001a      	movs	r2, r3
20000424:	4b04      	ldr	r3, [pc, #16]	; (20000438 <gpio_set_on+0x2c>)
20000426:	0011      	movs	r1, r2
20000428:	0018      	movs	r0, r3
2000042a:	f7ff fe6e 	bl	2000010a <PUT32>
2000042e:	e000      	b.n	20000432 <gpio_set_on+0x26>
20000430:	46c0      	nop			; (mov r8, r8)
20000432:	46bd      	mov	sp, r7
20000434:	b002      	add	sp, #8
20000436:	bd80      	pop	{r7, pc}
20000438:	d0000014 	andle	r0, r0, r4, lsl r0

2000043c <gpio_set_off>:
2000043c:	b580      	push	{r7, lr}
2000043e:	b082      	sub	sp, #8
20000440:	af00      	add	r7, sp, #0
20000442:	6078      	str	r0, [r7, #4]
20000444:	687b      	ldr	r3, [r7, #4]
20000446:	2b1d      	cmp	r3, #29
20000448:	d80a      	bhi.n	20000460 <gpio_set_off+0x24>
2000044a:	2201      	movs	r2, #1
2000044c:	687b      	ldr	r3, [r7, #4]
2000044e:	409a      	lsls	r2, r3
20000450:	0013      	movs	r3, r2
20000452:	001a      	movs	r2, r3
20000454:	4b04      	ldr	r3, [pc, #16]	; (20000468 <gpio_set_off+0x2c>)
20000456:	0011      	movs	r1, r2
20000458:	0018      	movs	r0, r3
2000045a:	f7ff fe56 	bl	2000010a <PUT32>
2000045e:	e000      	b.n	20000462 <gpio_set_off+0x26>
20000460:	46c0      	nop			; (mov r8, r8)
20000462:	46bd      	mov	sp, r7
20000464:	b002      	add	sp, #8
20000466:	bd80      	pop	{r7, pc}
20000468:	d0000018 	andle	r0, r0, r8, lsl r0

2000046c <reset_pads>:
2000046c:	b580      	push	{r7, lr}
2000046e:	af00      	add	r7, sp, #0
20000470:	2008      	movs	r0, #8
20000472:	f7ff ff07 	bl	20000284 <reset_periph>
20000476:	46c0      	nop			; (mov r8, r8)
20000478:	46bd      	mov	sp, r7
2000047a:	bd80      	pop	{r7, pc}

2000047c <reset_pio>:
2000047c:	b580      	push	{r7, lr}
2000047e:	af00      	add	r7, sp, #0
20000480:	200a      	movs	r0, #10
20000482:	f7ff feff 	bl	20000284 <reset_periph>
20000486:	46c0      	nop			; (mov r8, r8)
20000488:	46bd      	mov	sp, r7
2000048a:	bd80      	pop	{r7, pc}

2000048c <drive_pad>:
2000048c:	b580      	push	{r7, lr}
2000048e:	b084      	sub	sp, #16
20000490:	af00      	add	r7, sp, #0
20000492:	6078      	str	r0, [r7, #4]
20000494:	687b      	ldr	r3, [r7, #4]
20000496:	2b1d      	cmp	r3, #29
20000498:	d80b      	bhi.n	200004b2 <drive_pad+0x26>
2000049a:	687b      	ldr	r3, [r7, #4]
2000049c:	009b      	lsls	r3, r3, #2
2000049e:	60fb      	str	r3, [r7, #12]
200004a0:	68fb      	ldr	r3, [r7, #12]
200004a2:	4a06      	ldr	r2, [pc, #24]	; (200004bc <drive_pad+0x30>)
200004a4:	4694      	mov	ip, r2
200004a6:	4463      	add	r3, ip
200004a8:	2120      	movs	r1, #32
200004aa:	0018      	movs	r0, r3
200004ac:	f7ff fe2d 	bl	2000010a <PUT32>
200004b0:	e000      	b.n	200004b4 <drive_pad+0x28>
200004b2:	46c0      	nop			; (mov r8, r8)
200004b4:	46bd      	mov	sp, r7
200004b6:	b004      	add	sp, #16
200004b8:	bd80      	pop	{r7, pc}
200004ba:	46c0      	nop			; (mov r8, r8)
200004bc:	4001c004 	andmi	ip, r1, r4

200004c0 <seconds_start>:
200004c0:	b580      	push	{r7, lr}
200004c2:	af00      	add	r7, sp, #0
200004c4:	4b11      	ldr	r3, [pc, #68]	; (2000050c <seconds_start+0x4c>)
200004c6:	2104      	movs	r1, #4
200004c8:	0018      	movs	r0, r3
200004ca:	f7ff fe1e 	bl	2000010a <PUT32>
200004ce:	4a10      	ldr	r2, [pc, #64]	; (20000510 <seconds_start+0x50>)
200004d0:	4b10      	ldr	r3, [pc, #64]	; (20000514 <seconds_start+0x54>)
200004d2:	0011      	movs	r1, r2
200004d4:	0018      	movs	r0, r3
200004d6:	f7ff fe18 	bl	2000010a <PUT32>
200004da:	4b0f      	ldr	r3, [pc, #60]	; (20000518 <seconds_start+0x58>)
200004dc:	2100      	movs	r1, #0
200004de:	0018      	movs	r0, r3
200004e0:	f7ff fe13 	bl	2000010a <PUT32>
200004e4:	4b09      	ldr	r3, [pc, #36]	; (2000050c <seconds_start+0x4c>)
200004e6:	2105      	movs	r1, #5
200004e8:	0018      	movs	r0, r3
200004ea:	f7ff fe0e 	bl	2000010a <PUT32>
200004ee:	46c0      	nop			; (mov r8, r8)
200004f0:	4b06      	ldr	r3, [pc, #24]	; (2000050c <seconds_start+0x4c>)
200004f2:	0018      	movs	r0, r3
200004f4:	f7ff fe0b 	bl	2000010e <GET32>
200004f8:	0003      	movs	r3, r0
200004fa:	0c1b      	lsrs	r3, r3, #16
200004fc:	2201      	movs	r2, #1
200004fe:	4013      	ands	r3, r2
20000500:	d0f6      	beq.n	200004f0 <seconds_start+0x30>
20000502:	46c0      	nop			; (mov r8, r8)
20000504:	46c0      	nop			; (mov r8, r8)
20000506:	46bd      	mov	sp, r7
20000508:	bd80      	pop	{r7, pc}
2000050a:	46c0      	nop			; (mov r8, r8)
2000050c:	e000e010 	and	lr, r0, r0, lsl r0
20000510:	00b71aff 	ldrshteq	r1, [r7], pc
20000514:	e000e014 	and	lr, r0, r4, lsl r0
20000518:	e000e018 	and	lr, r0, r8, lsl r0

2000051c <enable_clock>:
2000051c:	b580      	push	{r7, lr}
2000051e:	b084      	sub	sp, #16
20000520:	af00      	add	r7, sp, #0
20000522:	0002      	movs	r2, r0
20000524:	1dfb      	adds	r3, r7, #7
20000526:	701a      	strb	r2, [r3, #0]
20000528:	232f      	movs	r3, #47	; 0x2f
2000052a:	60fb      	str	r3, [r7, #12]
2000052c:	23aa      	movs	r3, #170	; 0xaa
2000052e:	011b      	lsls	r3, r3, #4
20000530:	4a14      	ldr	r2, [pc, #80]	; (20000584 <enable_clock+0x68>)
20000532:	0019      	movs	r1, r3
20000534:	0010      	movs	r0, r2
20000536:	f7ff fde8 	bl	2000010a <PUT32>
2000053a:	68fb      	ldr	r3, [r7, #12]
2000053c:	4a12      	ldr	r2, [pc, #72]	; (20000588 <enable_clock+0x6c>)
2000053e:	0019      	movs	r1, r3
20000540:	0010      	movs	r0, r2
20000542:	f7ff fde2 	bl	2000010a <PUT32>
20000546:	4a11      	ldr	r2, [pc, #68]	; (2000058c <enable_clock+0x70>)
20000548:	4b11      	ldr	r3, [pc, #68]	; (20000590 <enable_clock+0x74>)
2000054a:	0011      	movs	r1, r2
2000054c:	0018      	movs	r0, r3
2000054e:	f7ff fddc 	bl	2000010a <PUT32>
20000552:	46c0      	nop			; (mov r8, r8)
20000554:	4b0f      	ldr	r3, [pc, #60]	; (20000594 <enable_clock+0x78>)
20000556:	0018      	movs	r0, r3
20000558:	f7ff fdd9 	bl	2000010e <GET32>
2000055c:	1e03      	subs	r3, r0, #0
2000055e:	daf9      	bge.n	20000554 <enable_clock+0x38>
20000560:	1dfb      	adds	r3, r7, #7
20000562:	781b      	ldrb	r3, [r3, #0]
20000564:	2b00      	cmp	r3, #0
20000566:	d009      	beq.n	2000057c <enable_clock+0x60>
20000568:	4b0b      	ldr	r3, [pc, #44]	; (20000598 <enable_clock+0x7c>)
2000056a:	2102      	movs	r1, #2
2000056c:	0018      	movs	r0, r3
2000056e:	f7ff fdcc 	bl	2000010a <PUT32>
20000572:	4b0a      	ldr	r3, [pc, #40]	; (2000059c <enable_clock+0x80>)
20000574:	2100      	movs	r1, #0
20000576:	0018      	movs	r0, r3
20000578:	f7ff fdc7 	bl	2000010a <PUT32>
2000057c:	46c0      	nop			; (mov r8, r8)
2000057e:	46bd      	mov	sp, r7
20000580:	b004      	add	sp, #16
20000582:	bd80      	pop	{r7, pc}
20000584:	40024000 	andmi	r4, r2, r0
20000588:	4002400c 	andmi	r4, r2, ip
2000058c:	00000fab 	andeq	r0, r0, fp, lsr #31
20000590:	40026000 	andmi	r6, r2, r0
20000594:	40024004 	andmi	r4, r2, r4
20000598:	40008030 	andmi	r8, r0, r0, lsr r0
2000059c:	4000803c 	andmi	r8, r0, ip, lsr r0

200005a0 <delay_us>:
200005a0:	b580      	push	{r7, lr}
200005a2:	b084      	sub	sp, #16
200005a4:	af00      	add	r7, sp, #0
200005a6:	6078      	str	r0, [r7, #4]
200005a8:	687a      	ldr	r2, [r7, #4]
200005aa:	0013      	movs	r3, r2
200005ac:	005b      	lsls	r3, r3, #1
200005ae:	189b      	adds	r3, r3, r2
200005b0:	009b      	lsls	r3, r3, #2
200005b2:	0a1b      	lsrs	r3, r3, #8
200005b4:	60bb      	str	r3, [r7, #8]
200005b6:	2300      	movs	r3, #0
200005b8:	60fb      	str	r3, [r7, #12]
200005ba:	e010      	b.n	200005de <delay_us+0x3e>
200005bc:	4b0c      	ldr	r3, [pc, #48]	; (200005f0 <delay_us+0x50>)
200005be:	21a9      	movs	r1, #169	; 0xa9
200005c0:	0018      	movs	r0, r3
200005c2:	f7ff fda2 	bl	2000010a <PUT32>
200005c6:	46c0      	nop			; (mov r8, r8)
200005c8:	4b0a      	ldr	r3, [pc, #40]	; (200005f4 <delay_us+0x54>)
200005ca:	0018      	movs	r0, r3
200005cc:	f7ff fd9f 	bl	2000010e <GET32>
200005d0:	0003      	movs	r3, r0
200005d2:	22ff      	movs	r2, #255	; 0xff
200005d4:	4013      	ands	r3, r2
200005d6:	d1f7      	bne.n	200005c8 <delay_us+0x28>
200005d8:	68fb      	ldr	r3, [r7, #12]
200005da:	3301      	adds	r3, #1
200005dc:	60fb      	str	r3, [r7, #12]
200005de:	68fb      	ldr	r3, [r7, #12]
200005e0:	68ba      	ldr	r2, [r7, #8]
200005e2:	429a      	cmp	r2, r3
200005e4:	d8ea      	bhi.n	200005bc <delay_us+0x1c>
200005e6:	46c0      	nop			; (mov r8, r8)
200005e8:	46c0      	nop			; (mov r8, r8)
200005ea:	46bd      	mov	sp, r7
200005ec:	b004      	add	sp, #16
200005ee:	bd80      	pop	{r7, pc}
200005f0:	4002601c 	andmi	r6, r2, ip, lsl r0
200005f4:	4002401c 	andmi	r4, r2, ip, lsl r0

200005f8 <micro_seconds_start>:
200005f8:	b580      	push	{r7, lr}
200005fa:	b082      	sub	sp, #8
200005fc:	af00      	add	r7, sp, #0
200005fe:	6078      	str	r0, [r7, #4]
20000600:	4b0c      	ldr	r3, [pc, #48]	; (20000634 <micro_seconds_start+0x3c>)
20000602:	2100      	movs	r1, #0
20000604:	0018      	movs	r0, r3
20000606:	f7ff fd80 	bl	2000010a <PUT32>
2000060a:	687b      	ldr	r3, [r7, #4]
2000060c:	4a0a      	ldr	r2, [pc, #40]	; (20000638 <micro_seconds_start+0x40>)
2000060e:	0019      	movs	r1, r3
20000610:	0010      	movs	r0, r2
20000612:	f7ff fd7a 	bl	2000010a <PUT32>
20000616:	4b09      	ldr	r3, [pc, #36]	; (2000063c <micro_seconds_start+0x44>)
20000618:	2100      	movs	r1, #0
2000061a:	0018      	movs	r0, r3
2000061c:	f7ff fd75 	bl	2000010a <PUT32>
20000620:	4b04      	ldr	r3, [pc, #16]	; (20000634 <micro_seconds_start+0x3c>)
20000622:	2101      	movs	r1, #1
20000624:	0018      	movs	r0, r3
20000626:	f7ff fd70 	bl	2000010a <PUT32>
2000062a:	46c0      	nop			; (mov r8, r8)
2000062c:	46bd      	mov	sp, r7
2000062e:	b002      	add	sp, #8
20000630:	bd80      	pop	{r7, pc}
20000632:	46c0      	nop			; (mov r8, r8)
20000634:	e000e010 	and	lr, r0, r0, lsl r0
20000638:	e000e014 	and	lr, r0, r4, lsl r0
2000063c:	e000e018 	and	lr, r0, r8, lsl r0

20000640 <enable_clk_peri>:
20000640:	b580      	push	{r7, lr}
20000642:	b082      	sub	sp, #8
20000644:	af00      	add	r7, sp, #0
20000646:	6078      	str	r0, [r7, #4]
20000648:	687b      	ldr	r3, [r7, #4]
2000064a:	2b06      	cmp	r3, #6
2000064c:	d80e      	bhi.n	2000066c <enable_clk_peri+0x2c>
2000064e:	2380      	movs	r3, #128	; 0x80
20000650:	011b      	lsls	r3, r3, #4
20000652:	4a08      	ldr	r2, [pc, #32]	; (20000674 <enable_clk_peri+0x34>)
20000654:	0019      	movs	r1, r3
20000656:	0010      	movs	r0, r2
20000658:	f7ff fd57 	bl	2000010a <PUT32>
2000065c:	687b      	ldr	r3, [r7, #4]
2000065e:	015b      	lsls	r3, r3, #5
20000660:	4a04      	ldr	r2, [pc, #16]	; (20000674 <enable_clk_peri+0x34>)
20000662:	0019      	movs	r1, r3
20000664:	0010      	movs	r0, r2
20000666:	f7ff fd50 	bl	2000010a <PUT32>
2000066a:	e000      	b.n	2000066e <enable_clk_peri+0x2e>
2000066c:	46c0      	nop			; (mov r8, r8)
2000066e:	46bd      	mov	sp, r7
20000670:	b002      	add	sp, #8
20000672:	bd80      	pop	{r7, pc}
20000674:	4000a048 	andmi	sl, r0, r8, asr #32

20000678 <timed_write>:
20000678:	b580      	push	{r7, lr}
2000067a:	b084      	sub	sp, #16
2000067c:	af00      	add	r7, sp, #0
2000067e:	60f8      	str	r0, [r7, #12]
20000680:	60b9      	str	r1, [r7, #8]
20000682:	607a      	str	r2, [r7, #4]
20000684:	68bb      	ldr	r3, [r7, #8]
20000686:	2b00      	cmp	r3, #0
20000688:	d004      	beq.n	20000694 <timed_write+0x1c>
2000068a:	68fb      	ldr	r3, [r7, #12]
2000068c:	0018      	movs	r0, r3
2000068e:	f7ff febd 	bl	2000040c <gpio_set_on>
20000692:	e003      	b.n	2000069c <timed_write+0x24>
20000694:	68fb      	ldr	r3, [r7, #12]
20000696:	0018      	movs	r0, r3
20000698:	f7ff fed0 	bl	2000043c <gpio_set_off>
2000069c:	687b      	ldr	r3, [r7, #4]
2000069e:	0018      	movs	r0, r3
200006a0:	f7ff ff7e 	bl	200005a0 <delay_us>
200006a4:	46c0      	nop			; (mov r8, r8)
200006a6:	46bd      	mov	sp, r7
200006a8:	b004      	add	sp, #16
200006aa:	bd80      	pop	{r7, pc}

200006ac <sw_uart_putc>:
200006ac:	b580      	push	{r7, lr}
200006ae:	b084      	sub	sp, #16
200006b0:	af00      	add	r7, sp, #0
200006b2:	6078      	str	r0, [r7, #4]
200006b4:	000a      	movs	r2, r1
200006b6:	1cfb      	adds	r3, r7, #3
200006b8:	701a      	strb	r2, [r3, #0]
200006ba:	687b      	ldr	r3, [r7, #4]
200006bc:	6818      	ldr	r0, [r3, #0]
200006be:	687b      	ldr	r3, [r7, #4]
200006c0:	68db      	ldr	r3, [r3, #12]
200006c2:	001a      	movs	r2, r3
200006c4:	2100      	movs	r1, #0
200006c6:	f7ff ffd7 	bl	20000678 <timed_write>
200006ca:	2300      	movs	r3, #0
200006cc:	60fb      	str	r3, [r7, #12]
200006ce:	e011      	b.n	200006f4 <sw_uart_putc+0x48>
200006d0:	687b      	ldr	r3, [r7, #4]
200006d2:	6818      	ldr	r0, [r3, #0]
200006d4:	1cfb      	adds	r3, r7, #3
200006d6:	781a      	ldrb	r2, [r3, #0]
200006d8:	68fb      	ldr	r3, [r7, #12]
200006da:	411a      	asrs	r2, r3
200006dc:	0013      	movs	r3, r2
200006de:	2201      	movs	r2, #1
200006e0:	4013      	ands	r3, r2
200006e2:	0019      	movs	r1, r3
200006e4:	687b      	ldr	r3, [r7, #4]
200006e6:	68db      	ldr	r3, [r3, #12]
200006e8:	001a      	movs	r2, r3
200006ea:	f7ff ffc5 	bl	20000678 <timed_write>
200006ee:	68fb      	ldr	r3, [r7, #12]
200006f0:	3301      	adds	r3, #1
200006f2:	60fb      	str	r3, [r7, #12]
200006f4:	68fb      	ldr	r3, [r7, #12]
200006f6:	2b07      	cmp	r3, #7
200006f8:	ddea      	ble.n	200006d0 <sw_uart_putc+0x24>
200006fa:	687b      	ldr	r3, [r7, #4]
200006fc:	6818      	ldr	r0, [r3, #0]
200006fe:	687b      	ldr	r3, [r7, #4]
20000700:	68db      	ldr	r3, [r3, #12]
20000702:	001a      	movs	r2, r3
20000704:	2101      	movs	r1, #1
20000706:	f7ff ffb7 	bl	20000678 <timed_write>
2000070a:	46c0      	nop			; (mov r8, r8)
2000070c:	46bd      	mov	sp, r7
2000070e:	b004      	add	sp, #16
20000710:	bd80      	pop	{r7, pc}

20000712 <sw_uart_putk>:
20000712:	b580      	push	{r7, lr}
20000714:	b084      	sub	sp, #16
20000716:	af00      	add	r7, sp, #0
20000718:	6078      	str	r0, [r7, #4]
2000071a:	6039      	str	r1, [r7, #0]
2000071c:	2300      	movs	r3, #0
2000071e:	60fb      	str	r3, [r7, #12]
20000720:	e00b      	b.n	2000073a <sw_uart_putk+0x28>
20000722:	68fb      	ldr	r3, [r7, #12]
20000724:	683a      	ldr	r2, [r7, #0]
20000726:	18d3      	adds	r3, r2, r3
20000728:	781a      	ldrb	r2, [r3, #0]
2000072a:	687b      	ldr	r3, [r7, #4]
2000072c:	0011      	movs	r1, r2
2000072e:	0018      	movs	r0, r3
20000730:	f7ff ffbc 	bl	200006ac <sw_uart_putc>
20000734:	68fb      	ldr	r3, [r7, #12]
20000736:	3301      	adds	r3, #1
20000738:	60fb      	str	r3, [r7, #12]
2000073a:	68fb      	ldr	r3, [r7, #12]
2000073c:	683a      	ldr	r2, [r7, #0]
2000073e:	18d3      	adds	r3, r2, r3
20000740:	781b      	ldrb	r3, [r3, #0]
20000742:	2b00      	cmp	r3, #0
20000744:	d1ed      	bne.n	20000722 <sw_uart_putk+0x10>
20000746:	46c0      	nop			; (mov r8, r8)
20000748:	46c0      	nop			; (mov r8, r8)
2000074a:	46bd      	mov	sp, r7
2000074c:	b004      	add	sp, #16
2000074e:	bd80      	pop	{r7, pc}

20000750 <init_uart_printing>:
20000750:	b590      	push	{r4, r7, lr}
20000752:	b085      	sub	sp, #20
20000754:	af00      	add	r7, sp, #0
20000756:	2000      	movs	r0, #0
20000758:	f7ff fe1a 	bl	20000390 <gpio_set_output>
2000075c:	2000      	movs	r0, #0
2000075e:	f7ff fe55 	bl	2000040c <gpio_set_on>
20000762:	2001      	movs	r0, #1
20000764:	f7ff fdda 	bl	2000031c <gpio_set_input>
20000768:	4b05      	ldr	r3, [pc, #20]	; (20000780 <init_uart_printing+0x30>)
2000076a:	4a06      	ldr	r2, [pc, #24]	; (20000784 <init_uart_printing+0x34>)
2000076c:	ca13      	ldmia	r2!, {r0, r1, r4}
2000076e:	c313      	stmia	r3!, {r0, r1, r4}
20000770:	6812      	ldr	r2, [r2, #0]
20000772:	601a      	str	r2, [r3, #0]
20000774:	2301      	movs	r3, #1
20000776:	0018      	movs	r0, r3
20000778:	46bd      	mov	sp, r7
2000077a:	b005      	add	sp, #20
2000077c:	bd90      	pop	{r4, r7, pc}
2000077e:	46c0      	nop			; (mov r8, r8)
20000780:	2000f010 	andcs	pc, r0, r0, lsl r0	; <UNPREDICTABLE>
20000784:	10001780 	andne	r1, r0, r0, lsl #15

20000788 <iabs>:
20000788:	b580      	push	{r7, lr}
2000078a:	b082      	sub	sp, #8
2000078c:	af00      	add	r7, sp, #0
2000078e:	6078      	str	r0, [r7, #4]
20000790:	687b      	ldr	r3, [r7, #4]
20000792:	17da      	asrs	r2, r3, #31
20000794:	189b      	adds	r3, r3, r2
20000796:	4053      	eors	r3, r2
20000798:	0018      	movs	r0, r3
2000079a:	46bd      	mov	sp, r7
2000079c:	b002      	add	sp, #8
2000079e:	bd80      	pop	{r7, pc}

200007a0 <divlu>:
200007a0:	b5b0      	push	{r4, r5, r7, lr}
200007a2:	b08a      	sub	sp, #40	; 0x28
200007a4:	af00      	add	r7, sp, #0
200007a6:	60b8      	str	r0, [r7, #8]
200007a8:	60f9      	str	r1, [r7, #12]
200007aa:	607a      	str	r2, [r7, #4]
200007ac:	68fb      	ldr	r3, [r7, #12]
200007ae:	001c      	movs	r4, r3
200007b0:	2300      	movs	r3, #0
200007b2:	001d      	movs	r5, r3
200007b4:	0023      	movs	r3, r4
200007b6:	623b      	str	r3, [r7, #32]
200007b8:	68bb      	ldr	r3, [r7, #8]
200007ba:	61fb      	str	r3, [r7, #28]
200007bc:	687b      	ldr	r3, [r7, #4]
200007be:	61bb      	str	r3, [r7, #24]
200007c0:	2301      	movs	r3, #1
200007c2:	627b      	str	r3, [r7, #36]	; 0x24
200007c4:	e01b      	b.n	200007fe <divlu+0x5e>
200007c6:	6a3b      	ldr	r3, [r7, #32]
200007c8:	17db      	asrs	r3, r3, #31
200007ca:	617b      	str	r3, [r7, #20]
200007cc:	6a3b      	ldr	r3, [r7, #32]
200007ce:	005a      	lsls	r2, r3, #1
200007d0:	69fb      	ldr	r3, [r7, #28]
200007d2:	0fdb      	lsrs	r3, r3, #31
200007d4:	4313      	orrs	r3, r2
200007d6:	623b      	str	r3, [r7, #32]
200007d8:	69fb      	ldr	r3, [r7, #28]
200007da:	005b      	lsls	r3, r3, #1
200007dc:	61fb      	str	r3, [r7, #28]
200007de:	6a3a      	ldr	r2, [r7, #32]
200007e0:	697b      	ldr	r3, [r7, #20]
200007e2:	4313      	orrs	r3, r2
200007e4:	69ba      	ldr	r2, [r7, #24]
200007e6:	429a      	cmp	r2, r3
200007e8:	d806      	bhi.n	200007f8 <divlu+0x58>
200007ea:	6a3a      	ldr	r2, [r7, #32]
200007ec:	69bb      	ldr	r3, [r7, #24]
200007ee:	1ad3      	subs	r3, r2, r3
200007f0:	623b      	str	r3, [r7, #32]
200007f2:	69fb      	ldr	r3, [r7, #28]
200007f4:	3301      	adds	r3, #1
200007f6:	61fb      	str	r3, [r7, #28]
200007f8:	6a7b      	ldr	r3, [r7, #36]	; 0x24
200007fa:	3301      	adds	r3, #1
200007fc:	627b      	str	r3, [r7, #36]	; 0x24
200007fe:	6a7b      	ldr	r3, [r7, #36]	; 0x24
20000800:	2b20      	cmp	r3, #32
20000802:	dde0      	ble.n	200007c6 <divlu+0x26>
20000804:	69fb      	ldr	r3, [r7, #28]
20000806:	0018      	movs	r0, r3
20000808:	46bd      	mov	sp, r7
2000080a:	b00a      	add	sp, #40	; 0x28
2000080c:	bdb0      	pop	{r4, r5, r7, pc}

2000080e <udiv>:
2000080e:	b5b0      	push	{r4, r5, r7, lr}
20000810:	b082      	sub	sp, #8
20000812:	af00      	add	r7, sp, #0
20000814:	6078      	str	r0, [r7, #4]
20000816:	6039      	str	r1, [r7, #0]
20000818:	687b      	ldr	r3, [r7, #4]
2000081a:	001c      	movs	r4, r3
2000081c:	2300      	movs	r3, #0
2000081e:	001d      	movs	r5, r3
20000820:	683b      	ldr	r3, [r7, #0]
20000822:	001a      	movs	r2, r3
20000824:	0020      	movs	r0, r4
20000826:	0029      	movs	r1, r5
20000828:	f7ff ffba 	bl	200007a0 <divlu>
2000082c:	0003      	movs	r3, r0
2000082e:	0018      	movs	r0, r3
20000830:	46bd      	mov	sp, r7
20000832:	b002      	add	sp, #8
20000834:	bdb0      	pop	{r4, r5, r7, pc}

20000836 <idiv>:
20000836:	b590      	push	{r4, r7, lr}
20000838:	b085      	sub	sp, #20
2000083a:	af00      	add	r7, sp, #0
2000083c:	6078      	str	r0, [r7, #4]
2000083e:	6039      	str	r1, [r7, #0]
20000840:	687b      	ldr	r3, [r7, #4]
20000842:	2b00      	cmp	r3, #0
20000844:	d101      	bne.n	2000084a <idiv+0x14>
20000846:	2300      	movs	r3, #0
20000848:	e01f      	b.n	2000088a <idiv+0x54>
2000084a:	687b      	ldr	r3, [r7, #4]
2000084c:	0018      	movs	r0, r3
2000084e:	f7ff ff9b 	bl	20000788 <iabs>
20000852:	0004      	movs	r4, r0
20000854:	683b      	ldr	r3, [r7, #0]
20000856:	0018      	movs	r0, r3
20000858:	f7ff ff96 	bl	20000788 <iabs>
2000085c:	0003      	movs	r3, r0
2000085e:	0019      	movs	r1, r3
20000860:	0020      	movs	r0, r4
20000862:	f7ff ffd4 	bl	2000080e <udiv>
20000866:	0003      	movs	r3, r0
20000868:	60fb      	str	r3, [r7, #12]
2000086a:	687b      	ldr	r3, [r7, #4]
2000086c:	2b00      	cmp	r3, #0
2000086e:	da02      	bge.n	20000876 <idiv+0x40>
20000870:	683b      	ldr	r3, [r7, #0]
20000872:	2b00      	cmp	r3, #0
20000874:	db05      	blt.n	20000882 <idiv+0x4c>
20000876:	687b      	ldr	r3, [r7, #4]
20000878:	2b00      	cmp	r3, #0
2000087a:	dd04      	ble.n	20000886 <idiv+0x50>
2000087c:	683b      	ldr	r3, [r7, #0]
2000087e:	2b00      	cmp	r3, #0
20000880:	dd01      	ble.n	20000886 <idiv+0x50>
20000882:	68fb      	ldr	r3, [r7, #12]
20000884:	e001      	b.n	2000088a <idiv+0x54>
20000886:	68fb      	ldr	r3, [r7, #12]
20000888:	425b      	negs	r3, r3
2000088a:	0018      	movs	r0, r3
2000088c:	46bd      	mov	sp, r7
2000088e:	b005      	add	sp, #20
20000890:	bd90      	pop	{r4, r7, pc}

20000892 <imod>:
20000892:	b580      	push	{r7, lr}
20000894:	b084      	sub	sp, #16
20000896:	af00      	add	r7, sp, #0
20000898:	6078      	str	r0, [r7, #4]
2000089a:	6039      	str	r1, [r7, #0]
2000089c:	683b      	ldr	r3, [r7, #0]
2000089e:	2b00      	cmp	r3, #0
200008a0:	d101      	bne.n	200008a6 <imod+0x14>
200008a2:	687b      	ldr	r3, [r7, #4]
200008a4:	e00c      	b.n	200008c0 <imod+0x2e>
200008a6:	683a      	ldr	r2, [r7, #0]
200008a8:	687b      	ldr	r3, [r7, #4]
200008aa:	0011      	movs	r1, r2
200008ac:	0018      	movs	r0, r3
200008ae:	f7ff ffc2 	bl	20000836 <idiv>
200008b2:	0003      	movs	r3, r0
200008b4:	60fb      	str	r3, [r7, #12]
200008b6:	683b      	ldr	r3, [r7, #0]
200008b8:	68fa      	ldr	r2, [r7, #12]
200008ba:	4353      	muls	r3, r2
200008bc:	687a      	ldr	r2, [r7, #4]
200008be:	1ad3      	subs	r3, r2, r3
200008c0:	0018      	movs	r0, r3
200008c2:	46bd      	mov	sp, r7
200008c4:	b004      	add	sp, #16
200008c6:	bd80      	pop	{r7, pc}

200008c8 <_putchar>:
200008c8:	b580      	push	{r7, lr}
200008ca:	b082      	sub	sp, #8
200008cc:	af00      	add	r7, sp, #0
200008ce:	0002      	movs	r2, r0
200008d0:	1dfb      	adds	r3, r7, #7
200008d2:	701a      	strb	r2, [r3, #0]
200008d4:	1dfb      	adds	r3, r7, #7
200008d6:	781b      	ldrb	r3, [r3, #0]
200008d8:	0018      	movs	r0, r3
200008da:	f000 fef3 	bl	200016c4 <uart_putc>
200008de:	46c0      	nop			; (mov r8, r8)
200008e0:	46bd      	mov	sp, r7
200008e2:	b002      	add	sp, #8
200008e4:	bd80      	pop	{r7, pc}

200008e6 <_out_buffer>:
200008e6:	b580      	push	{r7, lr}
200008e8:	b084      	sub	sp, #16
200008ea:	af00      	add	r7, sp, #0
200008ec:	60b9      	str	r1, [r7, #8]
200008ee:	607a      	str	r2, [r7, #4]
200008f0:	603b      	str	r3, [r7, #0]
200008f2:	210f      	movs	r1, #15
200008f4:	187b      	adds	r3, r7, r1
200008f6:	1c02      	adds	r2, r0, #0
200008f8:	701a      	strb	r2, [r3, #0]
200008fa:	687a      	ldr	r2, [r7, #4]
200008fc:	683b      	ldr	r3, [r7, #0]
200008fe:	429a      	cmp	r2, r3
20000900:	d205      	bcs.n	2000090e <_out_buffer+0x28>
20000902:	68ba      	ldr	r2, [r7, #8]
20000904:	687b      	ldr	r3, [r7, #4]
20000906:	18d3      	adds	r3, r2, r3
20000908:	187a      	adds	r2, r7, r1
2000090a:	7812      	ldrb	r2, [r2, #0]
2000090c:	701a      	strb	r2, [r3, #0]
2000090e:	46c0      	nop			; (mov r8, r8)
20000910:	46bd      	mov	sp, r7
20000912:	b004      	add	sp, #16
20000914:	bd80      	pop	{r7, pc}

20000916 <_out_null>:
20000916:	b580      	push	{r7, lr}
20000918:	b084      	sub	sp, #16
2000091a:	af00      	add	r7, sp, #0
2000091c:	60b9      	str	r1, [r7, #8]
2000091e:	607a      	str	r2, [r7, #4]
20000920:	603b      	str	r3, [r7, #0]
20000922:	230f      	movs	r3, #15
20000924:	18fb      	adds	r3, r7, r3
20000926:	1c02      	adds	r2, r0, #0
20000928:	701a      	strb	r2, [r3, #0]
2000092a:	46c0      	nop			; (mov r8, r8)
2000092c:	46bd      	mov	sp, r7
2000092e:	b004      	add	sp, #16
20000930:	bd80      	pop	{r7, pc}

20000932 <_out_char>:
20000932:	b580      	push	{r7, lr}
20000934:	b084      	sub	sp, #16
20000936:	af00      	add	r7, sp, #0
20000938:	60b9      	str	r1, [r7, #8]
2000093a:	607a      	str	r2, [r7, #4]
2000093c:	603b      	str	r3, [r7, #0]
2000093e:	210f      	movs	r1, #15
20000940:	187b      	adds	r3, r7, r1
20000942:	1c02      	adds	r2, r0, #0
20000944:	701a      	strb	r2, [r3, #0]
20000946:	000a      	movs	r2, r1
20000948:	18bb      	adds	r3, r7, r2
2000094a:	781b      	ldrb	r3, [r3, #0]
2000094c:	2b00      	cmp	r3, #0
2000094e:	d004      	beq.n	2000095a <_out_char+0x28>
20000950:	18bb      	adds	r3, r7, r2
20000952:	781b      	ldrb	r3, [r3, #0]
20000954:	0018      	movs	r0, r3
20000956:	f7ff ffb7 	bl	200008c8 <_putchar>
2000095a:	46c0      	nop			; (mov r8, r8)
2000095c:	46bd      	mov	sp, r7
2000095e:	b004      	add	sp, #16
20000960:	bd80      	pop	{r7, pc}

20000962 <_out_fct>:
20000962:	b580      	push	{r7, lr}
20000964:	b084      	sub	sp, #16
20000966:	af00      	add	r7, sp, #0
20000968:	60b9      	str	r1, [r7, #8]
2000096a:	607a      	str	r2, [r7, #4]
2000096c:	603b      	str	r3, [r7, #0]
2000096e:	210f      	movs	r1, #15
20000970:	187b      	adds	r3, r7, r1
20000972:	1c02      	adds	r2, r0, #0
20000974:	701a      	strb	r2, [r3, #0]
20000976:	0008      	movs	r0, r1
20000978:	187b      	adds	r3, r7, r1
2000097a:	781b      	ldrb	r3, [r3, #0]
2000097c:	2b00      	cmp	r3, #0
2000097e:	d007      	beq.n	20000990 <_out_fct+0x2e>
20000980:	68bb      	ldr	r3, [r7, #8]
20000982:	681a      	ldr	r2, [r3, #0]
20000984:	68bb      	ldr	r3, [r7, #8]
20000986:	6859      	ldr	r1, [r3, #4]
20000988:	183b      	adds	r3, r7, r0
2000098a:	781b      	ldrb	r3, [r3, #0]
2000098c:	0018      	movs	r0, r3
2000098e:	4790      	blx	r2
20000990:	46c0      	nop			; (mov r8, r8)
20000992:	46bd      	mov	sp, r7
20000994:	b004      	add	sp, #16
20000996:	bd80      	pop	{r7, pc}

20000998 <_strnlen_s>:
20000998:	b580      	push	{r7, lr}
2000099a:	b084      	sub	sp, #16
2000099c:	af00      	add	r7, sp, #0
2000099e:	6078      	str	r0, [r7, #4]
200009a0:	6039      	str	r1, [r7, #0]
200009a2:	687b      	ldr	r3, [r7, #4]
200009a4:	60fb      	str	r3, [r7, #12]
200009a6:	e002      	b.n	200009ae <_strnlen_s+0x16>
200009a8:	68fb      	ldr	r3, [r7, #12]
200009aa:	3301      	adds	r3, #1
200009ac:	60fb      	str	r3, [r7, #12]
200009ae:	68fb      	ldr	r3, [r7, #12]
200009b0:	781b      	ldrb	r3, [r3, #0]
200009b2:	2b00      	cmp	r3, #0
200009b4:	d004      	beq.n	200009c0 <_strnlen_s+0x28>
200009b6:	683b      	ldr	r3, [r7, #0]
200009b8:	1e5a      	subs	r2, r3, #1
200009ba:	603a      	str	r2, [r7, #0]
200009bc:	2b00      	cmp	r3, #0
200009be:	d1f3      	bne.n	200009a8 <_strnlen_s+0x10>
200009c0:	68fa      	ldr	r2, [r7, #12]
200009c2:	687b      	ldr	r3, [r7, #4]
200009c4:	1ad3      	subs	r3, r2, r3
200009c6:	0018      	movs	r0, r3
200009c8:	46bd      	mov	sp, r7
200009ca:	b004      	add	sp, #16
200009cc:	bd80      	pop	{r7, pc}

200009ce <_is_digit>:
200009ce:	b580      	push	{r7, lr}
200009d0:	b082      	sub	sp, #8
200009d2:	af00      	add	r7, sp, #0
200009d4:	0002      	movs	r2, r0
200009d6:	1dfb      	adds	r3, r7, #7
200009d8:	701a      	strb	r2, [r3, #0]
200009da:	1dfb      	adds	r3, r7, #7
200009dc:	781b      	ldrb	r3, [r3, #0]
200009de:	2b2f      	cmp	r3, #47	; 0x2f
200009e0:	d905      	bls.n	200009ee <_is_digit+0x20>
200009e2:	1dfb      	adds	r3, r7, #7
200009e4:	781b      	ldrb	r3, [r3, #0]
200009e6:	2b39      	cmp	r3, #57	; 0x39
200009e8:	d801      	bhi.n	200009ee <_is_digit+0x20>
200009ea:	2301      	movs	r3, #1
200009ec:	e000      	b.n	200009f0 <_is_digit+0x22>
200009ee:	2300      	movs	r3, #0
200009f0:	1c1a      	adds	r2, r3, #0
200009f2:	2301      	movs	r3, #1
200009f4:	4013      	ands	r3, r2
200009f6:	b2db      	uxtb	r3, r3
200009f8:	0018      	movs	r0, r3
200009fa:	46bd      	mov	sp, r7
200009fc:	b002      	add	sp, #8
200009fe:	bd80      	pop	{r7, pc}

20000a00 <_atoi>:
20000a00:	b580      	push	{r7, lr}
20000a02:	b084      	sub	sp, #16
20000a04:	af00      	add	r7, sp, #0
20000a06:	6078      	str	r0, [r7, #4]
20000a08:	2300      	movs	r3, #0
20000a0a:	60fb      	str	r3, [r7, #12]
20000a0c:	e00e      	b.n	20000a2c <_atoi+0x2c>
20000a0e:	68fa      	ldr	r2, [r7, #12]
20000a10:	0013      	movs	r3, r2
20000a12:	009b      	lsls	r3, r3, #2
20000a14:	189b      	adds	r3, r3, r2
20000a16:	005b      	lsls	r3, r3, #1
20000a18:	0018      	movs	r0, r3
20000a1a:	687b      	ldr	r3, [r7, #4]
20000a1c:	681b      	ldr	r3, [r3, #0]
20000a1e:	1c59      	adds	r1, r3, #1
20000a20:	687a      	ldr	r2, [r7, #4]
20000a22:	6011      	str	r1, [r2, #0]
20000a24:	781b      	ldrb	r3, [r3, #0]
20000a26:	18c3      	adds	r3, r0, r3
20000a28:	3b30      	subs	r3, #48	; 0x30
20000a2a:	60fb      	str	r3, [r7, #12]
20000a2c:	687b      	ldr	r3, [r7, #4]
20000a2e:	681b      	ldr	r3, [r3, #0]
20000a30:	781b      	ldrb	r3, [r3, #0]
20000a32:	0018      	movs	r0, r3
20000a34:	f7ff ffcb 	bl	200009ce <_is_digit>
20000a38:	1e03      	subs	r3, r0, #0
20000a3a:	d1e8      	bne.n	20000a0e <_atoi+0xe>
20000a3c:	68fb      	ldr	r3, [r7, #12]
20000a3e:	0018      	movs	r0, r3
20000a40:	46bd      	mov	sp, r7
20000a42:	b004      	add	sp, #16
20000a44:	bd80      	pop	{r7, pc}

20000a46 <_out_rev>:
20000a46:	b590      	push	{r4, r7, lr}
20000a48:	b087      	sub	sp, #28
20000a4a:	af00      	add	r7, sp, #0
20000a4c:	60f8      	str	r0, [r7, #12]
20000a4e:	60b9      	str	r1, [r7, #8]
20000a50:	607a      	str	r2, [r7, #4]
20000a52:	603b      	str	r3, [r7, #0]
20000a54:	687b      	ldr	r3, [r7, #4]
20000a56:	613b      	str	r3, [r7, #16]
20000a58:	6b7b      	ldr	r3, [r7, #52]	; 0x34
20000a5a:	2202      	movs	r2, #2
20000a5c:	4013      	ands	r3, r2
20000a5e:	d124      	bne.n	20000aaa <_out_rev+0x64>
20000a60:	6b7b      	ldr	r3, [r7, #52]	; 0x34
20000a62:	2201      	movs	r2, #1
20000a64:	4013      	ands	r3, r2
20000a66:	d120      	bne.n	20000aaa <_out_rev+0x64>
20000a68:	6afb      	ldr	r3, [r7, #44]	; 0x2c
20000a6a:	617b      	str	r3, [r7, #20]
20000a6c:	e00a      	b.n	20000a84 <_out_rev+0x3e>
20000a6e:	687a      	ldr	r2, [r7, #4]
20000a70:	1c53      	adds	r3, r2, #1
20000a72:	607b      	str	r3, [r7, #4]
20000a74:	683b      	ldr	r3, [r7, #0]
20000a76:	68b9      	ldr	r1, [r7, #8]
20000a78:	68fc      	ldr	r4, [r7, #12]
20000a7a:	2020      	movs	r0, #32
20000a7c:	47a0      	blx	r4
20000a7e:	697b      	ldr	r3, [r7, #20]
20000a80:	3301      	adds	r3, #1
20000a82:	617b      	str	r3, [r7, #20]
20000a84:	697a      	ldr	r2, [r7, #20]
20000a86:	6b3b      	ldr	r3, [r7, #48]	; 0x30
20000a88:	429a      	cmp	r2, r3
20000a8a:	d3f0      	bcc.n	20000a6e <_out_rev+0x28>
20000a8c:	e00d      	b.n	20000aaa <_out_rev+0x64>
20000a8e:	6afb      	ldr	r3, [r7, #44]	; 0x2c
20000a90:	3b01      	subs	r3, #1
20000a92:	62fb      	str	r3, [r7, #44]	; 0x2c
20000a94:	6aba      	ldr	r2, [r7, #40]	; 0x28
20000a96:	6afb      	ldr	r3, [r7, #44]	; 0x2c
20000a98:	18d3      	adds	r3, r2, r3
20000a9a:	7818      	ldrb	r0, [r3, #0]
20000a9c:	687a      	ldr	r2, [r7, #4]
20000a9e:	1c53      	adds	r3, r2, #1
20000aa0:	607b      	str	r3, [r7, #4]
20000aa2:	683b      	ldr	r3, [r7, #0]
20000aa4:	68b9      	ldr	r1, [r7, #8]
20000aa6:	68fc      	ldr	r4, [r7, #12]
20000aa8:	47a0      	blx	r4
20000aaa:	6afb      	ldr	r3, [r7, #44]	; 0x2c
20000aac:	2b00      	cmp	r3, #0
20000aae:	d1ee      	bne.n	20000a8e <_out_rev+0x48>
20000ab0:	6b7b      	ldr	r3, [r7, #52]	; 0x34
20000ab2:	2202      	movs	r2, #2
20000ab4:	4013      	ands	r3, r2
20000ab6:	d00e      	beq.n	20000ad6 <_out_rev+0x90>
20000ab8:	e007      	b.n	20000aca <_out_rev+0x84>
20000aba:	687a      	ldr	r2, [r7, #4]
20000abc:	1c53      	adds	r3, r2, #1
20000abe:	607b      	str	r3, [r7, #4]
20000ac0:	683b      	ldr	r3, [r7, #0]
20000ac2:	68b9      	ldr	r1, [r7, #8]
20000ac4:	68fc      	ldr	r4, [r7, #12]
20000ac6:	2020      	movs	r0, #32
20000ac8:	47a0      	blx	r4
20000aca:	687a      	ldr	r2, [r7, #4]
20000acc:	693b      	ldr	r3, [r7, #16]
20000ace:	1ad3      	subs	r3, r2, r3
20000ad0:	6b3a      	ldr	r2, [r7, #48]	; 0x30
20000ad2:	429a      	cmp	r2, r3
20000ad4:	d8f1      	bhi.n	20000aba <_out_rev+0x74>
20000ad6:	687b      	ldr	r3, [r7, #4]
20000ad8:	0018      	movs	r0, r3
20000ada:	46bd      	mov	sp, r7
20000adc:	b007      	add	sp, #28
20000ade:	bd90      	pop	{r4, r7, pc}

20000ae0 <_ntoa_format>:
20000ae0:	b590      	push	{r4, r7, lr}
20000ae2:	b089      	sub	sp, #36	; 0x24
20000ae4:	af04      	add	r7, sp, #16
20000ae6:	60f8      	str	r0, [r7, #12]
20000ae8:	60b9      	str	r1, [r7, #8]
20000aea:	607a      	str	r2, [r7, #4]
20000aec:	603b      	str	r3, [r7, #0]
20000aee:	6bbb      	ldr	r3, [r7, #56]	; 0x38
20000af0:	2202      	movs	r2, #2
20000af2:	4013      	ands	r3, r2
20000af4:	d134      	bne.n	20000b60 <_ntoa_format+0x80>
20000af6:	6b7b      	ldr	r3, [r7, #52]	; 0x34
20000af8:	2b00      	cmp	r3, #0
20000afa:	d017      	beq.n	20000b2c <_ntoa_format+0x4c>
20000afc:	6bbb      	ldr	r3, [r7, #56]	; 0x38
20000afe:	2201      	movs	r2, #1
20000b00:	4013      	ands	r3, r2
20000b02:	d013      	beq.n	20000b2c <_ntoa_format+0x4c>
20000b04:	2328      	movs	r3, #40	; 0x28
20000b06:	18fb      	adds	r3, r7, r3
20000b08:	781b      	ldrb	r3, [r3, #0]
20000b0a:	2b00      	cmp	r3, #0
20000b0c:	d103      	bne.n	20000b16 <_ntoa_format+0x36>
20000b0e:	6bbb      	ldr	r3, [r7, #56]	; 0x38
20000b10:	220c      	movs	r2, #12
20000b12:	4013      	ands	r3, r2
20000b14:	d00a      	beq.n	20000b2c <_ntoa_format+0x4c>
20000b16:	6b7b      	ldr	r3, [r7, #52]	; 0x34
20000b18:	3b01      	subs	r3, #1
20000b1a:	637b      	str	r3, [r7, #52]	; 0x34
20000b1c:	e006      	b.n	20000b2c <_ntoa_format+0x4c>
20000b1e:	6a7b      	ldr	r3, [r7, #36]	; 0x24
20000b20:	1c5a      	adds	r2, r3, #1
20000b22:	627a      	str	r2, [r7, #36]	; 0x24
20000b24:	6a3a      	ldr	r2, [r7, #32]
20000b26:	18d3      	adds	r3, r2, r3
20000b28:	2230      	movs	r2, #48	; 0x30
20000b2a:	701a      	strb	r2, [r3, #0]
20000b2c:	6a7a      	ldr	r2, [r7, #36]	; 0x24
20000b2e:	6b3b      	ldr	r3, [r7, #48]	; 0x30
20000b30:	429a      	cmp	r2, r3
20000b32:	d20a      	bcs.n	20000b4a <_ntoa_format+0x6a>
20000b34:	6a7b      	ldr	r3, [r7, #36]	; 0x24
20000b36:	2b1f      	cmp	r3, #31
20000b38:	d9f1      	bls.n	20000b1e <_ntoa_format+0x3e>
20000b3a:	e006      	b.n	20000b4a <_ntoa_format+0x6a>
20000b3c:	6a7b      	ldr	r3, [r7, #36]	; 0x24
20000b3e:	1c5a      	adds	r2, r3, #1
20000b40:	627a      	str	r2, [r7, #36]	; 0x24
20000b42:	6a3a      	ldr	r2, [r7, #32]
20000b44:	18d3      	adds	r3, r2, r3
20000b46:	2230      	movs	r2, #48	; 0x30
20000b48:	701a      	strb	r2, [r3, #0]
20000b4a:	6bbb      	ldr	r3, [r7, #56]	; 0x38
20000b4c:	2201      	movs	r2, #1
20000b4e:	4013      	ands	r3, r2
20000b50:	d006      	beq.n	20000b60 <_ntoa_format+0x80>
20000b52:	6a7a      	ldr	r2, [r7, #36]	; 0x24
20000b54:	6b7b      	ldr	r3, [r7, #52]	; 0x34
20000b56:	429a      	cmp	r2, r3
20000b58:	d202      	bcs.n	20000b60 <_ntoa_format+0x80>
20000b5a:	6a7b      	ldr	r3, [r7, #36]	; 0x24
20000b5c:	2b1f      	cmp	r3, #31
20000b5e:	d9ed      	bls.n	20000b3c <_ntoa_format+0x5c>
20000b60:	6bbb      	ldr	r3, [r7, #56]	; 0x38
20000b62:	2210      	movs	r2, #16
20000b64:	4013      	ands	r3, r2
20000b66:	d056      	beq.n	20000c16 <_ntoa_format+0x136>
20000b68:	6bba      	ldr	r2, [r7, #56]	; 0x38
20000b6a:	2380      	movs	r3, #128	; 0x80
20000b6c:	00db      	lsls	r3, r3, #3
20000b6e:	4013      	ands	r3, r2
20000b70:	d116      	bne.n	20000ba0 <_ntoa_format+0xc0>
20000b72:	6a7b      	ldr	r3, [r7, #36]	; 0x24
20000b74:	2b00      	cmp	r3, #0
20000b76:	d013      	beq.n	20000ba0 <_ntoa_format+0xc0>
20000b78:	6a7a      	ldr	r2, [r7, #36]	; 0x24
20000b7a:	6b3b      	ldr	r3, [r7, #48]	; 0x30
20000b7c:	429a      	cmp	r2, r3
20000b7e:	d003      	beq.n	20000b88 <_ntoa_format+0xa8>
20000b80:	6a7a      	ldr	r2, [r7, #36]	; 0x24
20000b82:	6b7b      	ldr	r3, [r7, #52]	; 0x34
20000b84:	429a      	cmp	r2, r3
20000b86:	d10b      	bne.n	20000ba0 <_ntoa_format+0xc0>
20000b88:	6a7b      	ldr	r3, [r7, #36]	; 0x24
20000b8a:	3b01      	subs	r3, #1
20000b8c:	627b      	str	r3, [r7, #36]	; 0x24
20000b8e:	6a7b      	ldr	r3, [r7, #36]	; 0x24
20000b90:	2b00      	cmp	r3, #0
20000b92:	d005      	beq.n	20000ba0 <_ntoa_format+0xc0>
20000b94:	6afb      	ldr	r3, [r7, #44]	; 0x2c
20000b96:	2b10      	cmp	r3, #16
20000b98:	d102      	bne.n	20000ba0 <_ntoa_format+0xc0>
20000b9a:	6a7b      	ldr	r3, [r7, #36]	; 0x24
20000b9c:	3b01      	subs	r3, #1
20000b9e:	627b      	str	r3, [r7, #36]	; 0x24
20000ba0:	6afb      	ldr	r3, [r7, #44]	; 0x2c
20000ba2:	2b10      	cmp	r3, #16
20000ba4:	d10e      	bne.n	20000bc4 <_ntoa_format+0xe4>
20000ba6:	6bbb      	ldr	r3, [r7, #56]	; 0x38
20000ba8:	2220      	movs	r2, #32
20000baa:	4013      	ands	r3, r2
20000bac:	d10a      	bne.n	20000bc4 <_ntoa_format+0xe4>
20000bae:	6a7b      	ldr	r3, [r7, #36]	; 0x24
20000bb0:	2b1f      	cmp	r3, #31
20000bb2:	d807      	bhi.n	20000bc4 <_ntoa_format+0xe4>
20000bb4:	6a7b      	ldr	r3, [r7, #36]	; 0x24
20000bb6:	1c5a      	adds	r2, r3, #1
20000bb8:	627a      	str	r2, [r7, #36]	; 0x24
20000bba:	6a3a      	ldr	r2, [r7, #32]
20000bbc:	18d3      	adds	r3, r2, r3
20000bbe:	2278      	movs	r2, #120	; 0x78
20000bc0:	701a      	strb	r2, [r3, #0]
20000bc2:	e01e      	b.n	20000c02 <_ntoa_format+0x122>
20000bc4:	6afb      	ldr	r3, [r7, #44]	; 0x2c
20000bc6:	2b10      	cmp	r3, #16
20000bc8:	d10e      	bne.n	20000be8 <_ntoa_format+0x108>
20000bca:	6bbb      	ldr	r3, [r7, #56]	; 0x38
20000bcc:	2220      	movs	r2, #32
20000bce:	4013      	ands	r3, r2
20000bd0:	d00a      	beq.n	20000be8 <_ntoa_format+0x108>
20000bd2:	6a7b      	ldr	r3, [r7, #36]	; 0x24
20000bd4:	2b1f      	cmp	r3, #31
20000bd6:	d807      	bhi.n	20000be8 <_ntoa_format+0x108>
20000bd8:	6a7b      	ldr	r3, [r7, #36]	; 0x24
20000bda:	1c5a      	adds	r2, r3, #1
20000bdc:	627a      	str	r2, [r7, #36]	; 0x24
20000bde:	6a3a      	ldr	r2, [r7, #32]
20000be0:	18d3      	adds	r3, r2, r3
20000be2:	2258      	movs	r2, #88	; 0x58
20000be4:	701a      	strb	r2, [r3, #0]
20000be6:	e00c      	b.n	20000c02 <_ntoa_format+0x122>
20000be8:	6afb      	ldr	r3, [r7, #44]	; 0x2c
20000bea:	2b02      	cmp	r3, #2
20000bec:	d109      	bne.n	20000c02 <_ntoa_format+0x122>
20000bee:	6a7b      	ldr	r3, [r7, #36]	; 0x24
20000bf0:	2b1f      	cmp	r3, #31
20000bf2:	d806      	bhi.n	20000c02 <_ntoa_format+0x122>
20000bf4:	6a7b      	ldr	r3, [r7, #36]	; 0x24
20000bf6:	1c5a      	adds	r2, r3, #1
20000bf8:	627a      	str	r2, [r7, #36]	; 0x24
20000bfa:	6a3a      	ldr	r2, [r7, #32]
20000bfc:	18d3      	adds	r3, r2, r3
20000bfe:	2262      	movs	r2, #98	; 0x62
20000c00:	701a      	strb	r2, [r3, #0]
20000c02:	6a7b      	ldr	r3, [r7, #36]	; 0x24
20000c04:	2b1f      	cmp	r3, #31
20000c06:	d806      	bhi.n	20000c16 <_ntoa_format+0x136>
20000c08:	6a7b      	ldr	r3, [r7, #36]	; 0x24
20000c0a:	1c5a      	adds	r2, r3, #1
20000c0c:	627a      	str	r2, [r7, #36]	; 0x24
20000c0e:	6a3a      	ldr	r2, [r7, #32]
20000c10:	18d3      	adds	r3, r2, r3
20000c12:	2230      	movs	r2, #48	; 0x30
20000c14:	701a      	strb	r2, [r3, #0]
20000c16:	6a7b      	ldr	r3, [r7, #36]	; 0x24
20000c18:	2b1f      	cmp	r3, #31
20000c1a:	d823      	bhi.n	20000c64 <_ntoa_format+0x184>
20000c1c:	2328      	movs	r3, #40	; 0x28
20000c1e:	18fb      	adds	r3, r7, r3
20000c20:	781b      	ldrb	r3, [r3, #0]
20000c22:	2b00      	cmp	r3, #0
20000c24:	d007      	beq.n	20000c36 <_ntoa_format+0x156>
20000c26:	6a7b      	ldr	r3, [r7, #36]	; 0x24
20000c28:	1c5a      	adds	r2, r3, #1
20000c2a:	627a      	str	r2, [r7, #36]	; 0x24
20000c2c:	6a3a      	ldr	r2, [r7, #32]
20000c2e:	18d3      	adds	r3, r2, r3
20000c30:	222d      	movs	r2, #45	; 0x2d
20000c32:	701a      	strb	r2, [r3, #0]
20000c34:	e016      	b.n	20000c64 <_ntoa_format+0x184>
20000c36:	6bbb      	ldr	r3, [r7, #56]	; 0x38
20000c38:	2204      	movs	r2, #4
20000c3a:	4013      	ands	r3, r2
20000c3c:	d007      	beq.n	20000c4e <_ntoa_format+0x16e>
20000c3e:	6a7b      	ldr	r3, [r7, #36]	; 0x24
20000c40:	1c5a      	adds	r2, r3, #1
20000c42:	627a      	str	r2, [r7, #36]	; 0x24
20000c44:	6a3a      	ldr	r2, [r7, #32]
20000c46:	18d3      	adds	r3, r2, r3
20000c48:	222b      	movs	r2, #43	; 0x2b
20000c4a:	701a      	strb	r2, [r3, #0]
20000c4c:	e00a      	b.n	20000c64 <_ntoa_format+0x184>
20000c4e:	6bbb      	ldr	r3, [r7, #56]	; 0x38
20000c50:	2208      	movs	r2, #8
20000c52:	4013      	ands	r3, r2
20000c54:	d006      	beq.n	20000c64 <_ntoa_format+0x184>
20000c56:	6a7b      	ldr	r3, [r7, #36]	; 0x24
20000c58:	1c5a      	adds	r2, r3, #1
20000c5a:	627a      	str	r2, [r7, #36]	; 0x24
20000c5c:	6a3a      	ldr	r2, [r7, #32]
20000c5e:	18d3      	adds	r3, r2, r3
20000c60:	2220      	movs	r2, #32
20000c62:	701a      	strb	r2, [r3, #0]
20000c64:	683c      	ldr	r4, [r7, #0]
20000c66:	687a      	ldr	r2, [r7, #4]
20000c68:	68b9      	ldr	r1, [r7, #8]
20000c6a:	68f8      	ldr	r0, [r7, #12]
20000c6c:	6bbb      	ldr	r3, [r7, #56]	; 0x38
20000c6e:	9303      	str	r3, [sp, #12]
20000c70:	6b7b      	ldr	r3, [r7, #52]	; 0x34
20000c72:	9302      	str	r3, [sp, #8]
20000c74:	6a7b      	ldr	r3, [r7, #36]	; 0x24
20000c76:	9301      	str	r3, [sp, #4]
20000c78:	6a3b      	ldr	r3, [r7, #32]
20000c7a:	9300      	str	r3, [sp, #0]
20000c7c:	0023      	movs	r3, r4
20000c7e:	f7ff fee2 	bl	20000a46 <_out_rev>
20000c82:	0003      	movs	r3, r0
20000c84:	0018      	movs	r0, r3
20000c86:	46bd      	mov	sp, r7
20000c88:	b005      	add	sp, #20
20000c8a:	bd90      	pop	{r4, r7, pc}

20000c8c <_ntoa_long>:
20000c8c:	b590      	push	{r4, r7, lr}
20000c8e:	b097      	sub	sp, #92	; 0x5c
20000c90:	af08      	add	r7, sp, #32
20000c92:	60f8      	str	r0, [r7, #12]
20000c94:	60b9      	str	r1, [r7, #8]
20000c96:	607a      	str	r2, [r7, #4]
20000c98:	603b      	str	r3, [r7, #0]
20000c9a:	2300      	movs	r3, #0
20000c9c:	637b      	str	r3, [r7, #52]	; 0x34
20000c9e:	6cbb      	ldr	r3, [r7, #72]	; 0x48
20000ca0:	2b00      	cmp	r3, #0
20000ca2:	d103      	bne.n	20000cac <_ntoa_long+0x20>
20000ca4:	6dfb      	ldr	r3, [r7, #92]	; 0x5c
20000ca6:	2210      	movs	r2, #16
20000ca8:	4393      	bics	r3, r2
20000caa:	65fb      	str	r3, [r7, #92]	; 0x5c
20000cac:	6dfa      	ldr	r2, [r7, #92]	; 0x5c
20000cae:	2380      	movs	r3, #128	; 0x80
20000cb0:	00db      	lsls	r3, r3, #3
20000cb2:	4013      	ands	r3, r2
20000cb4:	d002      	beq.n	20000cbc <_ntoa_long+0x30>
20000cb6:	6cbb      	ldr	r3, [r7, #72]	; 0x48
20000cb8:	2b00      	cmp	r3, #0
20000cba:	d035      	beq.n	20000d28 <_ntoa_long+0x9c>
20000cbc:	6cbb      	ldr	r3, [r7, #72]	; 0x48
20000cbe:	6d3a      	ldr	r2, [r7, #80]	; 0x50
20000cc0:	0011      	movs	r1, r2
20000cc2:	0018      	movs	r0, r3
20000cc4:	f7ff fde5 	bl	20000892 <imod>
20000cc8:	0002      	movs	r2, r0
20000cca:	2133      	movs	r1, #51	; 0x33
20000ccc:	187b      	adds	r3, r7, r1
20000cce:	701a      	strb	r2, [r3, #0]
20000cd0:	000a      	movs	r2, r1
20000cd2:	18bb      	adds	r3, r7, r2
20000cd4:	781b      	ldrb	r3, [r3, #0]
20000cd6:	2b09      	cmp	r3, #9
20000cd8:	d804      	bhi.n	20000ce4 <_ntoa_long+0x58>
20000cda:	18bb      	adds	r3, r7, r2
20000cdc:	781b      	ldrb	r3, [r3, #0]
20000cde:	3330      	adds	r3, #48	; 0x30
20000ce0:	b2da      	uxtb	r2, r3
20000ce2:	e00d      	b.n	20000d00 <_ntoa_long+0x74>
20000ce4:	6dfb      	ldr	r3, [r7, #92]	; 0x5c
20000ce6:	2220      	movs	r2, #32
20000ce8:	4013      	ands	r3, r2
20000cea:	d001      	beq.n	20000cf0 <_ntoa_long+0x64>
20000cec:	2341      	movs	r3, #65	; 0x41
20000cee:	e000      	b.n	20000cf2 <_ntoa_long+0x66>
20000cf0:	2361      	movs	r3, #97	; 0x61
20000cf2:	2233      	movs	r2, #51	; 0x33
20000cf4:	18ba      	adds	r2, r7, r2
20000cf6:	7812      	ldrb	r2, [r2, #0]
20000cf8:	189b      	adds	r3, r3, r2
20000cfa:	b2db      	uxtb	r3, r3
20000cfc:	3b0a      	subs	r3, #10
20000cfe:	b2da      	uxtb	r2, r3
20000d00:	6b7b      	ldr	r3, [r7, #52]	; 0x34
20000d02:	1c59      	adds	r1, r3, #1
20000d04:	6379      	str	r1, [r7, #52]	; 0x34
20000d06:	2110      	movs	r1, #16
20000d08:	1879      	adds	r1, r7, r1
20000d0a:	54ca      	strb	r2, [r1, r3]
20000d0c:	6d3a      	ldr	r2, [r7, #80]	; 0x50
20000d0e:	6cbb      	ldr	r3, [r7, #72]	; 0x48
20000d10:	0011      	movs	r1, r2
20000d12:	0018      	movs	r0, r3
20000d14:	f7ff fd7b 	bl	2000080e <udiv>
20000d18:	0003      	movs	r3, r0
20000d1a:	64bb      	str	r3, [r7, #72]	; 0x48
20000d1c:	6cbb      	ldr	r3, [r7, #72]	; 0x48
20000d1e:	2b00      	cmp	r3, #0
20000d20:	d002      	beq.n	20000d28 <_ntoa_long+0x9c>
20000d22:	6b7b      	ldr	r3, [r7, #52]	; 0x34
20000d24:	2b1f      	cmp	r3, #31
20000d26:	d9c9      	bls.n	20000cbc <_ntoa_long+0x30>
20000d28:	683c      	ldr	r4, [r7, #0]
20000d2a:	687a      	ldr	r2, [r7, #4]
20000d2c:	68b9      	ldr	r1, [r7, #8]
20000d2e:	68f8      	ldr	r0, [r7, #12]
20000d30:	6dfb      	ldr	r3, [r7, #92]	; 0x5c
20000d32:	9306      	str	r3, [sp, #24]
20000d34:	6dbb      	ldr	r3, [r7, #88]	; 0x58
20000d36:	9305      	str	r3, [sp, #20]
20000d38:	6d7b      	ldr	r3, [r7, #84]	; 0x54
20000d3a:	9304      	str	r3, [sp, #16]
20000d3c:	6d3b      	ldr	r3, [r7, #80]	; 0x50
20000d3e:	9303      	str	r3, [sp, #12]
20000d40:	234c      	movs	r3, #76	; 0x4c
20000d42:	18fb      	adds	r3, r7, r3
20000d44:	781b      	ldrb	r3, [r3, #0]
20000d46:	9302      	str	r3, [sp, #8]
20000d48:	6b7b      	ldr	r3, [r7, #52]	; 0x34
20000d4a:	9301      	str	r3, [sp, #4]
20000d4c:	2310      	movs	r3, #16
20000d4e:	18fb      	adds	r3, r7, r3
20000d50:	9300      	str	r3, [sp, #0]
20000d52:	0023      	movs	r3, r4
20000d54:	f7ff fec4 	bl	20000ae0 <_ntoa_format>
20000d58:	0003      	movs	r3, r0
20000d5a:	0018      	movs	r0, r3
20000d5c:	46bd      	mov	sp, r7
20000d5e:	b00f      	add	sp, #60	; 0x3c
20000d60:	bd90      	pop	{r4, r7, pc}

20000d62 <_vsnprintf>:
20000d62:	b5f0      	push	{r4, r5, r6, r7, lr}
20000d64:	b099      	sub	sp, #100	; 0x64
20000d66:	af06      	add	r7, sp, #24
20000d68:	60f8      	str	r0, [r7, #12]
20000d6a:	60b9      	str	r1, [r7, #8]
20000d6c:	607a      	str	r2, [r7, #4]
20000d6e:	603b      	str	r3, [r7, #0]
20000d70:	2300      	movs	r3, #0
20000d72:	637b      	str	r3, [r7, #52]	; 0x34
20000d74:	68bb      	ldr	r3, [r7, #8]
20000d76:	2b00      	cmp	r3, #0
20000d78:	d000      	beq.n	20000d7c <_vsnprintf+0x1a>
20000d7a:	e2e1      	b.n	20001340 <_vsnprintf+0x5de>
20000d7c:	4bc6      	ldr	r3, [pc, #792]	; (20001098 <_vsnprintf+0x336>)
20000d7e:	60fb      	str	r3, [r7, #12]
20000d80:	e2de      	b.n	20001340 <_vsnprintf+0x5de>
20000d82:	683b      	ldr	r3, [r7, #0]
20000d84:	781b      	ldrb	r3, [r3, #0]
20000d86:	2b25      	cmp	r3, #37	; 0x25
20000d88:	d00c      	beq.n	20000da4 <_vsnprintf+0x42>
20000d8a:	683b      	ldr	r3, [r7, #0]
20000d8c:	7818      	ldrb	r0, [r3, #0]
20000d8e:	6b7a      	ldr	r2, [r7, #52]	; 0x34
20000d90:	1c53      	adds	r3, r2, #1
20000d92:	637b      	str	r3, [r7, #52]	; 0x34
20000d94:	687b      	ldr	r3, [r7, #4]
20000d96:	68b9      	ldr	r1, [r7, #8]
20000d98:	68fc      	ldr	r4, [r7, #12]
20000d9a:	47a0      	blx	r4
20000d9c:	683b      	ldr	r3, [r7, #0]
20000d9e:	3301      	adds	r3, #1
20000da0:	603b      	str	r3, [r7, #0]
20000da2:	e2cd      	b.n	20001340 <_vsnprintf+0x5de>
20000da4:	683b      	ldr	r3, [r7, #0]
20000da6:	3301      	adds	r3, #1
20000da8:	603b      	str	r3, [r7, #0]
20000daa:	2300      	movs	r3, #0
20000dac:	647b      	str	r3, [r7, #68]	; 0x44
20000dae:	683b      	ldr	r3, [r7, #0]
20000db0:	781b      	ldrb	r3, [r3, #0]
20000db2:	3b20      	subs	r3, #32
20000db4:	2b10      	cmp	r3, #16
20000db6:	d836      	bhi.n	20000e26 <_vsnprintf+0xc4>
20000db8:	009a      	lsls	r2, r3, #2
20000dba:	4bb8      	ldr	r3, [pc, #736]	; (2000109c <_vsnprintf+0x33a>)
20000dbc:	18d3      	adds	r3, r2, r3
20000dbe:	681b      	ldr	r3, [r3, #0]
20000dc0:	469f      	mov	pc, r3
20000dc2:	6c7b      	ldr	r3, [r7, #68]	; 0x44
20000dc4:	2201      	movs	r2, #1
20000dc6:	4313      	orrs	r3, r2
20000dc8:	647b      	str	r3, [r7, #68]	; 0x44
20000dca:	683b      	ldr	r3, [r7, #0]
20000dcc:	3301      	adds	r3, #1
20000dce:	603b      	str	r3, [r7, #0]
20000dd0:	2301      	movs	r3, #1
20000dd2:	63bb      	str	r3, [r7, #56]	; 0x38
20000dd4:	e02a      	b.n	20000e2c <_vsnprintf+0xca>
20000dd6:	6c7b      	ldr	r3, [r7, #68]	; 0x44
20000dd8:	2202      	movs	r2, #2
20000dda:	4313      	orrs	r3, r2
20000ddc:	647b      	str	r3, [r7, #68]	; 0x44
20000dde:	683b      	ldr	r3, [r7, #0]
20000de0:	3301      	adds	r3, #1
20000de2:	603b      	str	r3, [r7, #0]
20000de4:	2301      	movs	r3, #1
20000de6:	63bb      	str	r3, [r7, #56]	; 0x38
20000de8:	e020      	b.n	20000e2c <_vsnprintf+0xca>
20000dea:	6c7b      	ldr	r3, [r7, #68]	; 0x44
20000dec:	2204      	movs	r2, #4
20000dee:	4313      	orrs	r3, r2
20000df0:	647b      	str	r3, [r7, #68]	; 0x44
20000df2:	683b      	ldr	r3, [r7, #0]
20000df4:	3301      	adds	r3, #1
20000df6:	603b      	str	r3, [r7, #0]
20000df8:	2301      	movs	r3, #1
20000dfa:	63bb      	str	r3, [r7, #56]	; 0x38
20000dfc:	e016      	b.n	20000e2c <_vsnprintf+0xca>
20000dfe:	6c7b      	ldr	r3, [r7, #68]	; 0x44
20000e00:	2208      	movs	r2, #8
20000e02:	4313      	orrs	r3, r2
20000e04:	647b      	str	r3, [r7, #68]	; 0x44
20000e06:	683b      	ldr	r3, [r7, #0]
20000e08:	3301      	adds	r3, #1
20000e0a:	603b      	str	r3, [r7, #0]
20000e0c:	2301      	movs	r3, #1
20000e0e:	63bb      	str	r3, [r7, #56]	; 0x38
20000e10:	e00c      	b.n	20000e2c <_vsnprintf+0xca>
20000e12:	6c7b      	ldr	r3, [r7, #68]	; 0x44
20000e14:	2210      	movs	r2, #16
20000e16:	4313      	orrs	r3, r2
20000e18:	647b      	str	r3, [r7, #68]	; 0x44
20000e1a:	683b      	ldr	r3, [r7, #0]
20000e1c:	3301      	adds	r3, #1
20000e1e:	603b      	str	r3, [r7, #0]
20000e20:	2301      	movs	r3, #1
20000e22:	63bb      	str	r3, [r7, #56]	; 0x38
20000e24:	e002      	b.n	20000e2c <_vsnprintf+0xca>
20000e26:	2300      	movs	r3, #0
20000e28:	63bb      	str	r3, [r7, #56]	; 0x38
20000e2a:	46c0      	nop			; (mov r8, r8)
20000e2c:	6bbb      	ldr	r3, [r7, #56]	; 0x38
20000e2e:	2b00      	cmp	r3, #0
20000e30:	d1bd      	bne.n	20000dae <_vsnprintf+0x4c>
20000e32:	2300      	movs	r3, #0
20000e34:	643b      	str	r3, [r7, #64]	; 0x40
20000e36:	683b      	ldr	r3, [r7, #0]
20000e38:	781b      	ldrb	r3, [r3, #0]
20000e3a:	0018      	movs	r0, r3
20000e3c:	f7ff fdc7 	bl	200009ce <_is_digit>
20000e40:	1e03      	subs	r3, r0, #0
20000e42:	d006      	beq.n	20000e52 <_vsnprintf+0xf0>
20000e44:	003b      	movs	r3, r7
20000e46:	0018      	movs	r0, r3
20000e48:	f7ff fdda 	bl	20000a00 <_atoi>
20000e4c:	0003      	movs	r3, r0
20000e4e:	643b      	str	r3, [r7, #64]	; 0x40
20000e50:	e018      	b.n	20000e84 <_vsnprintf+0x122>
20000e52:	683b      	ldr	r3, [r7, #0]
20000e54:	781b      	ldrb	r3, [r3, #0]
20000e56:	2b2a      	cmp	r3, #42	; 0x2a
20000e58:	d114      	bne.n	20000e84 <_vsnprintf+0x122>
20000e5a:	6e3b      	ldr	r3, [r7, #96]	; 0x60
20000e5c:	1d1a      	adds	r2, r3, #4
20000e5e:	663a      	str	r2, [r7, #96]	; 0x60
20000e60:	681b      	ldr	r3, [r3, #0]
20000e62:	623b      	str	r3, [r7, #32]
20000e64:	6a3b      	ldr	r3, [r7, #32]
20000e66:	2b00      	cmp	r3, #0
20000e68:	da07      	bge.n	20000e7a <_vsnprintf+0x118>
20000e6a:	6c7b      	ldr	r3, [r7, #68]	; 0x44
20000e6c:	2202      	movs	r2, #2
20000e6e:	4313      	orrs	r3, r2
20000e70:	647b      	str	r3, [r7, #68]	; 0x44
20000e72:	6a3b      	ldr	r3, [r7, #32]
20000e74:	425b      	negs	r3, r3
20000e76:	643b      	str	r3, [r7, #64]	; 0x40
20000e78:	e001      	b.n	20000e7e <_vsnprintf+0x11c>
20000e7a:	6a3b      	ldr	r3, [r7, #32]
20000e7c:	643b      	str	r3, [r7, #64]	; 0x40
20000e7e:	683b      	ldr	r3, [r7, #0]
20000e80:	3301      	adds	r3, #1
20000e82:	603b      	str	r3, [r7, #0]
20000e84:	2300      	movs	r3, #0
20000e86:	63fb      	str	r3, [r7, #60]	; 0x3c
20000e88:	683b      	ldr	r3, [r7, #0]
20000e8a:	781b      	ldrb	r3, [r3, #0]
20000e8c:	2b2e      	cmp	r3, #46	; 0x2e
20000e8e:	d126      	bne.n	20000ede <_vsnprintf+0x17c>
20000e90:	6c7b      	ldr	r3, [r7, #68]	; 0x44
20000e92:	2280      	movs	r2, #128	; 0x80
20000e94:	00d2      	lsls	r2, r2, #3
20000e96:	4313      	orrs	r3, r2
20000e98:	647b      	str	r3, [r7, #68]	; 0x44
20000e9a:	683b      	ldr	r3, [r7, #0]
20000e9c:	3301      	adds	r3, #1
20000e9e:	603b      	str	r3, [r7, #0]
20000ea0:	683b      	ldr	r3, [r7, #0]
20000ea2:	781b      	ldrb	r3, [r3, #0]
20000ea4:	0018      	movs	r0, r3
20000ea6:	f7ff fd92 	bl	200009ce <_is_digit>
20000eaa:	1e03      	subs	r3, r0, #0
20000eac:	d006      	beq.n	20000ebc <_vsnprintf+0x15a>
20000eae:	003b      	movs	r3, r7
20000eb0:	0018      	movs	r0, r3
20000eb2:	f7ff fda5 	bl	20000a00 <_atoi>
20000eb6:	0003      	movs	r3, r0
20000eb8:	63fb      	str	r3, [r7, #60]	; 0x3c
20000eba:	e010      	b.n	20000ede <_vsnprintf+0x17c>
20000ebc:	683b      	ldr	r3, [r7, #0]
20000ebe:	781b      	ldrb	r3, [r3, #0]
20000ec0:	2b2a      	cmp	r3, #42	; 0x2a
20000ec2:	d10c      	bne.n	20000ede <_vsnprintf+0x17c>
20000ec4:	6e3b      	ldr	r3, [r7, #96]	; 0x60
20000ec6:	1d1a      	adds	r2, r3, #4
20000ec8:	663a      	str	r2, [r7, #96]	; 0x60
20000eca:	681b      	ldr	r3, [r3, #0]
20000ecc:	61fb      	str	r3, [r7, #28]
20000ece:	69fb      	ldr	r3, [r7, #28]
20000ed0:	2b00      	cmp	r3, #0
20000ed2:	da00      	bge.n	20000ed6 <_vsnprintf+0x174>
20000ed4:	2300      	movs	r3, #0
20000ed6:	63fb      	str	r3, [r7, #60]	; 0x3c
20000ed8:	683b      	ldr	r3, [r7, #0]
20000eda:	3301      	adds	r3, #1
20000edc:	603b      	str	r3, [r7, #0]
20000ede:	683b      	ldr	r3, [r7, #0]
20000ee0:	781b      	ldrb	r3, [r3, #0]
20000ee2:	2b7a      	cmp	r3, #122	; 0x7a
20000ee4:	d039      	beq.n	20000f5a <_vsnprintf+0x1f8>
20000ee6:	dc41      	bgt.n	20000f6c <_vsnprintf+0x20a>
20000ee8:	2b6c      	cmp	r3, #108	; 0x6c
20000eea:	d005      	beq.n	20000ef8 <_vsnprintf+0x196>
20000eec:	dc3e      	bgt.n	20000f6c <_vsnprintf+0x20a>
20000eee:	2b68      	cmp	r3, #104	; 0x68
20000ef0:	d017      	beq.n	20000f22 <_vsnprintf+0x1c0>
20000ef2:	2b6a      	cmp	r3, #106	; 0x6a
20000ef4:	d028      	beq.n	20000f48 <_vsnprintf+0x1e6>
20000ef6:	e039      	b.n	20000f6c <_vsnprintf+0x20a>
20000ef8:	6c7b      	ldr	r3, [r7, #68]	; 0x44
20000efa:	2280      	movs	r2, #128	; 0x80
20000efc:	0052      	lsls	r2, r2, #1
20000efe:	4313      	orrs	r3, r2
20000f00:	647b      	str	r3, [r7, #68]	; 0x44
20000f02:	683b      	ldr	r3, [r7, #0]
20000f04:	3301      	adds	r3, #1
20000f06:	603b      	str	r3, [r7, #0]
20000f08:	683b      	ldr	r3, [r7, #0]
20000f0a:	781b      	ldrb	r3, [r3, #0]
20000f0c:	2b6c      	cmp	r3, #108	; 0x6c
20000f0e:	d12f      	bne.n	20000f70 <_vsnprintf+0x20e>
20000f10:	6c7b      	ldr	r3, [r7, #68]	; 0x44
20000f12:	2280      	movs	r2, #128	; 0x80
20000f14:	0092      	lsls	r2, r2, #2
20000f16:	4313      	orrs	r3, r2
20000f18:	647b      	str	r3, [r7, #68]	; 0x44
20000f1a:	683b      	ldr	r3, [r7, #0]
20000f1c:	3301      	adds	r3, #1
20000f1e:	603b      	str	r3, [r7, #0]
20000f20:	e026      	b.n	20000f70 <_vsnprintf+0x20e>
20000f22:	6c7b      	ldr	r3, [r7, #68]	; 0x44
20000f24:	2280      	movs	r2, #128	; 0x80
20000f26:	4313      	orrs	r3, r2
20000f28:	647b      	str	r3, [r7, #68]	; 0x44
20000f2a:	683b      	ldr	r3, [r7, #0]
20000f2c:	3301      	adds	r3, #1
20000f2e:	603b      	str	r3, [r7, #0]
20000f30:	683b      	ldr	r3, [r7, #0]
20000f32:	781b      	ldrb	r3, [r3, #0]
20000f34:	2b68      	cmp	r3, #104	; 0x68
20000f36:	d11d      	bne.n	20000f74 <_vsnprintf+0x212>
20000f38:	6c7b      	ldr	r3, [r7, #68]	; 0x44
20000f3a:	2240      	movs	r2, #64	; 0x40
20000f3c:	4313      	orrs	r3, r2
20000f3e:	647b      	str	r3, [r7, #68]	; 0x44
20000f40:	683b      	ldr	r3, [r7, #0]
20000f42:	3301      	adds	r3, #1
20000f44:	603b      	str	r3, [r7, #0]
20000f46:	e015      	b.n	20000f74 <_vsnprintf+0x212>
20000f48:	6c7b      	ldr	r3, [r7, #68]	; 0x44
20000f4a:	2280      	movs	r2, #128	; 0x80
20000f4c:	0092      	lsls	r2, r2, #2
20000f4e:	4313      	orrs	r3, r2
20000f50:	647b      	str	r3, [r7, #68]	; 0x44
20000f52:	683b      	ldr	r3, [r7, #0]
20000f54:	3301      	adds	r3, #1
20000f56:	603b      	str	r3, [r7, #0]
20000f58:	e00d      	b.n	20000f76 <_vsnprintf+0x214>
20000f5a:	6c7b      	ldr	r3, [r7, #68]	; 0x44
20000f5c:	2280      	movs	r2, #128	; 0x80
20000f5e:	0052      	lsls	r2, r2, #1
20000f60:	4313      	orrs	r3, r2
20000f62:	647b      	str	r3, [r7, #68]	; 0x44
20000f64:	683b      	ldr	r3, [r7, #0]
20000f66:	3301      	adds	r3, #1
20000f68:	603b      	str	r3, [r7, #0]
20000f6a:	e004      	b.n	20000f76 <_vsnprintf+0x214>
20000f6c:	46c0      	nop			; (mov r8, r8)
20000f6e:	e002      	b.n	20000f76 <_vsnprintf+0x214>
20000f70:	46c0      	nop			; (mov r8, r8)
20000f72:	e000      	b.n	20000f76 <_vsnprintf+0x214>
20000f74:	46c0      	nop			; (mov r8, r8)
20000f76:	683b      	ldr	r3, [r7, #0]
20000f78:	781b      	ldrb	r3, [r3, #0]
20000f7a:	3b25      	subs	r3, #37	; 0x25
20000f7c:	2b53      	cmp	r3, #83	; 0x53
20000f7e:	d900      	bls.n	20000f82 <_vsnprintf+0x220>
20000f80:	e1d1      	b.n	20001326 <_vsnprintf+0x5c4>
20000f82:	009a      	lsls	r2, r3, #2
20000f84:	4b46      	ldr	r3, [pc, #280]	; (200010a0 <_vsnprintf+0x33e>)
20000f86:	18d3      	adds	r3, r2, r3
20000f88:	681b      	ldr	r3, [r3, #0]
20000f8a:	469f      	mov	pc, r3
20000f8c:	683b      	ldr	r3, [r7, #0]
20000f8e:	781b      	ldrb	r3, [r3, #0]
20000f90:	2b78      	cmp	r3, #120	; 0x78
20000f92:	d003      	beq.n	20000f9c <_vsnprintf+0x23a>
20000f94:	683b      	ldr	r3, [r7, #0]
20000f96:	781b      	ldrb	r3, [r3, #0]
20000f98:	2b58      	cmp	r3, #88	; 0x58
20000f9a:	d102      	bne.n	20000fa2 <_vsnprintf+0x240>
20000f9c:	2310      	movs	r3, #16
20000f9e:	633b      	str	r3, [r7, #48]	; 0x30
20000fa0:	e013      	b.n	20000fca <_vsnprintf+0x268>
20000fa2:	683b      	ldr	r3, [r7, #0]
20000fa4:	781b      	ldrb	r3, [r3, #0]
20000fa6:	2b6f      	cmp	r3, #111	; 0x6f
20000fa8:	d102      	bne.n	20000fb0 <_vsnprintf+0x24e>
20000faa:	2308      	movs	r3, #8
20000fac:	633b      	str	r3, [r7, #48]	; 0x30
20000fae:	e00c      	b.n	20000fca <_vsnprintf+0x268>
20000fb0:	683b      	ldr	r3, [r7, #0]
20000fb2:	781b      	ldrb	r3, [r3, #0]
20000fb4:	2b62      	cmp	r3, #98	; 0x62
20000fb6:	d102      	bne.n	20000fbe <_vsnprintf+0x25c>
20000fb8:	2302      	movs	r3, #2
20000fba:	633b      	str	r3, [r7, #48]	; 0x30
20000fbc:	e005      	b.n	20000fca <_vsnprintf+0x268>
20000fbe:	230a      	movs	r3, #10
20000fc0:	633b      	str	r3, [r7, #48]	; 0x30
20000fc2:	6c7b      	ldr	r3, [r7, #68]	; 0x44
20000fc4:	2210      	movs	r2, #16
20000fc6:	4393      	bics	r3, r2
20000fc8:	647b      	str	r3, [r7, #68]	; 0x44
20000fca:	683b      	ldr	r3, [r7, #0]
20000fcc:	781b      	ldrb	r3, [r3, #0]
20000fce:	2b58      	cmp	r3, #88	; 0x58
20000fd0:	d103      	bne.n	20000fda <_vsnprintf+0x278>
20000fd2:	6c7b      	ldr	r3, [r7, #68]	; 0x44
20000fd4:	2220      	movs	r2, #32
20000fd6:	4313      	orrs	r3, r2
20000fd8:	647b      	str	r3, [r7, #68]	; 0x44
20000fda:	683b      	ldr	r3, [r7, #0]
20000fdc:	781b      	ldrb	r3, [r3, #0]
20000fde:	2b69      	cmp	r3, #105	; 0x69
20000fe0:	d007      	beq.n	20000ff2 <_vsnprintf+0x290>
20000fe2:	683b      	ldr	r3, [r7, #0]
20000fe4:	781b      	ldrb	r3, [r3, #0]
20000fe6:	2b64      	cmp	r3, #100	; 0x64
20000fe8:	d003      	beq.n	20000ff2 <_vsnprintf+0x290>
20000fea:	6c7b      	ldr	r3, [r7, #68]	; 0x44
20000fec:	220c      	movs	r2, #12
20000fee:	4393      	bics	r3, r2
20000ff0:	647b      	str	r3, [r7, #68]	; 0x44
20000ff2:	6c7a      	ldr	r2, [r7, #68]	; 0x44
20000ff4:	2380      	movs	r3, #128	; 0x80
20000ff6:	00db      	lsls	r3, r3, #3
20000ff8:	4013      	ands	r3, r2
20000ffa:	d003      	beq.n	20001004 <_vsnprintf+0x2a2>
20000ffc:	6c7b      	ldr	r3, [r7, #68]	; 0x44
20000ffe:	2201      	movs	r2, #1
20001000:	4393      	bics	r3, r2
20001002:	647b      	str	r3, [r7, #68]	; 0x44
20001004:	683b      	ldr	r3, [r7, #0]
20001006:	781b      	ldrb	r3, [r3, #0]
20001008:	2b69      	cmp	r3, #105	; 0x69
2000100a:	d003      	beq.n	20001014 <_vsnprintf+0x2b2>
2000100c:	683b      	ldr	r3, [r7, #0]
2000100e:	781b      	ldrb	r3, [r3, #0]
20001010:	2b64      	cmp	r3, #100	; 0x64
20001012:	d169      	bne.n	200010e8 <_vsnprintf+0x386>
20001014:	6c7a      	ldr	r2, [r7, #68]	; 0x44
20001016:	2380      	movs	r3, #128	; 0x80
20001018:	009b      	lsls	r3, r3, #2
2000101a:	4013      	ands	r3, r2
2000101c:	d000      	beq.n	20001020 <_vsnprintf+0x2be>
2000101e:	e0b5      	b.n	2000118c <_vsnprintf+0x42a>
20001020:	6c7a      	ldr	r2, [r7, #68]	; 0x44
20001022:	2380      	movs	r3, #128	; 0x80
20001024:	005b      	lsls	r3, r3, #1
20001026:	4013      	ands	r3, r2
20001028:	d021      	beq.n	2000106e <_vsnprintf+0x30c>
2000102a:	6e3b      	ldr	r3, [r7, #96]	; 0x60
2000102c:	1d1a      	adds	r2, r3, #4
2000102e:	663a      	str	r2, [r7, #96]	; 0x60
20001030:	681b      	ldr	r3, [r3, #0]
20001032:	613b      	str	r3, [r7, #16]
20001034:	693b      	ldr	r3, [r7, #16]
20001036:	17da      	asrs	r2, r3, #31
20001038:	189b      	adds	r3, r3, r2
2000103a:	4053      	eors	r3, r2
2000103c:	001e      	movs	r6, r3
2000103e:	693b      	ldr	r3, [r7, #16]
20001040:	0fdb      	lsrs	r3, r3, #31
20001042:	b2db      	uxtb	r3, r3
20001044:	687d      	ldr	r5, [r7, #4]
20001046:	6b7c      	ldr	r4, [r7, #52]	; 0x34
20001048:	68b9      	ldr	r1, [r7, #8]
2000104a:	68f8      	ldr	r0, [r7, #12]
2000104c:	6c7a      	ldr	r2, [r7, #68]	; 0x44
2000104e:	9205      	str	r2, [sp, #20]
20001050:	6c3a      	ldr	r2, [r7, #64]	; 0x40
20001052:	9204      	str	r2, [sp, #16]
20001054:	6bfa      	ldr	r2, [r7, #60]	; 0x3c
20001056:	9203      	str	r2, [sp, #12]
20001058:	6b3a      	ldr	r2, [r7, #48]	; 0x30
2000105a:	9202      	str	r2, [sp, #8]
2000105c:	9301      	str	r3, [sp, #4]
2000105e:	9600      	str	r6, [sp, #0]
20001060:	002b      	movs	r3, r5
20001062:	0022      	movs	r2, r4
20001064:	f7ff fe12 	bl	20000c8c <_ntoa_long>
20001068:	0003      	movs	r3, r0
2000106a:	637b      	str	r3, [r7, #52]	; 0x34
2000106c:	e08e      	b.n	2000118c <_vsnprintf+0x42a>
2000106e:	6c7b      	ldr	r3, [r7, #68]	; 0x44
20001070:	2240      	movs	r2, #64	; 0x40
20001072:	4013      	ands	r3, r2
20001074:	d005      	beq.n	20001082 <_vsnprintf+0x320>
20001076:	6e3b      	ldr	r3, [r7, #96]	; 0x60
20001078:	1d1a      	adds	r2, r3, #4
2000107a:	663a      	str	r2, [r7, #96]	; 0x60
2000107c:	681b      	ldr	r3, [r3, #0]
2000107e:	b2db      	uxtb	r3, r3
20001080:	e014      	b.n	200010ac <_vsnprintf+0x34a>
20001082:	6c7b      	ldr	r3, [r7, #68]	; 0x44
20001084:	2280      	movs	r2, #128	; 0x80
20001086:	4013      	ands	r3, r2
20001088:	d00c      	beq.n	200010a4 <_vsnprintf+0x342>
2000108a:	6e3b      	ldr	r3, [r7, #96]	; 0x60
2000108c:	1d1a      	adds	r2, r3, #4
2000108e:	663a      	str	r2, [r7, #96]	; 0x60
20001090:	681b      	ldr	r3, [r3, #0]
20001092:	b21b      	sxth	r3, r3
20001094:	e00a      	b.n	200010ac <_vsnprintf+0x34a>
20001096:	46c0      	nop			; (mov r8, r8)
20001098:	20000917 	andcs	r0, r0, r7, lsl r9
2000109c:	10001790 	mulne	r0, r0, r7
200010a0:	100017d4 	ldrdne	r1, [r0], -r4
200010a4:	6e3b      	ldr	r3, [r7, #96]	; 0x60
200010a6:	1d1a      	adds	r2, r3, #4
200010a8:	663a      	str	r2, [r7, #96]	; 0x60
200010aa:	681b      	ldr	r3, [r3, #0]
200010ac:	617b      	str	r3, [r7, #20]
200010ae:	697b      	ldr	r3, [r7, #20]
200010b0:	17da      	asrs	r2, r3, #31
200010b2:	189b      	adds	r3, r3, r2
200010b4:	4053      	eors	r3, r2
200010b6:	001e      	movs	r6, r3
200010b8:	697b      	ldr	r3, [r7, #20]
200010ba:	0fdb      	lsrs	r3, r3, #31
200010bc:	b2db      	uxtb	r3, r3
200010be:	687d      	ldr	r5, [r7, #4]
200010c0:	6b7c      	ldr	r4, [r7, #52]	; 0x34
200010c2:	68b9      	ldr	r1, [r7, #8]
200010c4:	68f8      	ldr	r0, [r7, #12]
200010c6:	6c7a      	ldr	r2, [r7, #68]	; 0x44
200010c8:	9205      	str	r2, [sp, #20]
200010ca:	6c3a      	ldr	r2, [r7, #64]	; 0x40
200010cc:	9204      	str	r2, [sp, #16]
200010ce:	6bfa      	ldr	r2, [r7, #60]	; 0x3c
200010d0:	9203      	str	r2, [sp, #12]
200010d2:	6b3a      	ldr	r2, [r7, #48]	; 0x30
200010d4:	9202      	str	r2, [sp, #8]
200010d6:	9301      	str	r3, [sp, #4]
200010d8:	9600      	str	r6, [sp, #0]
200010da:	002b      	movs	r3, r5
200010dc:	0022      	movs	r2, r4
200010de:	f7ff fdd5 	bl	20000c8c <_ntoa_long>
200010e2:	0003      	movs	r3, r0
200010e4:	637b      	str	r3, [r7, #52]	; 0x34
200010e6:	e051      	b.n	2000118c <_vsnprintf+0x42a>
200010e8:	6c7a      	ldr	r2, [r7, #68]	; 0x44
200010ea:	2380      	movs	r3, #128	; 0x80
200010ec:	009b      	lsls	r3, r3, #2
200010ee:	4013      	ands	r3, r2
200010f0:	d14c      	bne.n	2000118c <_vsnprintf+0x42a>
200010f2:	6c7a      	ldr	r2, [r7, #68]	; 0x44
200010f4:	2380      	movs	r3, #128	; 0x80
200010f6:	005b      	lsls	r3, r3, #1
200010f8:	4013      	ands	r3, r2
200010fa:	d019      	beq.n	20001130 <_vsnprintf+0x3ce>
200010fc:	6e3b      	ldr	r3, [r7, #96]	; 0x60
200010fe:	1d1a      	adds	r2, r3, #4
20001100:	663a      	str	r2, [r7, #96]	; 0x60
20001102:	681b      	ldr	r3, [r3, #0]
20001104:	687d      	ldr	r5, [r7, #4]
20001106:	6b7c      	ldr	r4, [r7, #52]	; 0x34
20001108:	68b9      	ldr	r1, [r7, #8]
2000110a:	68f8      	ldr	r0, [r7, #12]
2000110c:	6c7a      	ldr	r2, [r7, #68]	; 0x44
2000110e:	9205      	str	r2, [sp, #20]
20001110:	6c3a      	ldr	r2, [r7, #64]	; 0x40
20001112:	9204      	str	r2, [sp, #16]
20001114:	6bfa      	ldr	r2, [r7, #60]	; 0x3c
20001116:	9203      	str	r2, [sp, #12]
20001118:	6b3a      	ldr	r2, [r7, #48]	; 0x30
2000111a:	9202      	str	r2, [sp, #8]
2000111c:	2200      	movs	r2, #0
2000111e:	9201      	str	r2, [sp, #4]
20001120:	9300      	str	r3, [sp, #0]
20001122:	002b      	movs	r3, r5
20001124:	0022      	movs	r2, r4
20001126:	f7ff fdb1 	bl	20000c8c <_ntoa_long>
2000112a:	0003      	movs	r3, r0
2000112c:	637b      	str	r3, [r7, #52]	; 0x34
2000112e:	e02d      	b.n	2000118c <_vsnprintf+0x42a>
20001130:	6c7b      	ldr	r3, [r7, #68]	; 0x44
20001132:	2240      	movs	r2, #64	; 0x40
20001134:	4013      	ands	r3, r2
20001136:	d005      	beq.n	20001144 <_vsnprintf+0x3e2>
20001138:	6e3b      	ldr	r3, [r7, #96]	; 0x60
2000113a:	1d1a      	adds	r2, r3, #4
2000113c:	663a      	str	r2, [r7, #96]	; 0x60
2000113e:	681b      	ldr	r3, [r3, #0]
20001140:	b2db      	uxtb	r3, r3
20001142:	e00d      	b.n	20001160 <_vsnprintf+0x3fe>
20001144:	6c7b      	ldr	r3, [r7, #68]	; 0x44
20001146:	2280      	movs	r2, #128	; 0x80
20001148:	4013      	ands	r3, r2
2000114a:	d005      	beq.n	20001158 <_vsnprintf+0x3f6>
2000114c:	6e3b      	ldr	r3, [r7, #96]	; 0x60
2000114e:	1d1a      	adds	r2, r3, #4
20001150:	663a      	str	r2, [r7, #96]	; 0x60
20001152:	681b      	ldr	r3, [r3, #0]
20001154:	b29b      	uxth	r3, r3
20001156:	e003      	b.n	20001160 <_vsnprintf+0x3fe>
20001158:	6e3b      	ldr	r3, [r7, #96]	; 0x60
2000115a:	1d1a      	adds	r2, r3, #4
2000115c:	663a      	str	r2, [r7, #96]	; 0x60
2000115e:	681b      	ldr	r3, [r3, #0]
20001160:	61bb      	str	r3, [r7, #24]
20001162:	687c      	ldr	r4, [r7, #4]
20001164:	6b7a      	ldr	r2, [r7, #52]	; 0x34
20001166:	68b9      	ldr	r1, [r7, #8]
20001168:	68f8      	ldr	r0, [r7, #12]
2000116a:	6c7b      	ldr	r3, [r7, #68]	; 0x44
2000116c:	9305      	str	r3, [sp, #20]
2000116e:	6c3b      	ldr	r3, [r7, #64]	; 0x40
20001170:	9304      	str	r3, [sp, #16]
20001172:	6bfb      	ldr	r3, [r7, #60]	; 0x3c
20001174:	9303      	str	r3, [sp, #12]
20001176:	6b3b      	ldr	r3, [r7, #48]	; 0x30
20001178:	9302      	str	r3, [sp, #8]
2000117a:	2300      	movs	r3, #0
2000117c:	9301      	str	r3, [sp, #4]
2000117e:	69bb      	ldr	r3, [r7, #24]
20001180:	9300      	str	r3, [sp, #0]
20001182:	0023      	movs	r3, r4
20001184:	f7ff fd82 	bl	20000c8c <_ntoa_long>
20001188:	0003      	movs	r3, r0
2000118a:	637b      	str	r3, [r7, #52]	; 0x34
2000118c:	683b      	ldr	r3, [r7, #0]
2000118e:	3301      	adds	r3, #1
20001190:	603b      	str	r3, [r7, #0]
20001192:	e0d5      	b.n	20001340 <_vsnprintf+0x5de>
20001194:	2301      	movs	r3, #1
20001196:	62fb      	str	r3, [r7, #44]	; 0x2c
20001198:	6c7b      	ldr	r3, [r7, #68]	; 0x44
2000119a:	2202      	movs	r2, #2
2000119c:	4013      	ands	r3, r2
2000119e:	d10e      	bne.n	200011be <_vsnprintf+0x45c>
200011a0:	e007      	b.n	200011b2 <_vsnprintf+0x450>
200011a2:	6b7a      	ldr	r2, [r7, #52]	; 0x34
200011a4:	1c53      	adds	r3, r2, #1
200011a6:	637b      	str	r3, [r7, #52]	; 0x34
200011a8:	687b      	ldr	r3, [r7, #4]
200011aa:	68b9      	ldr	r1, [r7, #8]
200011ac:	68fc      	ldr	r4, [r7, #12]
200011ae:	2020      	movs	r0, #32
200011b0:	47a0      	blx	r4
200011b2:	6afb      	ldr	r3, [r7, #44]	; 0x2c
200011b4:	1c5a      	adds	r2, r3, #1
200011b6:	62fa      	str	r2, [r7, #44]	; 0x2c
200011b8:	6c3a      	ldr	r2, [r7, #64]	; 0x40
200011ba:	429a      	cmp	r2, r3
200011bc:	d8f1      	bhi.n	200011a2 <_vsnprintf+0x440>
200011be:	6e3b      	ldr	r3, [r7, #96]	; 0x60
200011c0:	1d1a      	adds	r2, r3, #4
200011c2:	663a      	str	r2, [r7, #96]	; 0x60
200011c4:	681b      	ldr	r3, [r3, #0]
200011c6:	b2d8      	uxtb	r0, r3
200011c8:	6b7a      	ldr	r2, [r7, #52]	; 0x34
200011ca:	1c53      	adds	r3, r2, #1
200011cc:	637b      	str	r3, [r7, #52]	; 0x34
200011ce:	687b      	ldr	r3, [r7, #4]
200011d0:	68b9      	ldr	r1, [r7, #8]
200011d2:	68fc      	ldr	r4, [r7, #12]
200011d4:	47a0      	blx	r4
200011d6:	6c7b      	ldr	r3, [r7, #68]	; 0x44
200011d8:	2202      	movs	r2, #2
200011da:	4013      	ands	r3, r2
200011dc:	d00e      	beq.n	200011fc <_vsnprintf+0x49a>
200011de:	e007      	b.n	200011f0 <_vsnprintf+0x48e>
200011e0:	6b7a      	ldr	r2, [r7, #52]	; 0x34
200011e2:	1c53      	adds	r3, r2, #1
200011e4:	637b      	str	r3, [r7, #52]	; 0x34
200011e6:	687b      	ldr	r3, [r7, #4]
200011e8:	68b9      	ldr	r1, [r7, #8]
200011ea:	68fc      	ldr	r4, [r7, #12]
200011ec:	2020      	movs	r0, #32
200011ee:	47a0      	blx	r4
200011f0:	6afb      	ldr	r3, [r7, #44]	; 0x2c
200011f2:	1c5a      	adds	r2, r3, #1
200011f4:	62fa      	str	r2, [r7, #44]	; 0x2c
200011f6:	6c3a      	ldr	r2, [r7, #64]	; 0x40
200011f8:	429a      	cmp	r2, r3
200011fa:	d8f1      	bhi.n	200011e0 <_vsnprintf+0x47e>
200011fc:	683b      	ldr	r3, [r7, #0]
200011fe:	3301      	adds	r3, #1
20001200:	603b      	str	r3, [r7, #0]
20001202:	e09d      	b.n	20001340 <_vsnprintf+0x5de>
20001204:	6e3b      	ldr	r3, [r7, #96]	; 0x60
20001206:	1d1a      	adds	r2, r3, #4
20001208:	663a      	str	r2, [r7, #96]	; 0x60
2000120a:	681b      	ldr	r3, [r3, #0]
2000120c:	62bb      	str	r3, [r7, #40]	; 0x28
2000120e:	6bfb      	ldr	r3, [r7, #60]	; 0x3c
20001210:	2b00      	cmp	r3, #0
20001212:	d001      	beq.n	20001218 <_vsnprintf+0x4b6>
20001214:	6bfb      	ldr	r3, [r7, #60]	; 0x3c
20001216:	e001      	b.n	2000121c <_vsnprintf+0x4ba>
20001218:	2301      	movs	r3, #1
2000121a:	425b      	negs	r3, r3
2000121c:	6aba      	ldr	r2, [r7, #40]	; 0x28
2000121e:	0019      	movs	r1, r3
20001220:	0010      	movs	r0, r2
20001222:	f7ff fbb9 	bl	20000998 <_strnlen_s>
20001226:	0003      	movs	r3, r0
20001228:	627b      	str	r3, [r7, #36]	; 0x24
2000122a:	6c7a      	ldr	r2, [r7, #68]	; 0x44
2000122c:	2380      	movs	r3, #128	; 0x80
2000122e:	00db      	lsls	r3, r3, #3
20001230:	4013      	ands	r3, r2
20001232:	d005      	beq.n	20001240 <_vsnprintf+0x4de>
20001234:	6a7a      	ldr	r2, [r7, #36]	; 0x24
20001236:	6bfb      	ldr	r3, [r7, #60]	; 0x3c
20001238:	4293      	cmp	r3, r2
2000123a:	d900      	bls.n	2000123e <_vsnprintf+0x4dc>
2000123c:	0013      	movs	r3, r2
2000123e:	627b      	str	r3, [r7, #36]	; 0x24
20001240:	6c7b      	ldr	r3, [r7, #68]	; 0x44
20001242:	2202      	movs	r2, #2
20001244:	4013      	ands	r3, r2
20001246:	d11a      	bne.n	2000127e <_vsnprintf+0x51c>
20001248:	e007      	b.n	2000125a <_vsnprintf+0x4f8>
2000124a:	6b7a      	ldr	r2, [r7, #52]	; 0x34
2000124c:	1c53      	adds	r3, r2, #1
2000124e:	637b      	str	r3, [r7, #52]	; 0x34
20001250:	687b      	ldr	r3, [r7, #4]
20001252:	68b9      	ldr	r1, [r7, #8]
20001254:	68fc      	ldr	r4, [r7, #12]
20001256:	2020      	movs	r0, #32
20001258:	47a0      	blx	r4
2000125a:	6a7b      	ldr	r3, [r7, #36]	; 0x24
2000125c:	1c5a      	adds	r2, r3, #1
2000125e:	627a      	str	r2, [r7, #36]	; 0x24
20001260:	6c3a      	ldr	r2, [r7, #64]	; 0x40
20001262:	429a      	cmp	r2, r3
20001264:	d8f1      	bhi.n	2000124a <_vsnprintf+0x4e8>
20001266:	e00a      	b.n	2000127e <_vsnprintf+0x51c>
20001268:	6abb      	ldr	r3, [r7, #40]	; 0x28
2000126a:	1c5a      	adds	r2, r3, #1
2000126c:	62ba      	str	r2, [r7, #40]	; 0x28
2000126e:	7818      	ldrb	r0, [r3, #0]
20001270:	6b7a      	ldr	r2, [r7, #52]	; 0x34
20001272:	1c53      	adds	r3, r2, #1
20001274:	637b      	str	r3, [r7, #52]	; 0x34
20001276:	687b      	ldr	r3, [r7, #4]
20001278:	68b9      	ldr	r1, [r7, #8]
2000127a:	68fc      	ldr	r4, [r7, #12]
2000127c:	47a0      	blx	r4
2000127e:	6abb      	ldr	r3, [r7, #40]	; 0x28
20001280:	781b      	ldrb	r3, [r3, #0]
20001282:	2b00      	cmp	r3, #0
20001284:	d009      	beq.n	2000129a <_vsnprintf+0x538>
20001286:	6c7a      	ldr	r2, [r7, #68]	; 0x44
20001288:	2380      	movs	r3, #128	; 0x80
2000128a:	00db      	lsls	r3, r3, #3
2000128c:	4013      	ands	r3, r2
2000128e:	d0eb      	beq.n	20001268 <_vsnprintf+0x506>
20001290:	6bfb      	ldr	r3, [r7, #60]	; 0x3c
20001292:	1e5a      	subs	r2, r3, #1
20001294:	63fa      	str	r2, [r7, #60]	; 0x3c
20001296:	2b00      	cmp	r3, #0
20001298:	d1e6      	bne.n	20001268 <_vsnprintf+0x506>
2000129a:	6c7b      	ldr	r3, [r7, #68]	; 0x44
2000129c:	2202      	movs	r2, #2
2000129e:	4013      	ands	r3, r2
200012a0:	d00e      	beq.n	200012c0 <_vsnprintf+0x55e>
200012a2:	e007      	b.n	200012b4 <_vsnprintf+0x552>
200012a4:	6b7a      	ldr	r2, [r7, #52]	; 0x34
200012a6:	1c53      	adds	r3, r2, #1
200012a8:	637b      	str	r3, [r7, #52]	; 0x34
200012aa:	687b      	ldr	r3, [r7, #4]
200012ac:	68b9      	ldr	r1, [r7, #8]
200012ae:	68fc      	ldr	r4, [r7, #12]
200012b0:	2020      	movs	r0, #32
200012b2:	47a0      	blx	r4
200012b4:	6a7b      	ldr	r3, [r7, #36]	; 0x24
200012b6:	1c5a      	adds	r2, r3, #1
200012b8:	627a      	str	r2, [r7, #36]	; 0x24
200012ba:	6c3a      	ldr	r2, [r7, #64]	; 0x40
200012bc:	429a      	cmp	r2, r3
200012be:	d8f1      	bhi.n	200012a4 <_vsnprintf+0x542>
200012c0:	683b      	ldr	r3, [r7, #0]
200012c2:	3301      	adds	r3, #1
200012c4:	603b      	str	r3, [r7, #0]
200012c6:	e03b      	b.n	20001340 <_vsnprintf+0x5de>
200012c8:	2308      	movs	r3, #8
200012ca:	643b      	str	r3, [r7, #64]	; 0x40
200012cc:	6c7b      	ldr	r3, [r7, #68]	; 0x44
200012ce:	2221      	movs	r2, #33	; 0x21
200012d0:	4313      	orrs	r3, r2
200012d2:	647b      	str	r3, [r7, #68]	; 0x44
200012d4:	6e3b      	ldr	r3, [r7, #96]	; 0x60
200012d6:	1d1a      	adds	r2, r3, #4
200012d8:	663a      	str	r2, [r7, #96]	; 0x60
200012da:	681b      	ldr	r3, [r3, #0]
200012dc:	001d      	movs	r5, r3
200012de:	687c      	ldr	r4, [r7, #4]
200012e0:	6b7a      	ldr	r2, [r7, #52]	; 0x34
200012e2:	68b9      	ldr	r1, [r7, #8]
200012e4:	68f8      	ldr	r0, [r7, #12]
200012e6:	6c7b      	ldr	r3, [r7, #68]	; 0x44
200012e8:	9305      	str	r3, [sp, #20]
200012ea:	6c3b      	ldr	r3, [r7, #64]	; 0x40
200012ec:	9304      	str	r3, [sp, #16]
200012ee:	6bfb      	ldr	r3, [r7, #60]	; 0x3c
200012f0:	9303      	str	r3, [sp, #12]
200012f2:	2310      	movs	r3, #16
200012f4:	9302      	str	r3, [sp, #8]
200012f6:	2300      	movs	r3, #0
200012f8:	9301      	str	r3, [sp, #4]
200012fa:	9500      	str	r5, [sp, #0]
200012fc:	0023      	movs	r3, r4
200012fe:	f7ff fcc5 	bl	20000c8c <_ntoa_long>
20001302:	0003      	movs	r3, r0
20001304:	637b      	str	r3, [r7, #52]	; 0x34
20001306:	683b      	ldr	r3, [r7, #0]
20001308:	3301      	adds	r3, #1
2000130a:	603b      	str	r3, [r7, #0]
2000130c:	e018      	b.n	20001340 <_vsnprintf+0x5de>
2000130e:	6b7a      	ldr	r2, [r7, #52]	; 0x34
20001310:	1c53      	adds	r3, r2, #1
20001312:	637b      	str	r3, [r7, #52]	; 0x34
20001314:	687b      	ldr	r3, [r7, #4]
20001316:	68b9      	ldr	r1, [r7, #8]
20001318:	68fc      	ldr	r4, [r7, #12]
2000131a:	2025      	movs	r0, #37	; 0x25
2000131c:	47a0      	blx	r4
2000131e:	683b      	ldr	r3, [r7, #0]
20001320:	3301      	adds	r3, #1
20001322:	603b      	str	r3, [r7, #0]
20001324:	e00c      	b.n	20001340 <_vsnprintf+0x5de>
20001326:	683b      	ldr	r3, [r7, #0]
20001328:	7818      	ldrb	r0, [r3, #0]
2000132a:	6b7a      	ldr	r2, [r7, #52]	; 0x34
2000132c:	1c53      	adds	r3, r2, #1
2000132e:	637b      	str	r3, [r7, #52]	; 0x34
20001330:	687b      	ldr	r3, [r7, #4]
20001332:	68b9      	ldr	r1, [r7, #8]
20001334:	68fc      	ldr	r4, [r7, #12]
20001336:	47a0      	blx	r4
20001338:	683b      	ldr	r3, [r7, #0]
2000133a:	3301      	adds	r3, #1
2000133c:	603b      	str	r3, [r7, #0]
2000133e:	46c0      	nop			; (mov r8, r8)
20001340:	683b      	ldr	r3, [r7, #0]
20001342:	781b      	ldrb	r3, [r3, #0]
20001344:	2b00      	cmp	r3, #0
20001346:	d000      	beq.n	2000134a <_vsnprintf+0x5e8>
20001348:	e51b      	b.n	20000d82 <_vsnprintf+0x20>
2000134a:	6b7a      	ldr	r2, [r7, #52]	; 0x34
2000134c:	687b      	ldr	r3, [r7, #4]
2000134e:	429a      	cmp	r2, r3
20001350:	d302      	bcc.n	20001358 <_vsnprintf+0x5f6>
20001352:	687b      	ldr	r3, [r7, #4]
20001354:	1e5a      	subs	r2, r3, #1
20001356:	e000      	b.n	2000135a <_vsnprintf+0x5f8>
20001358:	6b7a      	ldr	r2, [r7, #52]	; 0x34
2000135a:	687b      	ldr	r3, [r7, #4]
2000135c:	68b9      	ldr	r1, [r7, #8]
2000135e:	68fc      	ldr	r4, [r7, #12]
20001360:	2000      	movs	r0, #0
20001362:	47a0      	blx	r4
20001364:	6b7b      	ldr	r3, [r7, #52]	; 0x34
20001366:	0018      	movs	r0, r3
20001368:	46bd      	mov	sp, r7
2000136a:	b013      	add	sp, #76	; 0x4c
2000136c:	bdf0      	pop	{r4, r5, r6, r7, pc}

2000136e <printf_>:
2000136e:	b40f      	push	{r0, r1, r2, r3}
20001370:	b590      	push	{r4, r7, lr}
20001372:	b087      	sub	sp, #28
20001374:	af02      	add	r7, sp, #8
20001376:	2324      	movs	r3, #36	; 0x24
20001378:	18fb      	adds	r3, r7, r3
2000137a:	60bb      	str	r3, [r7, #8]
2000137c:	6a3c      	ldr	r4, [r7, #32]
2000137e:	2301      	movs	r3, #1
20001380:	425a      	negs	r2, r3
20001382:	1d39      	adds	r1, r7, #4
20001384:	4807      	ldr	r0, [pc, #28]	; (200013a4 <printf_+0x36>)
20001386:	68bb      	ldr	r3, [r7, #8]
20001388:	9300      	str	r3, [sp, #0]
2000138a:	0023      	movs	r3, r4
2000138c:	f7ff fce9 	bl	20000d62 <_vsnprintf>
20001390:	0003      	movs	r3, r0
20001392:	60fb      	str	r3, [r7, #12]
20001394:	68fb      	ldr	r3, [r7, #12]
20001396:	0018      	movs	r0, r3
20001398:	46bd      	mov	sp, r7
2000139a:	b005      	add	sp, #20
2000139c:	bc90      	pop	{r4, r7}
2000139e:	bc08      	pop	{r3}
200013a0:	b004      	add	sp, #16
200013a2:	4718      	bx	r3
200013a4:	20000933 	andcs	r0, r0, r3, lsr r9

200013a8 <sprintf_>:
200013a8:	b40e      	push	{r1, r2, r3}
200013aa:	b590      	push	{r4, r7, lr}
200013ac:	b086      	sub	sp, #24
200013ae:	af02      	add	r7, sp, #8
200013b0:	6078      	str	r0, [r7, #4]
200013b2:	2320      	movs	r3, #32
200013b4:	18fb      	adds	r3, r7, r3
200013b6:	60bb      	str	r3, [r7, #8]
200013b8:	69fc      	ldr	r4, [r7, #28]
200013ba:	2301      	movs	r3, #1
200013bc:	425a      	negs	r2, r3
200013be:	6879      	ldr	r1, [r7, #4]
200013c0:	4807      	ldr	r0, [pc, #28]	; (200013e0 <sprintf_+0x38>)
200013c2:	68bb      	ldr	r3, [r7, #8]
200013c4:	9300      	str	r3, [sp, #0]
200013c6:	0023      	movs	r3, r4
200013c8:	f7ff fccb 	bl	20000d62 <_vsnprintf>
200013cc:	0003      	movs	r3, r0
200013ce:	60fb      	str	r3, [r7, #12]
200013d0:	68fb      	ldr	r3, [r7, #12]
200013d2:	0018      	movs	r0, r3
200013d4:	46bd      	mov	sp, r7
200013d6:	b004      	add	sp, #16
200013d8:	bc90      	pop	{r4, r7}
200013da:	bc08      	pop	{r3}
200013dc:	b003      	add	sp, #12
200013de:	4718      	bx	r3
200013e0:	200008e7 	andcs	r0, r0, r7, ror #17

200013e4 <snprintf_>:
200013e4:	b40c      	push	{r2, r3}
200013e6:	b590      	push	{r4, r7, lr}
200013e8:	b087      	sub	sp, #28
200013ea:	af02      	add	r7, sp, #8
200013ec:	6078      	str	r0, [r7, #4]
200013ee:	6039      	str	r1, [r7, #0]
200013f0:	2324      	movs	r3, #36	; 0x24
200013f2:	18fb      	adds	r3, r7, r3
200013f4:	60bb      	str	r3, [r7, #8]
200013f6:	6a3c      	ldr	r4, [r7, #32]
200013f8:	683a      	ldr	r2, [r7, #0]
200013fa:	6879      	ldr	r1, [r7, #4]
200013fc:	4807      	ldr	r0, [pc, #28]	; (2000141c <snprintf_+0x38>)
200013fe:	68bb      	ldr	r3, [r7, #8]
20001400:	9300      	str	r3, [sp, #0]
20001402:	0023      	movs	r3, r4
20001404:	f7ff fcad 	bl	20000d62 <_vsnprintf>
20001408:	0003      	movs	r3, r0
2000140a:	60fb      	str	r3, [r7, #12]
2000140c:	68fb      	ldr	r3, [r7, #12]
2000140e:	0018      	movs	r0, r3
20001410:	46bd      	mov	sp, r7
20001412:	b005      	add	sp, #20
20001414:	bc90      	pop	{r4, r7}
20001416:	bc08      	pop	{r3}
20001418:	b002      	add	sp, #8
2000141a:	4718      	bx	r3
2000141c:	200008e7 	andcs	r0, r0, r7, ror #17

20001420 <vprintf_>:
20001420:	b590      	push	{r4, r7, lr}
20001422:	b087      	sub	sp, #28
20001424:	af02      	add	r7, sp, #8
20001426:	6078      	str	r0, [r7, #4]
20001428:	6039      	str	r1, [r7, #0]
2000142a:	687c      	ldr	r4, [r7, #4]
2000142c:	2301      	movs	r3, #1
2000142e:	425a      	negs	r2, r3
20001430:	230c      	movs	r3, #12
20001432:	18f9      	adds	r1, r7, r3
20001434:	4805      	ldr	r0, [pc, #20]	; (2000144c <vprintf_+0x2c>)
20001436:	683b      	ldr	r3, [r7, #0]
20001438:	9300      	str	r3, [sp, #0]
2000143a:	0023      	movs	r3, r4
2000143c:	f7ff fc91 	bl	20000d62 <_vsnprintf>
20001440:	0003      	movs	r3, r0
20001442:	0018      	movs	r0, r3
20001444:	46bd      	mov	sp, r7
20001446:	b005      	add	sp, #20
20001448:	bd90      	pop	{r4, r7, pc}
2000144a:	46c0      	nop			; (mov r8, r8)
2000144c:	20000933 	andcs	r0, r0, r3, lsr r9

20001450 <vsnprintf_>:
20001450:	b590      	push	{r4, r7, lr}
20001452:	b087      	sub	sp, #28
20001454:	af02      	add	r7, sp, #8
20001456:	60f8      	str	r0, [r7, #12]
20001458:	60b9      	str	r1, [r7, #8]
2000145a:	607a      	str	r2, [r7, #4]
2000145c:	603b      	str	r3, [r7, #0]
2000145e:	687c      	ldr	r4, [r7, #4]
20001460:	68ba      	ldr	r2, [r7, #8]
20001462:	68f9      	ldr	r1, [r7, #12]
20001464:	4805      	ldr	r0, [pc, #20]	; (2000147c <vsnprintf_+0x2c>)
20001466:	683b      	ldr	r3, [r7, #0]
20001468:	9300      	str	r3, [sp, #0]
2000146a:	0023      	movs	r3, r4
2000146c:	f7ff fc79 	bl	20000d62 <_vsnprintf>
20001470:	0003      	movs	r3, r0
20001472:	0018      	movs	r0, r3
20001474:	46bd      	mov	sp, r7
20001476:	b005      	add	sp, #20
20001478:	bd90      	pop	{r4, r7, pc}
2000147a:	46c0      	nop			; (mov r8, r8)
2000147c:	200008e7 	andcs	r0, r0, r7, ror #17

20001480 <fctprintf>:
20001480:	b40c      	push	{r2, r3}
20001482:	b590      	push	{r4, r7, lr}
20001484:	b089      	sub	sp, #36	; 0x24
20001486:	af02      	add	r7, sp, #8
20001488:	6078      	str	r0, [r7, #4]
2000148a:	6039      	str	r1, [r7, #0]
2000148c:	232c      	movs	r3, #44	; 0x2c
2000148e:	18fb      	adds	r3, r7, r3
20001490:	613b      	str	r3, [r7, #16]
20001492:	2108      	movs	r1, #8
20001494:	187b      	adds	r3, r7, r1
20001496:	687a      	ldr	r2, [r7, #4]
20001498:	601a      	str	r2, [r3, #0]
2000149a:	187b      	adds	r3, r7, r1
2000149c:	683a      	ldr	r2, [r7, #0]
2000149e:	605a      	str	r2, [r3, #4]
200014a0:	6abc      	ldr	r4, [r7, #40]	; 0x28
200014a2:	2301      	movs	r3, #1
200014a4:	425a      	negs	r2, r3
200014a6:	1879      	adds	r1, r7, r1
200014a8:	4807      	ldr	r0, [pc, #28]	; (200014c8 <fctprintf+0x48>)
200014aa:	693b      	ldr	r3, [r7, #16]
200014ac:	9300      	str	r3, [sp, #0]
200014ae:	0023      	movs	r3, r4
200014b0:	f7ff fc57 	bl	20000d62 <_vsnprintf>
200014b4:	0003      	movs	r3, r0
200014b6:	617b      	str	r3, [r7, #20]
200014b8:	697b      	ldr	r3, [r7, #20]
200014ba:	0018      	movs	r0, r3
200014bc:	46bd      	mov	sp, r7
200014be:	b007      	add	sp, #28
200014c0:	bc90      	pop	{r4, r7}
200014c2:	bc08      	pop	{r3}
200014c4:	b002      	add	sp, #8
200014c6:	4718      	bx	r3
200014c8:	20000963 	andcs	r0, r0, r3, ror #18

200014cc <divlu>:
200014cc:	b5b0      	push	{r4, r5, r7, lr}
200014ce:	b08a      	sub	sp, #40	; 0x28
200014d0:	af00      	add	r7, sp, #0
200014d2:	60b8      	str	r0, [r7, #8]
200014d4:	60f9      	str	r1, [r7, #12]
200014d6:	607a      	str	r2, [r7, #4]
200014d8:	68fb      	ldr	r3, [r7, #12]
200014da:	001c      	movs	r4, r3
200014dc:	2300      	movs	r3, #0
200014de:	001d      	movs	r5, r3
200014e0:	0023      	movs	r3, r4
200014e2:	623b      	str	r3, [r7, #32]
200014e4:	68bb      	ldr	r3, [r7, #8]
200014e6:	61fb      	str	r3, [r7, #28]
200014e8:	687b      	ldr	r3, [r7, #4]
200014ea:	61bb      	str	r3, [r7, #24]
200014ec:	2301      	movs	r3, #1
200014ee:	627b      	str	r3, [r7, #36]	; 0x24
200014f0:	e01b      	b.n	2000152a <divlu+0x5e>
200014f2:	6a3b      	ldr	r3, [r7, #32]
200014f4:	17db      	asrs	r3, r3, #31
200014f6:	617b      	str	r3, [r7, #20]
200014f8:	6a3b      	ldr	r3, [r7, #32]
200014fa:	005a      	lsls	r2, r3, #1
200014fc:	69fb      	ldr	r3, [r7, #28]
200014fe:	0fdb      	lsrs	r3, r3, #31
20001500:	4313      	orrs	r3, r2
20001502:	623b      	str	r3, [r7, #32]
20001504:	69fb      	ldr	r3, [r7, #28]
20001506:	005b      	lsls	r3, r3, #1
20001508:	61fb      	str	r3, [r7, #28]
2000150a:	6a3a      	ldr	r2, [r7, #32]
2000150c:	697b      	ldr	r3, [r7, #20]
2000150e:	4313      	orrs	r3, r2
20001510:	69ba      	ldr	r2, [r7, #24]
20001512:	429a      	cmp	r2, r3
20001514:	d806      	bhi.n	20001524 <divlu+0x58>
20001516:	6a3a      	ldr	r2, [r7, #32]
20001518:	69bb      	ldr	r3, [r7, #24]
2000151a:	1ad3      	subs	r3, r2, r3
2000151c:	623b      	str	r3, [r7, #32]
2000151e:	69fb      	ldr	r3, [r7, #28]
20001520:	3301      	adds	r3, #1
20001522:	61fb      	str	r3, [r7, #28]
20001524:	6a7b      	ldr	r3, [r7, #36]	; 0x24
20001526:	3301      	adds	r3, #1
20001528:	627b      	str	r3, [r7, #36]	; 0x24
2000152a:	6a7b      	ldr	r3, [r7, #36]	; 0x24
2000152c:	2b20      	cmp	r3, #32
2000152e:	dde0      	ble.n	200014f2 <divlu+0x26>
20001530:	69fb      	ldr	r3, [r7, #28]
20001532:	0018      	movs	r0, r3
20001534:	46bd      	mov	sp, r7
20001536:	b00a      	add	sp, #40	; 0x28
20001538:	bdb0      	pop	{r4, r5, r7, pc}

2000153a <udiv>:
2000153a:	b5b0      	push	{r4, r5, r7, lr}
2000153c:	b082      	sub	sp, #8
2000153e:	af00      	add	r7, sp, #0
20001540:	6078      	str	r0, [r7, #4]
20001542:	6039      	str	r1, [r7, #0]
20001544:	687b      	ldr	r3, [r7, #4]
20001546:	001c      	movs	r4, r3
20001548:	2300      	movs	r3, #0
2000154a:	001d      	movs	r5, r3
2000154c:	683b      	ldr	r3, [r7, #0]
2000154e:	001a      	movs	r2, r3
20001550:	0020      	movs	r0, r4
20001552:	0029      	movs	r1, r5
20001554:	f7ff ffba 	bl	200014cc <divlu>
20001558:	0003      	movs	r3, r0
2000155a:	0018      	movs	r0, r3
2000155c:	46bd      	mov	sp, r7
2000155e:	b002      	add	sp, #8
20001560:	bdb0      	pop	{r4, r5, r7, pc}

20001562 <uart_init>:
20001562:	b580      	push	{r7, lr}
20001564:	b086      	sub	sp, #24
20001566:	af00      	add	r7, sp, #0
20001568:	6078      	str	r0, [r7, #4]
2000156a:	687b      	ldr	r3, [r7, #4]
2000156c:	681b      	ldr	r3, [r3, #0]
2000156e:	2102      	movs	r1, #2
20001570:	0018      	movs	r0, r3
20001572:	f7fe feb3 	bl	200002dc <gpio_set_function>
20001576:	687b      	ldr	r3, [r7, #4]
20001578:	685b      	ldr	r3, [r3, #4]
2000157a:	2102      	movs	r1, #2
2000157c:	0018      	movs	r0, r3
2000157e:	f7fe fead 	bl	200002dc <gpio_set_function>
20001582:	687b      	ldr	r3, [r7, #4]
20001584:	68db      	ldr	r3, [r3, #12]
20001586:	4a39      	ldr	r2, [pc, #228]	; (2000166c <uart_init+0x10a>)
20001588:	4293      	cmp	r3, r2
2000158a:	d004      	beq.n	20001596 <uart_init+0x34>
2000158c:	687b      	ldr	r3, [r7, #4]
2000158e:	68db      	ldr	r3, [r3, #12]
20001590:	4a37      	ldr	r2, [pc, #220]	; (20001670 <uart_init+0x10e>)
20001592:	4293      	cmp	r3, r2
20001594:	d165      	bne.n	20001662 <uart_init+0x100>
20001596:	2016      	movs	r0, #22
20001598:	f7fe fe74 	bl	20000284 <reset_periph>
2000159c:	687b      	ldr	r3, [r7, #4]
2000159e:	689b      	ldr	r3, [r3, #8]
200015a0:	011b      	lsls	r3, r3, #4
200015a2:	4a34      	ldr	r2, [pc, #208]	; (20001674 <uart_init+0x112>)
200015a4:	0019      	movs	r1, r3
200015a6:	0010      	movs	r0, r2
200015a8:	f7ff ffc7 	bl	2000153a <udiv>
200015ac:	0003      	movs	r3, r0
200015ae:	617b      	str	r3, [r7, #20]
200015b0:	687b      	ldr	r3, [r7, #4]
200015b2:	689b      	ldr	r3, [r3, #8]
200015b4:	011b      	lsls	r3, r3, #4
200015b6:	4a30      	ldr	r2, [pc, #192]	; (20001678 <uart_init+0x116>)
200015b8:	0019      	movs	r1, r3
200015ba:	0010      	movs	r0, r2
200015bc:	f7ff ffbd 	bl	2000153a <udiv>
200015c0:	0003      	movs	r3, r0
200015c2:	0019      	movs	r1, r3
200015c4:	697b      	ldr	r3, [r7, #20]
200015c6:	2264      	movs	r2, #100	; 0x64
200015c8:	4353      	muls	r3, r2
200015ca:	1acb      	subs	r3, r1, r3
200015cc:	613b      	str	r3, [r7, #16]
200015ce:	693b      	ldr	r3, [r7, #16]
200015d0:	019b      	lsls	r3, r3, #6
200015d2:	2164      	movs	r1, #100	; 0x64
200015d4:	0018      	movs	r0, r3
200015d6:	f7ff ffb0 	bl	2000153a <udiv>
200015da:	0003      	movs	r3, r0
200015dc:	60fb      	str	r3, [r7, #12]
200015de:	687b      	ldr	r3, [r7, #4]
200015e0:	68db      	ldr	r3, [r3, #12]
200015e2:	3324      	adds	r3, #36	; 0x24
200015e4:	697a      	ldr	r2, [r7, #20]
200015e6:	0011      	movs	r1, r2
200015e8:	0018      	movs	r0, r3
200015ea:	f7fe fd8e 	bl	2000010a <PUT32>
200015ee:	687b      	ldr	r3, [r7, #4]
200015f0:	68db      	ldr	r3, [r3, #12]
200015f2:	3328      	adds	r3, #40	; 0x28
200015f4:	68fa      	ldr	r2, [r7, #12]
200015f6:	0011      	movs	r1, r2
200015f8:	0018      	movs	r0, r3
200015fa:	f7fe fd86 	bl	2000010a <PUT32>
200015fe:	687b      	ldr	r3, [r7, #4]
20001600:	68db      	ldr	r3, [r3, #12]
20001602:	4a1e      	ldr	r2, [pc, #120]	; (2000167c <uart_init+0x11a>)
20001604:	4694      	mov	ip, r2
20001606:	4463      	add	r3, ip
20001608:	2160      	movs	r1, #96	; 0x60
2000160a:	0018      	movs	r0, r3
2000160c:	f7fe fd7d 	bl	2000010a <PUT32>
20001610:	687b      	ldr	r3, [r7, #4]
20001612:	68db      	ldr	r3, [r3, #12]
20001614:	4a19      	ldr	r2, [pc, #100]	; (2000167c <uart_init+0x11a>)
20001616:	4694      	mov	ip, r2
20001618:	4463      	add	r3, ip
2000161a:	2110      	movs	r1, #16
2000161c:	0018      	movs	r0, r3
2000161e:	f7fe fd74 	bl	2000010a <PUT32>
20001622:	687b      	ldr	r3, [r7, #4]
20001624:	68db      	ldr	r3, [r3, #12]
20001626:	4a16      	ldr	r2, [pc, #88]	; (20001680 <uart_init+0x11e>)
20001628:	4694      	mov	ip, r2
2000162a:	4463      	add	r3, ip
2000162c:	2280      	movs	r2, #128	; 0x80
2000162e:	0052      	lsls	r2, r2, #1
20001630:	0011      	movs	r1, r2
20001632:	0018      	movs	r0, r3
20001634:	f7fe fd69 	bl	2000010a <PUT32>
20001638:	687b      	ldr	r3, [r7, #4]
2000163a:	68db      	ldr	r3, [r3, #12]
2000163c:	4a10      	ldr	r2, [pc, #64]	; (20001680 <uart_init+0x11e>)
2000163e:	4694      	mov	ip, r2
20001640:	4463      	add	r3, ip
20001642:	2280      	movs	r2, #128	; 0x80
20001644:	0092      	lsls	r2, r2, #2
20001646:	0011      	movs	r1, r2
20001648:	0018      	movs	r0, r3
2000164a:	f7fe fd5e 	bl	2000010a <PUT32>
2000164e:	687b      	ldr	r3, [r7, #4]
20001650:	68db      	ldr	r3, [r3, #12]
20001652:	4a0b      	ldr	r2, [pc, #44]	; (20001680 <uart_init+0x11e>)
20001654:	4694      	mov	ip, r2
20001656:	4463      	add	r3, ip
20001658:	2101      	movs	r1, #1
2000165a:	0018      	movs	r0, r3
2000165c:	f7fe fd55 	bl	2000010a <PUT32>
20001660:	e000      	b.n	20001664 <uart_init+0x102>
20001662:	46c0      	nop			; (mov r8, r8)
20001664:	46bd      	mov	sp, r7
20001666:	b006      	add	sp, #24
20001668:	bd80      	pop	{r7, pc}
2000166a:	46c0      	nop			; (mov r8, r8)
2000166c:	40034000 	andmi	r4, r3, r0
20001670:	40038000 	andmi	r8, r3, r0
20001674:	00b71b00 	adcseq	r1, r7, r0, lsl #22
20001678:	47868c00 	strmi	r8, [r6, r0, lsl #24]
2000167c:	0000202c 	andeq	r2, r0, ip, lsr #32
20001680:	00002030 	andeq	r2, r0, r0, lsr r0

20001684 <uart_can_getc>:
20001684:	b580      	push	{r7, lr}
20001686:	af00      	add	r7, sp, #0
20001688:	2300      	movs	r3, #0
2000168a:	0018      	movs	r0, r3
2000168c:	46bd      	mov	sp, r7
2000168e:	bd80      	pop	{r7, pc}

20001690 <uart_getc>:
20001690:	b580      	push	{r7, lr}
20001692:	af00      	add	r7, sp, #0
20001694:	2300      	movs	r3, #0
20001696:	0018      	movs	r0, r3
20001698:	46bd      	mov	sp, r7
2000169a:	bd80      	pop	{r7, pc}

2000169c <uart_can_putc>:
2000169c:	b580      	push	{r7, lr}
2000169e:	af00      	add	r7, sp, #0
200016a0:	4b07      	ldr	r3, [pc, #28]	; (200016c0 <uart_can_putc+0x24>)
200016a2:	68db      	ldr	r3, [r3, #12]
200016a4:	3318      	adds	r3, #24
200016a6:	0018      	movs	r0, r3
200016a8:	f7fe fd31 	bl	2000010e <GET32>
200016ac:	0003      	movs	r3, r0
200016ae:	095b      	lsrs	r3, r3, #5
200016b0:	2201      	movs	r2, #1
200016b2:	4013      	ands	r3, r2
200016b4:	425a      	negs	r2, r3
200016b6:	4153      	adcs	r3, r2
200016b8:	b2db      	uxtb	r3, r3
200016ba:	0018      	movs	r0, r3
200016bc:	46bd      	mov	sp, r7
200016be:	bd80      	pop	{r7, pc}
200016c0:	2000f000 	andcs	pc, r0, r0

200016c4 <uart_putc>:
200016c4:	b580      	push	{r7, lr}
200016c6:	b082      	sub	sp, #8
200016c8:	af00      	add	r7, sp, #0
200016ca:	0002      	movs	r2, r0
200016cc:	1dfb      	adds	r3, r7, #7
200016ce:	701a      	strb	r2, [r3, #0]
200016d0:	46c0      	nop			; (mov r8, r8)
200016d2:	f7ff ffe3 	bl	2000169c <uart_can_putc>
200016d6:	1e03      	subs	r3, r0, #0
200016d8:	d0fb      	beq.n	200016d2 <uart_putc+0xe>
200016da:	4b06      	ldr	r3, [pc, #24]	; (200016f4 <uart_putc+0x30>)
200016dc:	68da      	ldr	r2, [r3, #12]
200016de:	1dfb      	adds	r3, r7, #7
200016e0:	781b      	ldrb	r3, [r3, #0]
200016e2:	0019      	movs	r1, r3
200016e4:	0010      	movs	r0, r2
200016e6:	f7fe fd10 	bl	2000010a <PUT32>
200016ea:	46c0      	nop			; (mov r8, r8)
200016ec:	46bd      	mov	sp, r7
200016ee:	b002      	add	sp, #8
200016f0:	bd80      	pop	{r7, pc}
200016f2:	46c0      	nop			; (mov r8, r8)
200016f4:	2000f000 	andcs	pc, r0, r0

200016f8 <uart_has_data>:
200016f8:	b580      	push	{r7, lr}
200016fa:	af00      	add	r7, sp, #0
200016fc:	f7ff ffc2 	bl	20001684 <uart_can_getc>
20001700:	0003      	movs	r3, r0
20001702:	0018      	movs	r0, r3
20001704:	46bd      	mov	sp, r7
20001706:	bd80      	pop	{r7, pc}

20001708 <uart_getc_async>:
20001708:	b580      	push	{r7, lr}
2000170a:	af00      	add	r7, sp, #0
2000170c:	f7ff fff4 	bl	200016f8 <uart_has_data>
20001710:	1e03      	subs	r3, r0, #0
20001712:	d102      	bne.n	2000171a <uart_getc_async+0x12>
20001714:	2301      	movs	r3, #1
20001716:	425b      	negs	r3, r3
20001718:	e002      	b.n	20001720 <uart_getc_async+0x18>
2000171a:	f7ff ffb9 	bl	20001690 <uart_getc>
2000171e:	0003      	movs	r3, r0
20001720:	0018      	movs	r0, r3
20001722:	46bd      	mov	sp, r7
20001724:	bd80      	pop	{r7, pc}
20001726:	46c0      	nop			; (mov r8, r8)

Disassembly of section .rodata:

10001728 <FLASH_END>:
10001728:	80a0e081 	adchi	lr, r0, r1, lsl #1
1000172c:	00016001 	andeq	r6, r1, r1
10001730:	69726570 	ldmdbvs	r2!, {r4, r5, r6, r8, sl, sp, lr}^
10001734:	72206870 	eorvc	r6, r0, #112, 16	; 0x700000
10001738:	74657365 	strbtvc	r7, [r5], #-869	; 0xfffffc9b
1000173c:	0000000a 	andeq	r0, r0, sl
10001740:	746f7257 	strbtvc	r7, [pc], #-599	; 10001748 <FLASH_END+0x20>
10001744:	6f742065 	svcvs	0x00742065
10001748:	6d656d20 	stclvs	13, cr6, [r5, #-128]!	; 0xffffff80
1000174c:	64646120 	strbtvs	r6, [r4], #-288	; 0xfffffee0
10001750:	78252072 	stmdavc	r5!, {r1, r4, r5, r6, sp}
10001754:	0000000a 	andeq	r0, r0, sl
10001758:	696e6946 	stmdbvs	lr!, {r1, r2, r6, r8, fp, sp, lr}^
1000175c:	64656873 	strbtvs	r6, [r5], #-2163	; 0xfffff78d
10001760:	74657320 	strbtvc	r7, [r5], #-800	; 0xfffffce0
10001764:	676e6974 			; <UNDEFINED> instruction: 0x676e6974
10001768:	6c617620 	stclvs	6, cr7, [r1], #-128	; 0xffffff80
1000176c:	0000000a 	andeq	r0, r0, sl
10001770:	74696157 	strbtvc	r6, [r9], #-343	; 0xfffffea9
10001774:	20676e69 	rsbcs	r6, r7, r9, ror #28
10001778:	65726568 	ldrbvs	r6, [r2, #-1384]!	; 0xfffffa98
1000177c:	0000000a 	andeq	r0, r0, sl
10001780:	00000000 	andeq	r0, r0, r0
10001784:	00000001 	andeq	r0, r0, r1
10001788:	00002580 	andeq	r2, r0, r0, lsl #11
1000178c:	00000068 	andeq	r0, r0, r8, rrx
10001790:	20000dfe 	strdcs	r0, [r0], -lr
10001794:	20000e26 	andcs	r0, r0, r6, lsr #28
10001798:	20000e26 	andcs	r0, r0, r6, lsr #28
1000179c:	20000e12 	andcs	r0, r0, r2, lsl lr
100017a0:	20000e26 	andcs	r0, r0, r6, lsr #28
100017a4:	20000e26 	andcs	r0, r0, r6, lsr #28
100017a8:	20000e26 	andcs	r0, r0, r6, lsr #28
100017ac:	20000e26 	andcs	r0, r0, r6, lsr #28
100017b0:	20000e26 	andcs	r0, r0, r6, lsr #28
100017b4:	20000e26 	andcs	r0, r0, r6, lsr #28
100017b8:	20000e26 	andcs	r0, r0, r6, lsr #28
100017bc:	20000dea 	andcs	r0, r0, sl, ror #27
100017c0:	20000e26 	andcs	r0, r0, r6, lsr #28
100017c4:	20000dd6 	ldrdcs	r0, [r0], -r6
100017c8:	20000e26 	andcs	r0, r0, r6, lsr #28
100017cc:	20000e26 	andcs	r0, r0, r6, lsr #28
100017d0:	20000dc2 	andcs	r0, r0, r2, asr #27
100017d4:	2000130e 	andcs	r1, r0, lr, lsl #6
100017d8:	20001326 	andcs	r1, r0, r6, lsr #6
100017dc:	20001326 	andcs	r1, r0, r6, lsr #6
100017e0:	20001326 	andcs	r1, r0, r6, lsr #6
100017e4:	20001326 	andcs	r1, r0, r6, lsr #6
100017e8:	20001326 	andcs	r1, r0, r6, lsr #6
100017ec:	20001326 	andcs	r1, r0, r6, lsr #6
100017f0:	20001326 	andcs	r1, r0, r6, lsr #6
100017f4:	20001326 	andcs	r1, r0, r6, lsr #6
100017f8:	20001326 	andcs	r1, r0, r6, lsr #6
100017fc:	20001326 	andcs	r1, r0, r6, lsr #6
10001800:	20001326 	andcs	r1, r0, r6, lsr #6
10001804:	20001326 	andcs	r1, r0, r6, lsr #6
10001808:	20001326 	andcs	r1, r0, r6, lsr #6
1000180c:	20001326 	andcs	r1, r0, r6, lsr #6
10001810:	20001326 	andcs	r1, r0, r6, lsr #6
10001814:	20001326 	andcs	r1, r0, r6, lsr #6
10001818:	20001326 	andcs	r1, r0, r6, lsr #6
1000181c:	20001326 	andcs	r1, r0, r6, lsr #6
10001820:	20001326 	andcs	r1, r0, r6, lsr #6
10001824:	20001326 	andcs	r1, r0, r6, lsr #6
10001828:	20001326 	andcs	r1, r0, r6, lsr #6
1000182c:	20001326 	andcs	r1, r0, r6, lsr #6
10001830:	20001326 	andcs	r1, r0, r6, lsr #6
10001834:	20001326 	andcs	r1, r0, r6, lsr #6
10001838:	20001326 	andcs	r1, r0, r6, lsr #6
1000183c:	20001326 	andcs	r1, r0, r6, lsr #6
10001840:	20001326 	andcs	r1, r0, r6, lsr #6
10001844:	20001326 	andcs	r1, r0, r6, lsr #6
10001848:	20001326 	andcs	r1, r0, r6, lsr #6
1000184c:	20001326 	andcs	r1, r0, r6, lsr #6
10001850:	20001326 	andcs	r1, r0, r6, lsr #6
10001854:	20001326 	andcs	r1, r0, r6, lsr #6
10001858:	20001326 	andcs	r1, r0, r6, lsr #6
1000185c:	20001326 	andcs	r1, r0, r6, lsr #6
10001860:	20001326 	andcs	r1, r0, r6, lsr #6
10001864:	20001326 	andcs	r1, r0, r6, lsr #6
10001868:	20001326 	andcs	r1, r0, r6, lsr #6
1000186c:	20001326 	andcs	r1, r0, r6, lsr #6
10001870:	20001326 	andcs	r1, r0, r6, lsr #6
10001874:	20001326 	andcs	r1, r0, r6, lsr #6
10001878:	20001326 	andcs	r1, r0, r6, lsr #6
1000187c:	20001326 	andcs	r1, r0, r6, lsr #6
10001880:	20001326 	andcs	r1, r0, r6, lsr #6
10001884:	20001326 	andcs	r1, r0, r6, lsr #6
10001888:	20001326 	andcs	r1, r0, r6, lsr #6
1000188c:	20001326 	andcs	r1, r0, r6, lsr #6
10001890:	20001326 	andcs	r1, r0, r6, lsr #6
10001894:	20001326 	andcs	r1, r0, r6, lsr #6
10001898:	20001326 	andcs	r1, r0, r6, lsr #6
1000189c:	20001326 	andcs	r1, r0, r6, lsr #6
100018a0:	20000f8c 	andcs	r0, r0, ip, lsl #31
100018a4:	20001326 	andcs	r1, r0, r6, lsr #6
100018a8:	20001326 	andcs	r1, r0, r6, lsr #6
100018ac:	20001326 	andcs	r1, r0, r6, lsr #6
100018b0:	20001326 	andcs	r1, r0, r6, lsr #6
100018b4:	20001326 	andcs	r1, r0, r6, lsr #6
100018b8:	20001326 	andcs	r1, r0, r6, lsr #6
100018bc:	20001326 	andcs	r1, r0, r6, lsr #6
100018c0:	20001326 	andcs	r1, r0, r6, lsr #6
100018c4:	20001326 	andcs	r1, r0, r6, lsr #6
100018c8:	20000f8c 	andcs	r0, r0, ip, lsl #31
100018cc:	20001194 	mulcs	r0, r4, r1
100018d0:	20000f8c 	andcs	r0, r0, ip, lsl #31
100018d4:	20001326 	andcs	r1, r0, r6, lsr #6
100018d8:	20001326 	andcs	r1, r0, r6, lsr #6
100018dc:	20001326 	andcs	r1, r0, r6, lsr #6
100018e0:	20001326 	andcs	r1, r0, r6, lsr #6
100018e4:	20000f8c 	andcs	r0, r0, ip, lsl #31
100018e8:	20001326 	andcs	r1, r0, r6, lsr #6
100018ec:	20001326 	andcs	r1, r0, r6, lsr #6
100018f0:	20001326 	andcs	r1, r0, r6, lsr #6
100018f4:	20001326 	andcs	r1, r0, r6, lsr #6
100018f8:	20001326 	andcs	r1, r0, r6, lsr #6
100018fc:	20000f8c 	andcs	r0, r0, ip, lsl #31
10001900:	200012c8 	andcs	r1, r0, r8, asr #5
10001904:	20001326 	andcs	r1, r0, r6, lsr #6
10001908:	20001326 	andcs	r1, r0, r6, lsr #6
1000190c:	20001204 	andcs	r1, r0, r4, lsl #4
10001910:	20001326 	andcs	r1, r0, r6, lsr #6
10001914:	20000f8c 	andcs	r0, r0, ip, lsl #31
10001918:	20001326 	andcs	r1, r0, r6, lsr #6
1000191c:	20001326 	andcs	r1, r0, r6, lsr #6
10001920:	20000f8c 	andcs	r0, r0, ip, lsl #31

Disassembly of section .bss:

2000f000 <global_hw_uart>:
	...

2000f010 <global_uart>:
	...

Disassembly of section .debug_info:

00000000 <.debug_info>:
       0:	00000237 	andeq	r0, r0, r7, lsr r2
       4:	00000004 	andeq	r0, r0, r4
       8:	01040000 	mrseq	r0, (UNDEF: 4)
       c:	00000000 	andeq	r0, r0, r0
      10:	0001570c 	andeq	r5, r1, ip, lsl #14
      14:	0000f700 	andeq	pc, r0, r0, lsl #14
      18:	00011c00 	andeq	r1, r1, r0, lsl #24
      1c:	0000e820 	andeq	lr, r0, r0, lsr #16
      20:	00000000 	andeq	r0, r0, r0
      24:	06010200 	streq	r0, [r1], -r0, lsl #4
      28:	000001a0 	andeq	r0, r0, r0, lsr #3
      2c:	aa050202 	bge	14083c <STACK_SIZE+0x13e12c>
      30:	02000000 	andeq	r0, r0, #0, 0
      34:	00ee0504 	rsceq	r0, lr, r4, lsl #10
      38:	08020000 	stmdaeq	r2, {}	; <UNPREDICTABLE>
      3c:	0000e905 	andeq	lr, r0, r5, lsl #18
      40:	08010200 	stmdaeq	r1, {r9}
      44:	0000019e 	muleq	r0, lr, r1
      48:	0001d303 	andeq	sp, r1, r3, lsl #6
      4c:	19310200 	ldmdbne	r1!, {r9}
      50:	00000059 	andeq	r0, r0, r9, asr r0
      54:	00004804 	andeq	r4, r0, r4, lsl #16
      58:	07020200 	streq	r0, [r2, -r0, lsl #4]
      5c:	000001dc 	ldrdeq	r0, [r0], -ip
      60:	0001ca03 	andeq	ip, r1, r3, lsl #20
      64:	19340200 	ldmdbne	r4!, {r9}
      68:	0000006c 	andeq	r0, r0, ip, rrx
      6c:	b8070402 	stmdalt	r7, {r1, sl}
      70:	02000001 	andeq	r0, r0, #1, 0
      74:	01b30708 			; <UNDEFINED> instruction: 0x01b30708
      78:	04050000 	streq	r0, [r5], #-0
      7c:	746e6905 	strbtvc	r6, [lr], #-2309	; 0xfffff6fb
      80:	07040200 	streq	r0, [r4, -r0, lsl #4]
      84:	000001bd 			; <UNDEFINED> instruction: 0x000001bd
      88:	41010706 	tstmi	r1, r6, lsl #14
      8c:	05000000 	streq	r0, [r0, #-0]
      90:	00a90e3b 	adceq	r0, r9, fp, lsr lr
      94:	53070000 	movwpl	r0, #28672	; 0x7000
      98:	05004f49 	streq	r4, [r0, #-3913]	; 0xfffff0b7
      9c:	00034b08 	andeq	r4, r3, r8, lsl #22
      a0:	24080600 	strcs	r0, [r8], #-1536	; 0xfffffa00
      a4:	07000004 	streq	r0, [r0, -r4]
      a8:	04080200 	streq	r0, [r8], #-512	; 0xfffffe00
      ac:	0000017a 	andeq	r0, r0, sl, ror r1
      b0:	0c031009 	stceq	0, cr1, [r3], {9}
      b4:	0000ec09 	andeq	lr, r0, r9, lsl #24
      b8:	78740a00 	ldmdavc	r4!, {r9, fp}^
      bc:	090d0300 	stmdbeq	sp, {r8, r9}
      c0:	0000007a 	andeq	r0, r0, sl, ror r0
      c4:	78720a00 	ldmdavc	r2!, {r9, fp}^
      c8:	0c0d0300 	stceq	3, cr0, [sp], {-0}
      cc:	0000007a 	andeq	r0, r0, sl, ror r0
      d0:	01860b04 	orreq	r0, r6, r4, lsl #22
      d4:	0e030000 	cdpeq	0, 0, cr0, cr3, cr0, {0}
      d8:	0000810e 	andeq	r8, r0, lr, lsl #2
      dc:	d20b0800 	andle	r0, fp, #0, 16
      e0:	03000000 	movweq	r0, #0
      e4:	00810e0f 	addeq	r0, r1, pc, lsl #28
      e8:	000c0000 	andeq	r0, ip, r0
      ec:	00021f03 	andeq	r1, r2, r3, lsl #30
      f0:	03100300 	tsteq	r0, #0, 6
      f4:	000000b0 	strheq	r0, [r0], -r0	; <UNPREDICTABLE>
      f8:	00014b0c 	andeq	r4, r1, ip, lsl #22
      fc:	0b120300 	bleq	480d04 <STACK_SIZE+0x47e5f4>
     100:	000000ec 	andeq	r0, r0, ip, ror #1
     104:	f0100305 			; <UNDEFINED> instruction: 0xf0100305
     108:	10092000 	andne	r2, r9, r0
     10c:	46091204 	strmi	r1, [r9], -r4, lsl #4
     110:	0a000001 	beq	11c <STACK_SIZE-0x25f4>
     114:	04007874 	streq	r7, [r0], #-2164	; 0xfffff78c
     118:	00600e13 	rsbeq	r0, r0, r3, lsl lr
     11c:	0a000000 	beq	124 <STACK_SIZE-0x25ec>
     120:	04007872 	streq	r7, [r0], #-2162	; 0xfffff78e
     124:	00601113 	rsbeq	r1, r0, r3, lsl r1
     128:	0b040000 	bleq	100130 <STACK_SIZE+0xfda20>
     12c:	000000df 	ldrdeq	r0, [r0], -pc	; <UNPREDICTABLE>
     130:	600e1404 	andvs	r1, lr, r4, lsl #8
     134:	08000000 	stmdaeq	r0, {}	; <UNPREDICTABLE>
     138:	00009a0b 	andeq	r9, r0, fp, lsl #20
     13c:	0e150400 	cfmulseq	mvf0, mvf5, mvf0
     140:	00000060 	andeq	r0, r0, r0, rrx
     144:	7003000c 	andvc	r0, r3, ip
     148:	04000001 	streq	r0, [r0], #-1
     14c:	010a0316 	tsteq	sl, r6, lsl r3
     150:	ef0c0000 	svc	0x000c0000
     154:	04000001 	streq	r0, [r0], #-1
     158:	01460b18 	cmpeq	r6, r8, lsl fp
     15c:	03050000 	movweq	r0, #20480	; 0x5000
     160:	2000f000 	andcs	pc, r0, r0
     164:	81040706 	tsthi	r4, r6, lsl #14
     168:	06000000 	streq	r0, [r0], -r0
     16c:	01d60608 	bicseq	r0, r6, r8, lsl #12
     170:	a00d0000 	andge	r0, sp, r0
     174:	00000000 	andeq	r0, r0, r0
     178:	0d502000 	ldcleq	0, cr2, [r0, #-0]
     17c:	0000008f 	andeq	r0, r0, pc, lsl #1
     180:	50200004 	eorpl	r0, r0, r4
     184:	0000c60d 	andeq	ip, r0, sp, lsl #12
     188:	20000800 	andcs	r0, r0, r0, lsl #16
     18c:	01640d50 	cmneq	r4, r0, asr sp
     190:	000c0000 	andeq	r0, ip, r0
     194:	290d5020 	stmdbcs	sp, {r5, ip, lr}
     198:	10000002 	andne	r0, r0, r2
     19c:	0d502000 	ldcleq	0, cr2, [r0, #-0]
     1a0:	00000141 	andeq	r0, r0, r1, asr #2
     1a4:	50200020 	eorpl	r0, r0, r0, lsr #32
     1a8:	0002330d 	andeq	r3, r2, sp, lsl #6
     1ac:	20004800 	andcs	r4, r0, r0, lsl #16
     1b0:	020f0d50 	andeq	r0, pc, #80, 26	; 0x1400
     1b4:	00c80000 	sbceq	r0, r8, r0
     1b8:	b40d5020 	strlt	r5, [sp], #-32	; 0xffffffe0
     1bc:	cc000000 	stcgt	0, cr0, [r0], {-0}
     1c0:	0d502000 	ldcleq	0, cr2, [r0, #-0]
     1c4:	0000018b 	andeq	r0, r0, fp, lsl #3
     1c8:	502000d0 	ldrdpl	r0, [r0], -r0	; <UNPREDICTABLE>
     1cc:	0001300d 	andeq	r3, r1, sp
     1d0:	2000dc00 	andcs	sp, r0, r0, lsl #24
     1d4:	540e0050 	strpl	r0, [lr], #-80	; 0xffffffb0
     1d8:	e6000000 	str	r0, [r0], -r0
     1dc:	0f000001 	svceq	0x00000001
     1e0:	00000081 	andeq	r0, r0, r1, lsl #1
     1e4:	d6040003 	strle	r0, [r4], -r3
     1e8:	10000001 	andne	r0, r0, r1
     1ec:	000001fe 	strdeq	r0, [r0], -lr
     1f0:	e6170a01 	ldr	r0, [r7], -r1, lsl #20
     1f4:	05000001 	streq	r0, [r0, #-1]
     1f8:	00172803 	andseq	r2, r7, r3, lsl #16
     1fc:	01ac1110 			; <UNDEFINED> instruction: 0x01ac1110
     200:	11010000 	mrsne	r0, (UNDEF: 1)
     204:	00007a05 	andeq	r7, r0, r5, lsl #20
     208:	00011c00 	andeq	r1, r1, r0, lsl #24
     20c:	0000e820 	andeq	lr, r0, r0, lsr #16
     210:	109c0100 	addsne	r0, ip, r0, lsl #2
     214:	000005bf 			; <UNDEFINED> instruction: 0x000005bf
     218:	7a091901 	bvc	246624 <STACK_SIZE+0x243f14>
     21c:	02000000 	andeq	r0, r0, #0, 0
     220:	36127091 			; <UNDEFINED> instruction: 0x36127091
     224:	42200001 	eormi	r0, r0, #1, 0
     228:	13000000 	movwne	r0, #0
     22c:	1a010069 	bne	403d8 <STACK_SIZE+0x3dcc8>
     230:	00007a0e 	andeq	r7, r0, lr, lsl #20
     234:	74910200 	ldrvc	r0, [r1], #512	; 0x200
     238:	1e000000 	cdpne	0, 0, cr0, cr0, cr0, {0}
     23c:	02000000 	andeq	r0, r0, #0, 0
     240:	00010900 	andeq	r0, r1, r0, lsl #18
     244:	50010400 	andpl	r0, r1, r0, lsl #8
     248:	00000001 	andeq	r0, r0, r1
     24c:	47000000 	strmi	r0, [r0, -r0]
     250:	4f000002 	svcmi	0x00000002
     254:	7f000002 	svcvc	0x00000002
     258:	01000002 	tsteq	r0, r2
     25c:	0001a880 	andeq	sl, r1, r0, lsl #17
     260:	1b000400 	blne	1268 <STACK_SIZE-0x14a8>
     264:	04000001 	streq	r0, [r0], #-1
     268:	00000001 	andeq	r0, r0, r1
     26c:	028d0c00 	addeq	r0, sp, #0, 24
     270:	024f0000 	subeq	r0, pc, #0, 0
     274:	02040000 	andeq	r0, r4, #0, 0
     278:	00802000 	addeq	r2, r0, r0
     27c:	01d10000 	bicseq	r0, r1, r0
     280:	01020000 	mrseq	r0, (UNDEF: 2)
     284:	0001a006 	andeq	sl, r1, r6
     288:	05020200 	streq	r0, [r2, #-512]	; 0xfffffe00
     28c:	000000aa 	andeq	r0, r0, sl, lsr #1
     290:	ee050402 	cdp	4, 0, cr0, cr5, cr2, {0}
     294:	02000000 	andeq	r0, r0, #0, 0
     298:	00e90508 	rsceq	r0, r9, r8, lsl #10
     29c:	01020000 	mrseq	r0, (UNDEF: 2)
     2a0:	00019e08 	andeq	r9, r1, r8, lsl #28
     2a4:	07020200 	streq	r0, [r2, -r0, lsl #4]
     2a8:	000001dc 	ldrdeq	r0, [r0], -ip
     2ac:	0001ca03 	andeq	ip, r1, r3, lsl #20
     2b0:	19340300 	ldmdbne	r4!, {r8, r9}
     2b4:	0000005b 	andeq	r0, r0, fp, asr r0
     2b8:	b8070402 	stmdalt	r7, {r1, sl}
     2bc:	02000001 	andeq	r0, r0, #1, 0
     2c0:	01b30708 			; <UNDEFINED> instruction: 0x01b30708
     2c4:	04040000 	streq	r0, [r4], #-0
     2c8:	746e6905 	strbtvc	r6, [lr], #-2309	; 0xfffff6fb
     2cc:	07040200 	streq	r0, [r4, -r0, lsl #4]
     2d0:	000001bd 			; <UNDEFINED> instruction: 0x000001bd
     2d4:	70040705 	andvc	r0, r4, r5, lsl #14
     2d8:	05000000 	streq	r0, [r0, #-0]
     2dc:	008f061f 	addeq	r0, pc, pc, lsl r6	; <UNPREDICTABLE>
     2e0:	af060000 	svcge	0x00060000
     2e4:	48000002 	stmdami	r0, {r1}
     2e8:	00400080 	subeq	r0, r0, r0, lsl #1
     2ec:	0c021007 	stceq	0, cr1, [r2], {7}
     2f0:	0000cb09 	andeq	ip, r0, r9, lsl #22
     2f4:	78740800 	ldmdavc	r4!, {fp}^
     2f8:	090d0200 	stmdbeq	sp, {r9}
     2fc:	00000069 	andeq	r0, r0, r9, rrx
     300:	78720800 	ldmdavc	r2!, {fp}^
     304:	0c0d0200 	sfmeq	f0, 4, [sp], {-0}
     308:	00000069 	andeq	r0, r0, r9, rrx
     30c:	01860904 	orreq	r0, r6, r4, lsl #18
     310:	0e020000 	cdpeq	0, 0, cr0, cr2, cr0, {0}
     314:	0000700e 	andeq	r7, r0, lr
     318:	d2090800 	andle	r0, r9, #0, 16
     31c:	02000000 	andeq	r0, r0, #0, 0
     320:	00700e0f 	rsbseq	r0, r0, pc, lsl #28
     324:	000c0000 	andeq	r0, ip, r0
     328:	00021f03 	andeq	r1, r2, r3, lsl #30
     32c:	03100200 	tsteq	r0, #0, 4
     330:	0000008f 	andeq	r0, r0, pc, lsl #1
     334:	00014b0a 	andeq	r4, r1, sl, lsl #22
     338:	0b120200 	bleq	480b40 <STACK_SIZE+0x47e430>
     33c:	000000cb 	andeq	r0, r0, fp, asr #1
     340:	f0100305 			; <UNDEFINED> instruction: 0xf0100305
     344:	08022000 	stmdaeq	r2, {sp}
     348:	00017a04 	andeq	r7, r1, r4, lsl #20
     34c:	04100700 	ldreq	r0, [r0], #-1792	; 0xfffff900
     350:	012c0912 			; <UNDEFINED> instruction: 0x012c0912
     354:	74080000 	strvc	r0, [r8], #-0
     358:	13040078 	movwne	r0, #16504	; 0x4078
     35c:	00004f0e 	andeq	r4, r0, lr, lsl #30
     360:	72080000 	andvc	r0, r8, #0, 0
     364:	13040078 	movwne	r0, #16504	; 0x4078
     368:	00004f11 	andeq	r4, r0, r1, lsl pc
     36c:	df090400 	svcle	0x00090400
     370:	04000000 	streq	r0, [r0], #-0
     374:	004f0e14 	subeq	r0, pc, r4, lsl lr	; <UNPREDICTABLE>
     378:	09080000 	stmdbeq	r8, {}	; <UNPREDICTABLE>
     37c:	0000009a 	muleq	r0, sl, r0
     380:	4f0e1504 	svcmi	0x000e1504
     384:	0c000000 	stceq	0, cr0, [r0], {-0}
     388:	01700300 	cmneq	r0, r0, lsl #6
     38c:	16040000 	strne	r0, [r4], -r0
     390:	0000f003 	andeq	pc, r0, r3
     394:	01ef0a00 	mvneq	r0, r0, lsl #20
     398:	18040000 	stmdane	r4, {}	; <UNPREDICTABLE>
     39c:	00012c0b 	andeq	r2, r1, fp, lsl #24
     3a0:	00030500 	andeq	r0, r3, r0, lsl #10
     3a4:	0b2000f0 	bleq	80076c <STACK_SIZE+0x7fe05c>
     3a8:	0000029a 	muleq	r0, sl, r2
     3ac:	04060a01 	streq	r0, [r6], #-2561	; 0xfffff5ff
     3b0:	80200002 	eorhi	r0, r0, r2
     3b4:	01000000 	mrseq	r0, (UNDEF: 0)
     3b8:	0001a59c 	muleq	r1, ip, r5
     3bc:	02a10c00 	adceq	r0, r1, #0, 24
     3c0:	0c010000 	stceq	0, cr0, [r1], {-0}
     3c4:	00004f15 	andeq	r4, r0, r5, lsl pc
     3c8:	02bd0c00 	adcseq	r0, sp, #0, 24
     3cc:	0c010000 	stceq	0, cr0, [r1], {-0}
     3d0:	00004f23 	andeq	r4, r0, r3, lsr #30
     3d4:	02c90d00 	sbceq	r0, r9, #0, 26
     3d8:	0d010000 	stceq	0, cr0, [r1, #-0]
     3dc:	0001a50f 	andeq	sl, r1, pc, lsl #10
     3e0:	70910200 	addsvc	r0, r1, r0, lsl #4
     3e4:	7373620e 	cmnvc	r3, #-536870912	; 0xe0000000
     3e8:	0f0e0100 	svceq	0x000e0100
     3ec:	000001a5 	andeq	r0, r0, r5, lsr #3
     3f0:	0f749102 	svceq	0x00749102
     3f4:	000001ac 	andeq	r0, r0, ip, lsr #3
     3f8:	69051d01 	stmdbvs	r5, {r0, r8, sl, fp, ip}
     3fc:	10000000 	andne	r0, r0, r0
     400:	04110000 	ldreq	r0, [r1], #-0
     404:	0000004f 	andeq	r0, r0, pc, asr #32
     408:	00034900 	andeq	r4, r3, r0, lsl #18
     40c:	24000400 	strcs	r0, [r0], #-1024	; 0xfffffc00
     410:	04000002 	streq	r0, [r0], #-2
     414:	00000001 	andeq	r0, r0, r1
     418:	04420c00 	strbeq	r0, [r2], #-3072	; 0xfffff400
     41c:	024f0000 	subeq	r0, pc, #0, 0
     420:	02840000 	addeq	r0, r4, #0, 0
     424:	023c2000 	eorseq	r2, ip, #0, 0
     428:	02c70000 	sbceq	r0, r7, #0, 0
     42c:	01020000 	mrseq	r0, (UNDEF: 2)
     430:	0001a006 	andeq	sl, r1, r6
     434:	05020200 	streq	r0, [r2, #-512]	; 0xfffffe00
     438:	000000aa 	andeq	r0, r0, sl, lsr #1
     43c:	ee050402 	cdp	4, 0, cr0, cr5, cr2, {0}
     440:	02000000 	andeq	r0, r0, #0, 0
     444:	00e90508 	rsceq	r0, r9, r8, lsl #10
     448:	01020000 	mrseq	r0, (UNDEF: 2)
     44c:	00019e08 	andeq	r9, r1, r8, lsl #28
     450:	07020200 	streq	r0, [r2, -r0, lsl #4]
     454:	000001dc 	ldrdeq	r0, [r0], -ip
     458:	0001ca03 	andeq	ip, r1, r3, lsl #20
     45c:	19340300 	ldmdbne	r4!, {r8, r9}
     460:	0000005b 	andeq	r0, r0, fp, asr r0
     464:	b8070402 	stmdalt	r7, {r1, sl}
     468:	02000001 	andeq	r0, r0, #1, 0
     46c:	01b30708 			; <UNDEFINED> instruction: 0x01b30708
     470:	04040000 	streq	r0, [r4], #-0
     474:	746e6905 	strbtvc	r6, [lr], #-2309	; 0xfffff6fb
     478:	07040200 	streq	r0, [r4, -r0, lsl #4]
     47c:	000001bd 			; <UNDEFINED> instruction: 0x000001bd
     480:	70040705 	andvc	r0, r4, r5, lsl #14
     484:	02000000 	andeq	r0, r0, #0, 0
     488:	0098060d 	addseq	r0, r8, sp, lsl #12
     48c:	f4060000 	vst4.8	{d0-d3}, [r6], r0
     490:	00000002 	andeq	r0, r0, r2
     494:	06400140 	strbeq	r0, [r0], -r0, asr #2
     498:	0000040c 	andeq	r0, r0, ip, lsl #8
     49c:	40014004 	andmi	r4, r1, r4
     4a0:	04070500 	streq	r0, [r7], #-1280	; 0xfffffb00
     4a4:	00000070 	andeq	r0, r0, r0, ror r0
     4a8:	e6061402 	str	r1, [r6], -r2, lsl #8
     4ac:	06000000 	streq	r0, [r0], -r0
     4b0:	0000039a 	muleq	r0, sl, r3
     4b4:	d0000004 	andle	r0, r0, r4
     4b8:	00047206 	andeq	r7, r4, r6, lsl #4
     4bc:	00001000 	andeq	r1, r0, r0
     4c0:	044d06d0 	strbeq	r0, [sp], #-1744	; 0xfffff930
     4c4:	00140000 	andseq	r0, r4, r0
     4c8:	e706d000 	str	sp, [r6, -r0]
     4cc:	18000002 	stmdane	r0, {r1}
     4d0:	06d00000 	ldrbeq	r0, [r0], r0
     4d4:	000003be 			; <UNDEFINED> instruction: 0x000003be
     4d8:	d0000020 	andle	r0, r0, r0, lsr #32
     4dc:	0002d106 	andeq	sp, r2, r6, lsl #2
     4e0:	00002800 	andeq	r2, r0, r0, lsl #16
     4e4:	043606d0 	ldrteq	r0, [r6], #-1744	; 0xfffff930
     4e8:	00240000 	eoreq	r0, r4, r0
     4ec:	0500d000 	streq	sp, [r0, #-0]
     4f0:	00700407 	rsbseq	r0, r0, r7, lsl #8
     4f4:	21020000 	mrscs	r0, (UNDEF: 2)
     4f8:	00010706 	andeq	r0, r1, r6, lsl #14
     4fc:	03ad0600 			; <UNDEFINED> instruction: 0x03ad0600
     500:	c0000000 	andgt	r0, r0, r0
     504:	08064001 	stmdaeq	r6, {r0, lr}
     508:	04000003 	streq	r0, [r0], #-3
     50c:	004001c0 	subeq	r0, r0, r0, asr #3
     510:	70040705 	andvc	r0, r4, r5, lsl #14
     514:	02000000 	andeq	r0, r0, #0, 0
     518:	013a0628 	teqeq	sl, r8, lsr #12
     51c:	6c060000 	stcvs	0, cr0, [r6], {-0}
     520:	00000004 	andeq	r0, r0, r4
     524:	064000c0 	strbeq	r0, [r0], -r0, asr #1
     528:	00000386 	andeq	r0, r0, r6, lsl #7
     52c:	4000c004 	andmi	ip, r0, r4
     530:	0003a206 	andeq	sl, r3, r6, lsl #4
     534:	00c00800 	sbceq	r0, r0, r0, lsl #16
     538:	03e90640 	mvneq	r0, #64, 12	; 0x4000000
     53c:	f0000000 			; <UNDEFINED> instruction: 0xf0000000
     540:	05004000 	streq	r4, [r0, #-0]
     544:	00410107 	subeq	r0, r1, r7, lsl #2
     548:	30020000 	andcc	r0, r2, r0
     54c:	00017306 	andeq	r7, r1, r6, lsl #6
     550:	03670700 	cmneq	r7, #0, 14
     554:	07050000 	streq	r0, [r5, -r0]
     558:	00000328 	andeq	r0, r0, r8, lsr #6
     55c:	03d20718 	bicseq	r0, r2, #24, 14	; 0x600000
     560:	07170000 	ldreq	r0, [r7, -r0]
     564:	000003c6 	andeq	r0, r0, r6, asr #7
     568:	03170716 	tsteq	r7, #5767168	; 0x580000
     56c:	07080000 	streq	r0, [r8, -r0]
     570:	00000345 	andeq	r0, r0, r5, asr #6
     574:	041e070a 	ldreq	r0, [lr], #-1802	; 0xfffff8f6
     578:	000b0000 	andeq	r0, fp, r0
     57c:	41010705 	tstmi	r1, r5, lsl #14
     580:	02000000 	andeq	r0, r0, #0, 0
     584:	01940e3b 	orrseq	r0, r4, fp, lsr lr
     588:	53080000 	movwpl	r0, #32768	; 0x8000
     58c:	05004f49 	streq	r4, [r0, #-3913]	; 0xfffff0b7
     590:	00034b07 	andeq	r4, r3, r7, lsl #22
     594:	24070600 	strcs	r0, [r7], #-1536	; 0xfffffa00
     598:	07000004 	streq	r0, [r0, -r4]
     59c:	04080200 	streq	r0, [r8], #-512	; 0xfffffe00
     5a0:	0000017a 	andeq	r0, r0, sl, ror r1
     5a4:	0002dd09 	andeq	sp, r2, r9, lsl #26
     5a8:	06510100 	ldrbeq	r0, [r1], -r0, lsl #2
     5ac:	2000048c 	andcs	r0, r0, ip, lsl #9
     5b0:	00000034 	andeq	r0, r0, r4, lsr r0
     5b4:	01d09c01 	bicseq	r9, r0, r1, lsl #24
     5b8:	700a0000 	andvc	r0, sl, r0
     5bc:	01006e69 	tsteq	r0, r9, ror #28
     5c0:	004f1951 	subeq	r1, pc, r1, asr r9	; <UNPREDICTABLE>
     5c4:	91020000 	mrsls	r0, (UNDEF: 2)
     5c8:	04050b6c 	streq	r0, [r5], #-2924	; 0xfffff494
     5cc:	55010000 	strpl	r0, [r1, #-0]
     5d0:	00004f0e 	andeq	r4, r0, lr, lsl #30
     5d4:	74910200 	ldrvc	r0, [r1], #512	; 0x200
     5d8:	03900c00 	orrseq	r0, r0, #0, 24
     5dc:	4d010000 	stcmi	0, cr0, [r1, #-0]
     5e0:	00047c06 	andeq	r7, r4, r6, lsl #24
     5e4:	00001020 	andeq	r1, r0, r0, lsr #32
     5e8:	0c9c0100 	ldfeqs	f0, [ip], {0}
     5ec:	000003de 	ldrdeq	r0, [r0], -lr
     5f0:	6c064901 			; <UNDEFINED> instruction: 0x6c064901
     5f4:	10200004 	eorne	r0, r0, r4
     5f8:	01000000 	mrseq	r0, (UNDEF: 0)
     5fc:	035a099c 	cmpeq	sl, #156, 18	; 0x270000
     600:	41010000 	mrsmi	r0, (UNDEF: 1)
     604:	00043c06 	andeq	r3, r4, r6, lsl #24
     608:	00003020 	andeq	r3, r0, r0, lsr #32
     60c:	1a9c0100 	bne	fe700a14 <__bss_end__+0xde6f19f4>
     610:	0a000002 	beq	620 <STACK_SIZE-0x20f0>
     614:	006e6970 	rsbeq	r6, lr, r0, ror r9
     618:	4f1c4101 	svcmi	0x001c4101
     61c:	02000000 	andeq	r0, r0, #0, 0
     620:	09007491 	stmdbeq	r0, {r0, r4, r7, sl, ip, sp, lr}
     624:	0000047b 	andeq	r0, r0, fp, ror r4
     628:	0c063a01 			; <UNDEFINED> instruction: 0x0c063a01
     62c:	30200004 	eorcc	r0, r0, r4
     630:	01000000 	mrseq	r0, (UNDEF: 0)
     634:	0002409c 	muleq	r2, ip, r0
     638:	69700a00 	ldmdbvs	r0!, {r9, fp}^
     63c:	3a01006e 	bcc	407fc <STACK_SIZE+0x3e0ec>
     640:	00004f1b 	andeq	r4, r0, fp, lsl pc
     644:	74910200 	ldrvc	r0, [r1], #512	; 0x200
     648:	03760900 	cmneq	r6, #0, 18
     64c:	2d010000 	stccs	0, cr0, [r1, #-0]
     650:	00039006 	andeq	r9, r3, r6
     654:	00007c20 	andeq	r7, r0, r0, lsr #24
     658:	759c0100 	ldrvc	r0, [ip, #256]	; 0x100
     65c:	0a000002 	beq	66c <STACK_SIZE-0x20a4>
     660:	006e6970 	rsbeq	r6, lr, r0, ror r9
     664:	4f1f2d01 	svcmi	0x001f2d01
     668:	02000000 	andeq	r0, r0, #0, 0
     66c:	050b6c91 	streq	r6, [fp, #-3217]	; 0xfffff36f
     670:	01000004 	tsteq	r0, r4
     674:	004f0e32 	subeq	r0, pc, r2, lsr lr	; <UNPREDICTABLE>
     678:	91020000 	mrsls	r0, (UNDEF: 2)
     67c:	500d0074 	andpl	r0, sp, r4, ror r0
     680:	01000003 	tsteq	r0, r3
     684:	004f0a26 	subeq	r0, pc, r6, lsr #20
     688:	035c0000 	cmpeq	ip, #0, 0
     68c:	00342000 	eorseq	r2, r4, r0
     690:	9c010000 	stcls	0, cr0, [r1], {-0}
     694:	0000029f 	muleq	r0, pc, r2	; <UNPREDICTABLE>
     698:	6e69700a 	cdpvs	0, 6, cr7, cr9, cr10, {0}
     69c:	1d260100 	stfnes	f0, [r6, #-0]
     6a0:	0000004f 	andeq	r0, r0, pc, asr #32
     6a4:	00749102 	rsbseq	r9, r4, r2, lsl #2
     6a8:	00033609 	andeq	r3, r3, r9, lsl #12
     6ac:	061d0100 	ldreq	r0, [sp], -r0, lsl #2
     6b0:	2000031c 	andcs	r0, r0, ip, lsl r3
     6b4:	00000040 	andeq	r0, r0, r0, asr #32
     6b8:	02d49c01 	sbcseq	r9, r4, #256	; 0x100
     6bc:	700a0000 	andvc	r0, sl, r0
     6c0:	01006e69 	tsteq	r0, r9, ror #28
     6c4:	004f1e1d 	subeq	r1, pc, sp, lsl lr	; <UNPREDICTABLE>
     6c8:	91020000 	mrsls	r0, (UNDEF: 2)
     6cc:	04050b6c 	streq	r0, [r5], #-2924	; 0xfffff494
     6d0:	21010000 	mrscs	r0, (UNDEF: 1)
     6d4:	00004f0e 	andeq	r4, r0, lr, lsl #30
     6d8:	74910200 	ldrvc	r0, [r1], #512	; 0x200
     6dc:	045a0900 	ldrbeq	r0, [sl], #-2304	; 0xfffff700
     6e0:	12010000 	andne	r0, r1, #0, 0
     6e4:	0002dc06 	andeq	sp, r2, r6, lsl #24
     6e8:	00004020 	andeq	r4, r0, r0, lsr #32
     6ec:	189c0100 	ldmne	ip, {r8}
     6f0:	0a000003 	beq	704 <STACK_SIZE-0x200c>
     6f4:	006e6970 	rsbeq	r6, lr, r0, ror r9
     6f8:	4f211201 	svcmi	0x00211201
     6fc:	02000000 	andeq	r0, r0, #0, 0
     700:	630e6c91 	movwvs	r6, #60561	; 0xec91
     704:	01000004 	tsteq	r0, r4
     708:	004f2f12 	subeq	r2, pc, r2, lsl pc	; <UNPREDICTABLE>
     70c:	91020000 	mrsls	r0, (UNDEF: 2)
     710:	04050b68 	streq	r0, [r5], #-2920	; 0xfffff498
     714:	19010000 	stmdbne	r1, {}	; <UNPREDICTABLE>
     718:	00004f0e 	andeq	r4, r0, lr, lsl #30
     71c:	74910200 	ldrvc	r0, [r1], #512	; 0x200
     720:	03fa0c00 	mvnseq	r0, #0, 24
     724:	0e010000 	cdpeq	0, 0, cr0, cr1, cr0, {0}
     728:	0002cc06 	andeq	ip, r2, r6, lsl #24
     72c:	00001020 	andeq	r1, r0, r0, lsr #32
     730:	0f9c0100 	svceq	0x009c0100
     734:	00000429 	andeq	r0, r0, r9, lsr #8
     738:	84060901 	strhi	r0, [r6], #-2305	; 0xfffff6ff
     73c:	48200002 	stmdami	r0!, {r1}
     740:	01000000 	mrseq	r0, (UNDEF: 0)
     744:	6f6c0a9c 	svcvs	0x006c0a9c
     748:	09010063 	stmdbeq	r1, {r0, r1, r5, r6}
     74c:	00004f1c 	andeq	r4, r0, ip, lsl pc
     750:	74910200 	ldrvc	r0, [r1], #512	; 0x200
     754:	01ad0000 			; <UNDEFINED> instruction: 0x01ad0000
     758:	00040000 	andeq	r0, r4, r0
     75c:	0000032a 	andeq	r0, r0, sl, lsr #6
     760:	00000104 	andeq	r0, r0, r4, lsl #2
     764:	d00c0000 	andle	r0, ip, r0
     768:	4f000004 	svcmi	0x00000004
     76c:	c0000002 	andgt	r0, r0, r2
     770:	b8200004 	stmdalt	r0!, {r2}
     774:	55000001 	strpl	r0, [r0, #-1]
     778:	02000004 	andeq	r0, r0, #4, 0
     77c:	01a00601 	lsleq	r0, r1, #12
     780:	02020000 	andeq	r0, r2, #0, 0
     784:	0000aa05 	andeq	sl, r0, r5, lsl #20
     788:	05040200 	streq	r0, [r4, #-512]	; 0xfffffe00
     78c:	000000ee 	andeq	r0, r0, lr, ror #1
     790:	e9050802 	stmdb	r5, {r1, fp}
     794:	02000000 	andeq	r0, r0, #0, 0
     798:	019e0801 	orrseq	r0, lr, r1, lsl #16
     79c:	02020000 	andeq	r0, r2, #0, 0
     7a0:	0001dc07 	andeq	sp, r1, r7, lsl #24
     7a4:	01ca0300 	biceq	r0, sl, r0, lsl #6
     7a8:	34030000 	strcc	r0, [r3], #-0
     7ac:	00005b19 	andeq	r5, r0, r9, lsl fp
     7b0:	07040200 	streq	r0, [r4, -r0, lsl #4]
     7b4:	000001b8 			; <UNDEFINED> instruction: 0x000001b8
     7b8:	b3070802 	movwlt	r0, #30722	; 0x7802
     7bc:	04000001 	streq	r0, [r0], #-1
     7c0:	6e690504 	cdpvs	5, 6, cr0, cr9, cr4, {0}
     7c4:	04020074 	streq	r0, [r2], #-116	; 0xffffff8c
     7c8:	0001bd07 	andeq	fp, r1, r7, lsl #26
     7cc:	04070500 	streq	r0, [r7], #-1280	; 0xfffffb00
     7d0:	00000070 	andeq	r0, r0, r0, ror r0
     7d4:	b3061402 	movwlt	r1, #25602	; 0x6402
     7d8:	06000000 	streq	r0, [r0], -r0
     7dc:	0000051b 	andeq	r0, r0, fp, lsl r5
     7e0:	40024000 	andmi	r4, r2, r0
     7e4:	0004b706 	andeq	fp, r4, r6, lsl #14
     7e8:	02400400 	subeq	r0, r0, #0, 8
     7ec:	04870640 	streq	r0, [r7], #1600	; 0x640
     7f0:	40080000 	andmi	r0, r8, r0
     7f4:	9a064002 	bls	190804 <STACK_SIZE+0x18e0f4>
     7f8:	0c000004 	stceq	0, cr0, [r0], {4}
     7fc:	06400240 	strbeq	r0, [r0], -r0, asr #4
     800:	000004e5 	andeq	r0, r0, r5, ror #9
     804:	4002401c 	andmi	r4, r2, ip, lsl r0
     808:	04070500 	streq	r0, [r7], #-1280	; 0xfffffb00
     80c:	00000070 	andeq	r0, r0, r0, ror r0
     810:	cb061f02 	blgt	188420 <STACK_SIZE+0x185d10>
     814:	06000000 	streq	r0, [r0], -r0
     818:	000002af 	andeq	r0, r0, pc, lsr #5
     81c:	40008048 	andmi	r8, r0, r8, asr #32
     820:	04a70700 	strteq	r0, [r7], #1792	; 0x700
     824:	54010000 	strpl	r0, [r1], #-0
     828:	00064006 	andeq	r4, r6, r6
     82c:	00003820 	andeq	r3, r0, r0, lsr #16
     830:	f19c0100 			; <UNDEFINED> instruction: 0xf19c0100
     834:	08000000 	stmdaeq	r0, {}	; <UNPREDICTABLE>
     838:	000004c9 	andeq	r0, r0, r9, asr #9
     83c:	4f1f5401 	svcmi	0x001f5401
     840:	02000000 	andeq	r0, r0, #0, 0
     844:	07007491 			; <UNDEFINED> instruction: 0x07007491
     848:	000004f0 	strdeq	r0, [r0], -r0	; <UNPREDICTABLE>
     84c:	f8064b01 			; <UNDEFINED> instruction: 0xf8064b01
     850:	48200005 	stmdami	r0!, {r0, r2}
     854:	01000000 	mrseq	r0, (UNDEF: 0)
     858:	0001179c 	muleq	r1, ip, r7
     85c:	04940800 	ldreq	r0, [r4], #2048	; 0x800
     860:	4b010000 	blmi	40868 <STACK_SIZE+0x3e158>
     864:	00004f23 	andeq	r4, r0, r3, lsr #30
     868:	74910200 	ldrvc	r0, [r1], #512	; 0x200
     86c:	04dc0700 	ldrbeq	r0, [ip], #1792	; 0x700
     870:	37010000 	strcc	r0, [r1, -r0]
     874:	0005a006 	andeq	sl, r5, r6
     878:	00005820 	andeq	r5, r0, r0, lsr #16
     87c:	629c0100 	addsvs	r0, ip, #0
     880:	09000001 	stmdbeq	r0, {r0}
     884:	01007375 	tsteq	r0, r5, ror r3
     888:	004f1837 	subeq	r1, pc, r7, lsr r8	; <UNPREDICTABLE>
     88c:	91020000 	mrsls	r0, (UNDEF: 2)
     890:	05110a6c 	ldreq	r0, [r1, #-2668]	; 0xfffff594
     894:	38010000 	stmdacc	r1, {}	; <UNPREDICTABLE>
     898:	00004f0e 	andeq	r4, r0, lr, lsl #30
     89c:	70910200 	addsvc	r0, r1, r0, lsl #4
     8a0:	0005b60b 	andeq	fp, r5, fp, lsl #12
     8a4:	00003020 	andeq	r3, r0, r0, lsr #32
     8a8:	00690c00 	rsbeq	r0, r9, r0, lsl #24
     8ac:	690e3901 	stmdbvs	lr, {r0, r8, fp, ip, sp}
     8b0:	02000000 	andeq	r0, r0, #0, 0
     8b4:	00007491 	muleq	r0, r1, r4
     8b8:	00050407 	andeq	r0, r5, r7, lsl #8
     8bc:	06170100 	ldreq	r0, [r7], -r0, lsl #2
     8c0:	2000051c 	andcs	r0, r0, ip, lsl r5
     8c4:	00000084 	andeq	r0, r0, r4, lsl #1
     8c8:	01979c01 	orrseq	r9, r7, r1, lsl #24
     8cc:	25080000 	strcs	r0, [r8, #-0]
     8d0:	01000005 	tsteq	r0, r5
     8d4:	01971817 	orrseq	r1, r7, r7, lsl r8
     8d8:	91020000 	mrsls	r0, (UNDEF: 2)
     8dc:	04c30a6f 	strbeq	r0, [r3], #2671	; 0xa6f
     8e0:	19010000 	stmdbne	r1, {}	; <UNPREDICTABLE>
     8e4:	00004f0e 	andeq	r4, r0, lr, lsl #30
     8e8:	74910200 	ldrvc	r0, [r1], #512	; 0x200
     8ec:	02010200 	andeq	r0, r1, #0, 4
     8f0:	00000530 	andeq	r0, r0, r0, lsr r5
     8f4:	0004f60d 	andeq	pc, r4, sp, lsl #12
     8f8:	060c0100 	streq	r0, [ip], -r0, lsl #2
     8fc:	200004c0 	andcs	r0, r0, r0, asr #9
     900:	0000005c 	andeq	r0, r0, ip, asr r0
     904:	c4009c01 	strgt	r9, [r0], #-3073	; 0xfffff3ff
     908:	04000001 	streq	r0, [r0], #-1
     90c:	00040000 	andeq	r0, r4, r0
     910:	00010400 	andeq	r0, r1, r0, lsl #8
     914:	0c000000 	stceq	0, cr0, [r0], {-0}
     918:	0000053b 	andeq	r0, r0, fp, lsr r5
     91c:	0000024f 	andeq	r0, r0, pc, asr #4
     920:	20000678 	andcs	r0, r0, r8, ror r6
     924:	00000110 	andeq	r0, r0, r0, lsl r1
     928:	000005bd 			; <UNDEFINED> instruction: 0x000005bd
     92c:	a0060102 	andge	r0, r6, r2, lsl #2
     930:	02000001 	andeq	r0, r0, #1, 0
     934:	00aa0502 	adceq	r0, sl, r2, lsl #10
     938:	04020000 	streq	r0, [r2], #-0
     93c:	0000ee05 	andeq	lr, r0, r5, lsl #28
     940:	05080200 	streq	r0, [r8, #-512]	; 0xfffffe00
     944:	000000e9 	andeq	r0, r0, r9, ror #1
     948:	9e080102 	adflse	f0, f0, f2
     94c:	02000001 	andeq	r0, r0, #1, 0
     950:	01dc0702 	bicseq	r0, ip, r2, lsl #14
     954:	04020000 	streq	r0, [r2], #-0
     958:	0001b807 	andeq	fp, r1, r7, lsl #16
     95c:	07080200 	streq	r0, [r8, -r0, lsl #4]
     960:	000001b3 			; <UNDEFINED> instruction: 0x000001b3
     964:	69050403 	stmdbvs	r5, {r0, r1, sl}
     968:	0200746e 	andeq	r7, r0, #1845493760	; 0x6e000000
     96c:	01bd0704 			; <UNDEFINED> instruction: 0x01bd0704
     970:	10040000 	andne	r0, r4, r0
     974:	a7090c02 	strge	r0, [r9, -r2, lsl #24]
     978:	05000000 	streq	r0, [r0, #-0]
     97c:	02007874 	andeq	r7, r0, #116, 16	; 0x740000
     980:	005d090d 	subseq	r0, sp, sp, lsl #18
     984:	05000000 	streq	r0, [r0, #-0]
     988:	02007872 	andeq	r7, r0, #7471104	; 0x720000
     98c:	005d0c0d 	subseq	r0, sp, sp, lsl #24
     990:	06040000 	streq	r0, [r4], -r0
     994:	00000186 	andeq	r0, r0, r6, lsl #3
     998:	640e0e02 	strvs	r0, [lr], #-3586	; 0xfffff1fe
     99c:	08000000 	stmdaeq	r0, {}	; <UNPREDICTABLE>
     9a0:	0000d206 	andeq	sp, r0, r6, lsl #4
     9a4:	0e0f0200 	cdpeq	2, 0, cr0, cr15, cr0, {0}
     9a8:	00000064 	andeq	r0, r0, r4, rrx
     9ac:	1f07000c 	svcne	0x0007000c
     9b0:	02000002 	andeq	r0, r0, #2, 0
     9b4:	006b0310 	rsbeq	r0, fp, r0, lsl r3
     9b8:	4b080000 	blmi	2009c0 <STACK_SIZE+0x1fe2b0>
     9bc:	02000001 	andeq	r0, r0, #1, 0
     9c0:	00a70b12 	adceq	r0, r7, r2, lsl fp
     9c4:	03050000 	movweq	r0, #20480	; 0x5000
     9c8:	2000f010 	andcs	pc, r0, r0, lsl r0	; <UNPREDICTABLE>
     9cc:	00056209 	andeq	r6, r5, r9, lsl #4
     9d0:	051b0100 	ldreq	r0, [fp, #-256]	; 0xffffff00
     9d4:	0000005d 	andeq	r0, r0, sp, asr r0
     9d8:	20000750 	andcs	r0, r0, r0, asr r7
     9dc:	00000038 	andeq	r0, r0, r8, lsr r0
     9e0:	750a9c01 	strvc	r9, [sl, #-3073]	; 0xfffff3ff
     9e4:	01000005 	tsteq	r0, r5
     9e8:	07120615 			; <UNDEFINED> instruction: 0x07120615
     9ec:	003e2000 	eorseq	r2, lr, r0
     9f0:	9c010000 	stcls	0, cr0, [r1], {-0}
     9f4:	00000127 	andeq	r0, r0, r7, lsr #2
     9f8:	0001520b 	andeq	r5, r1, fp, lsl #4
     9fc:	1e150100 	mufnes	f0, f5, f0
     a00:	00000127 	andeq	r0, r0, r7, lsr #2
     a04:	0c6c9102 	stfeqp	f1, [ip], #-8
     a08:	0067736d 	rsbeq	r7, r7, sp, ror #6
     a0c:	2d301501 	cfldr32cs	mvfx1, [r0, #-4]!
     a10:	02000001 	andeq	r0, r0, #1, 0
     a14:	1c0d6891 	stcne	8, cr6, [sp], {145}	; 0x91
     a18:	2a200007 	bcs	800a3c <STACK_SIZE+0x7fe32c>
     a1c:	0e000000 	cdpeq	0, 0, cr0, cr0, cr0, {0}
     a20:	16010069 	strne	r0, [r1], -r9, rrx
     a24:	00005d0d 	andeq	r5, r0, sp, lsl #26
     a28:	74910200 	ldrvc	r0, [r1], #512	; 0x200
     a2c:	040f0000 	streq	r0, [pc], #-0	; a34 <STACK_SIZE-0x1cdc>
     a30:	000000a7 	andeq	r0, r0, r7, lsr #1
     a34:	013a040f 	teqeq	sl, pc, lsl #8
     a38:	01020000 	mrseq	r0, (UNDEF: 2)
     a3c:	0001a708 	andeq	sl, r1, r8, lsl #14
     a40:	01331000 	teqeq	r3, r0
     a44:	490a0000 	stmdbmi	sl, {}	; <UNPREDICTABLE>
     a48:	01000005 	tsteq	r0, r5
     a4c:	06ac060b 	strteq	r0, [ip], fp, lsl #12
     a50:	00662000 	rsbeq	r2, r6, r0
     a54:	9c010000 	stcls	0, cr0, [r1], {-0}
     a58:	00000189 	andeq	r0, r0, r9, lsl #3
     a5c:	0001520b 	andeq	r5, r1, fp, lsl #4
     a60:	1e0b0100 	adfnee	f0, f3, f0
     a64:	00000127 	andeq	r0, r0, r7, lsr #2
     a68:	0c6c9102 	stfeqp	f1, [ip], #-8
     a6c:	0b010063 	bleq	40c00 <STACK_SIZE+0x3e4f0>
     a70:	00004132 	andeq	r4, r0, r2, lsr r1
     a74:	6b910200 	blvs	fe44127c <__bss_end__+0xde43225c>
     a78:	0006ca0d 	andeq	ip, r6, sp, lsl #20
     a7c:	00003020 	andeq	r3, r0, r0, lsr #32
     a80:	00690e00 	rsbeq	r0, r9, r0, lsl #28
     a84:	5d0e0e01 	stcpl	14, cr0, [lr, #-4]
     a88:	02000000 	andeq	r0, r0, #0, 0
     a8c:	00007491 	muleq	r0, r1, r4
     a90:	00055611 	andeq	r5, r5, r1, lsl r6
     a94:	14050100 	strne	r0, [r5], #-256	; 0xffffff00
     a98:	20000678 	andcs	r0, r0, r8, ror r6
     a9c:	00000034 	andeq	r0, r0, r4, lsr r0
     aa0:	700c9c01 	andvc	r9, ip, r1, lsl #24
     aa4:	01006e69 	tsteq	r0, r9, ror #28
     aa8:	005d2405 	subseq	r2, sp, r5, lsl #8
     aac:	91020000 	mrsls	r0, (UNDEF: 2)
     ab0:	00760c74 	rsbseq	r0, r6, r4, ror ip
     ab4:	5d2d0501 	cfstr32pl	mvfx0, [sp, #-4]!
     ab8:	02000000 	andeq	r0, r0, #0, 0
     abc:	360b7091 			; <UNDEFINED> instruction: 0x360b7091
     ac0:	01000005 	tsteq	r0, r5
     ac4:	00643905 	rsbeq	r3, r4, r5, lsl #18
     ac8:	91020000 	mrsls	r0, (UNDEF: 2)
     acc:	dd00006c 	stcle	0, cr0, [r0, #-432]	; 0xfffffe50
     ad0:	0400000b 	streq	r0, [r0], #-11
     ad4:	00051700 	andeq	r1, r5, r0, lsl #14
     ad8:	00010400 	andeq	r0, r1, r0, lsl #8
     adc:	0c000000 	stceq	0, cr0, [r0], {-0}
     ae0:	000005ec 	andeq	r0, r0, ip, ror #11
     ae4:	0000024f 	andeq	r0, r0, pc, asr #4
     ae8:	20000788 	andcs	r0, r0, r8, lsl #15
     aec:	00000d44 	andeq	r0, r0, r4, asr #26
     af0:	00000695 	muleq	r0, r5, r6
     af4:	a0060102 	andge	r0, r6, r2, lsl #2
     af8:	02000001 	andeq	r0, r0, #1, 0
     afc:	00aa0502 	adceq	r0, sl, r2, lsl #10
     b00:	cb030000 	blgt	c0b08 <STACK_SIZE+0xbe3f8>
     b04:	03000001 	movweq	r0, #1
     b08:	003f1828 	eorseq	r1, pc, r8, lsr #16
     b0c:	04020000 	streq	r0, [r2], #-0
     b10:	0000ee05 	andeq	lr, r0, r5, lsl #28
     b14:	003f0400 	eorseq	r0, pc, r0, lsl #8
     b18:	08020000 	stmdaeq	r2, {}	; <UNPREDICTABLE>
     b1c:	0000e905 	andeq	lr, r0, r5, lsl #18
     b20:	08010200 	stmdaeq	r1, {r9}
     b24:	0000019e 	muleq	r0, lr, r1
     b28:	dc070202 	sfmle	f0, 4, [r7], {2}
     b2c:	03000001 	movweq	r0, #1
     b30:	000001ca 	andeq	r0, r0, sl, asr #3
     b34:	6c193403 	cfldrsvs	mvf3, [r9], {3}
     b38:	02000000 	andeq	r0, r0, #0, 0
     b3c:	01b80704 			; <UNDEFINED> instruction: 0x01b80704
     b40:	a2030000 	andge	r0, r3, #0, 0
     b44:	03000005 	movweq	r0, #5
     b48:	007f1937 	rsbseq	r1, pc, r7, lsr r9	; <UNPREDICTABLE>
     b4c:	08020000 	stmdaeq	r2, {}	; <UNPREDICTABLE>
     b50:	0001b307 	andeq	fp, r1, r7, lsl #6
     b54:	05040500 	streq	r0, [r4, #-1280]	; 0xfffffb00
     b58:	00746e69 	rsbseq	r6, r4, r9, ror #28
     b5c:	00008604 	andeq	r8, r0, r4, lsl #12
     b60:	07040200 	streq	r0, [r4, -r0, lsl #4]
     b64:	000001bd 			; <UNDEFINED> instruction: 0x000001bd
     b68:	00009204 	andeq	r9, r0, r4, lsl #4
     b6c:	05d80300 	ldrbeq	r0, [r8, #768]	; 0x300
     b70:	56030000 	strpl	r0, [r3], -r0
     b74:	0000921a 	andeq	r9, r0, sl, lsl r2
     b78:	04100600 	ldreq	r0, [r0], #-1536	; 0xfffffa00
     b7c:	00e60912 	rsceq	r0, r6, r2, lsl r9
     b80:	74070000 	strvc	r0, [r7], #-0
     b84:	13040078 	movwne	r0, #16504	; 0x4078
     b88:	0000600e 	andeq	r6, r0, lr
     b8c:	72070000 	andvc	r0, r7, #0, 0
     b90:	13040078 	movwne	r0, #16504	; 0x4078
     b94:	00006011 	andeq	r6, r0, r1, lsl r0
     b98:	df080400 	svcle	0x00080400
     b9c:	04000000 	streq	r0, [r0], #-0
     ba0:	00600e14 	rsbeq	r0, r0, r4, lsl lr
     ba4:	08080000 	stmdaeq	r8, {}	; <UNPREDICTABLE>
     ba8:	0000009a 	muleq	r0, sl, r0
     bac:	600e1504 	andvs	r1, lr, r4, lsl #10
     bb0:	0c000000 	stceq	0, cr0, [r0], {-0}
     bb4:	01700300 	cmneq	r0, r0, lsl #6
     bb8:	16040000 	strne	r0, [r4], -r0
     bbc:	0000aa03 	andeq	sl, r0, r3, lsl #20
     bc0:	01ef0900 	mvneq	r0, r0, lsl #18
     bc4:	18040000 	stmdane	r4, {}	; <UNPREDICTABLE>
     bc8:	0000e60b 	andeq	lr, r0, fp, lsl #12
     bcc:	00030500 	andeq	r0, r3, r0, lsl #10
     bd0:	032000f0 			; <UNDEFINED> instruction: 0x032000f0
     bd4:	000006d9 	ldrdeq	r0, [r0], -r9
     bd8:	101b2805 	andsne	r2, fp, r5, lsl #16
     bdc:	0a000001 	beq	be8 <STACK_SIZE-0x1b28>
     be0:	00000612 	andeq	r0, r0, r2, lsl r6
     be4:	27000704 	strcs	r0, [r0, -r4, lsl #14]
     be8:	0b000001 	bleq	bf4 <STACK_SIZE-0x1b1c>
     bec:	0000065b 	andeq	r0, r0, fp, asr r6
     bf0:	00000127 	andeq	r0, r0, r7, lsr #2
     bf4:	040c0000 	streq	r0, [ip], #-0
     bf8:	00061403 	andeq	r1, r6, r3, lsl #8
     bfc:	18630500 	stmdane	r3!, {r8, sl}^
     c00:	00000104 	andeq	r0, r0, r4, lsl #2
     c04:	0005ab03 	andeq	sl, r5, r3, lsl #22
     c08:	17d10600 	ldrbne	r0, [r1, r0, lsl #12]
     c0c:	00000092 	muleq	r0, r2, r0
     c10:	00013504 	andeq	r3, r1, r4, lsl #10
     c14:	04080200 	streq	r0, [r8], #-512	; 0xfffffe00
     c18:	0000017a 	andeq	r0, r0, sl, ror r1
     c1c:	00063d03 	andeq	r3, r6, r3, lsl #26
     c20:	10890200 	addne	r0, r9, r0, lsl #4
     c24:	00000159 	andeq	r0, r0, r9, asr r1
     c28:	015f040d 	cmpeq	pc, sp, lsl #8
     c2c:	790e0000 	stmdbvc	lr, {}	; <UNPREDICTABLE>
     c30:	0f000001 	svceq	0x00000001
     c34:	00000179 	andeq	r0, r0, r9, ror r1
     c38:	0001270f 	andeq	r2, r1, pc, lsl #14
     c3c:	01350f00 	teqeq	r5, r0, lsl #30
     c40:	350f0000 	strcc	r0, [pc, #-0]	; c48 <STACK_SIZE-0x1ac8>
     c44:	00000001 	andeq	r0, r0, r1
     c48:	a7080102 	strge	r0, [r8, -r2, lsl #2]
     c4c:	04000001 	streq	r0, [r0], #-1
     c50:	00000179 	andeq	r0, r0, r9, ror r1
     c54:	8d020806 	stchi	8, cr0, [r2, #-24]	; 0xffffffe8
     c58:	0001a909 	andeq	sl, r1, r9, lsl #18
     c5c:	63660700 	cmnvs	r6, #0, 14
     c60:	8e020074 	mcrhi	0, 0, r0, cr2, cr4, {3}
     c64:	0001b90b 	andeq	fp, r1, fp, lsl #18
     c68:	61070000 	mrsvs	r0, (UNDEF: 7)
     c6c:	02006772 	andeq	r6, r0, #29884416	; 0x1c80000
     c70:	0127098f 	smlawbeq	r7, pc, r9, r0	; <UNPREDICTABLE>
     c74:	00040000 	andeq	r0, r4, r0
     c78:	0001b90e 	andeq	fp, r1, lr, lsl #18
     c7c:	01790f00 	cmneq	r9, r0, lsl #30
     c80:	270f0000 	strcs	r0, [pc, -r0]
     c84:	00000001 	andeq	r0, r0, r1
     c88:	01a9040d 			; <UNDEFINED> instruction: 0x01a9040d
     c8c:	c2030000 	andgt	r0, r3, #0, 0
     c90:	02000006 	andeq	r0, r0, #6, 0
     c94:	01850390 			; <UNDEFINED> instruction: 0x01850390
     c98:	bf040000 	svclt	0x00040000
     c9c:	10000001 	andne	r0, r0, r1
     ca0:	000005ff 	strdeq	r0, [r0], -pc	; <UNPREDICTABLE>
     ca4:	05039902 	streq	r9, [r3, #-2306]	; 0xfffff6fe
     ca8:	00000086 	andeq	r0, r0, r6, lsl #1
     cac:	20001480 	andcs	r1, r0, r0, lsl #9
     cb0:	0000004c 	andeq	r0, r0, ip, asr #32
     cb4:	024c9c01 	subeq	r9, ip, #256	; 0x100
     cb8:	6f110000 	svcvs	0x00110000
     cbc:	02007475 	andeq	r7, r0, #1962934272	; 0x75000000
     cc0:	b9160399 	ldmdblt	r6, {r0, r3, r4, r7, r8, r9}
     cc4:	02000001 	andeq	r0, r0, #1, 0
     cc8:	61115491 			; <UNDEFINED> instruction: 0x61115491
     ccc:	02006772 	andeq	r6, r0, #29884416	; 0x1c80000
     cd0:	273d0399 			; <UNDEFINED> instruction: 0x273d0399
     cd4:	02000001 	andeq	r0, r0, #1, 0
     cd8:	27125091 			; <UNDEFINED> instruction: 0x27125091
     cdc:	02000006 	andeq	r0, r0, #6, 0
     ce0:	4c4e0399 	mcrrmi	3, 9, r0, lr, cr9
     ce4:	02000002 	andeq	r0, r0, #2, 0
     ce8:	14137891 	ldrne	r7, [r3], #-2193	; 0xfffff76f
     cec:	02006176 	andeq	r6, r0, #-2147483619	; 0x8000001d
     cf0:	290b039b 	stmdbcs	fp, {r0, r1, r3, r4, r7, r8, r9}
     cf4:	02000001 	andeq	r0, r0, #1, 0
     cf8:	89156091 	ldmdbhi	r5, {r0, r4, r7, sp, lr}
     cfc:	02000005 	andeq	r0, r0, #5, 0
     d00:	cb1b039d 	blgt	6c1b7c <STACK_SIZE+0x6bf46c>
     d04:	02000001 	andeq	r0, r0, #1, 0
     d08:	72145891 	andsvc	r5, r4, #9502720	; 0x910000
     d0c:	02007465 	andeq	r7, r0, #1694498816	; 0x65000000
     d10:	8d0d039e 	stchi	3, cr0, [sp, #-632]	; 0xfffffd88
     d14:	02000000 	andeq	r0, r0, #0, 0
     d18:	0d006491 	cfstrseq	mvf6, [r0, #-580]	; 0xfffffdbc
     d1c:	00018004 	andeq	r8, r1, r4
     d20:	06601000 	strbteq	r1, [r0], -r0
     d24:	93020000 	movwls	r0, #8192	; 0x2000
     d28:	00860503 	addeq	r0, r6, r3, lsl #10
     d2c:	14500000 	ldrbne	r0, [r0], #-0
     d30:	00302000 	eorseq	r2, r0, r0
     d34:	9c010000 	stcls	0, cr0, [r1], {-0}
     d38:	000002ad 	andeq	r0, r0, sp, lsr #5
     d3c:	00059b12 	andeq	r9, r5, r2, lsl fp
     d40:	03930200 	orrseq	r0, r3, #0, 4
     d44:	0002ad16 	andeq	sl, r2, r6, lsl sp
     d48:	6c910200 	lfmvs	f0, 4, [r1], {0}
     d4c:	00049412 	andeq	r9, r4, r2, lsl r4
     d50:	03930200 	orrseq	r0, r3, #0, 4
     d54:	00013525 	andeq	r3, r1, r5, lsr #10
     d58:	68910200 	ldmvs	r1, {r9}
     d5c:	00062712 	andeq	r2, r6, r2, lsl r7
     d60:	03930200 	orrseq	r0, r3, #0, 4
     d64:	00024c38 	andeq	r4, r2, r8, lsr ip
     d68:	64910200 	ldrvs	r0, [r1], #512	; 0x200
     d6c:	00617611 	rsbeq	r7, r1, r1, lsl r6
     d70:	48039302 	stmdami	r3, {r1, r8, r9, ip, pc}
     d74:	00000129 	andeq	r0, r0, r9, lsr #2
     d78:	00609102 	rsbeq	r9, r0, r2, lsl #2
     d7c:	0179040d 	cmneq	r9, sp, lsl #8
     d80:	fd100000 	ldc2	0, cr0, [r0, #-0]
     d84:	02000006 	andeq	r0, r0, #6, 0
     d88:	8605038c 	strhi	r0, [r5], -ip, lsl #7
     d8c:	20000000 	andcs	r0, r0, r0
     d90:	30200014 	eorcc	r0, r0, r4, lsl r0
     d94:	01000000 	mrseq	r0, (UNDEF: 0)
     d98:	0002fe9c 	muleq	r2, ip, lr
     d9c:	06271200 	strteq	r1, [r7], -r0, lsl #4
     da0:	8c020000 	stchi	0, cr0, [r2], {-0}
     da4:	024c1a03 	subeq	r1, ip, #12288	; 0x3000
     da8:	91020000 	mrsls	r0, (UNDEF: 2)
     dac:	61761164 	cmnvs	r6, r4, ror #2
     db0:	038c0200 	orreq	r0, ip, #0, 4
     db4:	0001292a 	andeq	r2, r1, sl, lsr #18
     db8:	60910200 	addsvs	r0, r1, r0, lsl #4
     dbc:	00059b15 	andeq	r9, r5, r5, lsl fp
     dc0:	038e0200 	orreq	r0, lr, #0, 4
     dc4:	0002fe08 	andeq	pc, r2, r8, lsl #28
     dc8:	6c910200 	lfmvs	f0, 4, [r1], {0}
     dcc:	01791600 	cmneq	r9, r0, lsl #12
     dd0:	030e0000 	movweq	r0, #57344	; 0xe000
     dd4:	92170000 	andsls	r0, r7, #0, 0
     dd8:	00000000 	andeq	r0, r0, r0
     ddc:	06611000 	strbteq	r1, [r1], -r0
     de0:	82020000 	andhi	r0, r2, #0, 0
     de4:	00860503 	addeq	r0, r6, r3, lsl #10
     de8:	13e40000 	mvnne	r0, #0, 0
     dec:	003c2000 	eorseq	r2, ip, r0
     df0:	9c010000 	stcls	0, cr0, [r1], {-0}
     df4:	0000037a 	andeq	r0, r0, sl, ror r3
     df8:	00059b12 	andeq	r9, r5, r2, lsl fp
     dfc:	03820200 	orreq	r0, r2, #0, 4
     e00:	0002ad15 	andeq	sl, r2, r5, lsl sp
     e04:	5c910200 	lfmpl	f0, 4, [r1], {0}
     e08:	00049412 	andeq	r9, r4, r2, lsl r4
     e0c:	03820200 	orreq	r0, r2, #0, 4
     e10:	00013524 	andeq	r3, r1, r4, lsr #10
     e14:	58910200 	ldmpl	r1, {r9}
     e18:	00062712 	andeq	r2, r6, r2, lsl r7
     e1c:	03820200 	orreq	r0, r2, #0, 4
     e20:	00024c37 	andeq	r4, r2, r7, lsr ip
     e24:	78910200 	ldmvc	r1, {r9}
     e28:	61761413 	cmnvs	r6, r3, lsl r4
     e2c:	03840200 	orreq	r0, r4, #0, 4
     e30:	0001290b 	andeq	r2, r1, fp, lsl #18
     e34:	60910200 	addsvs	r0, r1, r0, lsl #4
     e38:	74657214 	strbtvc	r7, [r5], #-532	; 0xfffffdec
     e3c:	03860200 	orreq	r0, r6, #0, 4
     e40:	00008d0d 	andeq	r8, r0, sp, lsl #26
     e44:	64910200 	ldrvs	r0, [r1], #512	; 0x200
     e48:	06831000 	streq	r1, [r3], r0
     e4c:	78020000 	stmdavc	r2, {}	; <UNPREDICTABLE>
     e50:	00860503 	addeq	r0, r6, r3, lsl #10
     e54:	13a80000 			; <UNDEFINED> instruction: 0x13a80000
     e58:	003c2000 	eorseq	r2, ip, r0
     e5c:	9c010000 	stcls	0, cr0, [r1], {-0}
     e60:	000003d6 	ldrdeq	r0, [r0], -r6
     e64:	00059b12 	andeq	r9, r5, r2, lsl fp
     e68:	03780200 	cmneq	r8, #0, 4
     e6c:	0002ad14 	andeq	sl, r2, r4, lsl sp
     e70:	5c910200 	lfmpl	f0, 4, [r1], {0}
     e74:	00062712 	andeq	r2, r6, r2, lsl r7
     e78:	03780200 	cmneq	r8, #0, 4
     e7c:	00024c28 	andeq	r4, r2, r8, lsr #24
     e80:	74910200 	ldrvc	r0, [r1], #512	; 0x200
     e84:	61761413 	cmnvs	r6, r3, lsl r4
     e88:	037a0200 	cmneq	sl, #0, 4
     e8c:	0001290b 	andeq	r2, r1, fp, lsl #18
     e90:	60910200 	addsvs	r0, r1, r0, lsl #4
     e94:	74657214 	strbtvc	r7, [r5], #-532	; 0xfffffdec
     e98:	037c0200 	cmneq	ip, #0, 4
     e9c:	00008d0d 	andeq	r8, r0, sp, lsl #26
     ea0:	64910200 	ldrvs	r0, [r1], #512	; 0x200
     ea4:	06631000 	strbteq	r1, [r3], -r0
     ea8:	6d020000 	stcvs	0, cr0, [r2, #-0]
     eac:	00860503 	addeq	r0, r6, r3, lsl #10
     eb0:	136e0000 	cmnne	lr, #0, 0
     eb4:	003a2000 	eorseq	r2, sl, r0
     eb8:	9c010000 	stcls	0, cr0, [r1], {-0}
     ebc:	00000432 	andeq	r0, r0, r2, lsr r4
     ec0:	00062712 	andeq	r2, r6, r2, lsl r7
     ec4:	036d0200 	cmneq	sp, #0, 4
     ec8:	00024c19 	andeq	r4, r2, r9, lsl ip
     ecc:	70910200 	addsvc	r0, r1, r0, lsl #4
     ed0:	61761413 	cmnvs	r6, r3, lsl r4
     ed4:	036f0200 	cmneq	pc, #0, 4
     ed8:	0001290b 	andeq	r2, r1, fp, lsl #18
     edc:	58910200 	ldmpl	r1, {r9}
     ee0:	00059b15 	andeq	r9, r5, r5, lsl fp
     ee4:	03710200 	cmneq	r1, #0, 4
     ee8:	0002fe08 	andeq	pc, r2, r8, lsl #28
     eec:	54910200 	ldrpl	r0, [r1], #512	; 0x200
     ef0:	74657214 	strbtvc	r7, [r5], #-532	; 0xfffffdec
     ef4:	03720200 	cmneq	r2, #0, 4
     ef8:	00008d0d 	andeq	r8, r0, sp, lsl #26
     efc:	5c910200 	lfmpl	f0, 4, [r1], {0}
     f00:	06961800 	ldreq	r1, [r6], r0, lsl #16
     f04:	50020000 	andpl	r0, r2, r0
     f08:	00860c02 	addeq	r0, r6, r2, lsl #24
     f0c:	0d620000 	stcleq	0, cr0, [r2, #-0]
     f10:	060c2000 	streq	r2, [ip], -r0
     f14:	9c010000 	stcls	0, cr0, [r1], {-0}
     f18:	000005e3 	andeq	r0, r0, r3, ror #11
     f1c:	74756f11 	ldrbtvc	r6, [r5], #-3857	; 0xfffff0ef
     f20:	02500200 	subseq	r0, r0, #0, 4
     f24:	00014d24 	andeq	r4, r1, r4, lsr #26
     f28:	ac910300 	ldcge	3, cr0, [r1], {0}
     f2c:	059b127f 	ldreq	r1, [fp, #639]	; 0x27f
     f30:	50020000 	andpl	r0, r2, r0
     f34:	02ad2f02 	adceq	r2, sp, #2, 30
     f38:	91030000 	mrsls	r0, (UNDEF: 3)
     f3c:	6b127fa8 	blvs	4a0de4 <STACK_SIZE+0x49e6d4>
     f40:	02000006 	andeq	r0, r0, #6, 0
     f44:	41440250 	cmpmi	r4, r0, asr r2
     f48:	03000001 	movweq	r0, #1
     f4c:	127fa491 	rsbsne	sl, pc, #-1862270976	; 0x91000000
     f50:	00000627 	andeq	r0, r0, r7, lsr #12
     f54:	58025002 	stmdapl	r2, {r1, ip, lr}
     f58:	0000024c 	andeq	r0, r0, ip, asr #4
     f5c:	7fa09103 	svcvc	0x00a09103
     f60:	00617611 	rsbeq	r7, r1, r1, lsl r6
     f64:	68025002 	stmdavs	r2, {r1, ip, lr}
     f68:	00000129 	andeq	r0, r0, r9, lsr #2
     f6c:	15009102 	strne	r9, [r0, #-258]	; 0xfffffefe
     f70:	00000655 	andeq	r0, r0, r5, asr r6
     f74:	10025202 	andne	r5, r2, r2, lsl #4
     f78:	00000092 	muleq	r0, r2, r0
     f7c:	15649102 	strbne	r9, [r4, #-258]!	; 0xfffffefe
     f80:	000005f9 	strdeq	r0, [r0], -r9
     f84:	17025202 	strne	r5, [r2, -r2, lsl #4]
     f88:	00000092 	muleq	r0, r2, r0
     f8c:	15609102 	strbne	r9, [r0, #-258]!	; 0xfffffefe
     f90:	000006f3 	strdeq	r0, [r0], -r3
     f94:	1e025202 	cdpne	2, 0, cr5, cr2, cr2, {0}
     f98:	00000092 	muleq	r0, r2, r0
     f9c:	145c9102 	ldrbne	r9, [ip], #-258	; 0xfffffefe
     fa0:	5202006e 	andpl	r0, r2, #110, 0	; 0x6e
     fa4:	00922902 	addseq	r2, r2, r2, lsl #18
     fa8:	91020000 	mrsls	r0, (UNDEF: 2)
     fac:	64691458 	strbtvs	r1, [r9], #-1112	; 0xfffffba8
     fb0:	53020078 	movwpl	r0, #8312	; 0x2078
     fb4:	01350a02 	teqeq	r5, r2, lsl #20
     fb8:	91020000 	mrsls	r0, (UNDEF: 2)
     fbc:	0e5a1954 			; <UNDEFINED> instruction: 0x0e5a1954
     fc0:	002a2000 	eoreq	r2, sl, r0
     fc4:	050a0000 	streq	r0, [sl, #-0]
     fc8:	77140000 	ldrvc	r0, [r4, -r0]
     fcc:	027b0200 	rsbseq	r0, fp, #0, 4
     fd0:	00008d11 	andeq	r8, r0, r1, lsl sp
     fd4:	40910200 	addsmi	r0, r1, r0, lsl #4
     fd8:	0ec41900 	vdiveq.f16	s3, s8, s0	; <UNPREDICTABLE>
     fdc:	001a2000 	andseq	r2, sl, r0
     fe0:	05290000 	streq	r0, [r9, #-0]!
     fe4:	d4150000 	ldrle	r0, [r5], #-0
     fe8:	02000006 	andeq	r0, r0, #6, 0
     fec:	8d13028f 	lfmhi	f0, 4, [r3, #-572]	; 0xfffffdc4
     ff0:	03000000 	movweq	r0, #0
     ff4:	007fbc91 			; <UNDEFINED> instruction: 0x007fbc91
     ff8:	000f8c19 	andeq	r8, pc, r9, lsl ip	; <UNPREDICTABLE>
     ffc:	00020820 	andeq	r0, r2, r0, lsr #16
    1000:	0005a000 	andeq	sl, r5, r0
    1004:	06e81500 	strbteq	r1, [r8], r0, lsl #10
    1008:	c3020000 	movwgt	r0, #8192	; 0x2000
    100c:	00921602 	addseq	r1, r2, r2, lsl #12
    1010:	91020000 	mrsls	r0, (UNDEF: 2)
    1014:	102a1950 	eorne	r1, sl, r0, asr r9
    1018:	00422000 	subeq	r2, r2, r0
    101c:	05650000 	strbeq	r0, [r5, #-0]!
    1020:	c9150000 	ldmdbgt	r5, {}	; <UNPREDICTABLE>
    1024:	02000005 	andeq	r0, r0, #5, 0
    1028:	461802ea 	ldrmi	r0, [r8], -sl, ror #5
    102c:	03000000 	movweq	r0, #0
    1030:	007fb091 			; <UNDEFINED> instruction: 0x007fb091
    1034:	00106e19 	andseq	r6, r0, r9, lsl lr
    1038:	00007820 	andeq	r7, r0, r0, lsr #16
    103c:	00058400 	andeq	r8, r5, r0, lsl #8
    1040:	05c91500 	strbeq	r1, [r9, #1280]	; 0x500
    1044:	ee020000 	cdp	0, 0, cr0, cr2, cr0, {0}
    1048:	008d1702 	addeq	r1, sp, r2, lsl #14
    104c:	91030000 	mrsls	r0, (UNDEF: 3)
    1050:	1a007fb4 	bne	20f28 <STACK_SIZE+0x1e818>
    1054:	20001130 	andcs	r1, r0, r0, lsr r1
    1058:	0000005c 	andeq	r0, r0, ip, asr r0
    105c:	0005c915 	andeq	ip, r5, r5, lsl r9
    1060:	02fd0200 	rscseq	r0, sp, #0, 4
    1064:	00009920 	andeq	r9, r0, r0, lsr #18
    1068:	b8910300 	ldmlt	r1, {r8, r9}
    106c:	1900007f 	stmdbne	r0, {r0, r1, r2, r3, r4, r5, r6}
    1070:	20001194 	mulcs	r0, r4, r1
    1074:	00000070 	andeq	r0, r0, r0, ror r0
    1078:	000005bc 			; <UNDEFINED> instruction: 0x000005bc
    107c:	02006c14 	andeq	r6, r0, #20, 24	; 0x1400
    1080:	92160318 	andsls	r0, r6, #24, 6	; 0x60000000
    1084:	02000000 	andeq	r0, r0, #0, 0
    1088:	1a004c91 	bne	142d4 <STACK_SIZE+0x11bc4>
    108c:	20001204 	andcs	r1, r0, r4, lsl #4
    1090:	000000c4 	andeq	r0, r0, r4, asr #1
    1094:	02007014 	andeq	r7, r0, #20, 0
    1098:	4c15032c 	ldcmi	3, cr0, [r5], {44}	; 0x2c
    109c:	02000002 	andeq	r0, r0, #2, 0
    10a0:	6c144891 	ldcvs	8, cr4, [r4], {145}	; 0x91
    10a4:	032d0200 			; <UNDEFINED> instruction: 0x032d0200
    10a8:	00009216 	andeq	r9, r0, r6, lsl r2
    10ac:	44910200 	ldrmi	r0, [r1], #512	; 0x200
    10b0:	4a180000 	bmi	6010b8 <STACK_SIZE+0x5fe9a8>
    10b4:	02000006 	andeq	r0, r0, #6, 0
    10b8:	350f0128 	strcc	r0, [pc, #-296]	; f98 <STACK_SIZE-0x1778>
    10bc:	8c000001 	stchi	0, cr0, [r0], {1}
    10c0:	d620000c 	strtle	r0, [r0], -ip
    10c4:	01000000 	mrseq	r0, (UNDEF: 0)
    10c8:	0006db9c 	muleq	r6, ip, fp
    10cc:	756f1100 	strbvc	r1, [pc, #-256]!	; fd4 <STACK_SIZE-0x173c>
    10d0:	28020074 	stmdacs	r2, {r2, r4, r5, r6}
    10d4:	014d2701 	cmpeq	sp, r1, lsl #14
    10d8:	91020000 	mrsls	r0, (UNDEF: 2)
    10dc:	059b1244 	ldreq	r1, [fp, #580]	; 0x244
    10e0:	28020000 	stmdacs	r2, {}	; <UNPREDICTABLE>
    10e4:	02ad3201 	adceq	r3, sp, #268435456	; 0x10000000
    10e8:	91020000 	mrsls	r0, (UNDEF: 2)
    10ec:	64691140 	strbtvs	r1, [r9], #-320	; 0xfffffec0
    10f0:	28020078 	stmdacs	r2, {r3, r4, r5, r6}
    10f4:	01354101 	teqeq	r5, r1, lsl #2
    10f8:	91030000 	mrsls	r0, (UNDEF: 3)
    10fc:	6b127fbc 	blvs	4a0ff4 <STACK_SIZE+0x49e8e4>
    1100:	02000006 	andeq	r0, r0, #6, 0
    1104:	354d0128 	strbcc	r0, [sp, #-296]	; 0xfffffed8
    1108:	03000001 	movweq	r0, #1
    110c:	127fb891 	rsbsne	fp, pc, #9502720	; 0x910000
    1110:	000005c9 	andeq	r0, r0, r9, asr #11
    1114:	63012802 	movwvs	r2, #6146	; 0x1802
    1118:	0000006c 	andeq	r0, r0, ip, rrx
    111c:	12009102 	andne	r9, r0, #-2147483648	; 0x80000000
    1120:	00000609 	andeq	r0, r0, r9, lsl #12
    1124:	6f012802 	svcvs	0x00012802
    1128:	000006db 	ldrdeq	r0, [r0], -fp
    112c:	12049102 	andne	r9, r4, #-2147483648	; 0x80000000
    1130:	000006e8 	andeq	r0, r0, r8, ror #13
    1134:	87012802 	strhi	r2, [r1, -r2, lsl #16]
    1138:	0000006c 	andeq	r0, r0, ip, rrx
    113c:	12089102 	andne	r9, r8, #-2147483648	; 0x80000000
    1140:	000006d4 	ldrdeq	r0, [r0], -r4
    1144:	9a012802 	bls	4b154 <STACK_SIZE+0x48a44>
    1148:	00000092 	muleq	r0, r2, r0
    114c:	120c9102 	andne	r9, ip, #-2147483648	; 0x80000000
    1150:	000005f9 	strdeq	r0, [r0], -r9
    1154:	ad012802 	stcge	8, cr2, [r1, #-8]
    1158:	00000092 	muleq	r0, r2, r0
    115c:	12109102 	andsne	r9, r0, #-2147483648	; 0x80000000
    1160:	00000655 	andeq	r0, r0, r5, asr r6
    1164:	c1012802 	tstgt	r1, r2, lsl #16
    1168:	00000092 	muleq	r0, r2, r0
    116c:	14149102 	ldrne	r9, [r4], #-258	; 0xfffffefe
    1170:	00667562 	rsbeq	r7, r6, r2, ror #10
    1174:	08012a02 	stmdaeq	r1, {r1, r9, fp, sp}
    1178:	000006e2 	andeq	r0, r0, r2, ror #13
    117c:	14489102 	strbne	r9, [r8], #-258	; 0xfffffefe
    1180:	006e656c 	rsbeq	r6, lr, ip, ror #10
    1184:	0a012b02 	beq	4bd94 <STACK_SIZE+0x49684>
    1188:	00000135 	andeq	r0, r0, r5, lsr r1
    118c:	1a6c9102 	bne	1b2559c <STACK_SIZE+0x1b22e8c>
    1190:	20000cbc 			; <UNDEFINED> instruction: 0x20000cbc
    1194:	00000060 	andeq	r0, r0, r0, rrx
    1198:	00069015 	andeq	r9, r6, r5, lsl r0
    119c:	01350200 	teqeq	r5, r0, lsl #4
    11a0:	00018012 	andeq	r8, r1, r2, lsl r0
    11a4:	6b910200 	blvs	fe4419ac <__bss_end__+0xde43298c>
    11a8:	01020000 	mrseq	r0, (UNDEF: 2)
    11ac:	00053002 	andeq	r3, r5, r2
    11b0:	01791600 	cmneq	r9, r0, lsl #12
    11b4:	06f20000 	ldrbteq	r0, [r2], r0
    11b8:	92170000 	andsls	r0, r7, #0, 0
    11bc:	1f000000 	svcne	0x00000000
    11c0:	06211b00 	strteq	r1, [r1], -r0, lsl #22
    11c4:	f2020000 	vhadd.s8	d0, d2, d0
    11c8:	0001350f 	andeq	r3, r1, pc, lsl #10
    11cc:	000ae000 	andeq	lr, sl, r0
    11d0:	0001ac20 	andeq	sl, r1, r0, lsr #24
    11d4:	b29c0100 	addslt	r0, ip, #0
    11d8:	1c000007 	stcne	0, cr0, [r0], {7}
    11dc:	0074756f 	rsbseq	r7, r4, pc, ror #10
    11e0:	4d29f202 	sfmmi	f7, 1, [r9, #-8]!
    11e4:	02000001 	andeq	r0, r0, #1, 0
    11e8:	9b1d6c91 	blls	75c434 <STACK_SIZE+0x759d24>
    11ec:	02000005 	andeq	r0, r0, #5, 0
    11f0:	02ad34f2 	adceq	r3, sp, #-234881024	; 0xf2000000
    11f4:	91020000 	mrsls	r0, (UNDEF: 2)
    11f8:	64691c68 	strbtvs	r1, [r9], #-3176	; 0xfffff398
    11fc:	f2020078 	vqadd.s8	q0, q1, q12
    1200:	00013543 	andeq	r3, r1, r3, asr #10
    1204:	64910200 	ldrvs	r0, [r1], #512	; 0x200
    1208:	00066b1d 	andeq	r6, r6, sp, lsl fp
    120c:	4ff20200 	svcmi	0x00f20200
    1210:	00000135 	andeq	r0, r0, r5, lsr r1
    1214:	1c609102 	stfnep	f1, [r0], #-8
    1218:	00667562 	rsbeq	r7, r6, r2, ror #10
    121c:	ad5df202 	lfmge	f7, 3, [sp, #-8]
    1220:	02000002 	andeq	r0, r0, #2, 0
    1224:	6c1c0091 	ldcvs	0, cr0, [ip], {145}	; 0x91
    1228:	02006e65 	andeq	r6, r0, #1616	; 0x650
    122c:	013569f2 	teqeq	r5, r2	; <illegal shifter operand>
    1230:	91020000 	mrsls	r0, (UNDEF: 2)
    1234:	06091d04 	streq	r1, [r9], -r4, lsl #26
    1238:	f2020000 	vhadd.s8	d0, d2, d0
    123c:	0006db73 	andeq	sp, r6, r3, ror fp
    1240:	08910200 	ldmeq	r1, {r9}
    1244:	0006e81d 	andeq	lr, r6, sp, lsl r8
    1248:	8af20200 	bhi	ffc81a50 <__bss_end__+0xdfc72a30>
    124c:	00000092 	muleq	r0, r2, r0
    1250:	1d0c9102 	stfned	f1, [ip, #-8]
    1254:	000006d4 	ldrdeq	r0, [r0], -r4
    1258:	929df202 	addsls	pc, sp, #536870912	; 0x20000000
    125c:	02000000 	andeq	r0, r0, #0, 0
    1260:	f91d1091 			; <UNDEFINED> instruction: 0xf91d1091
    1264:	02000005 	andeq	r0, r0, #5, 0
    1268:	0092b0f2 	ldrsheq	fp, [r2], r2
    126c:	91020000 	mrsls	r0, (UNDEF: 2)
    1270:	06551d14 			; <UNDEFINED> instruction: 0x06551d14
    1274:	f2020000 	vhadd.s8	d0, d2, d0
    1278:	000092c4 	andeq	r9, r0, r4, asr #5
    127c:	18910200 	ldmne	r1, {r9}
    1280:	06ab1b00 	strteq	r1, [fp], r0, lsl #22
    1284:	d6020000 	strle	r0, [r2], -r0
    1288:	0001350f 	andeq	r3, r1, pc, lsl #10
    128c:	000a4600 	andeq	r4, sl, r0, lsl #12
    1290:	00009a20 	andeq	r9, r0, r0, lsr #20
    1294:	6b9c0100 	blvs	fe70169c <__bss_end__+0xde6f267c>
    1298:	1c000008 	stcne	0, cr0, [r0], {8}
    129c:	0074756f 	rsbseq	r7, r4, pc, ror #10
    12a0:	4d25d602 	stcmi	6, cr13, [r5, #-8]!
    12a4:	02000001 	andeq	r0, r0, #1, 0
    12a8:	9b1d6491 	blls	75a4f4 <STACK_SIZE+0x757de4>
    12ac:	02000005 	andeq	r0, r0, #5, 0
    12b0:	02ad30d6 	adceq	r3, sp, #214, 0	; 0xd6
    12b4:	91020000 	mrsls	r0, (UNDEF: 2)
    12b8:	64691c60 	strbtvs	r1, [r9], #-3168	; 0xfffff3a0
    12bc:	d6020078 			; <UNDEFINED> instruction: 0xd6020078
    12c0:	0001353f 	andeq	r3, r1, pc, lsr r5
    12c4:	5c910200 	lfmpl	f0, 4, [r1], {0}
    12c8:	00066b1d 	andeq	r6, r6, sp, lsl fp
    12cc:	4bd60200 	blmi	ff581ad4 <__bss_end__+0xdf572ab4>
    12d0:	00000135 	andeq	r0, r0, r5, lsr r1
    12d4:	1c589102 	ldfnep	f1, [r8], {2}
    12d8:	00667562 	rsbeq	r7, r6, r2, ror #10
    12dc:	4c5fd602 	mrrcmi	6, 0, sp, pc, cr2	; <UNPREDICTABLE>
    12e0:	02000002 	andeq	r0, r0, #2, 0
    12e4:	6c1c0091 	ldcvs	0, cr0, [ip], {145}	; 0x91
    12e8:	02006e65 	andeq	r6, r0, #1616	; 0x650
    12ec:	01356bd6 	teqeq	r5, r6	; <illegal shifter operand>
    12f0:	91020000 	mrsls	r0, (UNDEF: 2)
    12f4:	05f91d04 	ldrbeq	r1, [r9, #3332]!	; 0xd04
    12f8:	d6020000 	strle	r0, [r2], -r0
    12fc:	0000927d 	andeq	r9, r0, sp, ror r2
    1300:	08910200 	ldmeq	r1, {r9}
    1304:	0006551d 	andeq	r5, r6, sp, lsl r5
    1308:	91d60200 	bicsls	r0, r6, r0, lsl #4
    130c:	00000092 	muleq	r0, r2, r0
    1310:	1e0c9102 	mvfnee	f1, f2
    1314:	000005e2 	andeq	r0, r0, r2, ror #11
    1318:	4110d802 	tstmi	r0, r2, lsl #16
    131c:	02000001 	andeq	r0, r0, #1, 0
    1320:	681a6891 	ldmdavs	sl, {r0, r4, r7, fp, sp, lr}
    1324:	2420000a 	strtcs	r0, [r0], #-10
    1328:	1f000000 	svcne	0x00000000
    132c:	dc020069 	stcle	0, cr0, [r2], {105}	; 0x69
    1330:	00013511 	andeq	r3, r1, r1, lsl r5
    1334:	6c910200 	lfmvs	f0, 4, [r1], {0}
    1338:	721b0000 	andsvc	r0, fp, #0, 0
    133c:	02000006 	andeq	r0, r0, #6, 0
    1340:	009215cb 	addseq	r1, r2, fp, asr #11
    1344:	0a000000 	beq	134c <STACK_SIZE-0x13c4>
    1348:	00462000 	subeq	r2, r6, r0
    134c:	9c010000 	stcls	0, cr0, [r1], {-0}
    1350:	000008a2 	andeq	r0, r0, r2, lsr #17
    1354:	7274731c 	rsbsvc	r7, r4, #28, 6	; 0x70000000
    1358:	28cb0200 	stmiacs	fp, {r9}^
    135c:	000008a2 	andeq	r0, r0, r2, lsr #17
    1360:	1f6c9102 	svcne	0x006c9102
    1364:	cd020069 	stcgt	0, cr0, [r2, #-420]	; 0xfffffe5c
    1368:	00009210 	andeq	r9, r0, r0, lsl r2
    136c:	74910200 	ldrvc	r0, [r1], #512	; 0x200
    1370:	4c040d00 	stcmi	13, cr0, [r4], {-0}
    1374:	20000002 	andcs	r0, r0, r2
    1378:	0000068c 	andeq	r0, r0, ip, lsl #13
    137c:	db14c402 	blle	53238c <STACK_SIZE+0x52fc7c>
    1380:	ce000006 	cdpgt	0, 0, cr0, cr0, cr6, {0}
    1384:	32200009 	eorcc	r0, r0, #9, 0
    1388:	01000000 	mrseq	r0, (UNDEF: 0)
    138c:	0008d19c 	muleq	r8, ip, r1
    1390:	68631c00 	stmdavs	r3!, {sl, fp, ip}^
    1394:	23c40200 	biccs	r0, r4, #0, 4
    1398:	00000179 	andeq	r0, r0, r9, ror r1
    139c:	00779102 	rsbseq	r9, r7, r2, lsl #2
    13a0:	00067820 	andeq	r7, r6, r0, lsr #16
    13a4:	1cba0200 	lfmne	f0, 4, [sl]
    13a8:	00000092 	muleq	r0, r2, r0
    13ac:	20000998 	mulcs	r0, r8, r9
    13b0:	00000036 	andeq	r0, r0, r6, lsr r0
    13b4:	09179c01 	ldmdbeq	r7, {r0, sl, fp, ip, pc}
    13b8:	731c0000 	tstvc	ip, #0, 0
    13bc:	02007274 	andeq	r7, r0, #116, 4	; 0x40000007
    13c0:	024c33ba 	subeq	r3, ip, #-402653182	; 0xe8000002
    13c4:	91020000 	mrsls	r0, (UNDEF: 2)
    13c8:	05bc1d6c 	ldreq	r1, [ip, #3436]!	; 0xd6c
    13cc:	ba020000 	blt	813d4 <STACK_SIZE+0x7ecc4>
    13d0:	0001353f 	andeq	r3, r1, pc, lsr r5
    13d4:	68910200 	ldmvs	r1, {r9}
    13d8:	0200731f 	andeq	r7, r0, #2080374784	; 0x7c000000
    13dc:	024c0fbc 	subeq	r0, ip, #188, 30	; 0x2f0
    13e0:	91020000 	mrsls	r0, (UNDEF: 2)
    13e4:	cf210074 	svcgt	0x00210074
    13e8:	02000005 	andeq	r0, r0, #5, 0
    13ec:	096214ae 	stmdbeq	r2!, {r1, r2, r3, r5, r7, sl, ip}^
    13f0:	00362000 	eorseq	r2, r6, r0
    13f4:	9c010000 	stcls	0, cr0, [r1], {-0}
    13f8:	0000096a 	andeq	r0, r0, sl, ror #18
    13fc:	0006a11d 	andeq	sl, r6, sp, lsl r1
    1400:	22ae0200 	adccs	r0, lr, #0, 4
    1404:	00000179 	andeq	r0, r0, r9, ror r1
    1408:	1d779102 	ldfnep	f1, [r7, #-8]!
    140c:	0000059b 	muleq	r0, fp, r5
    1410:	2733ae02 	ldrcs	sl, [r3, -r2, lsl #28]!
    1414:	02000001 	andeq	r0, r0, #1, 0
    1418:	691c7091 	ldmdbvs	ip, {r0, r4, r7, ip, sp, lr}
    141c:	02007864 	andeq	r7, r0, #100, 16	; 0x640000
    1420:	013542ae 	teqeq	r5, lr, lsr #5
    1424:	91020000 	mrsls	r0, (UNDEF: 2)
    1428:	066b1d6c 	strbteq	r1, [fp], -ip, ror #26
    142c:	ae020000 	cdpge	0, 0, cr0, cr2, cr0, {0}
    1430:	0001354e 	andeq	r3, r1, lr, asr #10
    1434:	68910200 	ldmvs	r1, {r9}
    1438:	05b22100 	ldreq	r2, [r2, #256]!	; 0x100
    143c:	a4020000 	strge	r0, [r2], #-0
    1440:	00093214 	andeq	r3, r9, r4, lsl r2
    1444:	00003020 	andeq	r3, r0, r0, lsr #32
    1448:	bd9c0100 	ldflts	f0, [ip]
    144c:	1d000009 	stcne	0, cr0, [r0, #-36]	; 0xffffffdc
    1450:	000006a1 	andeq	r0, r0, r1, lsr #13
    1454:	7923a402 	stmdbvc	r3!, {r1, sl, sp, pc}
    1458:	02000001 	andeq	r0, r0, #1, 0
    145c:	9b1d7791 	blls	75f2a8 <STACK_SIZE+0x75cb98>
    1460:	02000005 	andeq	r0, r0, #5, 0
    1464:	012734a4 			; <UNDEFINED> instruction: 0x012734a4
    1468:	91020000 	mrsls	r0, (UNDEF: 2)
    146c:	64691c70 	strbtvs	r1, [r9], #-3184	; 0xfffff390
    1470:	a4020078 	strge	r0, [r2], #-120	; 0xffffff88
    1474:	00013543 	andeq	r3, r1, r3, asr #10
    1478:	6c910200 	lfmvs	f0, 4, [r1], {0}
    147c:	00066b1d 	andeq	r6, r6, sp, lsl fp
    1480:	4fa40200 	svcmi	0x00a40200
    1484:	00000135 	andeq	r0, r0, r5, lsr r1
    1488:	00689102 	rsbeq	r9, r8, r2, lsl #2
    148c:	00062e22 	andeq	r2, r6, r2, lsr #28
    1490:	149d0200 	ldrne	r0, [sp], #512	; 0x200
    1494:	20000916 	andcs	r0, r0, r6, lsl r9
    1498:	0000001c 	andeq	r0, r0, ip, lsl r0
    149c:	0a109c01 	beq	4284a8 <STACK_SIZE+0x425d98>
    14a0:	a11d0000 	tstge	sp, r0
    14a4:	02000006 	andeq	r0, r0, #6, 0
    14a8:	0179239d 			; <UNDEFINED> instruction: 0x0179239d
    14ac:	91020000 	mrsls	r0, (UNDEF: 2)
    14b0:	059b1d77 	ldreq	r1, [fp, #3447]	; 0xd77
    14b4:	9d020000 	stcls	0, cr0, [r2, #-0]
    14b8:	00012734 	andeq	r2, r1, r4, lsr r7
    14bc:	70910200 	addsvc	r0, r1, r0, lsl #4
    14c0:	7864691c 	stmdavc	r4!, {r2, r3, r4, r8, fp, sp, lr}^
    14c4:	439d0200 	orrsmi	r0, sp, #0, 4
    14c8:	00000135 	andeq	r0, r0, r5, lsr r1
    14cc:	1d6c9102 	stfnep	f1, [ip, #-8]!
    14d0:	0000066b 	andeq	r0, r0, fp, ror #12
    14d4:	354f9d02 	strbcc	r9, [pc, #-3330]	; 7da <STACK_SIZE-0x1f36>
    14d8:	02000001 	andeq	r0, r0, #1, 0
    14dc:	22006891 	andcs	r6, r0, #9502720	; 0x910000
    14e0:	00000596 	muleq	r0, r6, r5
    14e4:	e6149402 	ldr	r9, [r4], -r2, lsl #8
    14e8:	30200008 	eorcc	r0, r0, r8
    14ec:	01000000 	mrseq	r0, (UNDEF: 0)
    14f0:	000a639c 	muleq	sl, ip, r3
    14f4:	06a11d00 	strteq	r1, [r1], r0, lsl #26
    14f8:	94020000 	strls	r0, [r2], #-0
    14fc:	00017925 	andeq	r7, r1, r5, lsr #18
    1500:	77910200 	ldrvc	r0, [r1, r0, lsl #4]
    1504:	00059b1d 	andeq	r9, r5, sp, lsl fp
    1508:	36940200 	ldrcc	r0, [r4], r0, lsl #4
    150c:	00000127 	andeq	r0, r0, r7, lsr #2
    1510:	1c709102 	ldfnep	f1, [r0], #-8
    1514:	00786469 	rsbseq	r6, r8, r9, ror #8
    1518:	35459402 	strbcc	r9, [r5, #-1026]	; 0xfffffbfe
    151c:	02000001 	andeq	r0, r0, #1, 0
    1520:	6b1d6c91 	blvs	75c76c <STACK_SIZE+0x75a05c>
    1524:	02000006 	andeq	r0, r0, #6, 0
    1528:	01355194 	teqeq	r5, r4	; <illegal shifter operand>
    152c:	91020000 	mrsls	r0, (UNDEF: 2)
    1530:	b9230068 	stmdblt	r3!, {r3, r5, r6}
    1534:	02000006 	andeq	r0, r0, #6, 0
    1538:	08c8067e 	stmiaeq	r8, {r1, r2, r3, r4, r5, r6, r9, sl}^
    153c:	001e2000 	andseq	r2, lr, r0
    1540:	9c010000 	stcls	0, cr0, [r1], {-0}
    1544:	00000a89 	andeq	r0, r0, r9, lsl #21
    1548:	0006a11d 	andeq	sl, r6, sp, lsl r1
    154c:	147e0200 	ldrbtne	r0, [lr], #-512	; 0xfffffe00
    1550:	00000179 	andeq	r0, r0, r9, ror r1
    1554:	00779102 	rsbseq	r9, r7, r2, lsl #2
    1558:	0005c41b 	andeq	ip, r5, fp, lsl r4
    155c:	174c0100 	strbne	r0, [ip, -r0, lsl #2]
    1560:	00000033 	andeq	r0, r0, r3, lsr r0
    1564:	20000892 	mulcs	r0, r2, r8
    1568:	00000036 	andeq	r0, r0, r6, lsr r0
    156c:	0acd9c01 	beq	ff368578 <__bss_end__+0xdf359558>
    1570:	611c0000 	tstvs	ip, r0
    1574:	244c0100 	strbcs	r0, [ip], #-256	; 0xffffff00
    1578:	00000033 	andeq	r0, r0, r3, lsr r0
    157c:	1c6c9102 	stfnep	f1, [ip], #-8
    1580:	4c010062 	stcmi	0, cr0, [r1], {98}	; 0x62
    1584:	0000332f 	andeq	r3, r0, pc, lsr #6
    1588:	68910200 	ldmvs	r1, {r9}
    158c:	6c756d1f 	ldclvs	13, cr6, [r5], #-124	; 0xffffff84
    1590:	0b4e0100 	bleq	1381998 <STACK_SIZE+0x137f288>
    1594:	00000033 	andeq	r0, r0, r3, lsr r0
    1598:	00749102 	rsbseq	r9, r4, r2, lsl #2
    159c:	0006b41b 	andeq	fp, r6, fp, lsl r4
    15a0:	13420100 	movtne	r0, #8448	; 0x2100
    15a4:	00000086 	andeq	r0, r0, r6, lsl #1
    15a8:	20000836 	andcs	r0, r0, r6, lsr r8
    15ac:	0000005c 	andeq	r0, r0, ip, asr r0
    15b0:	0b119c01 	bleq	4685bc <STACK_SIZE+0x465eac>
    15b4:	611c0000 	tstvs	ip, r0
    15b8:	20420100 	subcs	r0, r2, r0, lsl #2
    15bc:	00000033 	andeq	r0, r0, r3, lsr r0
    15c0:	1c649102 	stfnep	f1, [r4], #-8
    15c4:	42010062 	andmi	r0, r1, #98, 0	; 0x62
    15c8:	0000332b 	andeq	r3, r0, fp, lsr #6
    15cc:	60910200 	addsvs	r0, r1, r0, lsl #4
    15d0:	0005821e 	andeq	r8, r5, lr, lsl r2
    15d4:	0c440100 	stfeqe	f0, [r4], {-0}
    15d8:	00000060 	andeq	r0, r0, r0, rrx
    15dc:	006c9102 	rsbeq	r9, ip, r2, lsl #2
    15e0:	0006381b 	andeq	r3, r6, fp, lsl r8
    15e4:	13390100 	teqne	r9, #0
    15e8:	00000086 	andeq	r0, r0, r6, lsl #1
    15ec:	2000080e 	andcs	r0, r0, lr, lsl #16
    15f0:	00000028 	andeq	r0, r0, r8, lsr #32
    15f4:	0b469c01 	bleq	11a8600 <STACK_SIZE+0x11a5ef0>
    15f8:	611c0000 	tstvs	ip, r0
    15fc:	21390100 	teqcs	r9, r0, lsl #2
    1600:	00000060 	andeq	r0, r0, r0, rrx
    1604:	1c6c9102 	stfnep	f1, [ip], #-8
    1608:	39010062 	stmdbcc	r1, {r1, r5, r6}
    160c:	0000602d 	andeq	r6, r0, sp, lsr #32
    1610:	68910200 	ldmvs	r1, {r9}
    1614:	06ed2000 	strbteq	r2, [sp], r0
    1618:	20010000 	andcs	r0, r1, r0
    161c:	00006018 	andeq	r6, r0, r8, lsl r0
    1620:	0007a000 	andeq	sl, r7, r0
    1624:	00006e20 	andeq	r6, r0, r0, lsr #28
    1628:	bc9c0100 	ldflts	f0, [ip], {0}
    162c:	1c00000b 	stcne	0, cr0, [r0], {11}
    1630:	20010061 	andcs	r0, r1, r1, rrx
    1634:	00007327 	andeq	r7, r0, r7, lsr #6
    1638:	50910200 	addspl	r0, r1, r0, lsl #4
    163c:	0100621c 	tsteq	r0, ip, lsl r2
    1640:	00603320 	rsbeq	r3, r0, r0, lsr #6
    1644:	91020000 	mrsls	r0, (UNDEF: 2)
    1648:	00691f4c 	rsbeq	r1, r9, ip, asr #30
    164c:	86072101 	strhi	r2, [r7], -r1, lsl #2
    1650:	02000000 	andeq	r0, r0, #0, 0
    1654:	781f6c91 	ldmdavc	pc, {r0, r4, r7, sl, fp, sp, lr}	; <UNPREDICTABLE>
    1658:	0c240100 	stfeqs	f0, [r4], #-0
    165c:	00000060 	andeq	r0, r0, r0, rrx
    1660:	1f689102 	svcne	0x00689102
    1664:	25010079 	strcs	r0, [r1, #-121]	; 0xffffff87
    1668:	0000600c 	andeq	r6, r0, ip
    166c:	64910200 	ldrvs	r0, [r1], #512	; 0x200
    1670:	01007a1f 	tsteq	r0, pc, lsl sl
    1674:	00600c26 	rsbeq	r0, r0, r6, lsr #24
    1678:	91020000 	mrsls	r0, (UNDEF: 2)
    167c:	00741f60 	rsbseq	r1, r4, r0, ror #30
    1680:	600c2701 	andvs	r2, ip, r1, lsl #14
    1684:	02000000 	andeq	r0, r0, #0, 0
    1688:	24005c91 	strcs	r5, [r0], #-3217	; 0xfffff36f
    168c:	0000061c 	andeq	r0, r0, ip, lsl r6
    1690:	92181001 	andsls	r1, r8, #1, 0
    1694:	88000000 	stmdahi	r0, {}	; <UNPREDICTABLE>
    1698:	18200007 	stmdane	r0!, {r0, r1, r2}
    169c:	01000000 	mrseq	r0, (UNDEF: 0)
    16a0:	00781c9c 			; <UNDEFINED> instruction: 0x00781c9c
    16a4:	86211001 	strthi	r1, [r1], -r1
    16a8:	02000000 	andeq	r0, r0, #0, 0
    16ac:	00007491 	muleq	r0, r1, r4
    16b0:	000002ff 	strdeq	r0, [r0], -pc	; <UNPREDICTABLE>
    16b4:	07660004 	strbeq	r0, [r6, -r4]!
    16b8:	01040000 	mrseq	r0, (UNDEF: 4)
    16bc:	00000000 	andeq	r0, r0, r0
    16c0:	0007100c 	andeq	r1, r7, ip
    16c4:	00024f00 	andeq	r4, r2, r0, lsl #30
    16c8:	0014cc00 	andseq	ip, r4, r0, lsl #24
    16cc:	00025a20 	andeq	r5, r2, r0, lsr #20
    16d0:	000e3100 	andeq	r3, lr, r0, lsl #2
    16d4:	06010200 	streq	r0, [r1], -r0, lsl #4
    16d8:	000001a0 	andeq	r0, r0, r0, lsr #3
    16dc:	aa050202 	bge	141eec <STACK_SIZE+0x13f7dc>
    16e0:	02000000 	andeq	r0, r0, #0, 0
    16e4:	00ee0504 	rsceq	r0, lr, r4, lsl #10
    16e8:	08020000 	stmdaeq	r2, {}	; <UNPREDICTABLE>
    16ec:	0000e905 	andeq	lr, r0, r5, lsl #18
    16f0:	08010200 	stmdaeq	r1, {r9}
    16f4:	0000019e 	muleq	r0, lr, r1
    16f8:	dc070202 	sfmle	f0, 4, [r7], {2}
    16fc:	03000001 	movweq	r0, #1
    1700:	000001ca 	andeq	r0, r0, sl, asr #3
    1704:	5b193403 	blpl	64e718 <STACK_SIZE+0x64c008>
    1708:	02000000 	andeq	r0, r0, #0, 0
    170c:	01b80704 			; <UNDEFINED> instruction: 0x01b80704
    1710:	a2030000 	andge	r0, r3, #0, 0
    1714:	03000005 	movweq	r0, #5
    1718:	006e1937 	rsbeq	r1, lr, r7, lsr r9
    171c:	08020000 	stmdaeq	r2, {}	; <UNPREDICTABLE>
    1720:	0001b307 	andeq	fp, r1, r7, lsl #6
    1724:	05040400 	streq	r0, [r4, #-1024]	; 0xfffffc00
    1728:	00746e69 	rsbseq	r6, r4, r9, ror #28
    172c:	bd070402 	cfstrslt	mvf0, [r7, #-8]
    1730:	05000001 	streq	r0, [r0, #-1]
    1734:	00410107 	subeq	r0, r1, r7, lsl #2
    1738:	30040000 	andcc	r0, r4, r0
    173c:	0000bc06 	andeq	fp, r0, r6, lsl #24
    1740:	03670600 	cmneq	r7, #0, 12
    1744:	06050000 	streq	r0, [r5], -r0
    1748:	00000328 	andeq	r0, r0, r8, lsr #6
    174c:	03d20618 	bicseq	r0, r2, #24, 12	; 0x1800000
    1750:	06170000 	ldreq	r0, [r7], -r0
    1754:	000003c6 	andeq	r0, r0, r6, asr #7
    1758:	03170616 	tsteq	r7, #23068672	; 0x1600000
    175c:	06080000 	streq	r0, [r8], -r0
    1760:	00000345 	andeq	r0, r0, r5, asr #6
    1764:	041e060a 	ldreq	r0, [lr], #-1546	; 0xfffff9f6
    1768:	000b0000 	andeq	r0, fp, r0
    176c:	41010705 	tstmi	r1, r5, lsl #14
    1770:	04000000 	streq	r0, [r0], #-0
    1774:	00d60642 	sbcseq	r0, r6, r2, asr #12
    1778:	1b060000 	blne	181780 <STACK_SIZE+0x17f070>
    177c:	05000007 	streq	r0, [r0, #-7]
    1780:	00324607 	eorseq	r4, r2, r7, lsl #12
    1784:	07050002 	streq	r0, [r5, -r2]
    1788:	00004101 	andeq	r4, r0, r1, lsl #2
    178c:	06080500 	streq	r0, [r8], -r0, lsl #10
    1790:	0000010f 	andeq	r0, r0, pc, lsl #2
    1794:	00077406 	andeq	r7, r7, r6, lsl #8
    1798:	8f060000 	svchi	0x00060000
    179c:	04000007 	streq	r0, [r0], #-7
    17a0:	0007f206 	andeq	pc, r7, r6, lsl #4
    17a4:	24061800 	strcs	r1, [r6], #-2048	; 0xfffff800
    17a8:	24000007 	strcs	r0, [r0], #-7
    17ac:	0007e106 	andeq	lr, r7, r6, lsl #2
    17b0:	64062800 	strvs	r2, [r6], #-2048	; 0xfffff800
    17b4:	2c000007 	stccs	0, cr0, [r0], {7}
    17b8:	00074506 	andeq	r4, r7, r6, lsl #10
    17bc:	08003000 	stmdaeq	r0, {ip, sp}
    17c0:	09120510 	ldmdbeq	r2, {r4, r8, sl}
    17c4:	0000014b 	andeq	r0, r0, fp, asr #2
    17c8:	00787409 	rsbseq	r7, r8, r9, lsl #8
    17cc:	4f0e1305 	svcmi	0x000e1305
    17d0:	00000000 	andeq	r0, r0, r0
    17d4:	00787209 	rsbseq	r7, r8, r9, lsl #4
    17d8:	4f111305 	svcmi	0x00111305
    17dc:	04000000 	streq	r0, [r0], #-0
    17e0:	0000df0a 	andeq	sp, r0, sl, lsl #30
    17e4:	0e140500 	cfmul32eq	mvfx0, mvfx4, mvfx0
    17e8:	0000004f 	andeq	r0, r0, pc, asr #32
    17ec:	009a0a08 	addseq	r0, sl, r8, lsl #20
    17f0:	15050000 	strne	r0, [r5, #-0]
    17f4:	00004f0e 	andeq	r4, r0, lr, lsl #30
    17f8:	03000c00 	movweq	r0, #3072	; 0xc00
    17fc:	00000170 	andeq	r0, r0, r0, ror r1
    1800:	0f031605 	svceq	0x00031605
    1804:	0b000001 	bleq	1810 <STACK_SIZE-0xf00>
    1808:	000001ef 	andeq	r0, r0, pc, ror #3
    180c:	4b0b1805 	blmi	2c7828 <STACK_SIZE+0x2c5118>
    1810:	05000001 	streq	r0, [r0, #-1]
    1814:	00f00003 	rscseq	r0, r0, r3
    1818:	04080220 	streq	r0, [r8], #-544	; 0xfffffde0
    181c:	0000017a 	andeq	r0, r0, sl, ror r1
    1820:	0007350c 	andeq	r3, r7, ip, lsl #10
    1824:	05400200 	strbeq	r0, [r0, #-512]	; 0xfffffe00
    1828:	00000075 	andeq	r0, r0, r5, ror r0
    182c:	20001708 	andcs	r1, r0, r8, lsl #14
    1830:	0000001e 	andeq	r0, r0, lr, lsl r0
    1834:	b60c9c01 	strlt	r9, [ip], -r1, lsl #24
    1838:	02000007 	andeq	r0, r0, #7, 0
    183c:	0075053c 	rsbseq	r0, r5, ip, lsr r5
    1840:	16f80000 	ldrbtne	r0, [r8], r0
    1844:	00102000 	andseq	r2, r0, r0
    1848:	9c010000 	stcls	0, cr0, [r1], {-0}
    184c:	00054c0d 	andeq	r4, r5, sp, lsl #24
    1850:	06340200 	ldrteq	r0, [r4], -r0, lsl #4
    1854:	200016c4 	andcs	r1, r0, r4, asr #13
    1858:	00000034 	andeq	r0, r0, r4, lsr r0
    185c:	01c09c01 	biceq	r9, r0, r1, lsl #24
    1860:	630e0000 	movwvs	r0, #57344	; 0xe000
    1864:	1e340200 	cdpne	2, 3, cr0, cr4, cr0, {0}
    1868:	00000041 	andeq	r0, r0, r1, asr #32
    186c:	00779102 	rsbseq	r9, r7, r2, lsl #2
    1870:	0007560c 	andeq	r5, r7, ip, lsl #12
    1874:	052e0200 	streq	r0, [lr, #-512]!	; 0xfffffe00
    1878:	00000075 	andeq	r0, r0, r5, ror r0
    187c:	2000169c 	mulcs	r0, ip, r6
    1880:	00000028 	andeq	r0, r0, r8, lsr #32
    1884:	850f9c01 	strhi	r9, [pc, #-3073]	; c8b <STACK_SIZE-0x1a85>
    1888:	02000007 	andeq	r0, r0, #7, 0
    188c:	00750529 	rsbseq	r0, r5, r9, lsr #10
    1890:	16900000 	ldrne	r0, [r0], r0
    1894:	000c2000 	andeq	r2, ip, r0
    1898:	9c010000 	stcls	0, cr0, [r1], {-0}
    189c:	0007d310 	andeq	sp, r7, r0, lsl r3
    18a0:	0c230200 	sfmeq	f0, 4, [r3], #-0
    18a4:	00000075 	andeq	r0, r0, r5, ror r0
    18a8:	20001684 	andcs	r1, r0, r4, lsl #13
    18ac:	0000000c 	andeq	r0, r0, ip
    18b0:	060d9c01 	streq	r9, [sp], -r1, lsl #24
    18b4:	02000007 	andeq	r0, r0, #7, 0
    18b8:	15620608 	strbne	r0, [r2, #-1544]!	; 0xfffff9f8
    18bc:	01222000 			; <UNDEFINED> instruction: 0x01222000
    18c0:	9c010000 	stcls	0, cr0, [r1], {-0}
    18c4:	00000255 	andeq	r0, r0, r5, asr r2
    18c8:	00015211 	andeq	r5, r1, r1, lsl r2
    18cc:	1b080200 	blne	2020d4 <STACK_SIZE+0x1ff9c4>
    18d0:	00000255 	andeq	r0, r0, r5, asr r2
    18d4:	12649102 	rsbne	r9, r4, #-2147483648	; 0x80000000
    18d8:	000007a4 	andeq	r0, r0, r4, lsr #15
    18dc:	4f0e1002 	svcmi	0x000e1002
    18e0:	02000000 	andeq	r0, r0, #0, 0
    18e4:	c4127491 	ldrgt	r7, [r2], #-1169	; 0xfffffb6f
    18e8:	02000007 	andeq	r0, r0, #7, 0
    18ec:	004f0e12 	subeq	r0, pc, r2, lsl lr	; <UNPREDICTABLE>
    18f0:	91020000 	mrsls	r0, (UNDEF: 2)
    18f4:	079f1270 			; <UNDEFINED> instruction: 0x079f1270
    18f8:	13020000 	movwne	r0, #8192	; 0x2000
    18fc:	00004f0e 	andeq	r4, r0, lr, lsl #30
    1900:	6c910200 	lfmvs	f0, 4, [r1], {0}
    1904:	4b041300 	blmi	10650c <STACK_SIZE+0x103dfc>
    1908:	14000001 	strne	r0, [r0], #-1
    190c:	00000638 	andeq	r0, r0, r8, lsr r6
    1910:	75133901 	ldrvc	r3, [r3, #-2305]	; 0xfffff6ff
    1914:	3a000000 	bcc	191c <STACK_SIZE-0xdf4>
    1918:	28200015 	stmdacs	r0!, {r0, r2, r4}
    191c:	01000000 	mrseq	r0, (UNDEF: 0)
    1920:	0002909c 	muleq	r2, ip, r0
    1924:	00610e00 	rsbeq	r0, r1, r0, lsl #28
    1928:	4f213901 	svcmi	0x00213901
    192c:	02000000 	andeq	r0, r0, #0, 0
    1930:	620e6c91 	andvs	r6, lr, #37120	; 0x9100
    1934:	2d390100 	ldfcss	f0, [r9, #-0]
    1938:	0000004f 	andeq	r0, r0, pc, asr #32
    193c:	00689102 	rsbeq	r9, r8, r2, lsl #2
    1940:	0006ed15 	andeq	lr, r6, r5, lsl sp
    1944:	18200100 	stmdane	r0!, {r8}
    1948:	0000004f 	andeq	r0, r0, pc, asr #32
    194c:	200014cc 	andcs	r1, r0, ip, asr #9
    1950:	0000006e 	andeq	r0, r0, lr, rrx
    1954:	610e9c01 	tstvs	lr, r1, lsl #24
    1958:	27200100 	strcs	r0, [r0, -r0, lsl #2]!
    195c:	00000062 	andeq	r0, r0, r2, rrx
    1960:	0e509102 	logeqs	f1, f2
    1964:	20010062 	andcs	r0, r1, r2, rrx
    1968:	00004f33 	andeq	r4, r0, r3, lsr pc
    196c:	4c910200 	lfmmi	f0, 4, [r1], {0}
    1970:	01006916 	tsteq	r0, r6, lsl r9
    1974:	00750721 	rsbseq	r0, r5, r1, lsr #14
    1978:	91020000 	mrsls	r0, (UNDEF: 2)
    197c:	0078166c 	rsbseq	r1, r8, ip, ror #12
    1980:	4f0c2401 	svcmi	0x000c2401
    1984:	02000000 	andeq	r0, r0, #0, 0
    1988:	79166891 	ldmdbvc	r6, {r0, r4, r7, fp, sp, lr}
    198c:	0c250100 	stfeqs	f0, [r5], #-0
    1990:	0000004f 	andeq	r0, r0, pc, asr #32
    1994:	16649102 	strbtne	r9, [r4], -r2, lsl #2
    1998:	2601007a 			; <UNDEFINED> instruction: 0x2601007a
    199c:	00004f0c 	andeq	r4, r0, ip, lsl #30
    19a0:	60910200 	addsvs	r0, r1, r0, lsl #4
    19a4:	01007416 	tsteq	r0, r6, lsl r4
    19a8:	004f0c27 	subeq	r0, pc, r7, lsr #24
    19ac:	91020000 	mrsls	r0, (UNDEF: 2)
    19b0:	Address 0x00000000000019b0 is out of bounds.


Disassembly of section .debug_abbrev:

00000000 <.debug_abbrev>:
   0:	25011101 	strcs	r1, [r1, #-257]	; 0xfffffeff
   4:	030b130e 	movweq	r1, #45838	; 0xb30e
   8:	110e1b0e 	tstne	lr, lr, lsl #22
   c:	10061201 	andne	r1, r6, r1, lsl #4
  10:	02000017 	andeq	r0, r0, #23, 0
  14:	0b0b0024 	bleq	2c00ac <STACK_SIZE+0x2bd99c>
  18:	0e030b3e 	vmoveq.16	d3[0], r0
  1c:	16030000 	strne	r0, [r3], -r0
  20:	3a0e0300 	bcc	380c28 <STACK_SIZE+0x37e518>
  24:	390b3b0b 	stmdbcc	fp, {r0, r1, r3, r8, r9, fp, ip, sp}
  28:	0013490b 	andseq	r4, r3, fp, lsl #18
  2c:	00260400 	eoreq	r0, r6, r0, lsl #8
  30:	00001349 	andeq	r1, r0, r9, asr #6
  34:	0b002405 	bleq	9050 <STACK_SIZE+0x6940>
  38:	030b3e0b 	movweq	r3, #48651	; 0xbe0b
  3c:	06000008 	streq	r0, [r0], -r8
  40:	0b3e0104 	bleq	f80458 <STACK_SIZE+0xf7dd48>
  44:	13490b0b 	movtne	r0, #39691	; 0x9b0b
  48:	0b3b0b3a 	bleq	ec2d38 <STACK_SIZE+0xec0628>
  4c:	13010b39 	movwne	r0, #6969	; 0x1b39
  50:	28070000 	stmdacs	r7, {}	; <UNPREDICTABLE>
  54:	1c080300 	stcne	3, cr0, [r8], {-0}
  58:	0800000b 	stmdaeq	r0, {r0, r1, r3}
  5c:	0e030028 	cdpeq	0, 0, cr0, cr3, cr8, {1}
  60:	00000b1c 	andeq	r0, r0, ip, lsl fp
  64:	0b011309 	bleq	44c90 <STACK_SIZE+0x42580>
  68:	3b0b3a0b 	blcc	2ce89c <STACK_SIZE+0x2cc18c>
  6c:	010b390b 	tsteq	fp, fp, lsl #18
  70:	0a000013 	beq	c4 <STACK_SIZE-0x264c>
  74:	0803000d 	stmdaeq	r3, {r0, r2, r3}
  78:	0b3b0b3a 	bleq	ec2d68 <STACK_SIZE+0xec0658>
  7c:	13490b39 	movtne	r0, #39737	; 0x9b39
  80:	00000b38 	andeq	r0, r0, r8, lsr fp
  84:	03000d0b 	movweq	r0, #3339	; 0xd0b
  88:	3b0b3a0e 	blcc	2ce8c8 <STACK_SIZE+0x2cc1b8>
  8c:	490b390b 	stmdbmi	fp, {r0, r1, r3, r8, fp, ip, sp}
  90:	000b3813 	andeq	r3, fp, r3, lsl r8
  94:	00340c00 	eorseq	r0, r4, r0, lsl #24
  98:	0b3a0e03 	bleq	e838ac <STACK_SIZE+0xe8119c>
  9c:	0b390b3b 	bleq	e42d90 <STACK_SIZE+0xe40680>
  a0:	193f1349 	ldmdbne	pc!, {r0, r3, r6, r8, r9, ip}	; <UNPREDICTABLE>
  a4:	00001802 	andeq	r1, r0, r2, lsl #16
  a8:	0300280d 	movweq	r2, #2061	; 0x80d
  ac:	00061c0e 	andeq	r1, r6, lr, lsl #24
  b0:	01010e00 	tsteq	r1, r0, lsl #28
  b4:	13011349 	movwne	r1, #4937	; 0x1349
  b8:	210f0000 	mrscs	r0, CPSR
  bc:	2f134900 	svccs	0x00134900
  c0:	1000000b 	andne	r0, r0, fp
  c4:	0e030034 	mcreq	0, 0, r0, cr3, cr4, {1}
  c8:	0b3b0b3a 	bleq	ec2db8 <STACK_SIZE+0xec06a8>
  cc:	13490b39 	movtne	r0, #39737	; 0x9b39
  d0:	00001802 	andeq	r1, r0, r2, lsl #16
  d4:	3f012e11 	svccc	0x00012e11
  d8:	3a0e0319 	bcc	380d44 <STACK_SIZE+0x37e634>
  dc:	390b3b0b 	stmdbcc	fp, {r0, r1, r3, r8, r9, fp, ip, sp}
  e0:	1113490b 	tstne	r3, fp, lsl #18
  e4:	40061201 	andmi	r1, r6, r1, lsl #4
  e8:	19429618 	stmdbne	r2, {r3, r4, r9, sl, ip, pc}^
  ec:	0b120000 	bleq	4800f4 <STACK_SIZE+0x47d9e4>
  f0:	12011101 	andne	r1, r1, #1073741824	; 0x40000000
  f4:	13000006 	movwne	r0, #6
  f8:	08030034 	stmdaeq	r3, {r2, r4, r5}
  fc:	0b3b0b3a 	bleq	ec2dec <STACK_SIZE+0xec06dc>
 100:	13490b39 	movtne	r0, #39737	; 0x9b39
 104:	00001802 	andeq	r1, r0, r2, lsl #16
 108:	00110100 	andseq	r0, r1, r0, lsl #2
 10c:	06550610 			; <UNDEFINED> instruction: 0x06550610
 110:	0e1b0e03 	cdpeq	14, 1, cr0, cr11, cr3, {0}
 114:	05130e25 	ldreq	r0, [r3, #-3621]	; 0xfffff1db
 118:	01000000 	mrseq	r0, (UNDEF: 0)
 11c:	0e250111 	mcreq	1, 1, r0, cr5, cr1, {0}
 120:	0e030b13 	vmoveq.32	d3[0], r0
 124:	01110e1b 	tsteq	r1, fp, lsl lr
 128:	17100612 			; <UNDEFINED> instruction: 0x17100612
 12c:	24020000 	strcs	r0, [r2], #-0
 130:	3e0b0b00 	vmlacc.f64	d0, d11, d0
 134:	000e030b 	andeq	r0, lr, fp, lsl #6
 138:	00160300 	andseq	r0, r6, r0, lsl #6
 13c:	0b3a0e03 	bleq	e83950 <STACK_SIZE+0xe81240>
 140:	0b390b3b 	bleq	e42e34 <STACK_SIZE+0xe40724>
 144:	00001349 	andeq	r1, r0, r9, asr #6
 148:	0b002404 	bleq	9160 <STACK_SIZE+0x6a50>
 14c:	030b3e0b 	movweq	r3, #48651	; 0xbe0b
 150:	05000008 	streq	r0, [r0, #-8]
 154:	0b3e0104 	bleq	f8056c <STACK_SIZE+0xf7de5c>
 158:	13490b0b 	movtne	r0, #39691	; 0x9b0b
 15c:	0b3b0b3a 	bleq	ec2e4c <STACK_SIZE+0xec073c>
 160:	13010b39 	movwne	r0, #6969	; 0x1b39
 164:	28060000 	stmdacs	r6, {}	; <UNPREDICTABLE>
 168:	1c0e0300 	stcne	3, cr0, [lr], {-0}
 16c:	07000006 	streq	r0, [r0, -r6]
 170:	0b0b0113 	bleq	2c05c4 <STACK_SIZE+0x2bdeb4>
 174:	0b3b0b3a 	bleq	ec2e64 <STACK_SIZE+0xec0754>
 178:	13010b39 	movwne	r0, #6969	; 0x1b39
 17c:	0d080000 	stceq	0, cr0, [r8, #-0]
 180:	3a080300 	bcc	200d88 <STACK_SIZE+0x1fe678>
 184:	390b3b0b 	stmdbcc	fp, {r0, r1, r3, r8, r9, fp, ip, sp}
 188:	3813490b 	ldmdacc	r3, {r0, r1, r3, r8, fp, lr}
 18c:	0900000b 	stmdbeq	r0, {r0, r1, r3}
 190:	0e03000d 	cdpeq	0, 0, cr0, cr3, cr13, {0}
 194:	0b3b0b3a 	bleq	ec2e84 <STACK_SIZE+0xec0774>
 198:	13490b39 	movtne	r0, #39737	; 0x9b39
 19c:	00000b38 	andeq	r0, r0, r8, lsr fp
 1a0:	0300340a 	movweq	r3, #1034	; 0x40a
 1a4:	3b0b3a0e 	blcc	2ce9e4 <STACK_SIZE+0x2cc2d4>
 1a8:	490b390b 	stmdbmi	fp, {r0, r1, r3, r8, fp, ip, sp}
 1ac:	02193f13 	andseq	r3, r9, #76	; 0x4c
 1b0:	0b000018 	bleq	218 <STACK_SIZE-0x24f8>
 1b4:	193f012e 	ldmdbne	pc!, {r1, r2, r3, r5, r8}	; <UNPREDICTABLE>
 1b8:	0b3a0e03 	bleq	e839cc <STACK_SIZE+0xe812bc>
 1bc:	0b390b3b 	bleq	e42eb0 <STACK_SIZE+0xe407a0>
 1c0:	06120111 			; <UNDEFINED> instruction: 0x06120111
 1c4:	42961840 	addsmi	r1, r6, #64, 16	; 0x400000
 1c8:	00130119 	andseq	r0, r3, r9, lsl r1
 1cc:	00340c00 	eorseq	r0, r4, r0, lsl #24
 1d0:	0b3a0e03 	bleq	e839e4 <STACK_SIZE+0xe812d4>
 1d4:	0b390b3b 	bleq	e42ec8 <STACK_SIZE+0xe407b8>
 1d8:	193f1349 	ldmdbne	pc!, {r0, r3, r6, r8, r9, ip}	; <UNPREDICTABLE>
 1dc:	0000193c 	andeq	r1, r0, ip, lsr r9
 1e0:	0300340d 	movweq	r3, #1037	; 0x40d
 1e4:	3b0b3a0e 	blcc	2cea24 <STACK_SIZE+0x2cc314>
 1e8:	490b390b 	stmdbmi	fp, {r0, r1, r3, r8, fp, ip, sp}
 1ec:	00180213 	andseq	r0, r8, r3, lsl r2
 1f0:	00340e00 	eorseq	r0, r4, r0, lsl #28
 1f4:	0b3a0803 	bleq	e82208 <STACK_SIZE+0xe7faf8>
 1f8:	0b390b3b 	bleq	e42eec <STACK_SIZE+0xe407dc>
 1fc:	18021349 	stmdane	r2, {r0, r3, r6, r8, r9, ip}
 200:	2e0f0000 	cdpcs	0, 0, cr0, cr15, cr0, {0}
 204:	03193f01 	tsteq	r9, #1, 30
 208:	3b0b3a0e 	blcc	2cea48 <STACK_SIZE+0x2cc338>
 20c:	490b390b 	stmdbmi	fp, {r0, r1, r3, r8, fp, ip, sp}
 210:	00193c13 	andseq	r3, r9, r3, lsl ip
 214:	00181000 	andseq	r1, r8, r0
 218:	0f110000 	svceq	0x00110000
 21c:	490b0b00 	stmdbmi	fp, {r8, r9, fp}
 220:	00000013 	andeq	r0, r0, r3, lsl r0
 224:	25011101 	strcs	r1, [r1, #-257]	; 0xfffffeff
 228:	030b130e 	movweq	r1, #45838	; 0xb30e
 22c:	110e1b0e 	tstne	lr, lr, lsl #22
 230:	10061201 	andne	r1, r6, r1, lsl #4
 234:	02000017 	andeq	r0, r0, #23, 0
 238:	0b0b0024 	bleq	2c02d0 <STACK_SIZE+0x2bdbc0>
 23c:	0e030b3e 	vmoveq.16	d3[0], r0
 240:	16030000 	strne	r0, [r3], -r0
 244:	3a0e0300 	bcc	380e4c <STACK_SIZE+0x37e73c>
 248:	390b3b0b 	stmdbcc	fp, {r0, r1, r3, r8, r9, fp, ip, sp}
 24c:	0013490b 	andseq	r4, r3, fp, lsl #18
 250:	00240400 	eoreq	r0, r4, r0, lsl #8
 254:	0b3e0b0b 	bleq	f82e88 <STACK_SIZE+0xf80778>
 258:	00000803 	andeq	r0, r0, r3, lsl #16
 25c:	3e010405 	cdpcc	4, 0, cr0, cr1, cr5, {0}
 260:	490b0b0b 	stmdbmi	fp, {r0, r1, r3, r8, r9, fp}
 264:	3b0b3a13 	blcc	2ceab8 <STACK_SIZE+0x2cc3a8>
 268:	010b390b 	tsteq	fp, fp, lsl #18
 26c:	06000013 			; <UNDEFINED> instruction: 0x06000013
 270:	0e030028 	cdpeq	0, 0, cr0, cr3, cr8, {1}
 274:	0000061c 	andeq	r0, r0, ip, lsl r6
 278:	03002807 	movweq	r2, #2055	; 0x807
 27c:	000b1c0e 	andeq	r1, fp, lr, lsl #24
 280:	00280800 	eoreq	r0, r8, r0, lsl #16
 284:	0b1c0803 	bleq	702298 <STACK_SIZE+0x6ffb88>
 288:	2e090000 	cdpcs	0, 0, cr0, cr9, cr0, {0}
 28c:	03193f01 	tsteq	r9, #1, 30
 290:	3b0b3a0e 	blcc	2cead0 <STACK_SIZE+0x2cc3c0>
 294:	270b390b 	strcs	r3, [fp, -fp, lsl #18]
 298:	12011119 	andne	r1, r1, #1073741830	; 0x40000006
 29c:	96184006 	ldrls	r4, [r8], -r6
 2a0:	13011942 	movwne	r1, #6466	; 0x1942
 2a4:	050a0000 	streq	r0, [sl, #-0]
 2a8:	3a080300 	bcc	200eb0 <STACK_SIZE+0x1fe7a0>
 2ac:	390b3b0b 	stmdbcc	fp, {r0, r1, r3, r8, r9, fp, ip, sp}
 2b0:	0213490b 	andseq	r4, r3, #180224	; 0x2c000
 2b4:	0b000018 	bleq	31c <STACK_SIZE-0x23f4>
 2b8:	0e030034 	mcreq	0, 0, r0, cr3, cr4, {1}
 2bc:	0b3b0b3a 	bleq	ec2fac <STACK_SIZE+0xec089c>
 2c0:	13490b39 	movtne	r0, #39737	; 0x9b39
 2c4:	00001802 	andeq	r1, r0, r2, lsl #16
 2c8:	3f002e0c 	svccc	0x00002e0c
 2cc:	3a0e0319 	bcc	380f38 <STACK_SIZE+0x37e828>
 2d0:	390b3b0b 	stmdbcc	fp, {r0, r1, r3, r8, r9, fp, ip, sp}
 2d4:	1201110b 	andne	r1, r1, #-1073741822	; 0xc0000002
 2d8:	96184006 	ldrls	r4, [r8], -r6
 2dc:	00001942 	andeq	r1, r0, r2, asr #18
 2e0:	3f012e0d 	svccc	0x00012e0d
 2e4:	3a0e0319 	bcc	380f50 <STACK_SIZE+0x37e840>
 2e8:	390b3b0b 	stmdbcc	fp, {r0, r1, r3, r8, r9, fp, ip, sp}
 2ec:	4919270b 	ldmdbmi	r9, {r0, r1, r3, r8, r9, sl, sp}
 2f0:	12011113 	andne	r1, r1, #-1073741820	; 0xc0000004
 2f4:	96184006 	ldrls	r4, [r8], -r6
 2f8:	13011942 	movwne	r1, #6466	; 0x1942
 2fc:	050e0000 	streq	r0, [lr, #-0]
 300:	3a0e0300 	bcc	380f08 <STACK_SIZE+0x37e7f8>
 304:	390b3b0b 	stmdbcc	fp, {r0, r1, r3, r8, r9, fp, ip, sp}
 308:	0213490b 	andseq	r4, r3, #180224	; 0x2c000
 30c:	0f000018 	svceq	0x00000018
 310:	193f012e 	ldmdbne	pc!, {r1, r2, r3, r5, r8}	; <UNPREDICTABLE>
 314:	0b3a0e03 	bleq	e83b28 <STACK_SIZE+0xe81418>
 318:	0b390b3b 	bleq	e4300c <STACK_SIZE+0xe408fc>
 31c:	01111927 	tsteq	r1, r7, lsr #18
 320:	18400612 	stmdane	r0, {r1, r4, r9, sl}^
 324:	00194296 	mulseq	r9, r6, r2
 328:	11010000 	mrsne	r0, (UNDEF: 1)
 32c:	130e2501 	movwne	r2, #58625	; 0xe501
 330:	1b0e030b 	blne	380f64 <STACK_SIZE+0x37e854>
 334:	1201110e 	andne	r1, r1, #-2147483645	; 0x80000003
 338:	00171006 	andseq	r1, r7, r6
 33c:	00240200 	eoreq	r0, r4, r0, lsl #4
 340:	0b3e0b0b 	bleq	f82f74 <STACK_SIZE+0xf80864>
 344:	00000e03 	andeq	r0, r0, r3, lsl #28
 348:	03001603 	movweq	r1, #1539	; 0x603
 34c:	3b0b3a0e 	blcc	2ceb8c <STACK_SIZE+0x2cc47c>
 350:	490b390b 	stmdbmi	fp, {r0, r1, r3, r8, fp, ip, sp}
 354:	04000013 	streq	r0, [r0], #-19	; 0xffffffed
 358:	0b0b0024 	bleq	2c03f0 <STACK_SIZE+0x2bdce0>
 35c:	08030b3e 	stmdaeq	r3, {r1, r2, r3, r4, r5, r8, r9, fp}
 360:	04050000 	streq	r0, [r5], #-0
 364:	0b0b3e01 	bleq	2cfb70 <STACK_SIZE+0x2cd460>
 368:	3a13490b 	bcc	4d279c <STACK_SIZE+0x4d008c>
 36c:	390b3b0b 	stmdbcc	fp, {r0, r1, r3, r8, r9, fp, ip, sp}
 370:	0013010b 	andseq	r0, r3, fp, lsl #2
 374:	00280600 	eoreq	r0, r8, r0, lsl #12
 378:	061c0e03 	ldreq	r0, [ip], -r3, lsl #28
 37c:	2e070000 	cdpcs	0, 0, cr0, cr7, cr0, {0}
 380:	03193f01 	tsteq	r9, #1, 30
 384:	3b0b3a0e 	blcc	2cebc4 <STACK_SIZE+0x2cc4b4>
 388:	270b390b 	strcs	r3, [fp, -fp, lsl #18]
 38c:	12011119 	andne	r1, r1, #1073741830	; 0x40000006
 390:	96184006 	ldrls	r4, [r8], -r6
 394:	13011942 	movwne	r1, #6466	; 0x1942
 398:	05080000 	streq	r0, [r8, #-0]
 39c:	3a0e0300 	bcc	380fa4 <STACK_SIZE+0x37e894>
 3a0:	390b3b0b 	stmdbcc	fp, {r0, r1, r3, r8, r9, fp, ip, sp}
 3a4:	0213490b 	andseq	r4, r3, #180224	; 0x2c000
 3a8:	09000018 	stmdbeq	r0, {r3, r4}
 3ac:	08030005 	stmdaeq	r3, {r0, r2}
 3b0:	0b3b0b3a 	bleq	ec30a0 <STACK_SIZE+0xec0990>
 3b4:	13490b39 	movtne	r0, #39737	; 0x9b39
 3b8:	00001802 	andeq	r1, r0, r2, lsl #16
 3bc:	0300340a 	movweq	r3, #1034	; 0x40a
 3c0:	3b0b3a0e 	blcc	2cec00 <STACK_SIZE+0x2cc4f0>
 3c4:	490b390b 	stmdbmi	fp, {r0, r1, r3, r8, fp, ip, sp}
 3c8:	00180213 	andseq	r0, r8, r3, lsl r2
 3cc:	010b0b00 	tsteq	fp, r0, lsl #22
 3d0:	06120111 			; <UNDEFINED> instruction: 0x06120111
 3d4:	340c0000 	strcc	r0, [ip], #-0
 3d8:	3a080300 	bcc	200fe0 <STACK_SIZE+0x1fe8d0>
 3dc:	390b3b0b 	stmdbcc	fp, {r0, r1, r3, r8, r9, fp, ip, sp}
 3e0:	0213490b 	andseq	r4, r3, #180224	; 0x2c000
 3e4:	0d000018 	stceq	0, cr0, [r0, #-96]	; 0xffffffa0
 3e8:	193f002e 	ldmdbne	pc!, {r1, r2, r3, r5}	; <UNPREDICTABLE>
 3ec:	0b3a0e03 	bleq	e83c00 <STACK_SIZE+0xe814f0>
 3f0:	0b390b3b 	bleq	e430e4 <STACK_SIZE+0xe409d4>
 3f4:	06120111 			; <UNDEFINED> instruction: 0x06120111
 3f8:	42961840 	addsmi	r1, r6, #64, 16	; 0x400000
 3fc:	00000019 	andeq	r0, r0, r9, lsl r0
 400:	25011101 	strcs	r1, [r1, #-257]	; 0xfffffeff
 404:	030b130e 	movweq	r1, #45838	; 0xb30e
 408:	110e1b0e 	tstne	lr, lr, lsl #22
 40c:	10061201 	andne	r1, r6, r1, lsl #4
 410:	02000017 	andeq	r0, r0, #23, 0
 414:	0b0b0024 	bleq	2c04ac <STACK_SIZE+0x2bdd9c>
 418:	0e030b3e 	vmoveq.16	d3[0], r0
 41c:	24030000 	strcs	r0, [r3], #-0
 420:	3e0b0b00 	vmlacc.f64	d0, d11, d0
 424:	0008030b 	andeq	r0, r8, fp, lsl #6
 428:	01130400 	tsteq	r3, r0, lsl #8
 42c:	0b3a0b0b 	bleq	e83060 <STACK_SIZE+0xe80950>
 430:	0b390b3b 	bleq	e43124 <STACK_SIZE+0xe40a14>
 434:	00001301 	andeq	r1, r0, r1, lsl #6
 438:	03000d05 	movweq	r0, #3333	; 0xd05
 43c:	3b0b3a08 	blcc	2cec64 <STACK_SIZE+0x2cc554>
 440:	490b390b 	stmdbmi	fp, {r0, r1, r3, r8, fp, ip, sp}
 444:	000b3813 	andeq	r3, fp, r3, lsl r8
 448:	000d0600 	andeq	r0, sp, r0, lsl #12
 44c:	0b3a0e03 	bleq	e83c60 <STACK_SIZE+0xe81550>
 450:	0b390b3b 	bleq	e43144 <STACK_SIZE+0xe40a34>
 454:	0b381349 	bleq	e05180 <STACK_SIZE+0xe02a70>
 458:	16070000 	strne	r0, [r7], -r0
 45c:	3a0e0300 	bcc	381064 <STACK_SIZE+0x37e954>
 460:	390b3b0b 	stmdbcc	fp, {r0, r1, r3, r8, r9, fp, ip, sp}
 464:	0013490b 	andseq	r4, r3, fp, lsl #18
 468:	00340800 	eorseq	r0, r4, r0, lsl #16
 46c:	0b3a0e03 	bleq	e83c80 <STACK_SIZE+0xe81570>
 470:	0b390b3b 	bleq	e43164 <STACK_SIZE+0xe40a54>
 474:	193f1349 	ldmdbne	pc!, {r0, r3, r6, r8, r9, ip}	; <UNPREDICTABLE>
 478:	00001802 	andeq	r1, r0, r2, lsl #16
 47c:	3f002e09 	svccc	0x00002e09
 480:	3a0e0319 	bcc	3810ec <STACK_SIZE+0x37e9dc>
 484:	390b3b0b 	stmdbcc	fp, {r0, r1, r3, r8, r9, fp, ip, sp}
 488:	1113490b 	tstne	r3, fp, lsl #18
 48c:	40061201 	andmi	r1, r6, r1, lsl #4
 490:	19429618 	stmdbne	r2, {r3, r4, r9, sl, ip, pc}^
 494:	2e0a0000 	cdpcs	0, 0, cr0, cr10, cr0, {0}
 498:	03193f01 	tsteq	r9, #1, 30
 49c:	3b0b3a0e 	blcc	2cecdc <STACK_SIZE+0x2cc5cc>
 4a0:	270b390b 	strcs	r3, [fp, -fp, lsl #18]
 4a4:	12011119 	andne	r1, r1, #1073741830	; 0x40000006
 4a8:	96184006 	ldrls	r4, [r8], -r6
 4ac:	13011942 	movwne	r1, #6466	; 0x1942
 4b0:	050b0000 	streq	r0, [fp, #-0]
 4b4:	3a0e0300 	bcc	3810bc <STACK_SIZE+0x37e9ac>
 4b8:	390b3b0b 	stmdbcc	fp, {r0, r1, r3, r8, r9, fp, ip, sp}
 4bc:	0213490b 	andseq	r4, r3, #180224	; 0x2c000
 4c0:	0c000018 	stceq	0, cr0, [r0], {24}
 4c4:	08030005 	stmdaeq	r3, {r0, r2}
 4c8:	0b3b0b3a 	bleq	ec31b8 <STACK_SIZE+0xec0aa8>
 4cc:	13490b39 	movtne	r0, #39737	; 0x9b39
 4d0:	00001802 	andeq	r1, r0, r2, lsl #16
 4d4:	11010b0d 	tstne	r1, sp, lsl #22
 4d8:	00061201 	andeq	r1, r6, r1, lsl #4
 4dc:	00340e00 	eorseq	r0, r4, r0, lsl #28
 4e0:	0b3a0803 	bleq	e824f4 <STACK_SIZE+0xe7fde4>
 4e4:	0b390b3b 	bleq	e431d8 <STACK_SIZE+0xe40ac8>
 4e8:	18021349 	stmdane	r2, {r0, r3, r6, r8, r9, ip}
 4ec:	0f0f0000 	svceq	0x000f0000
 4f0:	490b0b00 	stmdbmi	fp, {r8, r9, fp}
 4f4:	10000013 	andne	r0, r0, r3, lsl r0
 4f8:	13490026 	movtne	r0, #36902	; 0x9026
 4fc:	2e110000 	cdpcs	0, 1, cr0, cr1, cr0, {0}
 500:	3a0e0301 	bcc	38110c <STACK_SIZE+0x37e9fc>
 504:	390b3b0b 	stmdbcc	fp, {r0, r1, r3, r8, r9, fp, ip, sp}
 508:	1119270b 	tstne	r9, fp, lsl #14
 50c:	40061201 	andmi	r1, r6, r1, lsl #4
 510:	19429618 	stmdbne	r2, {r3, r4, r9, sl, ip, pc}^
 514:	01000000 	mrseq	r0, (UNDEF: 0)
 518:	0e250111 	mcreq	1, 1, r0, cr5, cr1, {0}
 51c:	0e030b13 	vmoveq.32	d3[0], r0
 520:	01110e1b 	tsteq	r1, fp, lsl lr
 524:	17100612 			; <UNDEFINED> instruction: 0x17100612
 528:	24020000 	strcs	r0, [r2], #-0
 52c:	3e0b0b00 	vmlacc.f64	d0, d11, d0
 530:	000e030b 	andeq	r0, lr, fp, lsl #6
 534:	00160300 	andseq	r0, r6, r0, lsl #6
 538:	0b3a0e03 	bleq	e83d4c <STACK_SIZE+0xe8163c>
 53c:	0b390b3b 	bleq	e43230 <STACK_SIZE+0xe40b20>
 540:	00001349 	andeq	r1, r0, r9, asr #6
 544:	49002604 	stmdbmi	r0, {r2, r9, sl, sp}
 548:	05000013 	streq	r0, [r0, #-19]	; 0xffffffed
 54c:	0b0b0024 	bleq	2c05e4 <STACK_SIZE+0x2bded4>
 550:	08030b3e 	stmdaeq	r3, {r1, r2, r3, r4, r5, r8, r9, fp}
 554:	13060000 	movwne	r0, #24576	; 0x6000
 558:	3a0b0b01 	bcc	2c3164 <STACK_SIZE+0x2c0a54>
 55c:	390b3b0b 	stmdbcc	fp, {r0, r1, r3, r8, r9, fp, ip, sp}
 560:	0013010b 	andseq	r0, r3, fp, lsl #2
 564:	000d0700 	andeq	r0, sp, r0, lsl #14
 568:	0b3a0803 	bleq	e8257c <STACK_SIZE+0xe7fe6c>
 56c:	0b390b3b 	bleq	e43260 <STACK_SIZE+0xe40b50>
 570:	0b381349 	bleq	e0529c <STACK_SIZE+0xe02b8c>
 574:	0d080000 	stceq	0, cr0, [r8, #-0]
 578:	3a0e0300 	bcc	381180 <STACK_SIZE+0x37ea70>
 57c:	390b3b0b 	stmdbcc	fp, {r0, r1, r3, r8, r9, fp, ip, sp}
 580:	3813490b 	ldmdacc	r3, {r0, r1, r3, r8, fp, lr}
 584:	0900000b 	stmdbeq	r0, {r0, r1, r3}
 588:	0e030034 	mcreq	0, 0, r0, cr3, cr4, {1}
 58c:	0b3b0b3a 	bleq	ec327c <STACK_SIZE+0xec0b6c>
 590:	13490b39 	movtne	r0, #39737	; 0x9b39
 594:	1802193f 	stmdane	r2, {r0, r1, r2, r3, r4, r5, r8, fp, ip}
 598:	130a0000 	movwne	r0, #40960	; 0xa000
 59c:	0b0e0301 	bleq	3811a8 <STACK_SIZE+0x37ea98>
 5a0:	3b0b3a0b 	blcc	2cedd4 <STACK_SIZE+0x2cc6c4>
 5a4:	0013010b 	andseq	r0, r3, fp, lsl #2
 5a8:	000d0b00 	andeq	r0, sp, r0, lsl #22
 5ac:	13490e03 	movtne	r0, #40451	; 0x9e03
 5b0:	19340b38 	ldmdbne	r4!, {r3, r4, r5, r8, r9, fp}
 5b4:	0f0c0000 	svceq	0x000c0000
 5b8:	000b0b00 	andeq	r0, fp, r0, lsl #22
 5bc:	000f0d00 	andeq	r0, pc, r0, lsl #26
 5c0:	13490b0b 	movtne	r0, #39691	; 0x9b0b
 5c4:	150e0000 	strne	r0, [lr, #-0]
 5c8:	01192701 	tsteq	r9, r1, lsl #14
 5cc:	0f000013 	svceq	0x00000013
 5d0:	13490005 	movtne	r0, #36869	; 0x9005
 5d4:	2e100000 	cdpcs	0, 1, cr0, cr0, cr0, {0}
 5d8:	03193f01 	tsteq	r9, #1, 30
 5dc:	3b0b3a0e 	blcc	2cee1c <STACK_SIZE+0x2cc70c>
 5e0:	270b3905 	strcs	r3, [fp, -r5, lsl #18]
 5e4:	11134919 	tstne	r3, r9, lsl r9
 5e8:	40061201 	andmi	r1, r6, r1, lsl #4
 5ec:	19429618 	stmdbne	r2, {r3, r4, r9, sl, ip, pc}^
 5f0:	00001301 	andeq	r1, r0, r1, lsl #6
 5f4:	03000511 	movweq	r0, #1297	; 0x511
 5f8:	3b0b3a08 	blcc	2cee20 <STACK_SIZE+0x2cc710>
 5fc:	490b3905 	stmdbmi	fp, {r0, r2, r8, fp, ip, sp}
 600:	00180213 	andseq	r0, r8, r3, lsl r2
 604:	00051200 	andeq	r1, r5, r0, lsl #4
 608:	0b3a0e03 	bleq	e83e1c <STACK_SIZE+0xe8170c>
 60c:	0b39053b 	bleq	e41b00 <STACK_SIZE+0xe3f3f0>
 610:	18021349 	stmdane	r2, {r0, r3, r6, r8, r9, ip}
 614:	18130000 	ldmdane	r3, {}	; <UNPREDICTABLE>
 618:	14000000 	strne	r0, [r0], #-0
 61c:	08030034 	stmdaeq	r3, {r2, r4, r5}
 620:	053b0b3a 	ldreq	r0, [fp, #-2874]!	; 0xfffff4c6
 624:	13490b39 	movtne	r0, #39737	; 0x9b39
 628:	00001802 	andeq	r1, r0, r2, lsl #16
 62c:	03003415 	movweq	r3, #1045	; 0x415
 630:	3b0b3a0e 	blcc	2cee70 <STACK_SIZE+0x2cc760>
 634:	490b3905 	stmdbmi	fp, {r0, r2, r8, fp, ip, sp}
 638:	00180213 	andseq	r0, r8, r3, lsl r2
 63c:	01011600 	tsteq	r1, r0, lsl #12
 640:	13011349 	movwne	r1, #4937	; 0x1349
 644:	21170000 	tstcs	r7, r0
 648:	2f134900 	svccs	0x00134900
 64c:	1800000b 	stmdane	r0, {r0, r1, r3}
 650:	0e03012e 	adfeqsp	f0, f3, #0.5
 654:	053b0b3a 	ldreq	r0, [fp, #-2874]!	; 0xfffff4c6
 658:	19270b39 	stmdbne	r7!, {r0, r3, r4, r5, r8, r9, fp}
 65c:	01111349 	tsteq	r1, r9, asr #6
 660:	18400612 	stmdane	r0, {r1, r4, r9, sl}^
 664:	01194296 			; <UNDEFINED> instruction: 0x01194296
 668:	19000013 	stmdbne	r0, {r0, r1, r4}
 66c:	0111010b 	tsteq	r1, fp, lsl #2
 670:	13010612 	movwne	r0, #5650	; 0x1612
 674:	0b1a0000 	bleq	68067c <STACK_SIZE+0x67df6c>
 678:	12011101 	andne	r1, r1, #1073741824	; 0x40000000
 67c:	1b000006 	blne	69c <STACK_SIZE-0x2074>
 680:	0e03012e 	adfeqsp	f0, f3, #0.5
 684:	0b3b0b3a 	bleq	ec3374 <STACK_SIZE+0xec0c64>
 688:	19270b39 	stmdbne	r7!, {r0, r3, r4, r5, r8, r9, fp}
 68c:	01111349 	tsteq	r1, r9, asr #6
 690:	18400612 	stmdane	r0, {r1, r4, r9, sl}^
 694:	01194296 			; <UNDEFINED> instruction: 0x01194296
 698:	1c000013 	stcne	0, cr0, [r0], {19}
 69c:	08030005 	stmdaeq	r3, {r0, r2}
 6a0:	0b3b0b3a 	bleq	ec3390 <STACK_SIZE+0xec0c80>
 6a4:	13490b39 	movtne	r0, #39737	; 0x9b39
 6a8:	00001802 	andeq	r1, r0, r2, lsl #16
 6ac:	0300051d 	movweq	r0, #1309	; 0x51d
 6b0:	3b0b3a0e 	blcc	2ceef0 <STACK_SIZE+0x2cc7e0>
 6b4:	490b390b 	stmdbmi	fp, {r0, r1, r3, r8, fp, ip, sp}
 6b8:	00180213 	andseq	r0, r8, r3, lsl r2
 6bc:	00341e00 	eorseq	r1, r4, r0, lsl #28
 6c0:	0b3a0e03 	bleq	e83ed4 <STACK_SIZE+0xe817c4>
 6c4:	0b390b3b 	bleq	e433b8 <STACK_SIZE+0xe40ca8>
 6c8:	18021349 	stmdane	r2, {r0, r3, r6, r8, r9, ip}
 6cc:	341f0000 	ldrcc	r0, [pc], #-0	; 6d4 <STACK_SIZE-0x203c>
 6d0:	3a080300 	bcc	2012d8 <STACK_SIZE+0x1febc8>
 6d4:	390b3b0b 	stmdbcc	fp, {r0, r1, r3, r8, r9, fp, ip, sp}
 6d8:	0213490b 	andseq	r4, r3, #180224	; 0x2c000
 6dc:	20000018 	andcs	r0, r0, r8, lsl r0
 6e0:	0e03012e 	adfeqsp	f0, f3, #0.5
 6e4:	0b3b0b3a 	bleq	ec33d4 <STACK_SIZE+0xec0cc4>
 6e8:	19270b39 	stmdbne	r7!, {r0, r3, r4, r5, r8, r9, fp}
 6ec:	01111349 	tsteq	r1, r9, asr #6
 6f0:	18400612 	stmdane	r0, {r1, r4, r9, sl}^
 6f4:	01194297 			; <UNDEFINED> instruction: 0x01194297
 6f8:	21000013 	tstcs	r0, r3, lsl r0
 6fc:	0e03012e 	adfeqsp	f0, f3, #0.5
 700:	0b3b0b3a 	bleq	ec33f0 <STACK_SIZE+0xec0ce0>
 704:	19270b39 	stmdbne	r7!, {r0, r3, r4, r5, r8, r9, fp}
 708:	06120111 			; <UNDEFINED> instruction: 0x06120111
 70c:	42961840 	addsmi	r1, r6, #64, 16	; 0x400000
 710:	00130119 	andseq	r0, r3, r9, lsl r1
 714:	012e2200 			; <UNDEFINED> instruction: 0x012e2200
 718:	0b3a0e03 	bleq	e83f2c <STACK_SIZE+0xe8181c>
 71c:	0b390b3b 	bleq	e43410 <STACK_SIZE+0xe40d00>
 720:	01111927 	tsteq	r1, r7, lsr #18
 724:	18400612 	stmdane	r0, {r1, r4, r9, sl}^
 728:	01194297 			; <UNDEFINED> instruction: 0x01194297
 72c:	23000013 	movwcs	r0, #19
 730:	193f012e 	ldmdbne	pc!, {r1, r2, r3, r5, r8}	; <UNPREDICTABLE>
 734:	0b3a0e03 	bleq	e83f48 <STACK_SIZE+0xe81838>
 738:	0b390b3b 	bleq	e4342c <STACK_SIZE+0xe40d1c>
 73c:	01111927 	tsteq	r1, r7, lsr #18
 740:	18400612 	stmdane	r0, {r1, r4, r9, sl}^
 744:	01194296 			; <UNDEFINED> instruction: 0x01194296
 748:	24000013 	strcs	r0, [r0], #-19	; 0xffffffed
 74c:	0e03012e 	adfeqsp	f0, f3, #0.5
 750:	0b3b0b3a 	bleq	ec3440 <STACK_SIZE+0xec0d30>
 754:	19270b39 	stmdbne	r7!, {r0, r3, r4, r5, r8, r9, fp}
 758:	01111349 	tsteq	r1, r9, asr #6
 75c:	18400612 	stmdane	r0, {r1, r4, r9, sl}^
 760:	00194297 	mulseq	r9, r7, r2
 764:	11010000 	mrsne	r0, (UNDEF: 1)
 768:	130e2501 	movwne	r2, #58625	; 0xe501
 76c:	1b0e030b 	blne	3813a0 <STACK_SIZE+0x37ec90>
 770:	1201110e 	andne	r1, r1, #-2147483645	; 0x80000003
 774:	00171006 	andseq	r1, r7, r6
 778:	00240200 	eoreq	r0, r4, r0, lsl #4
 77c:	0b3e0b0b 	bleq	f833b0 <STACK_SIZE+0xf80ca0>
 780:	00000e03 	andeq	r0, r0, r3, lsl #28
 784:	03001603 	movweq	r1, #1539	; 0x603
 788:	3b0b3a0e 	blcc	2cefc8 <STACK_SIZE+0x2cc8b8>
 78c:	490b390b 	stmdbmi	fp, {r0, r1, r3, r8, fp, ip, sp}
 790:	04000013 	streq	r0, [r0], #-19	; 0xffffffed
 794:	0b0b0024 	bleq	2c082c <STACK_SIZE+0x2be11c>
 798:	08030b3e 	stmdaeq	r3, {r1, r2, r3, r4, r5, r8, r9, fp}
 79c:	04050000 	streq	r0, [r5], #-0
 7a0:	0b0b3e01 	bleq	2cffac <STACK_SIZE+0x2cd89c>
 7a4:	3a13490b 	bcc	4d2bd8 <STACK_SIZE+0x4d04c8>
 7a8:	390b3b0b 	stmdbcc	fp, {r0, r1, r3, r8, r9, fp, ip, sp}
 7ac:	0013010b 	andseq	r0, r3, fp, lsl #2
 7b0:	00280600 	eoreq	r0, r8, r0, lsl #12
 7b4:	0b1c0e03 	bleq	703fc8 <STACK_SIZE+0x7018b8>
 7b8:	28070000 	stmdacs	r7, {}	; <UNPREDICTABLE>
 7bc:	1c080300 	stcne	3, cr0, [r8], {-0}
 7c0:	0800000b 	stmdaeq	r0, {r0, r1, r3}
 7c4:	0b0b0113 	bleq	2c0c18 <STACK_SIZE+0x2be508>
 7c8:	0b3b0b3a 	bleq	ec34b8 <STACK_SIZE+0xec0da8>
 7cc:	13010b39 	movwne	r0, #6969	; 0x1b39
 7d0:	0d090000 	stceq	0, cr0, [r9, #-0]
 7d4:	3a080300 	bcc	2013dc <STACK_SIZE+0x1feccc>
 7d8:	390b3b0b 	stmdbcc	fp, {r0, r1, r3, r8, r9, fp, ip, sp}
 7dc:	3813490b 	ldmdacc	r3, {r0, r1, r3, r8, fp, lr}
 7e0:	0a00000b 	beq	814 <STACK_SIZE-0x1efc>
 7e4:	0e03000d 	cdpeq	0, 0, cr0, cr3, cr13, {0}
 7e8:	0b3b0b3a 	bleq	ec34d8 <STACK_SIZE+0xec0dc8>
 7ec:	13490b39 	movtne	r0, #39737	; 0x9b39
 7f0:	00000b38 	andeq	r0, r0, r8, lsr fp
 7f4:	0300340b 	movweq	r3, #1035	; 0x40b
 7f8:	3b0b3a0e 	blcc	2cf038 <STACK_SIZE+0x2cc928>
 7fc:	490b390b 	stmdbmi	fp, {r0, r1, r3, r8, fp, ip, sp}
 800:	02193f13 	andseq	r3, r9, #76	; 0x4c
 804:	0c000018 	stceq	0, cr0, [r0], {24}
 808:	193f002e 	ldmdbne	pc!, {r1, r2, r3, r5}	; <UNPREDICTABLE>
 80c:	0b3a0e03 	bleq	e84020 <STACK_SIZE+0xe81910>
 810:	0b390b3b 	bleq	e43504 <STACK_SIZE+0xe40df4>
 814:	13491927 	movtne	r1, #39207	; 0x9927
 818:	06120111 			; <UNDEFINED> instruction: 0x06120111
 81c:	42961840 	addsmi	r1, r6, #64, 16	; 0x400000
 820:	0d000019 	stceq	0, cr0, [r0, #-100]	; 0xffffff9c
 824:	193f012e 	ldmdbne	pc!, {r1, r2, r3, r5, r8}	; <UNPREDICTABLE>
 828:	0b3a0e03 	bleq	e8403c <STACK_SIZE+0xe8192c>
 82c:	0b390b3b 	bleq	e43520 <STACK_SIZE+0xe40e10>
 830:	01111927 	tsteq	r1, r7, lsr #18
 834:	18400612 	stmdane	r0, {r1, r4, r9, sl}^
 838:	01194296 			; <UNDEFINED> instruction: 0x01194296
 83c:	0e000013 	mcreq	0, 0, r0, cr0, cr3, {0}
 840:	08030005 	stmdaeq	r3, {r0, r2}
 844:	0b3b0b3a 	bleq	ec3534 <STACK_SIZE+0xec0e24>
 848:	13490b39 	movtne	r0, #39737	; 0x9b39
 84c:	00001802 	andeq	r1, r0, r2, lsl #16
 850:	3f002e0f 	svccc	0x00002e0f
 854:	3a0e0319 	bcc	3814c0 <STACK_SIZE+0x37edb0>
 858:	390b3b0b 	stmdbcc	fp, {r0, r1, r3, r8, r9, fp, ip, sp}
 85c:	4919270b 	ldmdbmi	r9, {r0, r1, r3, r8, r9, sl, sp}
 860:	12011113 	andne	r1, r1, #-1073741820	; 0xc0000004
 864:	97184006 	ldrls	r4, [r8, -r6]
 868:	00001942 	andeq	r1, r0, r2, asr #18
 86c:	03002e10 	movweq	r2, #3600	; 0xe10
 870:	3b0b3a0e 	blcc	2cf0b0 <STACK_SIZE+0x2cc9a0>
 874:	270b390b 	strcs	r3, [fp, -fp, lsl #18]
 878:	11134919 	tstne	r3, r9, lsl r9
 87c:	40061201 	andmi	r1, r6, r1, lsl #4
 880:	19429718 	stmdbne	r2, {r3, r4, r8, r9, sl, ip, pc}^
 884:	05110000 	ldreq	r0, [r1, #-0]
 888:	3a0e0300 	bcc	381490 <STACK_SIZE+0x37ed80>
 88c:	390b3b0b 	stmdbcc	fp, {r0, r1, r3, r8, r9, fp, ip, sp}
 890:	0213490b 	andseq	r4, r3, #180224	; 0x2c000
 894:	12000018 	andne	r0, r0, #24, 0
 898:	0e030034 	mcreq	0, 0, r0, cr3, cr4, {1}
 89c:	0b3b0b3a 	bleq	ec358c <STACK_SIZE+0xec0e7c>
 8a0:	13490b39 	movtne	r0, #39737	; 0x9b39
 8a4:	00001802 	andeq	r1, r0, r2, lsl #16
 8a8:	0b000f13 	bleq	44fc <STACK_SIZE+0x1dec>
 8ac:	0013490b 	andseq	r4, r3, fp, lsl #18
 8b0:	012e1400 			; <UNDEFINED> instruction: 0x012e1400
 8b4:	0b3a0e03 	bleq	e840c8 <STACK_SIZE+0xe819b8>
 8b8:	0b390b3b 	bleq	e435ac <STACK_SIZE+0xe40e9c>
 8bc:	13491927 	movtne	r1, #39207	; 0x9927
 8c0:	06120111 			; <UNDEFINED> instruction: 0x06120111
 8c4:	42961840 	addsmi	r1, r6, #64, 16	; 0x400000
 8c8:	00130119 	andseq	r0, r3, r9, lsl r1
 8cc:	012e1500 			; <UNDEFINED> instruction: 0x012e1500
 8d0:	0b3a0e03 	bleq	e840e4 <STACK_SIZE+0xe819d4>
 8d4:	0b390b3b 	bleq	e435c8 <STACK_SIZE+0xe40eb8>
 8d8:	13491927 	movtne	r1, #39207	; 0x9927
 8dc:	06120111 			; <UNDEFINED> instruction: 0x06120111
 8e0:	42971840 	addsmi	r1, r7, #64, 16	; 0x400000
 8e4:	16000019 			; <UNDEFINED> instruction: 0x16000019
 8e8:	08030034 	stmdaeq	r3, {r2, r4, r5}
 8ec:	0b3b0b3a 	bleq	ec35dc <STACK_SIZE+0xec0ecc>
 8f0:	13490b39 	movtne	r0, #39737	; 0x9b39
 8f4:	00001802 	andeq	r1, r0, r2, lsl #16
	...

Disassembly of section .debug_aranges:

00000000 <.debug_aranges>:
   0:	0000001c 	andeq	r0, r0, ip, lsl r0
   4:	00000002 	andeq	r0, r0, r2
   8:	00040000 	andeq	r0, r4, r0
   c:	00000000 	andeq	r0, r0, r0
  10:	2000011c 	andcs	r0, r0, ip, lsl r1
  14:	000000e8 	andeq	r0, r0, r8, ror #1
	...
  20:	00000024 	andeq	r0, r0, r4, lsr #32
  24:	023b0002 	eorseq	r0, fp, #2, 0
  28:	00040000 	andeq	r0, r4, r0
  2c:	00000000 	andeq	r0, r0, r0
  30:	20000000 	andcs	r0, r0, r0
  34:	00000074 	andeq	r0, r0, r4, ror r0
  38:	20000100 	andcs	r0, r0, r0, lsl #2
  3c:	0000001c 	andeq	r0, r0, ip, lsl r0
	...
  48:	0000001c 	andeq	r0, r0, ip, lsl r0
  4c:	025d0002 	subseq	r0, sp, #2, 0
  50:	00040000 	andeq	r0, r4, r0
  54:	00000000 	andeq	r0, r0, r0
  58:	20000204 	andcs	r0, r0, r4, lsl #4
  5c:	00000080 	andeq	r0, r0, r0, lsl #1
	...
  68:	0000001c 	andeq	r0, r0, ip, lsl r0
  6c:	04090002 	streq	r0, [r9], #-2
  70:	00040000 	andeq	r0, r4, r0
  74:	00000000 	andeq	r0, r0, r0
  78:	20000284 	andcs	r0, r0, r4, lsl #5
  7c:	0000023c 	andeq	r0, r0, ip, lsr r2
	...
  88:	0000001c 	andeq	r0, r0, ip, lsl r0
  8c:	07560002 	ldrbeq	r0, [r6, -r2]
  90:	00040000 	andeq	r0, r4, r0
  94:	00000000 	andeq	r0, r0, r0
  98:	200004c0 	andcs	r0, r0, r0, asr #9
  9c:	000001b8 			; <UNDEFINED> instruction: 0x000001b8
	...
  a8:	0000001c 	andeq	r0, r0, ip, lsl r0
  ac:	09070002 	stmdbeq	r7, {r1}
  b0:	00040000 	andeq	r0, r4, r0
  b4:	00000000 	andeq	r0, r0, r0
  b8:	20000678 	andcs	r0, r0, r8, ror r6
  bc:	00000110 	andeq	r0, r0, r0, lsl r1
	...
  c8:	0000001c 	andeq	r0, r0, ip, lsl r0
  cc:	0acf0002 	beq	ff3c00dc <__bss_end__+0xdf3b10bc>
  d0:	00040000 	andeq	r0, r4, r0
  d4:	00000000 	andeq	r0, r0, r0
  d8:	20000788 	andcs	r0, r0, r8, lsl #15
  dc:	00000d44 	andeq	r0, r0, r4, asr #26
	...
  e8:	0000001c 	andeq	r0, r0, ip, lsl r0
  ec:	16b00002 	ldrtne	r0, [r0], r2
  f0:	00040000 	andeq	r0, r4, r0
  f4:	00000000 	andeq	r0, r0, r0
  f8:	200014cc 	andcs	r1, r0, ip, asr #9
  fc:	0000025a 	andeq	r0, r0, sl, asr r2
	...

Disassembly of section .debug_line:

00000000 <.debug_line>:
       0:	0000014c 	andeq	r0, r0, ip, asr #2
       4:	00ca0003 	sbceq	r0, sl, r3
       8:	01020000 	mrseq	r0, (UNDEF: 2)
       c:	000d0efb 	strdeq	r0, [sp], -fp
      10:	01010101 	tsteq	r1, r1, lsl #2
      14:	01000000 	mrseq	r0, (UNDEF: 0)
      18:	2f010000 	svccs	0x00010000
      1c:	2f727375 	svccs	0x00727375
      20:	61636f6c 	cmnvs	r3, ip, ror #30
      24:	65432f6c 	strbvs	r2, [r3, #-3948]	; 0xfffff094
      28:	72616c6c 	rsbvc	r6, r1, #108, 24	; 0x6c00
      2c:	6d72612f 	ldfvse	f6, [r2, #-188]!	; 0xffffff44
      30:	6e6f6e2d 	cdpvs	14, 6, cr6, cr15, cr13, {1}
      34:	61652d65 	cmnvs	r5, r5, ror #26
      38:	742d6962 	strtvc	r6, [sp], #-2402	; 0xfffff69e
      3c:	2f747365 	svccs	0x00747365
      40:	30322d39 	eorscc	r2, r2, r9, lsr sp
      44:	34713931 	ldrbtcc	r3, [r1], #-2353	; 0xfffff6cf
      48:	3173632d 	cmncc	r3, sp, lsr #6
      4c:	2f653730 	svccs	0x00653730
      50:	2f62696c 	svccs	0x0062696c
      54:	2f636367 	svccs	0x00636367
      58:	2d6d7261 	sfmcs	f7, 2, [sp, #-388]!	; 0xfffffe7c
      5c:	656e6f6e 	strbvs	r6, [lr, #-3950]!	; 0xfffff092
      60:	6261652d 	rsbvs	r6, r1, #188743680	; 0xb400000
      64:	2e392f69 	cdpcs	15, 3, cr2, cr9, cr9, {3}
      68:	2f312e32 	svccs	0x00312e32
      6c:	6c636e69 	stclvs	14, cr6, [r3], #-420	; 0xfffffe5c
      70:	00656475 	rsbeq	r6, r5, r5, ror r4
      74:	2e2f2e2e 	cdpcs	14, 2, cr2, cr15, cr14, {1}
      78:	696c2f2e 	stmdbvs	ip!, {r1, r2, r3, r5, r8, r9, sl, fp, sp}^
      7c:	2f697062 	svccs	0x00697062
      80:	6c636e69 	stclvs	14, cr6, [r3], #-420	; 0xfffffe5c
      84:	00656475 	rsbeq	r6, r5, r5, ror r4
      88:	6e657300 	cdpvs	3, 6, cr7, cr5, cr0, {0}
      8c:	6c625f64 	stclvs	15, cr5, [r2], #-400	; 0xfffffe70
      90:	2e6b6e69 	cdpcs	14, 6, cr6, cr11, cr9, {3}
      94:	00000063 	andeq	r0, r0, r3, rrx
      98:	64747300 	ldrbtvs	r7, [r4], #-768	; 0xfffffd00
      9c:	2d746e69 	ldclcs	14, cr6, [r4, #-420]!	; 0xfffffe5c
      a0:	2e636367 	cdpcs	3, 6, cr6, cr3, cr7, {3}
      a4:	00010068 	andeq	r0, r1, r8, rrx
      a8:	2d777300 	ldclcs	3, cr7, [r7, #-0]
      ac:	74726175 	ldrbtvc	r6, [r2], #-373	; 0xfffffe8b
      b0:	0200682e 	andeq	r6, r0, #3014656	; 0x2e0000
      b4:	61750000 	cmnvs	r5, r0
      b8:	682e7472 	stmdavs	lr!, {r1, r4, r5, r6, sl, ip, sp, lr}
      bc:	00000200 	andeq	r0, r0, r0, lsl #4
      c0:	6f697067 	svcvs	0x00697067
      c4:	0200682e 	andeq	r6, r0, #3014656	; 0x2e0000
      c8:	69700000 	ldmdbvs	r0!, {}^	; <UNPREDICTABLE>
      cc:	00682e6f 	rsbeq	r2, r8, pc, ror #28
      d0:	00000000 	andeq	r0, r0, r0
      d4:	05000e05 	streq	r0, [r0, #-3589]	; 0xfffff1fb
      d8:	00011c02 	andeq	r1, r1, r2, lsl #24
      dc:	01100320 	tsteq	r0, r0, lsr #6
      e0:	303e0505 	eorscc	r0, lr, r5, lsl #10
      e4:	4c090530 	cfstr32mi	mvfx0, [r9], {48}	; 0x30
      e8:	052f0e05 	streq	r0, [pc, #-3589]!	; fffff2eb <__bss_end__+0xdfff02cb>
      ec:	23052e05 	movwcs	r2, #24069	; 0x5e05
      f0:	03040200 	movweq	r0, #16896	; 0x4200
      f4:	00090521 	andeq	r0, r9, r1, lsr #10
      f8:	58030402 	stmdapl	r3, {r1, sl}
      fc:	02003e05 	andeq	r3, r0, #80	; 0x50
     100:	05200304 	streq	r0, [r0, #-772]!	; 0xfffffcfc
     104:	04020009 	streq	r0, [r2], #-9
     108:	3e054a03 	vmlacc.f32	s8, s10, s6
     10c:	03040200 	movweq	r0, #16896	; 0x4200
     110:	0009053d 	andeq	r0, r9, sp, lsr r5
     114:	4a030402 	bmi	c1124 <STACK_SIZE+0xbea14>
     118:	02002005 	andeq	r2, r0, #5, 0
     11c:	05640304 	strbeq	r0, [r4, #-772]!	; 0xfffffcfc
     120:	04020005 	streq	r0, [r2], #-5
     124:	4d4f3c01 	stclmi	12, cr3, [pc, #-4]	; 128 <STACK_SIZE-0x25e8>
     128:	0559673f 	ldrbeq	r6, [r9, #-1855]	; 0xfffff8c1
     12c:	04020009 	streq	r0, [r2], #-9
     130:	02004c01 	andeq	r4, r0, #256	; 0x100
     134:	00750104 	rsbseq	r0, r5, r4, lsl #2
     138:	4b010402 	blmi	41148 <STACK_SIZE+0x3ea38>
     13c:	01040200 	mrseq	r0, R12_usr
     140:	0402004b 	streq	r0, [r2], #-75	; 0xffffffb5
     144:	02005901 	andeq	r5, r0, #16384	; 0x4000
     148:	02460104 	subeq	r0, r6, #1
     14c:	01010018 	tsteq	r1, r8, lsl r0
     150:	0000007d 	andeq	r0, r0, sp, ror r0
     154:	001e0003 	andseq	r0, lr, r3
     158:	01020000 	mrseq	r0, (UNDEF: 2)
     15c:	000d0efb 	strdeq	r0, [sp], -fp
     160:	01010101 	tsteq	r1, r1, lsl #2
     164:	01000000 	mrseq	r0, (UNDEF: 0)
     168:	00010000 	andeq	r0, r1, r0
     16c:	72617473 	rsbvc	r7, r1, #1929379840	; 0x73000000
     170:	00532e74 	subseq	r2, r3, r4, ror lr
     174:	00000000 	andeq	r0, r0, r0
     178:	00020500 	andeq	r0, r2, r0, lsl #10
     17c:	03200000 	nopeq	{0}	; <UNPREDICTABLE>
     180:	2121010c 			; <UNDEFINED> instruction: 0x2121010c
     184:	23212123 			; <UNDEFINED> instruction: 0x23212123
     188:	21232121 			; <UNDEFINED> instruction: 0x21232121
     18c:	21212321 			; <UNDEFINED> instruction: 0x21212321
     190:	22212123 	eorcs	r2, r1, #-1073741816	; 0xc0000008
     194:	21222221 			; <UNDEFINED> instruction: 0x21222221
     198:	21212121 			; <UNDEFINED> instruction: 0x21212121
     19c:	56032122 	strpl	r2, [r3], -r2, lsr #2
     1a0:	2f322f2e 	svccs	0x00322f2e
     1a4:	2f322f32 	svccs	0x00322f32
     1a8:	2f313432 	svccs	0x00313432
     1ac:	2e090330 	mcrcs	3, 0, r0, cr9, cr0, {1}
     1b0:	01000202 	tsteq	r0, r2, lsl #4
     1b4:	02050001 	andeq	r0, r5, #1, 0
     1b8:	20000100 	andcs	r0, r0, r0, lsl #2
     1bc:	21013f03 	tstcs	r1, r3, lsl #30
     1c0:	21252f21 			; <UNDEFINED> instruction: 0x21252f21
     1c4:	21262125 			; <UNDEFINED> instruction: 0x21262125
     1c8:	20690321 	rsbcs	r0, r9, r1, lsr #6
     1cc:	01000202 	tsteq	r0, r2, lsl #4
     1d0:	0000f201 	andeq	pc, r0, r1, lsl #4
     1d4:	b6000300 	strlt	r0, [r0], -r0, lsl #6
     1d8:	02000000 	andeq	r0, r0, #0, 0
     1dc:	0d0efb01 	vstreq	d15, [lr, #-4]
     1e0:	01010100 	mrseq	r0, (UNDEF: 17)
     1e4:	00000001 	andeq	r0, r0, r1
     1e8:	01000001 	tsteq	r0, r1
     1ec:	00637273 	rsbeq	r7, r3, r3, ror r2
     1f0:	6c636e69 	stclvs	14, cr6, [r3], #-420	; 0xfffffe5c
     1f4:	00656475 	rsbeq	r6, r5, r5, ror r4
     1f8:	7273752f 	rsbsvc	r7, r3, #197132288	; 0xbc00000
     1fc:	636f6c2f 	cmnvs	pc, #12032	; 0x2f00
     200:	432f6c61 			; <UNDEFINED> instruction: 0x432f6c61
     204:	616c6c65 	cmnvs	ip, r5, ror #24
     208:	72612f72 	rsbvc	r2, r1, #456	; 0x1c8
     20c:	6f6e2d6d 	svcvs	0x006e2d6d
     210:	652d656e 	strvs	r6, [sp, #-1390]!	; 0xfffffa92
     214:	2d696261 	sfmcs	f6, 2, [r9, #-388]!	; 0xfffffe7c
     218:	74736574 	ldrbtvc	r6, [r3], #-1396	; 0xfffffa8c
     21c:	322d392f 	eorcc	r3, sp, #770048	; 0xbc000
     220:	71393130 	teqvc	r9, r0, lsr r1
     224:	73632d34 	cmnvc	r3, #52, 26	; 0xd00
     228:	65373031 	ldrvs	r3, [r7, #-49]!	; 0xffffffcf
     22c:	62696c2f 	rsbvs	r6, r9, #12032	; 0x2f00
     230:	6363672f 	cmnvs	r3, #12320768	; 0xbc0000
     234:	6d72612f 	ldfvse	f6, [r2, #-188]!	; 0xffffff44
     238:	6e6f6e2d 	cdpvs	14, 6, cr6, cr15, cr13, {1}
     23c:	61652d65 	cmnvs	r5, r5, ror #26
     240:	392f6962 	stmdbcc	pc!, {r1, r5, r6, r8, fp, sp, lr}	; <UNPREDICTABLE>
     244:	312e322e 			; <UNDEFINED> instruction: 0x312e322e
     248:	636e692f 	cmnvs	lr, #770048	; 0xbc000
     24c:	6564756c 	strbvs	r7, [r4, #-1388]!	; 0xfffffa94
     250:	73630000 	cmnvc	r3, #0, 0
     254:	74726174 	ldrbtvc	r6, [r2], #-372	; 0xfffffe8c
     258:	0100632e 	tsteq	r0, lr, lsr #6
     25c:	77730000 	ldrbvc	r0, [r3, -r0]!
     260:	7261752d 	rsbvc	r7, r1, #188743680	; 0xb400000
     264:	00682e74 	rsbeq	r2, r8, r4, ror lr
     268:	73000002 	movwvc	r0, #2
     26c:	6e696474 	mcrvs	4, 3, r6, cr9, cr4, {3}
     270:	63672d74 	cmnvs	r7, #116, 26	; 0x1d00
     274:	00682e63 	rsbeq	r2, r8, r3, ror #28
     278:	75000003 	strvc	r0, [r0, #-3]
     27c:	2e747261 	cdpcs	2, 7, cr7, cr4, cr1, {3}
     280:	00020068 	andeq	r0, r2, r8, rrx
     284:	6f6c6300 	svcvs	0x006c6300
     288:	682e6b63 	stmdavs	lr!, {r0, r1, r5, r6, r8, r9, fp, sp, lr}
     28c:	00000200 	andeq	r0, r0, r0, lsl #4
     290:	000f0500 	andeq	r0, pc, r0, lsl #10
     294:	02040205 	andeq	r0, r4, #1342177280	; 0x50000000
     298:	09032000 	stmdbeq	r3, {sp}
     29c:	052f3f01 	streq	r3, [pc, #-3841]!	; fffff3a3 <__bss_end__+0xdfff0383>
     2a0:	0d052f0b 	stceq	15, cr2, [r5, #-44]	; 0xffffffd4
     2a4:	3c100521 	cfldr32cc	mvfx0, [r0], {33}	; 0x21
     2a8:	052d0b05 	streq	r0, [sp, #-2821]!	; 0xfffff4fb
     2ac:	763d4d05 	ldrtvc	r4, [sp], -r5, lsl #26
     2b0:	2f17052f 	svccs	0x0017052f
     2b4:	3d1e053d 	cfldr32cc	mvfx0, [lr, #-244]	; 0xffffff0c
     2b8:	054b1a05 	strbeq	r1, [fp, #-2565]	; 0xfffff5fb
     2bc:	054c3d05 	strbeq	r3, [ip, #-3333]	; 0xfffff2fb
     2c0:	0e022f01 	cdpeq	15, 0, cr2, cr2, cr1, {0}
     2c4:	8a010100 	bhi	406cc <STACK_SIZE+0x3dfbc>
     2c8:	03000001 	movweq	r0, #1
     2cc:	00009c00 	andeq	r9, r0, r0, lsl #24
     2d0:	fb010200 	blx	40ada <STACK_SIZE+0x3e3ca>
     2d4:	01000d0e 	tsteq	r0, lr, lsl #26
     2d8:	00010101 	andeq	r0, r1, r1, lsl #2
     2dc:	00010000 	andeq	r0, r1, r0
     2e0:	72730100 	rsbsvc	r0, r3, #0
     2e4:	6e690063 	cdpvs	0, 6, cr0, cr9, cr3, {3}
     2e8:	64756c63 	ldrbtvs	r6, [r5], #-3171	; 0xfffff39d
     2ec:	752f0065 	strvc	r0, [pc, #-101]!	; 28f <STACK_SIZE-0x2481>
     2f0:	6c2f7273 	sfmvs	f7, 4, [pc], #-460	; 12c <STACK_SIZE-0x25e4>
     2f4:	6c61636f 	stclvs	3, cr6, [r1], #-444	; 0xfffffe44
     2f8:	6c65432f 	stclvs	3, cr4, [r5], #-188	; 0xffffff44
     2fc:	2f72616c 	svccs	0x0072616c
     300:	2d6d7261 	sfmcs	f7, 2, [sp, #-388]!	; 0xfffffe7c
     304:	656e6f6e 	strbvs	r6, [lr, #-3950]!	; 0xfffff092
     308:	6261652d 	rsbvs	r6, r1, #188743680	; 0xb400000
     30c:	65742d69 	ldrbvs	r2, [r4, #-3433]!	; 0xfffff297
     310:	392f7473 	stmdbcc	pc!, {r0, r1, r4, r5, r6, sl, ip, sp, lr}	; <UNPREDICTABLE>
     314:	3130322d 	teqcc	r0, sp, lsr #4
     318:	2d347139 	ldfcss	f7, [r4, #-228]!	; 0xffffff1c
     31c:	30317363 	eorscc	r7, r1, r3, ror #6
     320:	6c2f6537 	cfstr32vs	mvfx6, [pc], #-220	; 24c <STACK_SIZE-0x24c4>
     324:	672f6269 	strvs	r6, [pc, -r9, ror #4]!
     328:	612f6363 			; <UNDEFINED> instruction: 0x612f6363
     32c:	6e2d6d72 	mcrvs	13, 1, r6, cr13, cr2, {3}
     330:	2d656e6f 	stclcs	14, cr6, [r5, #-444]!	; 0xfffffe44
     334:	69626165 	stmdbvs	r2!, {r0, r2, r5, r6, r8, sp, lr}^
     338:	322e392f 	eorcc	r3, lr, #770048	; 0xbc000
     33c:	692f312e 	stmdbvs	pc!, {r1, r2, r3, r5, r8, ip, sp}	; <UNPREDICTABLE>
     340:	756c636e 	strbvc	r6, [ip, #-878]!	; 0xfffffc92
     344:	00006564 	andeq	r6, r0, r4, ror #10
     348:	6f697067 	svcvs	0x00697067
     34c:	0100632e 	tsteq	r0, lr, lsr #6
     350:	70670000 	rsbvc	r0, r7, r0
     354:	682e6f69 	stmdavs	lr!, {r0, r3, r5, r6, r8, r9, sl, fp, sp, lr}
     358:	00000200 	andeq	r0, r0, r0, lsl #4
     35c:	69647473 	stmdbvs	r4!, {r0, r1, r4, r5, r6, sl, ip, sp, lr}^
     360:	672d746e 	strvs	r7, [sp, -lr, ror #8]!
     364:	682e6363 	stmdavs	lr!, {r0, r1, r5, r6, r8, r9, sp, lr}
     368:	00000300 	andeq	r0, r0, r0, lsl #6
     36c:	00210500 	eoreq	r0, r1, r0, lsl #10
     370:	02840205 	addeq	r0, r4, #1342177280	; 0x50000000
     374:	4b1a2000 	blmi	68837c <STACK_SIZE+0x685c6c>
     378:	054a0505 	strbeq	r0, [sl, #-1285]	; 0xfffffafb
     37c:	0e05670a 	cdpeq	7, 0, cr6, cr5, cr10, {0}
     380:	01040200 	mrseq	r0, R12_usr
     384:	00200520 	eoreq	r0, r0, r0, lsr #10
     388:	58010402 	stmdapl	r1, {r1, sl}
     38c:	02002805 	andeq	r2, r0, #327680	; 0x50000
     390:	053c0104 	ldreq	r0, [ip, #-260]!	; 0xfffffefc
     394:	0402000a 	streq	r0, [r2], #-10
     398:	01052e01 	tsteq	r5, r1, lsl #28
     39c:	a0130521 	andsge	r0, r3, r1, lsr #10
     3a0:	052f0505 	streq	r0, [pc, #-1285]!	; fffffea3 <__bss_end__+0xdfff0e83>
     3a4:	39053d01 	stmdbcc	r5, {r0, r8, sl, fp, ip, sp}
     3a8:	5908053e 	stmdbpl	r8, {r1, r2, r3, r4, r5, r8, sl}
     3ac:	3f0e053f 	svccc	0x000e053f
     3b0:	053d0505 	ldreq	r0, [sp, #-1285]!	; 0xfffffafb
     3b4:	9e7a0309 	cdpls	3, 7, cr0, cr10, cr9, {0}
     3b8:	24010531 	strcs	r0, [r1], #-1329	; 0xfffffacf
     3bc:	055a2305 	ldrbeq	r2, [sl, #-773]	; 0xfffffcfb
     3c0:	0e054b08 	vmlaeq.f64	d4, d5, d8
     3c4:	3d05053f 	cfstr32cc	mvfx0, [r5, #-252]	; 0xffffff04
     3c8:	62090583 	andvs	r0, r9, #549453824	; 0x20c00000
     3cc:	05250105 	streq	r0, [r5, #-261]!	; 0xfffffefb
     3d0:	08057622 	stmdaeq	r5, {r1, r5, r9, sl, ip, sp, lr}
     3d4:	3d10054b 	cfldr32cc	mvfx0, [r0, #-300]	; 0xfffffed4
     3d8:	05300d05 	ldreq	r0, [r0, #-3333]!	; 0xfffff2fb
     3dc:	2405581c 	strcs	r5, [r5], #-2076	; 0xfffff7e4
     3e0:	2f01053c 	svccs	0x0001053c
     3e4:	05762405 	ldrbeq	r2, [r6, #-1029]!	; 0xfffffbfb
     3e8:	0e054c08 	cdpeq	12, 0, cr4, cr5, cr8, {0}
     3ec:	3d1a053f 	cfldr32cc	mvfx0, [sl, #-252]	; 0xffffff04
     3f0:	054a0505 	strbeq	r0, [sl, #-1285]	; 0xfffffafb
     3f4:	0505671b 	streq	r6, [r5, #-1819]	; 0xfffff8e5
     3f8:	1a05674a 	bne	15a128 <STACK_SIZE+0x157a18>
     3fc:	4a050583 	bmi	141a10 <STACK_SIZE+0x13f300>
     400:	7a030905 	bvc	c281c <STACK_SIZE+0xc010c>
     404:	27010574 	smlsdxcs	r1, r4, r5, r0
     408:	05bd2005 	ldreq	r2, [sp, #5]!
     40c:	1b054b08 	blne	153034 <STACK_SIZE+0x150924>
     410:	4a05053f 	bmi	141914 <STACK_SIZE+0x13f204>
     414:	05720905 	ldrbeq	r0, [r2, #-2309]!	; 0xfffff6fb
     418:	21052301 	tstcs	r5, r1, lsl #6
     41c:	4b08055a 	blmi	20198c <STACK_SIZE+0x1ff27c>
     420:	053f1b05 	ldreq	r1, [pc, #-2821]!	; fffff923 <__bss_end__+0xdfff0903>
     424:	09054a05 	stmdbeq	r5, {r0, r2, r9, fp, lr}
     428:	23010572 	movwcs	r0, #5490	; 0x1572
     42c:	055b1305 	ldrbeq	r1, [fp, #-773]	; 0xfffffcfb
     430:	01052f05 	tsteq	r5, r5, lsl #30
     434:	3e12053d 	mrccc	5, 0, r0, cr2, cr13, {1}
     438:	052f0505 	streq	r0, [pc, #-1285]!	; ffffff3b <__bss_end__+0xdfff0f1b>
     43c:	1e053d01 	cdpne	13, 0, cr3, cr5, cr1, {0}
     440:	4b08053e 	blmi	201940 <STACK_SIZE+0x1ff230>
     444:	053f0e05 	ldreq	r0, [pc, #-3589]!	; fffff647 <__bss_end__+0xdfff0627>
     448:	09053d05 	stmdbeq	r5, {r0, r2, r8, sl, fp, ip, sp}
     44c:	2401058d 	strcs	r0, [r1], #-1421	; 0xfffffa73
     450:	01000602 	tsteq	r0, r2, lsl #12
     454:	00016401 	andeq	r6, r1, r1, lsl #8
     458:	9e000300 	cdpls	3, 0, cr0, cr0, cr0, {0}
     45c:	02000000 	andeq	r0, r0, #0, 0
     460:	0d0efb01 	vstreq	d15, [lr, #-4]
     464:	01010100 	mrseq	r0, (UNDEF: 17)
     468:	00000001 	andeq	r0, r0, r1
     46c:	01000001 	tsteq	r0, r1
     470:	00637273 	rsbeq	r7, r3, r3, ror r2
     474:	6c636e69 	stclvs	14, cr6, [r3], #-420	; 0xfffffe5c
     478:	00656475 	rsbeq	r6, r5, r5, ror r4
     47c:	7273752f 	rsbsvc	r7, r3, #197132288	; 0xbc00000
     480:	636f6c2f 	cmnvs	pc, #12032	; 0x2f00
     484:	432f6c61 			; <UNDEFINED> instruction: 0x432f6c61
     488:	616c6c65 	cmnvs	ip, r5, ror #24
     48c:	72612f72 	rsbvc	r2, r1, #456	; 0x1c8
     490:	6f6e2d6d 	svcvs	0x006e2d6d
     494:	652d656e 	strvs	r6, [sp, #-1390]!	; 0xfffffa92
     498:	2d696261 	sfmcs	f6, 2, [r9, #-388]!	; 0xfffffe7c
     49c:	74736574 	ldrbtvc	r6, [r3], #-1396	; 0xfffffa8c
     4a0:	322d392f 	eorcc	r3, sp, #770048	; 0xbc000
     4a4:	71393130 	teqvc	r9, r0, lsr r1
     4a8:	73632d34 	cmnvc	r3, #52, 26	; 0xd00
     4ac:	65373031 	ldrvs	r3, [r7, #-49]!	; 0xffffffcf
     4b0:	62696c2f 	rsbvs	r6, r9, #12032	; 0x2f00
     4b4:	6363672f 	cmnvs	r3, #12320768	; 0xbc0000
     4b8:	6d72612f 	ldfvse	f6, [r2, #-188]!	; 0xffffff44
     4bc:	6e6f6e2d 	cdpvs	14, 6, cr6, cr15, cr13, {1}
     4c0:	61652d65 	cmnvs	r5, r5, ror #26
     4c4:	392f6962 	stmdbcc	pc!, {r1, r5, r6, r8, fp, sp, lr}	; <UNPREDICTABLE>
     4c8:	312e322e 			; <UNDEFINED> instruction: 0x312e322e
     4cc:	636e692f 	cmnvs	lr, #770048	; 0xbc000
     4d0:	6564756c 	strbvs	r7, [r4, #-1388]!	; 0xfffffa94
     4d4:	6c630000 	stclvs	0, cr0, [r3], #-0
     4d8:	2e6b636f 	cdpcs	3, 6, cr6, cr11, cr15, {3}
     4dc:	00010063 	andeq	r0, r1, r3, rrx
     4e0:	6f6c6300 	svcvs	0x006c6300
     4e4:	682e6b63 	stmdavs	lr!, {r0, r1, r5, r6, r8, r9, fp, sp, lr}
     4e8:	00000200 	andeq	r0, r0, r0, lsl #4
     4ec:	69647473 	stmdbvs	r4!, {r0, r1, r4, r5, r6, sl, ip, sp, lr}^
     4f0:	672d746e 	strvs	r7, [sp, -lr, ror #8]!
     4f4:	682e6363 	stmdavs	lr!, {r0, r1, r5, r6, r8, r9, sp, lr}
     4f8:	00000300 	andeq	r0, r0, r0, lsl #6
     4fc:	00160500 	andseq	r0, r6, r0, lsl #10
     500:	04c00205 	strbeq	r0, [r0], #517	; 0x205
     504:	0b032000 	bleq	c850c <STACK_SIZE+0xc5dfc>
     508:	2f050501 	svccs	0x00050501
     50c:	05596859 	ldrbeq	r6, [r9, #-2137]	; 0xfffff7a7
     510:	0e05590a 	vmlaeq.f16	s10, s10, s20	; <UNPREDICTABLE>
     514:	01040200 	mrseq	r0, R12_usr
     518:	001d0520 	andseq	r0, sp, r0, lsr #10
     51c:	58010402 	stmdapl	r1, {r1, sl}
     520:	02002405 	andeq	r2, r0, #83886080	; 0x5000000
     524:	05200104 	streq	r0, [r0, #-260]!	; 0xfffffefc
     528:	0402000a 	streq	r0, [r2], #-10
     52c:	01052e01 	tsteq	r5, r1, lsl #28
     530:	cc240521 	cfstr32gt	mvfx0, [r4], #-132	; 0xffffff7c
     534:	05680e05 	strbeq	r0, [r8, #-3589]!	; 0xfffff1fb
     538:	67752f05 	ldrbvs	r2, [r5, -r5, lsl #30]!
     53c:	05690b05 	strbeq	r0, [r9, #-2821]!	; 0xfffff4fb
     540:	0402000e 	streq	r0, [r2], #-14
     544:	0b052001 	bleq	148550 <STACK_SIZE+0x145e40>
     548:	01040200 	mrseq	r0, R12_usr
     54c:	22080558 	andcs	r0, r8, #88, 10	; 0x16000000
     550:	594b0905 	stmdbpl	fp, {r0, r2, r8, fp}^
     554:	055a0105 	ldrbeq	r0, [sl, #-261]	; 0xfffffefb
     558:	0812031c 	ldmdaeq	r2, {r2, r3, r4, r8, r9}
     55c:	4b1e0520 	blmi	7819e4 <STACK_SIZE+0x77f2d4>
     560:	2f580e05 	svccs	0x00580e05
     564:	052e0505 	streq	r0, [lr, #-1285]!	; 0xfffffafb
     568:	0f052109 	svceq	0x00052109
     56c:	00110559 	andseq	r0, r1, r9, asr r5
     570:	20010402 	andcs	r0, r1, r2, lsl #8
     574:	02002305 	andeq	r2, r0, #335544320	; 0x14000000
     578:	05580104 	ldrbeq	r0, [r8, #-260]	; 0xfffffefc
     57c:	0402000f 	streq	r0, [r2], #-15
     580:	25052e01 	strcs	r2, [r5, #-3585]	; 0xfffff1ff
     584:	02040200 	andeq	r0, r4, #0, 4
     588:	0017051e 	andseq	r0, r7, lr, lsl r5
     58c:	3c010402 	cfstrscc	mvf0, [r1], {2}
     590:	02000505 	andeq	r0, r0, #20971520	; 0x1400000
     594:	05200104 	streq	r0, [r0, #-260]!	; 0xfffffefc
     598:	2a054001 	bcs	1505a4 <STACK_SIZE+0x14de94>
     59c:	05900e03 	ldreq	r0, [r0, #3587]	; 0xe03
     5a0:	68594b05 	ldmdavs	r9, {r0, r2, r8, r9, fp, lr}^
     5a4:	59010559 	stmdbpl	r1, {r0, r3, r4, r6, r8, sl}
     5a8:	05af2705 	streq	r2, [pc, #1797]!	; cb5 <STACK_SIZE-0x1a5b>
     5ac:	05054b08 	streq	r4, [r5, #-2824]	; 0xfffff4f8
     5b0:	0905753f 	stmdbeq	r5, {r0, r1, r2, r3, r4, r5, r8, sl, ip, sp, lr}
     5b4:	2401057f 	strcs	r0, [r1], #-1407	; 0xfffffa81
     5b8:	01000502 	tsteq	r0, r2, lsl #10
     5bc:	0000d401 	andeq	sp, r0, r1, lsl #8
     5c0:	39000300 	stmdbcc	r0, {r8, r9}
     5c4:	02000000 	andeq	r0, r0, #0, 0
     5c8:	0d0efb01 	vstreq	d15, [lr, #-4]
     5cc:	01010100 	mrseq	r0, (UNDEF: 17)
     5d0:	00000001 	andeq	r0, r0, r1
     5d4:	01000001 	tsteq	r0, r1
     5d8:	00637273 	rsbeq	r7, r3, r3, ror r2
     5dc:	6c636e69 	stclvs	14, cr6, [r3], #-420	; 0xfffffe5c
     5e0:	00656475 	rsbeq	r6, r5, r5, ror r4
     5e4:	2d777300 	ldclcs	3, cr7, [r7, #-0]
     5e8:	74726175 	ldrbtvc	r6, [r2], #-373	; 0xfffffe8b
     5ec:	0100632e 	tsteq	r0, lr, lsr #6
     5f0:	77730000 	ldrbvc	r0, [r3, -r0]!
     5f4:	7261752d 	rsbvc	r7, r1, #188743680	; 0xb400000
     5f8:	00682e74 	rsbeq	r2, r8, r4, ror lr
     5fc:	00000002 	andeq	r0, r0, r2
     600:	05003f05 	streq	r3, [r0, #-3845]	; 0xfffff0fb
     604:	00067802 	andeq	r7, r6, r2, lsl #16
     608:	08051620 	stmdaeq	r5, {r5, r9, sl, ip}
     60c:	000c0567 	andeq	r0, ip, r7, ror #10
     610:	3c010402 	cfstrscc	mvf0, [r1], {2}
     614:	05590a05 	ldrbeq	r0, [r9, #-2565]	; 0xfffff5fb
     618:	01054b05 	tsteq	r5, r5, lsl #22
     61c:	4c35054b 	cfldr32mi	mvfx0, [r5], #-300	; 0xfffffed4
     620:	05760505 	ldrbeq	r0, [r6, #-1285]!	; 0xfffffafb
     624:	0505830e 	streq	r8, [r5, #-782]	; 0xfffffcf2
     628:	0009052e 	andeq	r0, r9, lr, lsr #10
     62c:	21030402 	tstcs	r3, r2, lsl #8
     630:	02002205 	andeq	r2, r0, #1342177280	; 0x50000000
     634:	052e0304 	streq	r0, [lr, #-772]!	; 0xfffffcfc
     638:	04020009 	streq	r0, [r2], #-9
     63c:	1d055803 	stcne	8, cr5, [r5, #-12]
     640:	03040200 	movweq	r0, #16896	; 0x4200
     644:	00050581 	andeq	r0, r5, r1, lsl #11
     648:	3c010402 	cfstrscc	mvf0, [r1], {2}
     64c:	83010540 	movwhi	r0, #5440	; 0x1540
     650:	054c3505 	strbeq	r3, [ip, #-1285]	; 0xfffffafb
     654:	0505590d 	streq	r5, [r5, #-2317]	; 0xfffff6f3
     658:	001f052e 	andseq	r0, pc, lr, lsr #10
     65c:	21030402 	tstcs	r3, r2, lsl #8
     660:	02000905 	andeq	r0, r0, #81920	; 0x14000
     664:	053c0304 	ldreq	r0, [ip, #-772]!	; 0xfffffcfc
     668:	04020025 	streq	r0, [r2], #-37	; 0xffffffdb
     66c:	17056503 	strne	r6, [r5, -r3, lsl #10]
     670:	01040200 	mrseq	r0, R12_usr
     674:	0005053c 	andeq	r0, r5, ip, lsr r5
     678:	4a010402 	bmi	41688 <STACK_SIZE+0x3ef78>
     67c:	05310105 	ldreq	r0, [r1, #-261]!	; 0xfffffefb
     680:	05055a1a 	streq	r5, [r5, #-2586]	; 0xfffff5e6
     684:	053d3d3d 	ldreq	r3, [sp, #-3389]!	; 0xfffff2c3
     688:	0c053d11 	stceq	13, cr3, [r5], {17}
     68c:	21010567 	tstcs	r1, r7, ror #10
     690:	01000902 	tsteq	r0, r2, lsl #18
     694:	00079801 	andeq	r9, r7, r1, lsl #16
     698:	d6000300 	strle	r0, [r0], -r0, lsl #6
     69c:	02000000 	andeq	r0, r0, #0, 0
     6a0:	0d0efb01 	vstreq	d15, [lr, #-4]
     6a4:	01010100 	mrseq	r0, (UNDEF: 17)
     6a8:	00000001 	andeq	r0, r0, r1
     6ac:	01000001 	tsteq	r0, r1
     6b0:	6c636e69 	stclvs	14, cr6, [r3], #-420	; 0xfffffe5c
     6b4:	00656475 	rsbeq	r6, r5, r5, ror r4
     6b8:	00637273 	rsbeq	r7, r3, r3, ror r2
     6bc:	7273752f 	rsbsvc	r7, r3, #197132288	; 0xbc00000
     6c0:	636f6c2f 	cmnvs	pc, #12032	; 0x2f00
     6c4:	432f6c61 			; <UNDEFINED> instruction: 0x432f6c61
     6c8:	616c6c65 	cmnvs	ip, r5, ror #24
     6cc:	72612f72 	rsbvc	r2, r1, #456	; 0x1c8
     6d0:	6f6e2d6d 	svcvs	0x006e2d6d
     6d4:	652d656e 	strvs	r6, [sp, #-1390]!	; 0xfffffa92
     6d8:	2d696261 	sfmcs	f6, 2, [r9, #-388]!	; 0xfffffe7c
     6dc:	74736574 	ldrbtvc	r6, [r3], #-1396	; 0xfffffa8c
     6e0:	322d392f 	eorcc	r3, sp, #770048	; 0xbc000
     6e4:	71393130 	teqvc	r9, r0, lsr r1
     6e8:	73632d34 	cmnvc	r3, #52, 26	; 0xd00
     6ec:	65373031 	ldrvs	r3, [r7, #-49]!	; 0xffffffcf
     6f0:	62696c2f 	rsbvs	r6, r9, #12032	; 0x2f00
     6f4:	6363672f 	cmnvs	r3, #12320768	; 0xbc0000
     6f8:	6d72612f 	ldfvse	f6, [r2, #-188]!	; 0xffffff44
     6fc:	6e6f6e2d 	cdpvs	14, 6, cr6, cr15, cr13, {1}
     700:	61652d65 	cmnvs	r5, r5, ror #26
     704:	392f6962 	stmdbcc	pc!, {r1, r5, r6, r8, fp, sp, lr}	; <UNPREDICTABLE>
     708:	312e322e 			; <UNDEFINED> instruction: 0x312e322e
     70c:	636e692f 	cmnvs	lr, #770048	; 0xbc000
     710:	6564756c 	strbvs	r7, [r4, #-1388]!	; 0xfffffa94
     714:	6e690000 	cdpvs	0, 6, cr0, cr9, cr0, {0}
     718:	65676574 	strbvs	r6, [r7, #-1396]!	; 0xfffffa8c
     71c:	616d2d72 	smcvs	53970	; 0xd2d2
     720:	682e6874 	stmdavs	lr!, {r2, r4, r5, r6, fp, sp, lr}
     724:	00000100 	andeq	r0, r0, r0, lsl #2
     728:	6e697270 	mcrvs	2, 3, r7, cr9, cr0, {3}
     72c:	632e6674 			; <UNDEFINED> instruction: 0x632e6674
     730:	00000200 	andeq	r0, r0, r0, lsl #4
     734:	69647473 	stmdbvs	r4!, {r0, r1, r4, r5, r6, sl, ip, sp, lr}^
     738:	672d746e 	strvs	r7, [sp, -lr, ror #8]!
     73c:	682e6363 	stmdavs	lr!, {r0, r1, r5, r6, r8, r9, sp, lr}
     740:	00000300 	andeq	r0, r0, r0, lsl #6
     744:	74726175 	ldrbtvc	r6, [r2], #-373	; 0xfffffe8b
     748:	0100682e 	tsteq	r0, lr, lsr #16
     74c:	74730000 	ldrbtvc	r0, [r3], #-0
     750:	67726164 	ldrbvs	r6, [r2, -r4, ror #2]!
     754:	0300682e 	movweq	r6, #2094	; 0x82e
     758:	74730000 	ldrbtvc	r0, [r3], #-0
     75c:	66656464 	strbtvs	r6, [r5], -r4, ror #8
     760:	0300682e 	movweq	r6, #2094	; 0x82e
     764:	623c0000 	eorsvs	r0, ip, #0, 0
     768:	746c6975 	strbtvc	r6, [ip], #-2421	; 0xfffff68b
     76c:	3e6e692d 	vmulcc.f16	s13, s28, s27	; <UNPREDICTABLE>
     770:	00000000 	andeq	r0, r0, r0
     774:	00240500 	eoreq	r0, r4, r0, lsl #10
     778:	07880205 	streq	r0, [r8, r5, lsl #4]
     77c:	0f032000 	svceq	0x00032000
     780:	4b0a0501 	blmi	281b8c <STACK_SIZE+0x27f47c>
     784:	054b0105 	strbeq	r0, [fp, #-261]	; 0xfffffefb
     788:	4a0e0336 	bmi	381468 <STACK_SIZE+0x37ed58>
     78c:	056a1805 	strbeq	r1, [sl, #-2053]!	; 0xfffff7fb
     790:	2f2f4a0c 	svccs	0x002f4a0c
     794:	05310a05 	ldreq	r0, [r1, #-2565]!	; 0xfffff5fb
     798:	09052e03 	stmdbeq	r5, {r0, r1, r9, sl, fp, sp}
     79c:	20100521 	andscs	r0, r0, r1, lsr #10
     7a0:	05200705 	streq	r0, [r0, #-1797]!	; 0xfffff8fb
     7a4:	1705210c 	strne	r2, [r5, -ip, lsl #2]
     7a8:	2e07052e 	cfsh32cs	mvfx0, mvfx7, #30
     7ac:	3d0c052f 	cfstr32cc	mvfx0, [ip, #-188]	; 0xffffff44
     7b0:	053c0805 	ldreq	r0, [ip, #-2053]!	; 0xfffff7fb
     7b4:	054b3d09 	strbeq	r3, [fp, #-3337]	; 0xfffff2f7
     7b8:	04020019 	streq	r0, [r2], #-25	; 0xffffffe7
     7bc:	3c7a0302 	ldclcc	3, cr0, [sl], #-8
     7c0:	02000305 	andeq	r0, r0, #335544320	; 0x14000000
     7c4:	053c0104 	ldreq	r0, [ip, #-260]!	; 0xfffffefc
     7c8:	3c09030a 	stccc	3, cr0, [r9], {10}
     7cc:	05210105 	streq	r0, [r1, #-261]!	; 0xfffffefb
     7d0:	0a055030 	beq	154898 <STACK_SIZE+0x152188>
     7d4:	ad010559 	cfstr32ge	mvfx0, [r1, #-356]	; 0xfffffe9c
     7d8:	05512e05 	ldrbeq	r2, [r1, #-3589]	; 0xfffff1fb
     7dc:	16055906 	strne	r5, [r5], -r6, lsl #18
     7e0:	01040200 	mrseq	r0, R12_usr
     7e4:	2f1a053c 	svccs	0x001a053c
     7e8:	05582305 	ldrbeq	r2, [r8, #-773]	; 0xfffffcfb
     7ec:	0c055815 	stceq	8, cr5, [r5], {21}
     7f0:	21060558 	tstcs	r6, r8, asr r5
     7f4:	02000e05 	andeq	r0, r0, #80	; 0x50
     7f8:	053c0104 	ldreq	r0, [ip, #-260]!	; 0xfffffefc
     7fc:	04020018 	streq	r0, [r2], #-24	; 0xffffffe8
     800:	22053c03 	andcs	r3, r5, #768	; 0x300
     804:	04040200 	streq	r0, [r4], #-512	; 0xfffffe00
     808:	3d0c053c 	cfstr32cc	mvfx0, [ip, #-240]	; 0xffffff10
     80c:	30010530 	andcc	r0, r1, r0, lsr r5
     810:	054c3205 	strbeq	r3, [ip, #-517]	; 0xfffffdfb
     814:	16055906 	strne	r5, [r5], -r6, lsl #18
     818:	01040200 	mrseq	r0, R12_usr
     81c:	2f11053c 	svccs	0x0011053c
     820:	3c0c0583 	cfstr32cc	mvfx0, [ip], {131}	; 0x83
     824:	042f0105 	strteq	r0, [pc], #-261	; 82c <STACK_SIZE-0x1ee4>
     828:	031e0502 	tsteq	lr, #8388608	; 0x800000
     82c:	05054a2e 	streq	r4, [r5, #-2606]	; 0xfffff5d2
     830:	5901056d 	stmdbpl	r1, {r0, r2, r3, r5, r6, r8, sl}
     834:	054a0f03 	strbeq	r0, [sl, #-3843]	; 0xfffff0fd
     838:	14059f06 	strne	r9, [r5], #-3846	; 0xfffff0fa
     83c:	3c1a054b 	cfldr32cc	mvfx0, [sl], {75}	; 0x4b
     840:	4f3e0105 	svcmi	0x003e0105
     844:	06054fa0 	streq	r4, [r5], -r0, lsr #31
     848:	590505a0 	stmdbpl	r5, {r5, r7, r8, sl}
     84c:	4f5a0105 	svcmi	0x005a0105
     850:	05a00605 	streq	r0, [r0, #1541]!	; 0x605
     854:	06055a21 	streq	r5, [r5], -r1, lsr #20
     858:	6801052e 	stmdavs	r1, {r1, r2, r3, r5, r8, sl}
     85c:	5a0a0550 	bpl	281da4 <STACK_SIZE+0x27f694>
     860:	052e0305 	streq	r0, [lr, #-773]!	; 0xfffffcfb
     864:	04020022 	streq	r0, [r2], #-34	; 0xffffffde
     868:	11052004 	tstne	r5, r4
     86c:	01040200 	mrseq	r0, R12_usr
     870:	0003053c 	andeq	r0, r3, ip, lsr r5
     874:	2e010402 	cdpcs	4, 0, cr0, cr1, cr2, {0}
     878:	02001e05 	andeq	r1, r0, #80	; 0x50
     87c:	052e0304 	streq	r0, [lr, #-772]!	; 0xfffffcfc
     880:	04020014 	streq	r0, [r2], #-20	; 0xffffffec
     884:	1b053c03 	blne	14f898 <STACK_SIZE+0x14d188>
     888:	3d01052f 	cfstr32cc	mvfx0, [r1, #-188]	; 0xffffff44
     88c:	67160550 			; <UNDEFINED> instruction: 0x67160550
     890:	01040200 	mrseq	r0, R12_usr
     894:	02004a06 	andeq	r4, r0, #24576	; 0x6000
     898:	004a0304 	subeq	r0, sl, r4, lsl #6
     89c:	2e040402 	cdpcs	4, 0, cr0, cr4, cr2, {0}
     8a0:	06040200 	streq	r0, [r4], -r0, lsl #4
     8a4:	00010520 	andeq	r0, r1, r0, lsr #10
     8a8:	06060402 	streq	r0, [r6], -r2, lsl #8
     8ac:	10054f4b 	andne	r4, r5, fp, asr #30
     8b0:	2f09054b 	svccs	0x0009054b
     8b4:	05210b05 	streq	r0, [r1, #-2821]!	; 0xfffff4fb
     8b8:	2a056625 	bcs	15a154 <STACK_SIZE+0x157a44>
     8bc:	3c22052e 	cfstr32cc	mvfx0, [r2], #-184	; 0xffffff48
     8c0:	05201105 	streq	r1, [r0, #-261]!	; 0xfffffefb
     8c4:	15052007 	strne	r2, [r5, #-7]
     8c8:	2e0a052d 	cfsh32cs	mvfx0, mvfx10, #29
     8cc:	05580905 	ldrbeq	r0, [r8, #-2309]	; 0xfffff6fb
     8d0:	0105230a 	tsteq	r5, sl, lsl #6
     8d4:	10054f21 	andne	r4, r5, r1, lsr #30
     8d8:	310f0575 	tstcc	pc, r5, ror r5	; <UNPREDICTABLE>
     8dc:	053c0605 	ldreq	r0, [ip, #-1541]!	; 0xfffff9fb
     8e0:	04020028 	streq	r0, [r2], #-40	; 0xffffffd8
     8e4:	1d052001 	stcne	0, cr2, [r5, #-4]
     8e8:	01040200 	mrseq	r0, R12_usr
     8ec:	2111053c 	tstcs	r1, ip, lsr r5
     8f0:	052e0505 	streq	r0, [lr, #-1285]!	; 0xfffffafb
     8f4:	04020007 	streq	r0, [r2], #-7
     8f8:	26052103 	strcs	r2, [r5], -r3, lsl #2
     8fc:	03040200 	movweq	r0, #16896	; 0x4200
     900:	00050581 	andeq	r0, r5, r1, lsl #11
     904:	3c010402 	cfstrscc	mvf0, [r1], {2}
     908:	05500905 	ldrbeq	r0, [r0, #-2309]	; 0xfffff6fb
     90c:	0c052105 	stfeqs	f2, [r5], {5}
     910:	3c05053c 	cfstr32cc	mvfx0, [r5], {60}	; 0x3c
     914:	05810905 	streq	r0, [r1, #2309]	; 0x905
     918:	0605410d 	streq	r4, [r5], -sp, lsl #2
     91c:	210b053c 	tstcs	fp, ip, lsr r5
     920:	05210705 	streq	r0, [r1, #-1797]!	; 0xfffff8fb
     924:	0b058110 	bleq	160d6c <STACK_SIZE+0x15e65c>
     928:	410a053c 	tstmi	sl, ip, lsr r5
     92c:	4f210105 	svcmi	0x00210105
     930:	05760f05 	ldrbeq	r0, [r6, #-3845]!	; 0xfffff0fb
     934:	08053c06 	stmdaeq	r5, {r1, r2, sl, fp, ip, sp}
     938:	00190521 	andseq	r0, r9, r1, lsr #10
     93c:	3c010402 	cfstrscc	mvf0, [r1], {2}
     940:	02000f05 	andeq	r0, r0, #5, 30
     944:	053c0104 	ldreq	r0, [ip, #-260]!	; 0xfffffefc
     948:	0402002a 	streq	r0, [r2], #-42	; 0xffffffd6
     94c:	41052002 	tstmi	r5, r2
     950:	03040200 	movweq	r0, #16896	; 0x4200
     954:	00370558 	eorseq	r0, r7, r8, asr r5
     958:	3c030402 	cfstrscc	mvf0, [r3], {2}
     95c:	05210c05 	streq	r0, [r1, #-3077]!	; 0xfffff3fb
     960:	0e053e0b 	cdpeq	14, 0, cr3, cr5, cr11, {0}
     964:	3c0a0521 	cfstr32cc	mvfx0, [sl], {33}	; 0x21
     968:	052e1205 	streq	r1, [lr, #-517]!	; 0xfffffdfb
     96c:	19052d0b 	stmdbne	r5, {r0, r1, r3, r8, sl, fp, sp}
     970:	01040200 	mrseq	r0, R12_usr
     974:	3f0b054a 	svccc	0x000b054a
     978:	05210e05 	streq	r0, [r1, #-3589]!	; 0xfffff1fb
     97c:	12053c0a 	andne	r3, r5, #2560	; 0xa00
     980:	2d13052e 	cfldr32cs	mvfx0, [r3, #-184]	; 0xffffff48
     984:	053c0b05 	ldreq	r0, [ip, #-2821]!	; 0xfffff4fb
     988:	04020024 	streq	r0, [r2], #-36	; 0xffffffdc
     98c:	35052001 	strcc	r2, [r5, #-1]
     990:	02040200 	andeq	r0, r4, #0, 4
     994:	420d054a 	andmi	r0, sp, #310378496	; 0x12800000
     998:	053c0605 	ldreq	r0, [ip, #-1541]!	; 0xfffff9fb
     99c:	08052111 	stmdaeq	r5, {r0, r4, r8, sp}
     9a0:	0024054a 	eoreq	r0, r4, sl, asr #10
     9a4:	20010402 	andcs	r0, r1, r2, lsl #8
     9a8:	02002b05 	andeq	r2, r0, #5120	; 0x1400
     9ac:	053c0204 	ldreq	r0, [ip, #-516]!	; 0xfffffdfc
     9b0:	0402003d 	streq	r0, [r2], #-61	; 0xffffffc3
     9b4:	0a054a03 	beq	1531c8 <STACK_SIZE+0x150ab8>
     9b8:	0f053d4b 	svceq	0x00053d4b
     9bc:	01040200 	mrseq	r0, R12_usr
     9c0:	3d0c053c 	cfstr32cc	mvfx0, [ip, #-240]	; 0xffffff10
     9c4:	053f0805 	ldreq	r0, [pc, #-2053]!	; 1c7 <STACK_SIZE-0x2549>
     9c8:	04020022 	streq	r0, [r2], #-34	; 0xffffffde
     9cc:	17053c01 	strne	r3, [r5, -r1, lsl #24]
     9d0:	01040200 	mrseq	r0, R12_usr
     9d4:	0035053c 	eorseq	r0, r5, ip, lsr r5
     9d8:	20020402 	andcs	r0, r2, r2, lsl #8
     9dc:	053d0e05 	ldreq	r0, [sp, #-3589]!	; 0xfffff1fb
     9e0:	12053c0a 	andne	r3, r5, #2560	; 0xa00
     9e4:	3e0d052e 	cfsh32cc	mvfx0, mvfx13, #30
     9e8:	02002605 	andeq	r2, r0, #5242880	; 0x500000
     9ec:	053c0104 	ldreq	r0, [ip, #-260]!	; 0xfffffefc
     9f0:	0402001c 	streq	r0, [r2], #-28	; 0xffffffe4
     9f4:	39053c01 	stmdbcc	r5, {r0, sl, fp, ip, sp}
     9f8:	02040200 	andeq	r0, r4, #0, 4
     9fc:	3d0e0520 	cfstr32cc	mvfx0, [lr, #-128]	; 0xffffff80
     a00:	053c0a05 	ldreq	r0, [ip, #-2565]!	; 0xfffff5fb
     a04:	0d052e12 	stceq	14, cr2, [r5, #-72]	; 0xffffffb8
     a08:	001b053e 	andseq	r0, fp, lr, lsr r5
     a0c:	3c010402 	cfstrscc	mvf0, [r1], {2}
     a10:	053d0e05 	ldreq	r0, [sp, #-3589]!	; 0xfffff1fb
     a14:	12053c0a 	andne	r3, r5, #2560	; 0xa00
     a18:	3008052e 	andcc	r0, r8, lr, lsr #10
     a1c:	053d0e05 	ldreq	r0, [sp, #-3589]!	; 0xfffff1fb
     a20:	12053c0a 	andne	r3, r5, #2560	; 0xa00
     a24:	3206052e 	andcc	r0, r6, #192937984	; 0xb800000
     a28:	053d0805 	ldreq	r0, [sp, #-2053]!	; 0xfffff7fb
     a2c:	0a05590e 	beq	156e6c <STACK_SIZE+0x15475c>
     a30:	2e12053c 	mrccs	5, 0, r0, cr2, cr12, {1}
     a34:	053e1405 	ldreq	r1, [lr, #-1029]!	; 0xfffffbfb
     a38:	0e053c0d 	cdpeq	12, 0, cr3, cr5, cr13, {0}
     a3c:	3c0a0521 	cfstr32cc	mvfx0, [sl], {33}	; 0x21
     a40:	052e1205 	streq	r1, [lr, #-517]!	; 0xfffffdfb
     a44:	0d053e14 	stceq	14, cr3, [r5, #-80]	; 0xffffffb0
     a48:	210e053c 	tstcs	lr, ip, lsr r5
     a4c:	053c0a05 	ldreq	r0, [ip, #-2565]!	; 0xfffff5fb
     a50:	0a052e12 	beq	14c2a0 <STACK_SIZE+0x149b90>
     a54:	f3010532 	vqrshl.u8	d0, d18, d1
     a58:	760a054f 	strvc	r0, [sl], -pc, asr #10
     a5c:	05310605 	ldreq	r0, [r1, #-1541]!	; 0xfffff9fb
     a60:	0f053d0b 	svceq	0x00053d0b
     a64:	4a06054e 	bmi	181fa4 <STACK_SIZE+0x17f894>
     a68:	02002205 	andeq	r2, r0, #1342177280	; 0x50000000
     a6c:	05200104 	streq	r0, [r0, #-260]!	; 0xfffffefc
     a70:	12053e21 	andne	r3, r5, #528	; 0x210
     a74:	02003d74 	andeq	r3, r0, #116, 26	; 0x1d00
     a78:	58060104 	stmdapl	r6, {r2, r8}
     a7c:	02003605 	andeq	r3, r0, #5242880	; 0x500000
     a80:	58060204 	stmdapl	r6, {r2, r9}
     a84:	02005505 	andeq	r5, r0, #20971520	; 0x1400000
     a88:	003c0204 	eorseq	r0, ip, r4, lsl #4
     a8c:	06040402 	streq	r0, [r4], -r2, lsl #8
     a90:	04020020 	streq	r0, [r2], #-32	; 0xffffffe0
     a94:	02002e05 	andeq	r2, r0, #80	; 0x50
     a98:	05200704 	streq	r0, [r0, #-1796]!	; 0xfffff8fc
     a9c:	04020012 	streq	r0, [r2], #-18	; 0xffffffee
     aa0:	05580607 	ldrbeq	r0, [r8, #-1543]	; 0xfffff9f9
     aa4:	0402000e 	streq	r0, [r2], #-14
     aa8:	12052e08 	andne	r2, r5, #8, 28	; 0x80
     aac:	08040200 	stmdaeq	r4, {r9}
     ab0:	000f053c 	andeq	r0, pc, ip, lsr r5	; <UNPREDICTABLE>
     ab4:	3d080402 	cfstrscc	mvf0, [r8, #-8]
     ab8:	02000d05 	andeq	r0, r0, #320	; 0x140
     abc:	05740804 	ldrbeq	r0, [r4, #-2052]!	; 0xfffff7fc
     ac0:	04020005 	streq	r0, [r2], #-5
     ac4:	14052108 	strne	r2, [r5], #-264	; 0xfffffef8
     ac8:	01040200 	mrseq	r0, R12_usr
     acc:	3f0a053c 	svccc	0x000a053c
     ad0:	83080105 	movwhi	r0, #33029	; 0x8105
     ad4:	4a029503 	bmi	a5ee8 <STACK_SIZE+0xa37d8>
     ad8:	05760a05 	ldrbeq	r0, [r6, #-2565]!	; 0xfffff5fb
     adc:	09053006 	stmdbeq	r5, {r1, r2, ip, sp}
     ae0:	0523314c 	streq	r3, [r3, #-332]!	; 0xfffffeb4
     ae4:	07052e08 	streq	r2, [r5, -r8, lsl #28]
     ae8:	910d0530 	tstls	sp, r0, lsr r5
     aec:	053d0705 	ldreq	r0, [sp, #-1797]!	; 0xfffff8fb
     af0:	0b05240d 	bleq	149b2c <STACK_SIZE+0x14741c>
     af4:	300f0540 	andcc	r0, pc, r0, asr #10
     af8:	059f1905 	ldreq	r1, [pc, #2309]	; 1405 <STACK_SIZE-0x130b>
     afc:	37054a31 	smladxcc	r5, r1, sl, r4
     b00:	2e09053c 	mcrcs	5, 0, r0, cr9, cr12, {1}
     b04:	05211905 	streq	r1, [r1, #-2309]!	; 0xfffff6fb
     b08:	37054a31 	smladxcc	r5, r1, sl, r4
     b0c:	2e09053c 	mcrcs	5, 0, r0, cr9, cr12, {1}
     b10:	05211905 	streq	r1, [r1, #-2309]!	; 0xfffff6fb
     b14:	37054a31 	smladxcc	r5, r1, sl, r4
     b18:	2e09053c 	mcrcs	5, 0, r0, cr9, cr12, {1}
     b1c:	05211905 	streq	r1, [r1, #-2309]!	; 0xfffff6fb
     b20:	37054a31 	smladxcc	r5, r1, sl, r4
     b24:	2e09053c 	mcrcs	5, 0, r0, cr9, cr12, {1}
     b28:	05211905 	streq	r1, [r1, #-2309]!	; 0xfffff6fb
     b2c:	37054a31 	smladxcc	r5, r1, sl, r4
     b30:	2e09053c 	mcrcs	5, 0, r0, cr9, cr12, {1}
     b34:	05213705 	streq	r3, [r1, #-1797]!	; 0xfffff8fb
     b38:	05052e09 	streq	r2, [r5, #-3593]	; 0xfffff1f7
     b3c:	3f0b0522 	svccc	0x000b0522
     b40:	052f0905 	streq	r0, [pc, #-2309]!	; 243 <STACK_SIZE-0x24cd>
     b44:	0f056608 	svceq	0x00056608
     b48:	760e0521 	strvc	r0, [lr], -r1, lsr #10
     b4c:	052e0d05 	streq	r0, [lr, #-3333]!	; 0xfffff2fb
     b50:	0a052f11 	beq	14c79c <STACK_SIZE+0x14a08c>
     b54:	3d0f0559 	cfstr32cc	mvfx0, [pc, #-356]	; 9f8 <STACK_SIZE-0x1d18>
     b58:	054b1f05 	strbeq	r1, [fp, #-3845]	; 0xfffff0fb
     b5c:	05312e0f 	ldreq	r2, [r1, #-3599]!	; 0xfffff1f1
     b60:	0f05300d 	svceq	0x0005300d
     b64:	2f090540 	svccs	0x00090540
     b68:	052e0805 	streq	r0, [lr, #-2053]!	; 0xfffff7fb
     b6c:	05592f0d 	ldrbeq	r2, [r9, #-3853]	; 0xfffff0f3
     b70:	0a053d0b 	beq	14ffa4 <STACK_SIZE+0x14d894>
     b74:	21150566 	tstcs	r5, r6, ror #10
     b78:	05761005 	ldrbeq	r1, [r6, #-5]!
     b7c:	13052e0f 	movwne	r2, #24079	; 0x5e0f
     b80:	5933052f 	ldmdbpl	r3!, {r0, r1, r2, r3, r5, r8, sl}
     b84:	054a1305 	strbeq	r1, [sl, #-773]	; 0xfffffcfb
     b88:	0d05210f 	stfeqs	f2, [r5, #-60]	; 0xffffffc4
     b8c:	2e050541 	cfsh32cs	mvfx0, mvfx5, #33
     b90:	20030905 	andcs	r0, r3, r5, lsl #18
     b94:	030f059e 	movweq	r0, #62878	; 0xf59e
     b98:	05592062 	ldrbeq	r2, [r9, #-98]	; 0xffffff9e
     b9c:	0c053d0d 	stceq	13, cr3, [r5], {13}
     ba0:	2f11052e 	svccs	0x0011052e
     ba4:	3e090559 	cfrshl32cc	mvfx9, mvfx9, r0
     ba8:	4b220f05 	blmi	8847c4 <STACK_SIZE+0x8820b4>
     bac:	053d0d05 	ldreq	r0, [sp, #-3333]!	; 0xfffff2fb
     bb0:	11052e0c 	tstne	r5, ip, lsl #28
     bb4:	09054b2f 	stmdbeq	r5, {r0, r1, r2, r3, r5, r8, r9, fp, lr}
     bb8:	280f053e 	stmdacs	pc, {r1, r2, r3, r4, r5, r8, sl}	; <UNPREDICTABLE>
     bbc:	3d090559 	cfstr32cc	mvfx0, [r9, #-356]	; 0xfffffe9c
     bc0:	59220f05 	stmdbpl	r2!, {r0, r2, r8, r9, sl, fp}
     bc4:	223d0905 	eorscs	r0, sp, #81920	; 0x14000
     bc8:	362e6803 	strtcc	r6, [lr], -r3, lsl #16
     bcc:	14030d05 	strne	r0, [r3], #-3333	; 0xfffff2fb
     bd0:	ac0a0320 	stcge	3, cr0, [sl], {32}
     bd4:	052e0c05 	streq	r0, [lr, #-3077]!	; 0xfffff3fb
     bd8:	0402001f 	streq	r0, [r2], #-31	; 0xffffffe1
     bdc:	1c052e01 	stcne	14, cr2, [r5], {1}
     be0:	01040200 	mrseq	r0, R12_usr
     be4:	2f10052e 	svccs	0x0010052e
     be8:	053e1205 	ldreq	r1, [lr, #-517]!	; 0xfffffdfb
     bec:	10052e11 	andne	r2, r5, r1, lsl lr
     bf0:	3e12052f 	cfmul64cc	mvdx0, mvdx2, mvdx15
     bf4:	052e1105 	streq	r1, [lr, #-261]!	; 0xfffffefb
     bf8:	053f2f10 	ldreq	r2, [pc, #-3856]!	; fffffcf0 <__bss_end__+0xdfff0cd0>
     bfc:	0d052f11 	stceq	15, cr2, [r5, #-68]	; 0xffffffbc
     c00:	2e0c054d 	cfsh32cs	mvfx0, mvfx12, #45
     c04:	052f1105 	streq	r1, [pc, #-261]!	; b07 <STACK_SIZE-0x1c09>
     c08:	0c054e0e 	stceq	14, cr4, [r5], {14}
     c0c:	0022052e 	eoreq	r0, r2, lr, lsr #10
     c10:	2e010402 	cdpcs	4, 0, cr0, cr1, cr2, {0}
     c14:	02001e05 	andeq	r1, r0, #80	; 0x50
     c18:	052e0104 	streq	r0, [lr, #-260]!	; 0xfffffefc
     c1c:	13052f11 	movwne	r2, #24337	; 0x5f11
     c20:	4a0c054e 	bmi	302160 <STACK_SIZE+0x2ffa50>
     c24:	05211105 	streq	r1, [r1, #-261]!	; 0xfffffefb
     c28:	0c054e0e 	stceq	14, cr4, [r5], {14}
     c2c:	0022052e 	eoreq	r0, r2, lr, lsr #10
     c30:	2e010402 	cdpcs	4, 0, cr0, cr1, cr2, {0}
     c34:	02001e05 	andeq	r1, r0, #80	; 0x50
     c38:	052e0104 	streq	r0, [lr, #-260]!	; 0xfffffefc
     c3c:	0e053015 	mcreq	0, 0, r3, cr5, cr5, {0}
     c40:	341a054a 	ldrcc	r0, [sl], #-1354	; 0xfffffab6
     c44:	054a1305 	strbeq	r1, [sl, #-773]	; 0xfffffcfb
     c48:	38052118 	stmdacc	r5, {r3, r4, r8, sp}
     c4c:	4a130559 	bmi	4c21b8 <STACK_SIZE+0x4bfaa8>
     c50:	78030e05 	stmdavc	r3, {r0, r2, r9, sl, fp}
     c54:	26057408 	strcs	r7, [r5], -r8, lsl #8
     c58:	05200b03 	streq	r0, [r0, #-2819]!	; 0xfffff4fd
     c5c:	3c053c4c 	stccc	12, cr3, [r5], {76}	; 0x4c
     c60:	4a360520 	bmi	d820e8 <STACK_SIZE+0xd7f9d8>
     c64:	02005505 	andeq	r5, r0, #20971520	; 0x1400000
     c68:	052e0204 	streq	r0, [lr, #-516]!	; 0xfffffdfc
     c6c:	02000181 	andeq	r0, r0, #1073741856	; 0x40000020
     c70:	053c0204 	ldreq	r0, [ip, #-516]!	; 0xfffffdfc
     c74:	66052071 			; <UNDEFINED> instruction: 0x66052071
     c78:	0181054a 	orreq	r0, r1, sl, asr #10
     c7c:	00170590 	mulseq	r7, r0, r5
     c80:	4a080402 	bmi	201c90 <STACK_SIZE+0x1ff580>
     c84:	02003805 	andeq	r3, r0, #327680	; 0x50000
     c88:	05210804 	streq	r0, [r1, #-2052]!	; 0xfffff7fc
     c8c:	04020013 	streq	r0, [r2], #-19	; 0xffffffed
     c90:	0e054a08 	vmlaeq.f32	s8, s10, s16
     c94:	08040200 	stmdaeq	r4, {r9}
     c98:	74087403 	strvc	r7, [r8], #-1027	; 0xfffffbfd
     c9c:	11031505 	tstne	r3, r5, lsl #10
     ca0:	4a0e0520 	bmi	382128 <STACK_SIZE+0x37fa18>
     ca4:	05251a05 	streq	r1, [r5, #-2565]!	; 0xfffff5fb
     ca8:	05214a13 	streq	r4, [r1, #-2579]!	; 0xfffff5ed
     cac:	0593082f 	ldreq	r0, [r3, #2095]	; 0x82f
     cb0:	4e053c67 	cdpmi	12, 0, cr3, cr5, cr7, {3}
     cb4:	4a3f0520 	bmi	fc213c <STACK_SIZE+0xfbfa2c>
     cb8:	02007005 	andeq	r7, r0, #5, 0
     cbc:	052e0204 	streq	r0, [lr, #-516]!	; 0xfffffdfc
     cc0:	020001ae 	andeq	r0, r0, #-2147483605	; 0x8000002b
     cc4:	053c0204 	ldreq	r0, [ip, #-516]!	; 0xfffffdfc
     cc8:	05200195 	streq	r0, [r0, #-405]!	; 0xfffffe6b
     ccc:	054a0181 	strbeq	r0, [sl, #-385]	; 0xfffffe7f
     cd0:	052e01ae 	streq	r0, [lr, #-430]!	; 0xfffffe52
     cd4:	04020020 	streq	r0, [r2], #-32	; 0xffffffe0
     cd8:	13054a08 	movwne	r4, #23048	; 0x5a08
     cdc:	08040200 	stmdaeq	r4, {r9}
     ce0:	080f0521 	stmdaeq	pc, {r0, r5, r8, sl}	; <UNPREDICTABLE>
     ce4:	3d09054d 	cfstr32cc	mvfx0, [r9, #-308]	; 0xfffffecc
     ce8:	16031605 	strne	r1, [r3], -r5, lsl #12
     cec:	30150520 	andscc	r0, r5, r0, lsr #10
     cf0:	053c0c05 	ldreq	r0, [ip, #-3077]!	; 0xfffff3fb
     cf4:	0d052111 	stfeqs	f2, [r5, #-68]	; 0xffffffbc
     cf8:	81130521 	tsthi	r3, r1, lsr #10
     cfc:	053c1105 	ldreq	r1, [ip, #-261]!	; 0xfffffefb
     d00:	09054113 	stmdbeq	r5, {r0, r1, r4, r8, lr}
     d04:	8413054a 	ldrhi	r0, [r3], #-1354	; 0xfffffab6
     d08:	053c0c05 	ldreq	r0, [ip, #-3077]!	; 0xfffff3fb
     d0c:	0d052111 	stfeqs	f2, [r5, #-68]	; 0xffffffbc
     d10:	81130521 	tsthi	r3, r1, lsr #10
     d14:	053c1105 	ldreq	r1, [ip, #-261]!	; 0xfffffefb
     d18:	0905400f 	stmdbeq	r5, {r0, r1, r2, r3, lr}
     d1c:	2415053d 	ldrcs	r0, [r5], #-1341	; 0xfffffac3
     d20:	00591a05 	subseq	r1, r9, r5, lsl #20
     d24:	06010402 	streq	r0, [r1], -r2, lsl #8
     d28:	0402003c 	streq	r0, [r2], #-60	; 0xffffffc4
     d2c:	02002e02 	andeq	r2, r0, #2, 28
     d30:	052e0404 	streq	r0, [lr, #-1028]!	; 0xfffffbfc
     d34:	04020013 	streq	r0, [r2], #-19	; 0xffffffed
     d38:	05760604 	ldrbeq	r0, [r6, #-1540]!	; 0xfffff9fc
     d3c:	0402000c 	streq	r0, [r2], #-12
     d40:	0d054a04 	vstreq	s8, [r5, #-16]
     d44:	68150521 	ldmdavs	r5, {r0, r5, r8, sl}
     d48:	053c0c05 	ldreq	r0, [ip, #-3077]!	; 0xfffff3fb
     d4c:	0d052111 	stfeqs	f2, [r5, #-68]	; 0xffffffbc
     d50:	81130521 	tsthi	r3, r1, lsr #10
     d54:	053c1105 	ldreq	r1, [ip, #-261]!	; 0xfffffefb
     d58:	1205410f 	andne	r4, r5, #-1073741821	; 0xc0000003
     d5c:	3c0b0521 	cfstr32cc	mvfx0, [fp], {33}	; 0x21
     d60:	05811105 	streq	r1, [r1, #261]	; 0x105
     d64:	26052e0f 	strcs	r2, [r5], -pc, lsl #28
     d68:	01040200 	mrseq	r0, R12_usr
     d6c:	001a052e 	andseq	r0, sl, lr, lsr #10
     d70:	4a010402 	bmi	41d80 <STACK_SIZE+0x3f670>
     d74:	02004505 	andeq	r4, r0, #20971520	; 0x1400000
     d78:	05200204 	streq	r0, [r0, #-516]!	; 0xfffffdfc
     d7c:	04020039 	streq	r0, [r2], #-57	; 0xffffffc7
     d80:	13053c02 	movwne	r3, #23554	; 0x5c02
     d84:	3c0c0532 	cfstr32cc	mvfx0, [ip], {50}	; 0x32
     d88:	05211105 	streq	r1, [r1, #-261]!	; 0xfffffefb
     d8c:	1305210d 	movwne	r2, #20749	; 0x510d
     d90:	3c110581 	cfldr32cc	mvfx0, [r1], {129}	; 0x81
     d94:	05400f05 	strbeq	r0, [r0, #-3845]	; 0xfffff0fb
     d98:	0f053d09 	svceq	0x00053d09
     d9c:	51052f24 	tstpl	r5, r4, lsr #30
     da0:	4a110552 	bmi	4422f0 <STACK_SIZE+0x43fbe0>
     da4:	4e080f05 	cdpmi	15, 0, cr0, cr8, cr5, {0}
     da8:	243d0905 	ldrtcs	r0, [sp], #-2309	; 0xfffff6fb
     dac:	05830f05 	streq	r0, [r3, #3845]	; 0xf05
     db0:	05233d09 	streq	r3, [r3, #-3337]!	; 0xfffff2f7
     db4:	0905910f 	stmdbeq	r5, {r0, r1, r2, r3, r8, ip, pc}
     db8:	030a053d 	movweq	r0, #42301	; 0xa53d
     dbc:	05207dfb 	streq	r7, [r0, #-3579]!	; 0xfffff205
     dc0:	03052e09 	movweq	r2, #24073	; 0x5e09
     dc4:	3c028a03 			; <UNDEFINED> instruction: 0x3c028a03
     dc8:	01040200 	mrseq	r0, R12_usr
     dcc:	02004a06 	andeq	r4, r0, #24576	; 0x6000
     dd0:	003c0204 	eorseq	r0, ip, r4, lsl #4
     dd4:	20040402 	andcs	r0, r4, r2, lsl #8
     dd8:	02000a05 	andeq	r0, r0, #20480	; 0x5000
     ddc:	5b060404 	blpl	181df4 <STACK_SIZE+0x17f6e4>
     de0:	02000105 	andeq	r0, r0, #1073741825	; 0x40000001
     de4:	50210404 	eorpl	r0, r1, r4, lsl #8
     de8:	054c0305 	strbeq	r0, [ip, #-773]	; 0xfffffcfb
     dec:	0a053e13 	beq	150640 <STACK_SIZE+0x14df30>
     df0:	210105bc 			; <UNDEFINED> instruction: 0x210105bc
     df4:	5a030594 	bpl	c244c <STACK_SIZE+0xbfd3c>
     df8:	053d1305 	ldreq	r1, [sp, #-773]!	; 0xfffffcfb
     dfc:	0105bc0a 	tsteq	r5, sl, lsl #24
     e00:	03059421 	movweq	r9, #21537	; 0x5421
     e04:	3d130568 	cfldr32cc	mvfx0, [r3, #-416]	; 0xfffffe60
     e08:	05ae0a05 	streq	r0, [lr, #2565]!	; 0xa05
     e0c:	05942101 	ldreq	r2, [r4, #257]	; 0x101
     e10:	01055a0a 	tsteq	r5, sl, lsl #20
     e14:	0a0578bb 	beq	15f108 <STACK_SIZE+0x15c9f8>
     e18:	9f010575 	svcls	0x00010575
     e1c:	68030578 	stmdavs	r3, {r3, r4, r5, r6, r8, sl}
     e20:	053d1b05 	ldreq	r1, [sp, #-2821]!	; 0xfffff4fb
     e24:	0a057513 	beq	15e278 <STACK_SIZE+0x15bb68>
     e28:	210105bc 			; <UNDEFINED> instruction: 0x210105bc
     e2c:	01000902 	tsteq	r0, r2, lsl #18
     e30:	0001eb01 	andeq	lr, r1, r1, lsl #22
     e34:	b8000300 	stmdalt	r0, {r8, r9}
     e38:	02000000 	andeq	r0, r0, #0, 0
     e3c:	0d0efb01 	vstreq	d15, [lr, #-4]
     e40:	01010100 	mrseq	r0, (UNDEF: 17)
     e44:	00000001 	andeq	r0, r0, r1
     e48:	01000001 	tsteq	r0, r1
     e4c:	6c636e69 	stclvs	14, cr6, [r3], #-420	; 0xfffffe5c
     e50:	00656475 	rsbeq	r6, r5, r5, ror r4
     e54:	00637273 	rsbeq	r7, r3, r3, ror r2
     e58:	7273752f 	rsbsvc	r7, r3, #197132288	; 0xbc00000
     e5c:	636f6c2f 	cmnvs	pc, #12032	; 0x2f00
     e60:	432f6c61 			; <UNDEFINED> instruction: 0x432f6c61
     e64:	616c6c65 	cmnvs	ip, r5, ror #24
     e68:	72612f72 	rsbvc	r2, r1, #456	; 0x1c8
     e6c:	6f6e2d6d 	svcvs	0x006e2d6d
     e70:	652d656e 	strvs	r6, [sp, #-1390]!	; 0xfffffa92
     e74:	2d696261 	sfmcs	f6, 2, [r9, #-388]!	; 0xfffffe7c
     e78:	74736574 	ldrbtvc	r6, [r3], #-1396	; 0xfffffa8c
     e7c:	322d392f 	eorcc	r3, sp, #770048	; 0xbc000
     e80:	71393130 	teqvc	r9, r0, lsr r1
     e84:	73632d34 	cmnvc	r3, #52, 26	; 0xd00
     e88:	65373031 	ldrvs	r3, [r7, #-49]!	; 0xffffffcf
     e8c:	62696c2f 	rsbvs	r6, r9, #12032	; 0x2f00
     e90:	6363672f 	cmnvs	r3, #12320768	; 0xbc0000
     e94:	6d72612f 	ldfvse	f6, [r2, #-188]!	; 0xffffff44
     e98:	6e6f6e2d 	cdpvs	14, 6, cr6, cr15, cr13, {1}
     e9c:	61652d65 	cmnvs	r5, r5, ror #26
     ea0:	392f6962 	stmdbcc	pc!, {r1, r5, r6, r8, fp, sp, lr}	; <UNPREDICTABLE>
     ea4:	312e322e 			; <UNDEFINED> instruction: 0x312e322e
     ea8:	636e692f 	cmnvs	lr, #770048	; 0xbc000
     eac:	6564756c 	strbvs	r7, [r4, #-1388]!	; 0xfffffa94
     eb0:	6e690000 	cdpvs	0, 6, cr0, cr9, cr0, {0}
     eb4:	65676574 	strbvs	r6, [r7, #-1396]!	; 0xfffffa8c
     eb8:	616d2d72 	smcvs	53970	; 0xd2d2
     ebc:	682e6874 	stmdavs	lr!, {r2, r4, r5, r6, fp, sp, lr}
     ec0:	00000100 	andeq	r0, r0, r0, lsl #2
     ec4:	74726175 	ldrbtvc	r6, [r2], #-373	; 0xfffffe8b
     ec8:	0200632e 	andeq	r6, r0, #-1207959552	; 0xb8000000
     ecc:	74730000 	ldrbtvc	r0, [r3], #-0
     ed0:	746e6964 	strbtvc	r6, [lr], #-2404	; 0xfffff69c
     ed4:	6363672d 	cmnvs	r3, #11796480	; 0xb40000
     ed8:	0300682e 	movweq	r6, #2094	; 0x82e
     edc:	70670000 	rsbvc	r0, r7, r0
     ee0:	682e6f69 	stmdavs	lr!, {r0, r3, r5, r6, r8, r9, sl, fp, sp, lr}
     ee4:	00000100 	andeq	r0, r0, r0, lsl #2
     ee8:	74726175 	ldrbtvc	r6, [r2], #-373	; 0xfffffe8b
     eec:	0100682e 	tsteq	r0, lr, lsr #16
     ef0:	05000000 	streq	r0, [r0, #-0]
     ef4:	02050036 	andeq	r0, r5, #54, 0	; 0x36
     ef8:	200014cc 	andcs	r1, r0, ip, asr #9
     efc:	05011f03 	streq	r1, [r1, #-3843]	; 0xfffff0fd
     f00:	0c056a18 			; <UNDEFINED> instruction: 0x0c056a18
     f04:	052f2f4a 	streq	r2, [pc, #-3914]!	; ffffffc2 <__bss_end__+0xdfff0fa2>
     f08:	0305310a 	movweq	r3, #20746	; 0x510a
     f0c:	2109052e 	tstcs	r9, lr, lsr #10
     f10:	05201005 	streq	r1, [r0, #-5]!
     f14:	0c052007 	stceq	0, cr2, [r5], {7}
     f18:	2e170521 	cfmul64cs	mvdx0, mvdx7, mvdx1
     f1c:	2f2e0705 	svccs	0x002e0705
     f20:	053d0c05 	ldreq	r0, [sp, #-3077]!	; 0xfffff3fb
     f24:	09053c08 	stmdbeq	r5, {r3, sl, fp, ip, sp}
     f28:	19054b3d 	stmdbne	r5, {r0, r2, r3, r4, r5, r8, r9, fp, lr}
     f2c:	02040200 	andeq	r0, r4, #0, 4
     f30:	053c7a03 	ldreq	r7, [ip, #-2563]!	; 0xfffff5fd
     f34:	04020003 	streq	r0, [r2], #-3
     f38:	0a053c01 	beq	14ff44 <STACK_SIZE+0x14d834>
     f3c:	053c0903 	ldreq	r0, [ip, #-2307]!	; 0xfffff6fd
     f40:	30052101 	andcc	r2, r5, r1, lsl #2
     f44:	590a0550 	stmdbpl	sl, {r4, r6, r8, sl}
     f48:	04ad0105 	strteq	r0, [sp], #261	; 0x105
     f4c:	03210502 			; <UNDEFINED> instruction: 0x03210502
     f50:	05054a4d 	streq	r4, [r5, #-2637]	; 0xfffff5b3
     f54:	0d05674b 	stceq	7, cr6, [r5, #-300]	; 0xfffffed4
     f58:	2e080567 	cfsh32cs	mvfx0, mvfx8, #55
     f5c:	02002505 	andeq	r2, r0, #20971520	; 0x1400000
     f60:	053c0104 	ldreq	r0, [ip, #-260]!	; 0xfffffefc
     f64:	0402001e 	streq	r0, [r2], #-30	; 0xffffffe2
     f68:	05052e01 	streq	r2, [r5, #-3585]	; 0xfffff1ff
     f6c:	3e48053f 	mcrcc	5, 2, r0, cr8, cr15, {1}
     f70:	052e2205 	streq	r2, [lr, #-517]!	; 0xfffffdfb
     f74:	4b05740e 	blmi	15dfb4 <STACK_SIZE+0x15b8a4>
     f78:	2e1f0522 	cfmul64cs	mvdx0, mvdx15, mvdx2
     f7c:	05826d05 	streq	r6, [r2, #3333]	; 0xd05
     f80:	15053c0e 	strne	r3, [r5, #-3086]	; 0xfffff3f2
     f84:	740e052f 	strvc	r0, [lr], #-1327	; 0xfffffad1
     f88:	05230f05 	streq	r0, [r3, #-3845]!	; 0xfffff0fb
     f8c:	0f052e05 	svceq	0x00052e05
     f90:	2e050567 	cfsh32cs	mvfx0, mvfx5, #55
     f94:	05680f05 	strbeq	r0, [r8, #-3845]!	; 0xfffff0fb
     f98:	0f052e05 	svceq	0x00052e05
     f9c:	2e050576 	cfrshl64cs	mvdx5, mvdx6, r0
     fa0:	05760f05 	ldrbeq	r0, [r6, #-3845]!	; 0xfffff0fb
     fa4:	0f052e05 	svceq	0x00052e05
     fa8:	2e050591 	mcrcs	5, 0, r0, cr5, cr1, {4}
     fac:	05910f05 	ldreq	r0, [r1, #3845]	; 0xf05
     fb0:	09052e05 	stmdbeq	r5, {r0, r2, r9, sl, fp, sp}
     fb4:	05826d03 	streq	r6, [r2, #3331]	; 0xd03
     fb8:	20140301 	andscs	r0, r4, r1, lsl #6
     fbc:	05f52005 	ldrbeq	r2, [r5, #5]!
     fc0:	01052f0c 	tsteq	r5, ip, lsl #30
     fc4:	40150521 	andsmi	r0, r5, r1, lsr #10
     fc8:	052f0905 	streq	r0, [pc, #-2309]!	; 6cb <STACK_SIZE-0x2045>
     fcc:	19052101 	stmdbne	r5, {r0, r8, sp}
     fd0:	2f23053f 	svccs	0x0023053f
     fd4:	052e0f05 	streq	r0, [lr, #-3845]!	; 0xfffff0fb
     fd8:	4205583c 	andmi	r5, r5, #60, 16	; 0x3c0000
     fdc:	2e0c0520 	cfsh32cs	mvfx0, mvfx12, #16
     fe0:	053d0105 	ldreq	r0, [sp, #-261]!	; 0xfffffefb
     fe4:	0a055c21 	beq	158070 <STACK_SIZE+0x155960>
     fe8:	000c0567 	andeq	r0, ip, r7, ror #10
     fec:	20010402 	andcs	r0, r1, r2, lsl #8
     ff0:	02000a05 	andeq	r0, r0, #20480	; 0x5000
     ff4:	053c0104 	ldreq	r0, [ip, #-260]!	; 0xfffffefc
     ff8:	05052119 	streq	r2, [r5, #-281]	; 0xfffffee7
     ffc:	6701052e 	strvs	r0, [r1, -lr, lsr #10]
    1000:	05791905 	ldrbeq	r1, [r9, #-2309]!	; 0xfffff6fb
    1004:	01052f0c 	tsteq	r5, ip, lsl #30
    1008:	3e1b053d 	mrccc	5, 0, r0, cr11, cr13, {1}
    100c:	052f0905 	streq	r0, [pc, #-2309]!	; 70f <STACK_SIZE-0x2001>
    1010:	10053c07 	andne	r3, r5, r7, lsl #24
    1014:	3d0c0521 	cfstr32cc	mvfx0, [ip, #-132]	; 0xffffff7c
    1018:	023d0105 	eorseq	r0, sp, #1073741825	; 0x40000001
    101c:	01010003 	tsteq	r1, r3

Disassembly of section .debug_str:

00000000 <.debug_str>:
   0:	20554e47 	subscs	r4, r5, r7, asr #28
   4:	20373143 	eorscs	r3, r7, r3, asr #2
   8:	2e322e39 	mrccs	14, 1, r2, cr2, cr9, {1}
   c:	30322031 	eorscc	r2, r2, r1, lsr r0
  10:	30313931 	eorscc	r3, r1, r1, lsr r9
  14:	28203532 	stmdacs	r0!, {r1, r4, r5, r8, sl, ip, sp}
  18:	656c6572 	strbvs	r6, [ip, #-1394]!	; 0xfffffa8e
  1c:	29657361 	stmdbcs	r5!, {r0, r5, r6, r8, r9, ip, sp, lr}^
  20:	52415b20 	subpl	r5, r1, #32, 22	; 0x8000
  24:	72612f4d 	rsbvc	r2, r1, #308	; 0x134
  28:	2d392d6d 	ldccs	13, cr2, [r9, #-436]!	; 0xfffffe4c
  2c:	6e617262 	cdpvs	2, 6, cr7, cr1, cr2, {3}
  30:	72206863 	eorvc	r6, r0, #6488064	; 0x630000
  34:	73697665 	cmnvc	r9, #105906176	; 0x6500000
  38:	206e6f69 	rsbcs	r6, lr, r9, ror #30
  3c:	35373732 	ldrcc	r3, [r7, #-1842]!	; 0xfffff8ce
  40:	205d3939 	subscs	r3, sp, r9, lsr r9
  44:	68746d2d 	ldmdavs	r4!, {r0, r2, r3, r5, r8, sl, fp, sp, lr}^
  48:	20626d75 	rsbcs	r6, r2, r5, ror sp
  4c:	70636d2d 	rsbvc	r6, r3, sp, lsr #26
  50:	6f633d75 	svcvs	0x00633d75
  54:	78657472 	stmdavc	r5!, {r1, r4, r5, r6, sl, ip, sp, lr}^
  58:	20306d2d 	eorscs	r6, r0, sp, lsr #26
  5c:	6c666d2d 	stclvs	13, cr6, [r6], #-180	; 0xffffff4c
  60:	2d74616f 	ldfcse	f6, [r4, #-444]!	; 0xfffffe44
  64:	3d696261 	sfmcc	f6, 2, [r9, #-388]!	; 0xfffffe7c
  68:	74666f73 	strbtvc	r6, [r6], #-3955	; 0xfffff08d
  6c:	616d2d20 	cmnvs	sp, r0, lsr #26
  70:	3d686372 	stclcc	3, cr6, [r8, #-456]!	; 0xfffffe38
  74:	766d7261 	strbtvc	r7, [sp], -r1, ror #4
  78:	6d2d7336 	stcvs	3, cr7, [sp, #-216]!	; 0xffffff28
  7c:	20672d20 	rsbcs	r2, r7, r0, lsr #26
  80:	7266662d 	rsbvc	r6, r6, #47185920	; 0x2d00000
  84:	74736565 	ldrbtvc	r6, [r3], #-1381	; 0xfffffa9b
  88:	69646e61 	stmdbvs	r4!, {r0, r5, r6, r9, sl, fp, sp, lr}^
  8c:	5000676e 	andpl	r6, r0, lr, ror #14
  90:	5f304f49 	svcpl	0x00304f49
  94:	41545346 	cmpmi	r4, r6, asr #6
  98:	6e690054 	mcrvs	0, 3, r0, cr9, cr4, {2}
  9c:	00786564 	rsbseq	r6, r8, r4, ror #10
  a0:	304f4950 	subcc	r4, pc, r0, asr r9	; <UNPREDICTABLE>
  a4:	5254435f 	subspl	r4, r4, #2080374785	; 0x7c000001
  a8:	6873004c 	ldmdavs	r3!, {r2, r3, r6}^
  ac:	2074726f 	rsbscs	r7, r4, pc, ror #4
  b0:	00746e69 	rsbseq	r6, r4, r9, ror #28
  b4:	304f4950 	subcc	r4, pc, r0, asr r9	; <UNPREDICTABLE>
  b8:	304d535f 	subcc	r5, sp, pc, asr r3
  bc:	4558455f 	ldrbmi	r4, [r8, #-1375]	; 0xfffffaa1
  c0:	52544343 	subspl	r4, r4, #201326593	; 0xc000001
  c4:	4950004c 	ldmdbmi	r0, {r2, r3, r6}^
  c8:	465f304f 	ldrbmi	r3, [pc], -pc, asr #32
  cc:	55424544 	strbpl	r4, [r2, #-1348]	; 0xfffffabc
  d0:	73750047 	cmnvc	r5, #71, 0	; 0x47
  d4:	705f6365 	subsvc	r6, pc, r5, ror #6
  d8:	625f7265 	subsvs	r7, pc, #1342177286	; 0x50000006
  dc:	62007469 	andvs	r7, r0, #1761607680	; 0x69000000
  e0:	5f647561 	svcpl	0x00647561
  e4:	65746172 	ldrbvs	r6, [r4, #-370]!	; 0xfffffe8e
  e8:	6e6f6c00 	cdpvs	12, 6, cr6, cr15, cr0, {0}
  ec:	6f6c2067 	svcvs	0x006c2067
  f0:	6920676e 	stmdbvs	r0!, {r1, r2, r3, r5, r6, r8, r9, sl, sp, lr}
  f4:	2f00746e 	svccs	0x0000746e
  f8:	72657355 	rsbvc	r7, r5, #1409286145	; 0x54000001
  fc:	76652f73 	uqsub16vc	r2, r5, r3
 100:	61736e61 	cmnvs	r3, r1, ror #28
 104:	61636172 	smcvs	13842	; 0x3612
 108:	65442f79 	strbvs	r2, [r4, #-3961]	; 0xfffff087
 10c:	6f746b73 	svcvs	0x00746b73
 110:	69502f70 	ldmdbvs	r0, {r4, r5, r6, r8, r9, sl, fp, sp}^
 114:	702f6f63 	eorvc	r6, pc, r3, ror #30
 118:	2d6f6369 	stclcs	3, cr6, [pc, #-420]!	; ffffff7c <__bss_end__+0xdfff0f5c>
 11c:	6a6f7270 	bvs	1bdcae4 <STACK_SIZE+0x1bda3d4>
 120:	6f72702f 	svcvs	0x0072702f
 124:	6d617267 	sfmvs	f7, 2, [r1, #-412]!	; 0xfffffe64
 128:	2d382f73 	ldccs	15, cr2, [r8, #-460]!	; 0xfffffe34
 12c:	006f6970 	rsbeq	r6, pc, r0, ror r9	; <UNPREDICTABLE>
 130:	304f4950 	subcc	r4, pc, r0, asr r9	; <UNPREDICTABLE>
 134:	304d535f 	subcc	r5, sp, pc, asr r3
 138:	4e49505f 	mcrmi	0, 2, r5, cr9, cr15, {2}
 13c:	4c525443 	cfldrdmi	mvd5, [r2], {67}	; 0x43
 140:	4f495000 	svcmi	0x00495000
 144:	58525f30 	ldmdapl	r2, {r4, r5, r8, r9, sl, fp, ip, lr}^
 148:	67003046 	strvs	r3, [r0, -r6, asr #32]
 14c:	61626f6c 	cmnvs	r2, ip, ror #30
 150:	61755f6c 	cmnvs	r5, ip, ror #30
 154:	73007472 	movwvc	r7, #1138	; 0x472
 158:	5f646e65 	svcpl	0x00646e65
 15c:	6e696c62 	cdpvs	12, 6, cr6, cr9, cr2, {3}
 160:	00632e6b 	rsbeq	r2, r3, fp, ror #28
 164:	304f4950 	subcc	r4, pc, r0, asr r9	; <UNPREDICTABLE>
 168:	454c465f 	strbmi	r4, [ip, #-1631]	; 0xfffff9a1
 16c:	004c4556 	subeq	r4, ip, r6, asr r5
 170:	755f7768 	ldrbvc	r7, [pc, #-1896]	; fffffa10 <__bss_end__+0xdfff09f0>
 174:	5f747261 	svcpl	0x00747261
 178:	6f6c0074 	svcvs	0x006c0074
 17c:	6420676e 	strtvs	r6, [r0], #-1902	; 0xfffff892
 180:	6c62756f 	cfstr64vs	mvdx7, [r2], #-444	; 0xfffffe44
 184:	61620065 	cmnvs	r2, r5, rrx
 188:	50006475 	andpl	r6, r0, r5, ror r4
 18c:	5f304f49 	svcpl	0x00304f49
 190:	5f304d53 	svcpl	0x00304d53
 194:	46494853 			; <UNDEFINED> instruction: 0x46494853
 198:	52544354 	subspl	r4, r4, #84, 6	; 0x50000001
 19c:	6e75004c 	cdpvs	0, 7, cr0, cr5, cr12, {2}
 1a0:	6e676973 			; <UNDEFINED> instruction: 0x6e676973
 1a4:	63206465 			; <UNDEFINED> instruction: 0x63206465
 1a8:	00726168 	rsbseq	r6, r2, r8, ror #2
 1ac:	616d796d 	cmnvs	sp, sp, ror #18
 1b0:	6c006e69 	stcvs	14, cr6, [r0], {105}	; 0x69
 1b4:	20676e6f 	rsbcs	r6, r7, pc, ror #28
 1b8:	676e6f6c 	strbvs	r6, [lr, -ip, ror #30]!
 1bc:	736e7520 	cmnvc	lr, #32, 10	; 0x8000000
 1c0:	656e6769 	strbvs	r6, [lr, #-1897]!	; 0xfffff897
 1c4:	6e692064 	cdpvs	0, 6, cr2, cr9, cr4, {3}
 1c8:	69750074 	ldmdbvs	r5!, {r2, r4, r5, r6}^
 1cc:	3233746e 	eorscc	r7, r3, #1845493760	; 0x6e000000
 1d0:	7500745f 	strvc	r7, [r0, #-1119]	; 0xfffffba1
 1d4:	31746e69 	cmncc	r4, r9, ror #28
 1d8:	00745f36 	rsbseq	r5, r4, r6, lsr pc
 1dc:	726f6873 	rsbvc	r6, pc, #7536640	; 0x730000
 1e0:	6e752074 	mrcvs	0, 3, r2, cr5, cr4, {3}
 1e4:	6e676973 			; <UNDEFINED> instruction: 0x6e676973
 1e8:	69206465 	stmdbvs	r0!, {r0, r2, r5, r6, sl, sp, lr}
 1ec:	6700746e 	strvs	r7, [r0, -lr, ror #8]
 1f0:	61626f6c 	cmnvs	r2, ip, ror #30
 1f4:	77685f6c 	strbvc	r5, [r8, -ip, ror #30]!
 1f8:	7261755f 	rsbvc	r7, r1, #398458880	; 0x17c00000
 1fc:	69700074 	ldmdbvs	r0!, {r2, r4, r5, r6}^
 200:	6e695f6f 	cdpvs	15, 6, cr5, cr9, cr15, {3}
 204:	75727473 	ldrbvc	r7, [r2, #-1139]!	; 0xfffffb8d
 208:	6f697463 	svcvs	0x00697463
 20c:	5000736e 	andpl	r7, r0, lr, ror #6
 210:	5f304f49 	svcpl	0x00304f49
 214:	5f304d53 	svcpl	0x00304d53
 218:	444b4c43 	strbmi	r4, [fp], #-3139	; 0xfffff3bd
 21c:	73005649 	movwvc	r5, #1609	; 0x649
 220:	61755f77 	cmnvs	r5, r7, ror pc
 224:	745f7472 	ldrbvc	r7, [pc], #-1138	; 22c <STACK_SIZE-0x24e4>
 228:	4f495000 	svcmi	0x00495000
 22c:	58545f30 	ldmdapl	r4, {r4, r5, r8, r9, sl, fp, ip, lr}^
 230:	50003046 	andpl	r3, r0, r6, asr #32
 234:	5f304f49 	svcpl	0x00304f49
 238:	54534e49 	ldrbpl	r4, [r3], #-3657	; 0xfffff1b7
 23c:	454d5f52 	strbmi	r5, [sp, #-3922]	; 0xfffff0ae
 240:	41425f4d 	cmpmi	r2, sp, asr #30
 244:	73004553 	movwvc	r4, #1363	; 0x553
 248:	74726174 	ldrbtvc	r6, [r2], #-372	; 0xfffffe8c
 24c:	2f00532e 	svccs	0x0000532e
 250:	72657355 	rsbvc	r7, r5, #1409286145	; 0x54000001
 254:	76652f73 	uqsub16vc	r2, r5, r3
 258:	61736e61 	cmnvs	r3, r1, ror #28
 25c:	61636172 	smcvs	13842	; 0x3612
 260:	65442f79 	strbvs	r2, [r4, #-3961]	; 0xfffff087
 264:	6f746b73 	svcvs	0x00746b73
 268:	69502f70 	ldmdbvs	r0, {r4, r5, r6, r8, r9, sl, fp, sp}^
 26c:	702f6f63 	eorvc	r6, pc, r3, ror #30
 270:	2d6f6369 	stclcs	3, cr6, [pc, #-420]!	; d4 <STACK_SIZE-0x263c>
 274:	6a6f7270 	bvs	1bdcc3c <STACK_SIZE+0x1bda52c>
 278:	62696c2f 	rsbvs	r6, r9, #12032	; 0x2f00
 27c:	47006970 	smlsdxmi	r0, r0, r9, r6
 280:	4120554e 			; <UNDEFINED> instruction: 0x4120554e
 284:	2e322053 	mrccs	0, 1, r2, cr2, cr3, {2}
 288:	312e3333 			; <UNDEFINED> instruction: 0x312e3333
 28c:	63727300 	cmnvs	r2, #0, 6
 290:	7473632f 	ldrbtvc	r6, [r3], #-815	; 0xfffffcd1
 294:	2e747261 	cdpcs	2, 7, cr7, cr4, cr1, {3}
 298:	73630063 	cmnvc	r3, #99, 0	; 0x63
 29c:	74726174 	ldrbtvc	r6, [r2], #-372	; 0xfffffe8c
 2a0:	625f5f00 	subsvs	r5, pc, #0, 30
 2a4:	735f7373 	cmpvc	pc, #-872415231	; 0xcc000001
 2a8:	74726174 	ldrbtvc	r6, [r2], #-372	; 0xfffffe8c
 2ac:	43005f5f 	movwmi	r5, #3935	; 0xf5f
 2b0:	505f4b4c 	subspl	r4, pc, ip, asr #22
 2b4:	5f495245 	svcpl	0x00495245
 2b8:	4c525443 	cfldrdmi	mvd5, [r2], {67}	; 0x43
 2bc:	625f5f00 	subsvs	r5, pc, #0, 30
 2c0:	655f7373 	ldrbvs	r7, [pc, #-883]	; ffffff55 <__bss_end__+0xdfff0f35>
 2c4:	5f5f646e 	svcpl	0x005f646e
 2c8:	73736200 	cmnvc	r3, #0, 4
 2cc:	646e655f 	strbtvs	r6, [lr], #-1375	; 0xfffffaa1
 2d0:	49504700 	ldmdbmi	r0, {r8, r9, sl, lr}^
 2d4:	454f5f4f 	strbmi	r5, [pc, #-3919]	; fffff38d <__bss_end__+0xdfff036d>
 2d8:	524c435f 	subpl	r4, ip, #2080374785	; 0x7c000001
 2dc:	69726400 	ldmdbvs	r2!, {sl, sp, lr}^
 2e0:	705f6576 	subsvc	r6, pc, r6, ror r5	; <UNPREDICTABLE>
 2e4:	47006461 	strmi	r6, [r0, -r1, ror #8]
 2e8:	5f4f4950 	svcpl	0x004f4950
 2ec:	5f54554f 	svcpl	0x0054554f
 2f0:	00524c43 	subseq	r4, r2, r3, asr #24
 2f4:	425f4f49 	subsmi	r4, pc, #292	; 0x124
 2f8:	5f4b4e41 	svcpl	0x004b4e41
 2fc:	45534142 	ldrbmi	r4, [r3, #-322]	; 0xfffffebe
 300:	4154535f 	cmpmi	r4, pc, asr r3
 304:	00535554 	subseq	r5, r3, r4, asr r5
 308:	53444150 	movtpl	r4, #16720	; 0x4150
 30c:	4950475f 	ldmdbmi	r0, {r0, r1, r2, r3, r4, r6, r8, r9, sl, lr}^
 310:	41425f4f 	cmpmi	r2, pc, asr #30
 314:	52004553 	andpl	r4, r0, #348127232	; 0x14c00000
 318:	54455345 	strbpl	r5, [r5], #-837	; 0xfffffcbb
 31c:	4441505f 	strbmi	r5, [r1], #-95	; 0xffffffa1
 320:	41425f53 	cmpmi	r2, r3, asr pc
 324:	00304b4e 	eorseq	r4, r0, lr, asr #22
 328:	45534552 	ldrbmi	r4, [r3, #-1362]	; 0xfffffaae
 32c:	53555f54 	cmppl	r5, #84, 30	; 0x150
 330:	52544342 	subspl	r4, r4, #134217729	; 0x8000001
 334:	7067004c 	rsbvc	r0, r7, ip, asr #32
 338:	735f6f69 	cmpvc	pc, #420	; 0x1a4
 33c:	695f7465 	ldmdbvs	pc, {r0, r2, r5, r6, sl, ip, sp, lr}^	; <UNPREDICTABLE>
 340:	7475706e 	ldrbtvc	r7, [r5], #-110	; 0xffffff92
 344:	53455200 	movtpl	r5, #20992	; 0x5200
 348:	505f5445 	subspl	r5, pc, r5, asr #8
 34c:	00304f49 	eorseq	r4, r0, r9, asr #30
 350:	6f697067 	svcvs	0x00697067
 354:	6165725f 	cmnvs	r5, pc, asr r2
 358:	70670064 	rsbvc	r0, r7, r4, rrx
 35c:	735f6f69 	cmpvc	pc, #420	; 0x1a4
 360:	6f5f7465 	svcvs	0x005f7465
 364:	52006666 	andpl	r6, r0, #106954752	; 0x6600000
 368:	54455345 	strbpl	r5, [r5], #-837	; 0xfffffcbb
 36c:	5f4f495f 	svcpl	0x004f495f
 370:	4b4e4142 	blmi	1390880 <STACK_SIZE+0x138e170>
 374:	70670030 	rsbvc	r0, r7, r0, lsr r0
 378:	735f6f69 	cmpvc	pc, #420	; 0x1a4
 37c:	6f5f7465 	svcvs	0x005f7465
 380:	75707475 	ldrbvc	r7, [r0, #-1141]!	; 0xfffffb8b
 384:	41570074 	cmpmi	r7, r4, ror r0
 388:	5f484354 	svcpl	0x00484354
 38c:	00474f44 	subeq	r4, r7, r4, asr #30
 390:	65736572 	ldrbvs	r6, [r3, #-1394]!	; 0xfffffa8e
 394:	69705f74 	ldmdbvs	r0!, {r2, r4, r5, r6, r8, r9, sl, fp, ip, lr}^
 398:	5047006f 	subpl	r0, r7, pc, rrx
 39c:	495f4f49 	ldmdbmi	pc, {r0, r3, r6, r8, r9, sl, fp, lr}^	; <UNPREDICTABLE>
 3a0:	4552004e 	ldrbmi	r0, [r2, #-78]	; 0xffffffb2
 3a4:	5f544553 	svcpl	0x00544553
 3a8:	454e4f44 	strbmi	r4, [lr, #-3908]	; 0xfffff0bc
 3ac:	44415000 	strbmi	r5, [r1], #-0
 3b0:	4f565f53 	svcmi	0x00565f53
 3b4:	535f544c 	cmppl	pc, #76, 8	; 0x4c000000
 3b8:	43454c45 	movtmi	r4, #23621	; 0x5c45
 3bc:	50470054 	subpl	r0, r7, r4, asr r0
 3c0:	4f5f4f49 	svcmi	0x005f4f49
 3c4:	45520045 	ldrbmi	r0, [r2, #-69]	; 0xffffffbb
 3c8:	5f544553 	svcpl	0x00544553
 3cc:	54524155 	ldrbpl	r4, [r2], #-341	; 0xfffffeab
 3d0:	45520030 	ldrbmi	r0, [r2, #-48]	; 0xffffffd0
 3d4:	5f544553 	svcpl	0x00544553
 3d8:	54524155 	ldrbpl	r4, [r2], #-341	; 0xfffffeab
 3dc:	65720031 	ldrbvs	r0, [r2, #-49]!	; 0xffffffcf
 3e0:	5f746573 	svcpl	0x00746573
 3e4:	73646170 	cmnvc	r4, #28
 3e8:	53455200 	movtpl	r5, #20992	; 0x5200
 3ec:	5f535445 	svcpl	0x00535445
 3f0:	45534552 	ldrbmi	r4, [r3, #-1362]	; 0xfffffaae
 3f4:	4c435f54 	mcrrmi	15, 5, r5, r3, cr4
 3f8:	70670052 	rsbvc	r0, r7, r2, asr r0
 3fc:	725f6f69 	subsvc	r6, pc, #420	; 0x1a4
 400:	74657365 	strbtvc	r7, [r5], #-869	; 0xfffffc9b
 404:	66666f00 	strbtvs	r6, [r6], -r0, lsl #30
 408:	00746573 	rsbseq	r6, r4, r3, ror r5
 40c:	425f4f49 	subsmi	r4, pc, #292	; 0x124
 410:	5f4b4e41 	svcpl	0x004b4e41
 414:	45534142 	ldrbmi	r4, [r3, #-322]	; 0xfffffebe
 418:	5254435f 	subspl	r4, r4, #2080374785	; 0x7c000001
 41c:	4552004c 	ldrbmi	r0, [r2, #-76]	; 0xffffffb4
 420:	5f544553 	svcpl	0x00544553
 424:	314f4950 	cmpcc	pc, r0, asr r9	; <UNPREDICTABLE>
 428:	73657200 	cmnvc	r5, #0, 4
 42c:	705f7465 	subsvc	r7, pc, r5, ror #8
 430:	70697265 	rsbvc	r7, r9, r5, ror #4
 434:	50470068 	subpl	r0, r7, r8, rrx
 438:	4f5f4f49 	svcmi	0x005f4f49
 43c:	45535f45 	ldrbmi	r5, [r3, #-3909]	; 0xfffff0bb
 440:	72730054 	rsbsvc	r0, r3, #84, 0	; 0x54
 444:	70672f63 	rsbvc	r2, r7, r3, ror #30
 448:	632e6f69 			; <UNDEFINED> instruction: 0x632e6f69
 44c:	49504700 	ldmdbmi	r0, {r8, r9, sl, lr}^
 450:	554f5f4f 	strbpl	r5, [pc, #-3919]	; fffff509 <__bss_end__+0xdfff04e9>
 454:	45535f54 	ldrbmi	r5, [r3, #-3924]	; 0xfffff0ac
 458:	70670054 	rsbvc	r0, r7, r4, asr r0
 45c:	735f6f69 	cmpvc	pc, #420	; 0x1a4
 460:	665f7465 	ldrbvs	r7, [pc], -r5, ror #8
 464:	74636e75 	strbtvc	r6, [r3], #-3701	; 0xfffff18b
 468:	006e6f69 	rsbeq	r6, lr, r9, ror #30
 46c:	45534552 	ldrbmi	r4, [r3, #-1362]	; 0xfffffaae
 470:	50470054 	subpl	r0, r7, r4, asr r0
 474:	4f5f4f49 	svcmi	0x005f4f49
 478:	67005455 	smlsdvs	r0, r5, r4, r5
 47c:	5f6f6970 	svcpl	0x006f6970
 480:	5f746573 	svcpl	0x00746573
 484:	58006e6f 	stmdapl	r0, {r0, r1, r2, r3, r5, r6, r9, sl, fp, sp, lr}
 488:	5f43534f 	svcpl	0x0043534f
 48c:	4d524f44 	ldclmi	15, cr4, [r2, #-272]	; 0xfffffef0
 490:	00544e41 	subseq	r4, r4, r1, asr #28
 494:	6e756f63 	cdpvs	15, 7, cr6, cr5, cr3, {3}
 498:	4f580074 	svcmi	0x00580074
 49c:	535f4353 	cmppl	pc, #1275068417	; 0x4c000001
 4a0:	54524154 	ldrbpl	r4, [r2], #-340	; 0xfffffeac
 4a4:	65005055 	strvs	r5, [r0, #-85]	; 0xffffffab
 4a8:	6c62616e 	stfvse	f6, [r2], #-440	; 0xfffffe48
 4ac:	6c635f65 	stclvs	15, cr5, [r3], #-404	; 0xfffffe6c
 4b0:	65705f6b 	ldrbvs	r5, [r0, #-3947]!	; 0xfffff095
 4b4:	58006972 	stmdapl	r0, {r1, r4, r5, r6, r8, fp, sp, lr}
 4b8:	5f43534f 	svcpl	0x0043534f
 4bc:	54415453 	strbpl	r5, [r1], #-1107	; 0xfffffbad
 4c0:	64005355 	strvs	r5, [r0], #-853	; 0xfffffcab
 4c4:	79616c65 	stmdbvc	r1!, {r0, r2, r5, r6, sl, fp, sp, lr}^
 4c8:	756f7300 	strbvc	r7, [pc, #-768]!	; 1d0 <STACK_SIZE-0x2540>
 4cc:	00656372 	rsbeq	r6, r5, r2, ror r3
 4d0:	2f637273 	svccs	0x00637273
 4d4:	636f6c63 	cmnvs	pc, #25344	; 0x6300
 4d8:	00632e6b 	rsbeq	r2, r3, fp, ror #28
 4dc:	616c6564 	cmnvs	ip, r4, ror #10
 4e0:	73755f79 	cmnvc	r5, #484	; 0x1e4
 4e4:	534f5800 	movtpl	r5, #63488	; 0xf800
 4e8:	4f435f43 	svcmi	0x00435f43
 4ec:	00544e55 	subseq	r4, r4, r5, asr lr
 4f0:	7263696d 	rsbvc	r6, r3, #1785856	; 0x1b4000
 4f4:	65735f6f 	ldrbvs	r5, [r3, #-3951]!	; 0xfffff091
 4f8:	646e6f63 	strbtvs	r6, [lr], #-3939	; 0xfffff09d
 4fc:	74735f73 	ldrbtvc	r5, [r3], #-3955	; 0xfffff08d
 500:	00747261 	rsbseq	r7, r4, r1, ror #4
 504:	62616e65 	rsbvs	r6, r1, #1616	; 0x650
 508:	635f656c 	cmpvs	pc, #108, 10	; 0x1b000000
 50c:	6b636f6c 	blvs	18dc2c4 <STACK_SIZE+0x18d9bb4>
 510:	6d756e00 	ldclvs	14, cr6, [r5, #-0]
 514:	6f6f6c5f 	svcvs	0x006f6c5f
 518:	58007370 	stmdapl	r0, {r4, r5, r6, r8, r9, ip, sp, lr}
 51c:	5f43534f 	svcpl	0x0043534f
 520:	4c525443 	cfldrdmi	mvd5, [r2], {67}	; 0x43
 524:	616e6500 	cmnvs	lr, r0, lsl #10
 528:	5f656c62 	svcpl	0x00656c62
 52c:	00737973 	rsbseq	r7, r3, r3, ror r9
 530:	6f6f425f 	svcvs	0x006f425f
 534:	7375006c 	cmnvc	r5, #108, 0	; 0x6c
 538:	73006365 	movwvc	r6, #869	; 0x365
 53c:	732f6372 			; <UNDEFINED> instruction: 0x732f6372
 540:	61752d77 	cmnvs	r5, r7, ror sp
 544:	632e7472 			; <UNDEFINED> instruction: 0x632e7472
 548:	5f777300 	svcpl	0x00777300
 54c:	74726175 	ldrbtvc	r6, [r2], #-373	; 0xfffffe8b
 550:	7475705f 	ldrbtvc	r7, [r5], #-95	; 0xffffffa1
 554:	69740063 	ldmdbvs	r4!, {r0, r1, r5, r6}^
 558:	5f64656d 	svcpl	0x0064656d
 55c:	74697277 	strbtvc	r7, [r9], #-631	; 0xfffffd89
 560:	6e690065 	cdpvs	0, 6, cr0, cr9, cr5, {3}
 564:	755f7469 	ldrbvc	r7, [pc, #-1129]	; 103 <STACK_SIZE-0x260d>
 568:	5f747261 	svcpl	0x00747261
 56c:	6e697270 	mcrvs	2, 3, r7, cr9, cr0, {3}
 570:	676e6974 			; <UNDEFINED> instruction: 0x676e6974
 574:	5f777300 	svcpl	0x00777300
 578:	74726175 	ldrbtvc	r6, [r2], #-373	; 0xfffffe8b
 57c:	7475705f 	ldrbtvc	r7, [r5], #-95	; 0xffffffa1
 580:	6572006b 	ldrbvs	r0, [r2, #-107]!	; 0xffffff95
 584:	746c7573 	strbtvc	r7, [ip], #-1395	; 0xfffffa8d
 588:	74756f00 	ldrbtvc	r6, [r5], #-3840	; 0xfffff100
 58c:	7463665f 	strbtvc	r6, [r3], #-1631	; 0xfffff9a1
 590:	6172775f 	cmnvs	r2, pc, asr r7
 594:	6f5f0070 	svcvs	0x005f0070
 598:	625f7475 	subsvs	r7, pc, #1962934272	; 0x75000000
 59c:	65666675 	strbvs	r6, [r6, #-1653]!	; 0xfffff98b
 5a0:	69750072 	ldmdbvs	r5!, {r1, r4, r5, r6}^
 5a4:	3436746e 	ldrtcc	r7, [r6], #-1134	; 0xfffffb92
 5a8:	7300745f 	movwvc	r7, #1119	; 0x45f
 5ac:	5f657a69 	svcpl	0x00657a69
 5b0:	6f5f0074 	svcvs	0x005f0074
 5b4:	635f7475 	cmpvs	pc, #1962934272	; 0x75000000
 5b8:	00726168 	rsbseq	r6, r2, r8, ror #2
 5bc:	7378616d 	cmnvc	r8, #1073741851	; 0x4000001b
 5c0:	00657a69 	rsbeq	r7, r5, r9, ror #20
 5c4:	646f6d69 	strbtvs	r6, [pc], #-3433	; 5cc <STACK_SIZE-0x2144>
 5c8:	6c617600 	stclvs	6, cr7, [r1], #-0
 5cc:	5f006575 	svcpl	0x00006575
 5d0:	5f74756f 	svcpl	0x0074756f
 5d4:	00746366 	rsbseq	r6, r4, r6, ror #6
 5d8:	746e6975 	strbtvc	r6, [lr], #-2421	; 0xfffff68b
 5dc:	5f727470 	svcpl	0x00727470
 5e0:	74730074 	ldrbtvc	r0, [r3], #-116	; 0xffffff8c
 5e4:	5f747261 	svcpl	0x00747261
 5e8:	00786469 	rsbseq	r6, r8, r9, ror #8
 5ec:	2f637273 	svccs	0x00637273
 5f0:	6e697270 	mcrvs	2, 3, r7, cr9, cr0, {3}
 5f4:	632e6674 			; <UNDEFINED> instruction: 0x632e6674
 5f8:	64697700 	strbtvs	r7, [r9], #-1792	; 0xfffff900
 5fc:	66006874 			; <UNDEFINED> instruction: 0x66006874
 600:	72707463 	rsbsvc	r7, r0, #1660944384	; 0x63000000
 604:	66746e69 	ldrbtvs	r6, [r4], -r9, ror #28
 608:	67656e00 	strbvs	r6, [r5, -r0, lsl #28]!
 60c:	76697461 	strbtvc	r7, [r9], -r1, ror #8
 610:	5f5f0065 	svcpl	0x005f0065
 614:	6c5f6176 	ldfvse	f6, [pc], {118}	; 0x76
 618:	00747369 	rsbseq	r7, r4, r9, ror #6
 61c:	73626169 	cmnvc	r2, #1073741850	; 0x4000001a
 620:	746e5f00 	strbtvc	r5, [lr], #-3840	; 0xfffff100
 624:	665f616f 	ldrbvs	r6, [pc], -pc, ror #2
 628:	616d726f 	cmnvs	sp, pc, ror #4
 62c:	6f5f0074 	svcvs	0x005f0074
 630:	6e5f7475 	mrcvs	4, 2, r7, cr15, cr5, {3}
 634:	006c6c75 	rsbeq	r6, ip, r5, ror ip
 638:	76696475 			; <UNDEFINED> instruction: 0x76696475
 63c:	74756f00 	ldrbtvc	r6, [r5], #-3840	; 0xfffff100
 640:	7463665f 	strbtvc	r6, [r3], #-1631	; 0xfffff9a1
 644:	7079745f 	rsbsvc	r7, r9, pc, asr r4
 648:	6e5f0065 	cdpvs	0, 5, cr0, cr15, cr5, {3}
 64c:	5f616f74 	svcpl	0x00616f74
 650:	676e6f6c 	strbvs	r6, [lr, -ip, ror #30]!
 654:	616c6600 	cmnvs	ip, r0, lsl #12
 658:	5f007367 	svcpl	0x00007367
 65c:	0070615f 	rsbseq	r6, r0, pc, asr r1
 660:	706e7376 	rsbvc	r7, lr, r6, ror r3
 664:	746e6972 	strbtvc	r6, [lr], #-2418	; 0xfffff68e
 668:	6d005f66 	stcvs	15, cr5, [r0, #-408]	; 0xfffffe68
 66c:	656c7861 	strbvs	r7, [ip, #-2145]!	; 0xfffff79f
 670:	615f006e 	cmpvs	pc, lr, rrx
 674:	00696f74 	rsbeq	r6, r9, r4, ror pc
 678:	7274735f 	rsbsvc	r7, r4, #2080374785	; 0x7c000001
 67c:	6e656c6e 	cdpvs	12, 6, cr6, cr5, cr14, {3}
 680:	7300735f 	movwvc	r7, #863	; 0x35f
 684:	6e697270 	mcrvs	2, 3, r7, cr9, cr0, {3}
 688:	005f6674 	subseq	r6, pc, r4, ror r6	; <UNPREDICTABLE>
 68c:	5f73695f 	svcpl	0x0073695f
 690:	69676964 	stmdbvs	r7!, {r2, r5, r6, r8, fp, sp, lr}^
 694:	765f0074 			; <UNDEFINED> instruction: 0x765f0074
 698:	72706e73 	rsbsvc	r6, r0, #1840	; 0x730
 69c:	66746e69 	ldrbtvs	r6, [r4], -r9, ror #28
 6a0:	61686300 	cmnvs	r8, r0, lsl #6
 6a4:	74636172 	strbtvc	r6, [r3], #-370	; 0xfffffe8e
 6a8:	5f007265 	svcpl	0x00007265
 6ac:	5f74756f 	svcpl	0x0074756f
 6b0:	00766572 	rsbseq	r6, r6, r2, ror r5
 6b4:	76696469 	strbtvc	r6, [r9], -r9, ror #8
 6b8:	75705f00 	ldrbvc	r5, [r0, #-3840]!	; 0xfffff100
 6bc:	61686374 	smcvs	34356	; 0x8634
 6c0:	756f0072 	strbvc	r0, [pc, #-114]!	; 656 <STACK_SIZE-0x20ba>
 6c4:	63665f74 	cmnvs	r6, #116, 30	; 0x1d0
 6c8:	72775f74 	rsbsvc	r5, r7, #116, 30	; 0x1d0
 6cc:	745f7061 	ldrbvc	r7, [pc], #-97	; 6d4 <STACK_SIZE-0x203c>
 6d0:	00657079 	rsbeq	r7, r5, r9, ror r0
 6d4:	63657270 	cmnvs	r5, #112, 4
 6d8:	675f5f00 	ldrbvs	r5, [pc, -r0, lsl #30]
 6dc:	5f63756e 	svcpl	0x0063756e
 6e0:	6c5f6176 	ldfvse	f6, [pc], {118}	; 0x76
 6e4:	00747369 	rsbseq	r7, r4, r9, ror #6
 6e8:	65736162 	ldrbvs	r6, [r3, #-354]!	; 0xfffffe9e
 6ec:	76696400 	strbtvc	r6, [r9], -r0, lsl #8
 6f0:	7000756c 	andvc	r7, r0, ip, ror #10
 6f4:	69636572 	stmdbvs	r3!, {r1, r4, r5, r6, r8, sl, sp, lr}^
 6f8:	6e6f6973 			; <UNDEFINED> instruction: 0x6e6f6973
 6fc:	72707600 	rsbsvc	r7, r0, #0, 12
 700:	66746e69 	ldrbtvs	r6, [r4], -r9, ror #28
 704:	6175005f 	cmnvs	r5, pc, asr r0
 708:	695f7472 	ldmdbvs	pc, {r1, r4, r5, r6, sl, ip, sp, lr}^	; <UNPREDICTABLE>
 70c:	0074696e 	rsbseq	r6, r4, lr, ror #18
 710:	2f637273 	svccs	0x00637273
 714:	74726175 	ldrbtvc	r6, [r2], #-373	; 0xfffffe8b
 718:	4600632e 	strmi	r6, [r0], -lr, lsr #6
 71c:	5f434e55 	svcpl	0x00434e55
 720:	004f4953 	subeq	r4, pc, r3, asr r9	; <UNPREDICTABLE>
 724:	54524155 	ldrbpl	r4, [r2], #-341	; 0xfffffeab
 728:	5242495f 	subpl	r4, r2, #1556480	; 0x17c000
 72c:	464f5f44 	strbmi	r5, [pc], -r4, asr #30
 730:	54455346 	strbpl	r5, [r5], #-838	; 0xfffffcba
 734:	72617500 	rsbvc	r7, r1, #0, 10
 738:	65675f74 	strbvs	r5, [r7, #-3956]!	; 0xfffff08c
 73c:	615f6374 	cmpvs	pc, r4, ror r3	; <UNPREDICTABLE>
 740:	636e7973 	cmnvs	lr, #1884160	; 0x1cc000
 744:	52415500 	subpl	r5, r1, #0, 10
 748:	54435f54 	strbpl	r5, [r3], #-3924	; 0xfffff0ac
 74c:	4f5f4c52 	svcmi	0x005f4c52
 750:	45534646 	ldrbmi	r4, [r3, #-1606]	; 0xfffff9ba
 754:	61750054 	cmnvs	r5, r4, asr r0
 758:	635f7472 	cmpvs	pc, #1912602624	; 0x72000000
 75c:	705f6e61 	subsvc	r6, pc, r1, ror #28
 760:	00637475 	rsbeq	r7, r3, r5, ror r4
 764:	54524155 	ldrbpl	r4, [r2], #-341	; 0xfffffeab
 768:	52434c5f 	subpl	r4, r3, #24320	; 0x5f00
 76c:	46464f5f 			; <UNDEFINED> instruction: 0x46464f5f
 770:	00544553 	subseq	r4, r4, r3, asr r5
 774:	54524155 	ldrbpl	r4, [r2], #-341	; 0xfffffeab
 778:	5441445f 	strbpl	r4, [r1], #-1119	; 0xfffffba1
 77c:	464f5f41 	strbmi	r5, [pc], -r1, asr #30
 780:	54455346 	strbpl	r5, [r5], #-838	; 0xfffffcba
 784:	72617500 	rsbvc	r7, r1, #0, 10
 788:	65675f74 	strbvs	r5, [r7, #-3956]!	; 0xfffff08c
 78c:	55006374 	strpl	r6, [r0, #-884]	; 0xfffffc8c
 790:	5f545241 	svcpl	0x00545241
 794:	5f525352 	svcpl	0x00525352
 798:	5346464f 	movtpl	r4, #26191	; 0x664f
 79c:	66005445 	strvs	r5, [r0], -r5, asr #8
 7a0:	00647262 	rsbeq	r7, r4, r2, ror #4
 7a4:	64756162 	ldrbtvs	r6, [r5], #-354	; 0xfffffe9e
 7a8:	7461725f 	strbtvc	r7, [r1], #-607	; 0xfffffda1
 7ac:	69645f65 	stmdbvs	r4!, {r0, r2, r5, r6, r8, r9, sl, fp, ip, lr}^
 7b0:	6f736976 	svcvs	0x00736976
 7b4:	61750072 	cmnvs	r5, r2, ror r0
 7b8:	685f7472 	ldmdavs	pc, {r1, r4, r5, r6, sl, ip, sp, lr}^	; <UNPREDICTABLE>
 7bc:	645f7361 	ldrbvs	r7, [pc], #-865	; 7c4 <STACK_SIZE-0x1f4c>
 7c0:	00617461 	rsbeq	r7, r1, r1, ror #8
 7c4:	64756162 	ldrbtvs	r6, [r5], #-354	; 0xfffffe9e
 7c8:	7461725f 	strbtvc	r7, [r1], #-607	; 0xfffffda1
 7cc:	72665f65 	rsbvc	r5, r6, #404	; 0x194
 7d0:	75006361 	strvc	r6, [r0, #-865]	; 0xfffffc9f
 7d4:	5f747261 	svcpl	0x00747261
 7d8:	5f6e6163 	svcpl	0x006e6163
 7dc:	63746567 	cmnvs	r4, #432013312	; 0x19c00000
 7e0:	52415500 	subpl	r5, r1, #0, 10
 7e4:	42465f54 	submi	r5, r6, #84, 30	; 0x150
 7e8:	4f5f4452 	svcmi	0x005f4452
 7ec:	45534646 	ldrbmi	r4, [r3, #-1606]	; 0xfffff9ba
 7f0:	41550054 	cmpmi	r5, r4, asr r0
 7f4:	465f5452 			; <UNDEFINED> instruction: 0x465f5452
 7f8:	464f5f52 			; <UNDEFINED> instruction: 0x464f5f52
 7fc:	54455346 	strbpl	r5, [r5], #-838	; 0xfffffcba
	...

Disassembly of section .comment:

00000000 <.comment>:
   0:	3a434347 	bcc	10d0d24 <STACK_SIZE+0x10ce614>
   4:	4e472820 	cdpmi	8, 4, cr2, cr7, cr0, {1}
   8:	6f542055 	svcvs	0x00542055
   c:	20736c6f 	rsbscs	r6, r3, pc, ror #24
  10:	20726f66 	rsbscs	r6, r2, r6, ror #30
  14:	206d7241 	rsbcs	r7, sp, r1, asr #4
  18:	65626d45 	strbvs	r6, [r2, #-3397]!	; 0xfffff2bb
  1c:	64656464 	strbtvs	r6, [r5], #-1124	; 0xfffffb9c
  20:	6f725020 	svcvs	0x00725020
  24:	73736563 	cmnvc	r3, #415236096	; 0x18c00000
  28:	2073726f 	rsbscs	r7, r3, pc, ror #4
  2c:	30322d39 	eorscc	r2, r2, r9, lsr sp
  30:	712d3931 			; <UNDEFINED> instruction: 0x712d3931
  34:	616d2d34 	cmnvs	sp, r4, lsr sp
  38:	29726f6a 	ldmdbcs	r2!, {r1, r3, r5, r6, r8, r9, sl, fp, sp, lr}^
  3c:	322e3920 	eorcc	r3, lr, #32, 18	; 0x80000
  40:	3220312e 	eorcc	r3, r0, #-2147483637	; 0x8000000b
  44:	31393130 	teqcc	r9, r0, lsr r1
  48:	20353230 	eorscs	r3, r5, r0, lsr r2
  4c:	6c657228 	sfmvs	f7, 2, [r5], #-160	; 0xffffff60
  50:	65736165 	ldrbvs	r6, [r3, #-357]!	; 0xfffffe9b
  54:	415b2029 	cmpmi	fp, r9, lsr #32
  58:	612f4d52 			; <UNDEFINED> instruction: 0x612f4d52
  5c:	392d6d72 	pushcc	{r1, r4, r5, r6, r8, sl, fp, sp, lr}
  60:	6172622d 	cmnvs	r2, sp, lsr #4
  64:	2068636e 	rsbcs	r6, r8, lr, ror #6
  68:	69766572 	ldmdbvs	r6!, {r1, r4, r5, r6, r8, sl, sp, lr}^
  6c:	6e6f6973 			; <UNDEFINED> instruction: 0x6e6f6973
  70:	37373220 	ldrcc	r3, [r7, -r0, lsr #4]!
  74:	5d393935 			; <UNDEFINED> instruction: 0x5d393935
	...

Disassembly of section .ARM.attributes:

00000000 <.ARM.attributes>:
   0:	00002941 	andeq	r2, r0, r1, asr #18
   4:	61656100 	cmnvs	r5, r0, lsl #2
   8:	01006962 	tsteq	r0, r2, ror #18
   c:	0000001f 	andeq	r0, r0, pc, lsl r0
  10:	2d533605 	ldclcs	6, cr3, [r3, #-20]	; 0xffffffec
  14:	0c06004d 	stceq	0, cr0, [r6], {77}	; 0x4d
  18:	01094d07 	tsteq	r9, r7, lsl #26
  1c:	01140412 	tsteq	r4, r2, lsl r4
  20:	03170115 	tsteq	r7, #1073741829	; 0x40000005
  24:	011a0118 	tsteq	sl, r8, lsl r1
  28:	Address 0x0000000000000028 is out of bounds.


Disassembly of section .debug_frame:

00000000 <.debug_frame>:
   0:	0000000c 	andeq	r0, r0, ip
   4:	ffffffff 			; <UNDEFINED> instruction: 0xffffffff
   8:	7c020001 	stcvc	0, cr0, [r2], {1}
   c:	000d0c0e 	andeq	r0, sp, lr, lsl #24
  10:	0000001c 	andeq	r0, r0, ip, lsl r0
  14:	00000000 	andeq	r0, r0, r0
  18:	2000011c 	andcs	r0, r0, ip, lsl r1
  1c:	000000e8 	andeq	r0, r0, r8, ror #1
  20:	87080e41 	strhi	r0, [r8, -r1, asr #28]
  24:	41018e02 	tstmi	r1, r2, lsl #28
  28:	0d41100e 	stcleq	0, cr1, [r1, #-56]	; 0xffffffc8
  2c:	00000007 	andeq	r0, r0, r7
  30:	0000000c 	andeq	r0, r0, ip
  34:	ffffffff 			; <UNDEFINED> instruction: 0xffffffff
  38:	7c020001 	stcvc	0, cr0, [r2], {1}
  3c:	000d0c0e 	andeq	r0, sp, lr, lsl #24
  40:	0000001c 	andeq	r0, r0, ip, lsl r0
  44:	00000030 	andeq	r0, r0, r0, lsr r0
  48:	20000204 	andcs	r0, r0, r4, lsl #4
  4c:	00000080 	andeq	r0, r0, r0, lsl #1
  50:	87080e41 	strhi	r0, [r8, -r1, asr #28]
  54:	41018e02 	tstmi	r1, r2, lsl #28
  58:	0d41100e 	stcleq	0, cr1, [r1, #-56]	; 0xffffffc8
  5c:	00000007 	andeq	r0, r0, r7
  60:	0000000c 	andeq	r0, r0, ip
  64:	ffffffff 			; <UNDEFINED> instruction: 0xffffffff
  68:	7c020001 	stcvc	0, cr0, [r2], {1}
  6c:	000d0c0e 	andeq	r0, sp, lr, lsl #24
  70:	0000001c 	andeq	r0, r0, ip, lsl r0
  74:	00000060 	andeq	r0, r0, r0, rrx
  78:	20000284 	andcs	r0, r0, r4, lsl #5
  7c:	00000048 	andeq	r0, r0, r8, asr #32
  80:	87080e41 	strhi	r0, [r8, -r1, asr #28]
  84:	41018e02 	tstmi	r1, r2, lsl #28
  88:	0d41100e 	stcleq	0, cr1, [r1, #-56]	; 0xffffffc8
  8c:	00000007 	andeq	r0, r0, r7
  90:	00000018 	andeq	r0, r0, r8, lsl r0
  94:	00000060 	andeq	r0, r0, r0, rrx
  98:	200002cc 	andcs	r0, r0, ip, asr #5
  9c:	00000010 	andeq	r0, r0, r0, lsl r0
  a0:	87080e41 	strhi	r0, [r8, -r1, asr #28]
  a4:	41018e02 	tstmi	r1, r2, lsl #28
  a8:	0000070d 	andeq	r0, r0, sp, lsl #14
  ac:	0000001c 	andeq	r0, r0, ip, lsl r0
  b0:	00000060 	andeq	r0, r0, r0, rrx
  b4:	200002dc 	ldrdcs	r0, [r0], -ip
  b8:	00000040 	andeq	r0, r0, r0, asr #32
  bc:	87080e41 	strhi	r0, [r8, -r1, asr #28]
  c0:	41018e02 	tstmi	r1, r2, lsl #28
  c4:	0d41180e 	stcleq	8, cr1, [r1, #-56]	; 0xffffffc8
  c8:	00000007 	andeq	r0, r0, r7
  cc:	0000001c 	andeq	r0, r0, ip, lsl r0
  d0:	00000060 	andeq	r0, r0, r0, rrx
  d4:	2000031c 	andcs	r0, r0, ip, lsl r3
  d8:	00000040 	andeq	r0, r0, r0, asr #32
  dc:	87080e41 	strhi	r0, [r8, -r1, asr #28]
  e0:	41018e02 	tstmi	r1, r2, lsl #28
  e4:	0d41180e 	stcleq	8, cr1, [r1, #-56]	; 0xffffffc8
  e8:	00000007 	andeq	r0, r0, r7
  ec:	0000001c 	andeq	r0, r0, ip, lsl r0
  f0:	00000060 	andeq	r0, r0, r0, rrx
  f4:	2000035c 	andcs	r0, r0, ip, asr r3
  f8:	00000034 	andeq	r0, r0, r4, lsr r0
  fc:	87080e41 	strhi	r0, [r8, -r1, asr #28]
 100:	41018e02 	tstmi	r1, r2, lsl #28
 104:	0d41100e 	stcleq	0, cr1, [r1, #-56]	; 0xffffffc8
 108:	00000007 	andeq	r0, r0, r7
 10c:	0000001c 	andeq	r0, r0, ip, lsl r0
 110:	00000060 	andeq	r0, r0, r0, rrx
 114:	20000390 	mulcs	r0, r0, r3
 118:	0000007c 	andeq	r0, r0, ip, ror r0
 11c:	87080e41 	strhi	r0, [r8, -r1, asr #28]
 120:	41018e02 	tstmi	r1, r2, lsl #28
 124:	0d41180e 	stcleq	8, cr1, [r1, #-56]	; 0xffffffc8
 128:	00000007 	andeq	r0, r0, r7
 12c:	0000001c 	andeq	r0, r0, ip, lsl r0
 130:	00000060 	andeq	r0, r0, r0, rrx
 134:	2000040c 	andcs	r0, r0, ip, lsl #8
 138:	00000030 	andeq	r0, r0, r0, lsr r0
 13c:	87080e41 	strhi	r0, [r8, -r1, asr #28]
 140:	41018e02 	tstmi	r1, r2, lsl #28
 144:	0d41100e 	stcleq	0, cr1, [r1, #-56]	; 0xffffffc8
 148:	00000007 	andeq	r0, r0, r7
 14c:	0000001c 	andeq	r0, r0, ip, lsl r0
 150:	00000060 	andeq	r0, r0, r0, rrx
 154:	2000043c 	andcs	r0, r0, ip, lsr r4
 158:	00000030 	andeq	r0, r0, r0, lsr r0
 15c:	87080e41 	strhi	r0, [r8, -r1, asr #28]
 160:	41018e02 	tstmi	r1, r2, lsl #28
 164:	0d41100e 	stcleq	0, cr1, [r1, #-56]	; 0xffffffc8
 168:	00000007 	andeq	r0, r0, r7
 16c:	00000018 	andeq	r0, r0, r8, lsl r0
 170:	00000060 	andeq	r0, r0, r0, rrx
 174:	2000046c 	andcs	r0, r0, ip, ror #8
 178:	00000010 	andeq	r0, r0, r0, lsl r0
 17c:	87080e41 	strhi	r0, [r8, -r1, asr #28]
 180:	41018e02 	tstmi	r1, r2, lsl #28
 184:	0000070d 	andeq	r0, r0, sp, lsl #14
 188:	00000018 	andeq	r0, r0, r8, lsl r0
 18c:	00000060 	andeq	r0, r0, r0, rrx
 190:	2000047c 	andcs	r0, r0, ip, ror r4
 194:	00000010 	andeq	r0, r0, r0, lsl r0
 198:	87080e41 	strhi	r0, [r8, -r1, asr #28]
 19c:	41018e02 	tstmi	r1, r2, lsl #28
 1a0:	0000070d 	andeq	r0, r0, sp, lsl #14
 1a4:	0000001c 	andeq	r0, r0, ip, lsl r0
 1a8:	00000060 	andeq	r0, r0, r0, rrx
 1ac:	2000048c 	andcs	r0, r0, ip, lsl #9
 1b0:	00000034 	andeq	r0, r0, r4, lsr r0
 1b4:	87080e41 	strhi	r0, [r8, -r1, asr #28]
 1b8:	41018e02 	tstmi	r1, r2, lsl #28
 1bc:	0d41180e 	stcleq	8, cr1, [r1, #-56]	; 0xffffffc8
 1c0:	00000007 	andeq	r0, r0, r7
 1c4:	0000000c 	andeq	r0, r0, ip
 1c8:	ffffffff 			; <UNDEFINED> instruction: 0xffffffff
 1cc:	7c020001 	stcvc	0, cr0, [r2], {1}
 1d0:	000d0c0e 	andeq	r0, sp, lr, lsl #24
 1d4:	00000018 	andeq	r0, r0, r8, lsl r0
 1d8:	000001c4 	andeq	r0, r0, r4, asr #3
 1dc:	200004c0 	andcs	r0, r0, r0, asr #9
 1e0:	0000005c 	andeq	r0, r0, ip, asr r0
 1e4:	87080e41 	strhi	r0, [r8, -r1, asr #28]
 1e8:	41018e02 	tstmi	r1, r2, lsl #28
 1ec:	0000070d 	andeq	r0, r0, sp, lsl #14
 1f0:	0000001c 	andeq	r0, r0, ip, lsl r0
 1f4:	000001c4 	andeq	r0, r0, r4, asr #3
 1f8:	2000051c 	andcs	r0, r0, ip, lsl r5
 1fc:	00000084 	andeq	r0, r0, r4, lsl #1
 200:	87080e41 	strhi	r0, [r8, -r1, asr #28]
 204:	41018e02 	tstmi	r1, r2, lsl #28
 208:	0d41180e 	stcleq	8, cr1, [r1, #-56]	; 0xffffffc8
 20c:	00000007 	andeq	r0, r0, r7
 210:	0000001c 	andeq	r0, r0, ip, lsl r0
 214:	000001c4 	andeq	r0, r0, r4, asr #3
 218:	200005a0 	andcs	r0, r0, r0, lsr #11
 21c:	00000058 	andeq	r0, r0, r8, asr r0
 220:	87080e41 	strhi	r0, [r8, -r1, asr #28]
 224:	41018e02 	tstmi	r1, r2, lsl #28
 228:	0d41180e 	stcleq	8, cr1, [r1, #-56]	; 0xffffffc8
 22c:	00000007 	andeq	r0, r0, r7
 230:	0000001c 	andeq	r0, r0, ip, lsl r0
 234:	000001c4 	andeq	r0, r0, r4, asr #3
 238:	200005f8 	strdcs	r0, [r0], -r8
 23c:	00000048 	andeq	r0, r0, r8, asr #32
 240:	87080e41 	strhi	r0, [r8, -r1, asr #28]
 244:	41018e02 	tstmi	r1, r2, lsl #28
 248:	0d41100e 	stcleq	0, cr1, [r1, #-56]	; 0xffffffc8
 24c:	00000007 	andeq	r0, r0, r7
 250:	0000001c 	andeq	r0, r0, ip, lsl r0
 254:	000001c4 	andeq	r0, r0, r4, asr #3
 258:	20000640 	andcs	r0, r0, r0, asr #12
 25c:	00000038 	andeq	r0, r0, r8, lsr r0
 260:	87080e41 	strhi	r0, [r8, -r1, asr #28]
 264:	41018e02 	tstmi	r1, r2, lsl #28
 268:	0d41100e 	stcleq	0, cr1, [r1, #-56]	; 0xffffffc8
 26c:	00000007 	andeq	r0, r0, r7
 270:	0000000c 	andeq	r0, r0, ip
 274:	ffffffff 			; <UNDEFINED> instruction: 0xffffffff
 278:	7c020001 	stcvc	0, cr0, [r2], {1}
 27c:	000d0c0e 	andeq	r0, sp, lr, lsl #24
 280:	0000001c 	andeq	r0, r0, ip, lsl r0
 284:	00000270 	andeq	r0, r0, r0, ror r2
 288:	20000678 	andcs	r0, r0, r8, ror r6
 28c:	00000034 	andeq	r0, r0, r4, lsr r0
 290:	87080e41 	strhi	r0, [r8, -r1, asr #28]
 294:	41018e02 	tstmi	r1, r2, lsl #28
 298:	0d41180e 	stcleq	8, cr1, [r1, #-56]	; 0xffffffc8
 29c:	00000007 	andeq	r0, r0, r7
 2a0:	0000001c 	andeq	r0, r0, ip, lsl r0
 2a4:	00000270 	andeq	r0, r0, r0, ror r2
 2a8:	200006ac 	andcs	r0, r0, ip, lsr #13
 2ac:	00000066 	andeq	r0, r0, r6, rrx
 2b0:	87080e41 	strhi	r0, [r8, -r1, asr #28]
 2b4:	41018e02 	tstmi	r1, r2, lsl #28
 2b8:	0d41180e 	stcleq	8, cr1, [r1, #-56]	; 0xffffffc8
 2bc:	00000007 	andeq	r0, r0, r7
 2c0:	0000001c 	andeq	r0, r0, ip, lsl r0
 2c4:	00000270 	andeq	r0, r0, r0, ror r2
 2c8:	20000712 	andcs	r0, r0, r2, lsl r7
 2cc:	0000003e 	andeq	r0, r0, lr, lsr r0
 2d0:	87080e41 	strhi	r0, [r8, -r1, asr #28]
 2d4:	41018e02 	tstmi	r1, r2, lsl #28
 2d8:	0d41180e 	stcleq	8, cr1, [r1, #-56]	; 0xffffffc8
 2dc:	00000007 	andeq	r0, r0, r7
 2e0:	0000001c 	andeq	r0, r0, ip, lsl r0
 2e4:	00000270 	andeq	r0, r0, r0, ror r2
 2e8:	20000750 	andcs	r0, r0, r0, asr r7
 2ec:	00000038 	andeq	r0, r0, r8, lsr r0
 2f0:	840c0e41 	strhi	r0, [ip], #-3649	; 0xfffff1bf
 2f4:	8e028703 	cdphi	7, 0, cr8, cr2, cr3, {0}
 2f8:	200e4101 	andcs	r4, lr, r1, lsl #2
 2fc:	00070d41 	andeq	r0, r7, r1, asr #26
 300:	0000000c 	andeq	r0, r0, ip
 304:	ffffffff 			; <UNDEFINED> instruction: 0xffffffff
 308:	7c020001 	stcvc	0, cr0, [r2], {1}
 30c:	000d0c0e 	andeq	r0, sp, lr, lsl #24
 310:	0000001c 	andeq	r0, r0, ip, lsl r0
 314:	00000300 	andeq	r0, r0, r0, lsl #6
 318:	20000788 	andcs	r0, r0, r8, lsl #15
 31c:	00000018 	andeq	r0, r0, r8, lsl r0
 320:	87080e41 	strhi	r0, [r8, -r1, asr #28]
 324:	41018e02 	tstmi	r1, r2, lsl #28
 328:	0d41100e 	stcleq	0, cr1, [r1, #-56]	; 0xffffffc8
 32c:	00000007 	andeq	r0, r0, r7
 330:	00000020 	andeq	r0, r0, r0, lsr #32
 334:	00000300 	andeq	r0, r0, r0, lsl #6
 338:	200007a0 	andcs	r0, r0, r0, lsr #15
 33c:	0000006e 	andeq	r0, r0, lr, rrx
 340:	84100e41 	ldrhi	r0, [r0], #-3649	; 0xfffff1bf
 344:	87038504 	strhi	r8, [r3, -r4, lsl #10]
 348:	41018e02 	tstmi	r1, r2, lsl #28
 34c:	0d41380e 	stcleq	8, cr3, [r1, #-56]	; 0xffffffc8
 350:	00000007 	andeq	r0, r0, r7
 354:	00000020 	andeq	r0, r0, r0, lsr #32
 358:	00000300 	andeq	r0, r0, r0, lsl #6
 35c:	2000080e 	andcs	r0, r0, lr, lsl #16
 360:	00000028 	andeq	r0, r0, r8, lsr #32
 364:	84100e41 	ldrhi	r0, [r0], #-3649	; 0xfffff1bf
 368:	87038504 	strhi	r8, [r3, -r4, lsl #10]
 36c:	41018e02 	tstmi	r1, r2, lsl #28
 370:	0d41180e 	stcleq	8, cr1, [r1, #-56]	; 0xffffffc8
 374:	00000007 	andeq	r0, r0, r7
 378:	0000001c 	andeq	r0, r0, ip, lsl r0
 37c:	00000300 	andeq	r0, r0, r0, lsl #6
 380:	20000836 	andcs	r0, r0, r6, lsr r8
 384:	0000005c 	andeq	r0, r0, ip, asr r0
 388:	840c0e41 	strhi	r0, [ip], #-3649	; 0xfffff1bf
 38c:	8e028703 	cdphi	7, 0, cr8, cr2, cr3, {0}
 390:	200e4101 	andcs	r4, lr, r1, lsl #2
 394:	00070d41 	andeq	r0, r7, r1, asr #26
 398:	0000001c 	andeq	r0, r0, ip, lsl r0
 39c:	00000300 	andeq	r0, r0, r0, lsl #6
 3a0:	20000892 	mulcs	r0, r2, r8
 3a4:	00000036 	andeq	r0, r0, r6, lsr r0
 3a8:	87080e41 	strhi	r0, [r8, -r1, asr #28]
 3ac:	41018e02 	tstmi	r1, r2, lsl #28
 3b0:	0d41180e 	stcleq	8, cr1, [r1, #-56]	; 0xffffffc8
 3b4:	00000007 	andeq	r0, r0, r7
 3b8:	0000001c 	andeq	r0, r0, ip, lsl r0
 3bc:	00000300 	andeq	r0, r0, r0, lsl #6
 3c0:	200008c8 	andcs	r0, r0, r8, asr #17
 3c4:	0000001e 	andeq	r0, r0, lr, lsl r0
 3c8:	87080e41 	strhi	r0, [r8, -r1, asr #28]
 3cc:	41018e02 	tstmi	r1, r2, lsl #28
 3d0:	0d41100e 	stcleq	0, cr1, [r1, #-56]	; 0xffffffc8
 3d4:	00000007 	andeq	r0, r0, r7
 3d8:	0000001c 	andeq	r0, r0, ip, lsl r0
 3dc:	00000300 	andeq	r0, r0, r0, lsl #6
 3e0:	200008e6 	andcs	r0, r0, r6, ror #17
 3e4:	00000030 	andeq	r0, r0, r0, lsr r0
 3e8:	87080e41 	strhi	r0, [r8, -r1, asr #28]
 3ec:	41018e02 	tstmi	r1, r2, lsl #28
 3f0:	0d41180e 	stcleq	8, cr1, [r1, #-56]	; 0xffffffc8
 3f4:	00000007 	andeq	r0, r0, r7
 3f8:	0000001c 	andeq	r0, r0, ip, lsl r0
 3fc:	00000300 	andeq	r0, r0, r0, lsl #6
 400:	20000916 	andcs	r0, r0, r6, lsl r9
 404:	0000001c 	andeq	r0, r0, ip, lsl r0
 408:	87080e41 	strhi	r0, [r8, -r1, asr #28]
 40c:	41018e02 	tstmi	r1, r2, lsl #28
 410:	0d41180e 	stcleq	8, cr1, [r1, #-56]	; 0xffffffc8
 414:	00000007 	andeq	r0, r0, r7
 418:	0000001c 	andeq	r0, r0, ip, lsl r0
 41c:	00000300 	andeq	r0, r0, r0, lsl #6
 420:	20000932 	andcs	r0, r0, r2, lsr r9
 424:	00000030 	andeq	r0, r0, r0, lsr r0
 428:	87080e41 	strhi	r0, [r8, -r1, asr #28]
 42c:	41018e02 	tstmi	r1, r2, lsl #28
 430:	0d41180e 	stcleq	8, cr1, [r1, #-56]	; 0xffffffc8
 434:	00000007 	andeq	r0, r0, r7
 438:	0000001c 	andeq	r0, r0, ip, lsl r0
 43c:	00000300 	andeq	r0, r0, r0, lsl #6
 440:	20000962 	andcs	r0, r0, r2, ror #18
 444:	00000036 	andeq	r0, r0, r6, lsr r0
 448:	87080e41 	strhi	r0, [r8, -r1, asr #28]
 44c:	41018e02 	tstmi	r1, r2, lsl #28
 450:	0d41180e 	stcleq	8, cr1, [r1, #-56]	; 0xffffffc8
 454:	00000007 	andeq	r0, r0, r7
 458:	0000001c 	andeq	r0, r0, ip, lsl r0
 45c:	00000300 	andeq	r0, r0, r0, lsl #6
 460:	20000998 	mulcs	r0, r8, r9
 464:	00000036 	andeq	r0, r0, r6, lsr r0
 468:	87080e41 	strhi	r0, [r8, -r1, asr #28]
 46c:	41018e02 	tstmi	r1, r2, lsl #28
 470:	0d41180e 	stcleq	8, cr1, [r1, #-56]	; 0xffffffc8
 474:	00000007 	andeq	r0, r0, r7
 478:	0000001c 	andeq	r0, r0, ip, lsl r0
 47c:	00000300 	andeq	r0, r0, r0, lsl #6
 480:	200009ce 	andcs	r0, r0, lr, asr #19
 484:	00000032 	andeq	r0, r0, r2, lsr r0
 488:	87080e41 	strhi	r0, [r8, -r1, asr #28]
 48c:	41018e02 	tstmi	r1, r2, lsl #28
 490:	0d41100e 	stcleq	0, cr1, [r1, #-56]	; 0xffffffc8
 494:	00000007 	andeq	r0, r0, r7
 498:	0000001c 	andeq	r0, r0, ip, lsl r0
 49c:	00000300 	andeq	r0, r0, r0, lsl #6
 4a0:	20000a00 	andcs	r0, r0, r0, lsl #20
 4a4:	00000046 	andeq	r0, r0, r6, asr #32
 4a8:	87080e41 	strhi	r0, [r8, -r1, asr #28]
 4ac:	41018e02 	tstmi	r1, r2, lsl #28
 4b0:	0d41180e 	stcleq	8, cr1, [r1, #-56]	; 0xffffffc8
 4b4:	00000007 	andeq	r0, r0, r7
 4b8:	0000001c 	andeq	r0, r0, ip, lsl r0
 4bc:	00000300 	andeq	r0, r0, r0, lsl #6
 4c0:	20000a46 	andcs	r0, r0, r6, asr #20
 4c4:	0000009a 	muleq	r0, sl, r0
 4c8:	840c0e41 	strhi	r0, [ip], #-3649	; 0xfffff1bf
 4cc:	8e028703 	cdphi	7, 0, cr8, cr2, cr3, {0}
 4d0:	280e4101 	stmdacs	lr, {r0, r8, lr}
 4d4:	00070d41 	andeq	r0, r7, r1, asr #26
 4d8:	0000001c 	andeq	r0, r0, ip, lsl r0
 4dc:	00000300 	andeq	r0, r0, r0, lsl #6
 4e0:	20000ae0 	andcs	r0, r0, r0, ror #21
 4e4:	000001ac 	andeq	r0, r0, ip, lsr #3
 4e8:	840c0e41 	strhi	r0, [ip], #-3649	; 0xfffff1bf
 4ec:	8e028703 	cdphi	7, 0, cr8, cr2, cr3, {0}
 4f0:	300e4101 	andcc	r4, lr, r1, lsl #2
 4f4:	20070c41 	andcs	r0, r7, r1, asr #24
 4f8:	0000001c 	andeq	r0, r0, ip, lsl r0
 4fc:	00000300 	andeq	r0, r0, r0, lsl #6
 500:	20000c8c 	andcs	r0, r0, ip, lsl #25
 504:	000000d6 	ldrdeq	r0, [r0], -r6
 508:	840c0e41 	strhi	r0, [ip], #-3649	; 0xfffff1bf
 50c:	8e028703 	cdphi	7, 0, cr8, cr2, cr3, {0}
 510:	680e4101 	stmdavs	lr, {r0, r8, lr}
 514:	48070c41 	stmdami	r7, {r0, r6, sl, fp}
 518:	00000020 	andeq	r0, r0, r0, lsr #32
 51c:	00000300 	andeq	r0, r0, r0, lsl #6
 520:	20000d62 	andcs	r0, r0, r2, ror #26
 524:	0000060c 	andeq	r0, r0, ip, lsl #12
 528:	84140e41 	ldrhi	r0, [r4], #-3649	; 0xfffff1bf
 52c:	86048505 	strhi	r8, [r4], -r5, lsl #10
 530:	8e028703 	cdphi	7, 0, cr8, cr2, cr3, {0}
 534:	780e4101 	stmdavc	lr, {r0, r8, lr}
 538:	60070c41 	andvs	r0, r7, r1, asr #24
 53c:	00000020 	andeq	r0, r0, r0, lsr #32
 540:	00000300 	andeq	r0, r0, r0, lsl #6
 544:	2000136e 	andcs	r1, r0, lr, ror #6
 548:	0000003a 	andeq	r0, r0, sl, lsr r0
 54c:	41100e41 	tstmi	r0, r1, asr #28
 550:	07841c0e 	streq	r1, [r4, lr, lsl #24]
 554:	058e0687 	streq	r0, [lr, #1671]	; 0x687
 558:	41380e41 	teqmi	r8, r1, asr #28
 55c:	0030070c 	eorseq	r0, r0, ip, lsl #14
 560:	00000020 	andeq	r0, r0, r0, lsr #32
 564:	00000300 	andeq	r0, r0, r0, lsl #6
 568:	200013a8 	andcs	r1, r0, r8, lsr #7
 56c:	0000003c 	andeq	r0, r0, ip, lsr r0
 570:	410c0e41 	tstmi	ip, r1, asr #28
 574:	0684180e 	streq	r1, [r4], lr, lsl #16
 578:	048e0587 	streq	r0, [lr], #1415	; 0x587
 57c:	41300e41 	teqmi	r0, r1, asr #28
 580:	0028070c 	eoreq	r0, r8, ip, lsl #14
 584:	00000020 	andeq	r0, r0, r0, lsr #32
 588:	00000300 	andeq	r0, r0, r0, lsl #6
 58c:	200013e4 	andcs	r1, r0, r4, ror #7
 590:	0000003c 	andeq	r0, r0, ip, lsr r0
 594:	41080e41 	tstmi	r8, r1, asr #28
 598:	0584140e 	streq	r1, [r4, #1038]	; 0x40e
 59c:	038e0487 	orreq	r0, lr, #-2030043136	; 0x87000000
 5a0:	41300e41 	teqmi	r0, r1, asr #28
 5a4:	0028070c 	eoreq	r0, r8, ip, lsl #14
 5a8:	0000001c 	andeq	r0, r0, ip, lsl r0
 5ac:	00000300 	andeq	r0, r0, r0, lsl #6
 5b0:	20001420 	andcs	r1, r0, r0, lsr #8
 5b4:	00000030 	andeq	r0, r0, r0, lsr r0
 5b8:	840c0e41 	strhi	r0, [ip], #-3649	; 0xfffff1bf
 5bc:	8e028703 	cdphi	7, 0, cr8, cr2, cr3, {0}
 5c0:	280e4101 	stmdacs	lr, {r0, r8, lr}
 5c4:	20070c41 	andcs	r0, r7, r1, asr #24
 5c8:	0000001c 	andeq	r0, r0, ip, lsl r0
 5cc:	00000300 	andeq	r0, r0, r0, lsl #6
 5d0:	20001450 	andcs	r1, r0, r0, asr r4
 5d4:	00000030 	andeq	r0, r0, r0, lsr r0
 5d8:	840c0e41 	strhi	r0, [ip], #-3649	; 0xfffff1bf
 5dc:	8e028703 	cdphi	7, 0, cr8, cr2, cr3, {0}
 5e0:	280e4101 	stmdacs	lr, {r0, r8, lr}
 5e4:	20070c41 	andcs	r0, r7, r1, asr #24
 5e8:	00000020 	andeq	r0, r0, r0, lsr #32
 5ec:	00000300 	andeq	r0, r0, r0, lsl #6
 5f0:	20001480 	andcs	r1, r0, r0, lsl #9
 5f4:	0000004c 	andeq	r0, r0, ip, asr #32
 5f8:	41080e41 	tstmi	r8, r1, asr #28
 5fc:	0584140e 	streq	r1, [r4, #1038]	; 0x40e
 600:	038e0487 	orreq	r0, lr, #-2030043136	; 0x87000000
 604:	41380e41 	teqmi	r8, r1, asr #28
 608:	0030070c 	eorseq	r0, r0, ip, lsl #14
 60c:	0000000c 	andeq	r0, r0, ip
 610:	ffffffff 			; <UNDEFINED> instruction: 0xffffffff
 614:	7c020001 	stcvc	0, cr0, [r2], {1}
 618:	000d0c0e 	andeq	r0, sp, lr, lsl #24
 61c:	00000020 	andeq	r0, r0, r0, lsr #32
 620:	0000060c 	andeq	r0, r0, ip, lsl #12
 624:	200014cc 	andcs	r1, r0, ip, asr #9
 628:	0000006e 	andeq	r0, r0, lr, rrx
 62c:	84100e41 	ldrhi	r0, [r0], #-3649	; 0xfffff1bf
 630:	87038504 	strhi	r8, [r3, -r4, lsl #10]
 634:	41018e02 	tstmi	r1, r2, lsl #28
 638:	0d41380e 	stcleq	8, cr3, [r1, #-56]	; 0xffffffc8
 63c:	00000007 	andeq	r0, r0, r7
 640:	00000020 	andeq	r0, r0, r0, lsr #32
 644:	0000060c 	andeq	r0, r0, ip, lsl #12
 648:	2000153a 	andcs	r1, r0, sl, lsr r5
 64c:	00000028 	andeq	r0, r0, r8, lsr #32
 650:	84100e41 	ldrhi	r0, [r0], #-3649	; 0xfffff1bf
 654:	87038504 	strhi	r8, [r3, -r4, lsl #10]
 658:	41018e02 	tstmi	r1, r2, lsl #28
 65c:	0d41180e 	stcleq	8, cr1, [r1, #-56]	; 0xffffffc8
 660:	00000007 	andeq	r0, r0, r7
 664:	0000001c 	andeq	r0, r0, ip, lsl r0
 668:	0000060c 	andeq	r0, r0, ip, lsl #12
 66c:	20001562 	andcs	r1, r0, r2, ror #10
 670:	00000122 	andeq	r0, r0, r2, lsr #2
 674:	87080e41 	strhi	r0, [r8, -r1, asr #28]
 678:	41018e02 	tstmi	r1, r2, lsl #28
 67c:	0d41200e 	stcleq	0, cr2, [r1, #-56]	; 0xffffffc8
 680:	00000007 	andeq	r0, r0, r7
 684:	00000018 	andeq	r0, r0, r8, lsl r0
 688:	0000060c 	andeq	r0, r0, ip, lsl #12
 68c:	20001684 	andcs	r1, r0, r4, lsl #13
 690:	0000000c 	andeq	r0, r0, ip
 694:	87080e41 	strhi	r0, [r8, -r1, asr #28]
 698:	41018e02 	tstmi	r1, r2, lsl #28
 69c:	0000070d 	andeq	r0, r0, sp, lsl #14
 6a0:	00000018 	andeq	r0, r0, r8, lsl r0
 6a4:	0000060c 	andeq	r0, r0, ip, lsl #12
 6a8:	20001690 	mulcs	r0, r0, r6
 6ac:	0000000c 	andeq	r0, r0, ip
 6b0:	87080e41 	strhi	r0, [r8, -r1, asr #28]
 6b4:	41018e02 	tstmi	r1, r2, lsl #28
 6b8:	0000070d 	andeq	r0, r0, sp, lsl #14
 6bc:	00000018 	andeq	r0, r0, r8, lsl r0
 6c0:	0000060c 	andeq	r0, r0, ip, lsl #12
 6c4:	2000169c 	mulcs	r0, ip, r6
 6c8:	00000028 	andeq	r0, r0, r8, lsr #32
 6cc:	87080e41 	strhi	r0, [r8, -r1, asr #28]
 6d0:	41018e02 	tstmi	r1, r2, lsl #28
 6d4:	0000070d 	andeq	r0, r0, sp, lsl #14
 6d8:	0000001c 	andeq	r0, r0, ip, lsl r0
 6dc:	0000060c 	andeq	r0, r0, ip, lsl #12
 6e0:	200016c4 	andcs	r1, r0, r4, asr #13
 6e4:	00000034 	andeq	r0, r0, r4, lsr r0
 6e8:	87080e41 	strhi	r0, [r8, -r1, asr #28]
 6ec:	41018e02 	tstmi	r1, r2, lsl #28
 6f0:	0d41100e 	stcleq	0, cr1, [r1, #-56]	; 0xffffffc8
 6f4:	00000007 	andeq	r0, r0, r7
 6f8:	00000018 	andeq	r0, r0, r8, lsl r0
 6fc:	0000060c 	andeq	r0, r0, ip, lsl #12
 700:	200016f8 	strdcs	r1, [r0], -r8
 704:	00000010 	andeq	r0, r0, r0, lsl r0
 708:	87080e41 	strhi	r0, [r8, -r1, asr #28]
 70c:	41018e02 	tstmi	r1, r2, lsl #28
 710:	0000070d 	andeq	r0, r0, sp, lsl #14
 714:	00000018 	andeq	r0, r0, r8, lsl r0
 718:	0000060c 	andeq	r0, r0, ip, lsl #12
 71c:	20001708 	andcs	r1, r0, r8, lsl #14
 720:	0000001e 	andeq	r0, r0, lr, lsl r0
 724:	87080e41 	strhi	r0, [r8, -r1, asr #28]
 728:	41018e02 	tstmi	r1, r2, lsl #28
 72c:	0000070d 	andeq	r0, r0, sp, lsl #14

Disassembly of section .debug_ranges:

00000000 <.debug_ranges>:
   0:	ffffffff 			; <UNDEFINED> instruction: 0xffffffff
   4:	00000000 	andeq	r0, r0, r0
   8:	20000000 	andcs	r0, r0, r0
   c:	20000074 	andcs	r0, r0, r4, ror r0
  10:	20000100 	andcs	r0, r0, r0, lsl #2
  14:	2000011c 	andcs	r0, r0, ip, lsl r1
	...
